
sdram_instrCacheEnabled_dataCacheDisabled.elf:     file format elf32-littlenios2
sdram_instrCacheEnabled_dataCacheDisabled.elf
architecture: nios2:r1, flags 0x00000112:
EXEC_P, HAS_SYMS, D_PAGED
start address 0x00000234

Program Header:
    LOAD off    0x00001020 vaddr 0x04020020 paddr 0x00000000 align 2**12
         filesz 0x00000234 memsz 0x00000234 flags r-x
    LOAD off    0x00002234 vaddr 0x00000234 paddr 0x00000234 align 2**12
         filesz 0x000101c8 memsz 0x000101c8 flags r-x
    LOAD off    0x000123fc vaddr 0x000103fc paddr 0x00011ee8 align 2**12
         filesz 0x00001aec memsz 0x00001aec flags rw-
    LOAD off    0x000149d4 vaddr 0x000139d4 paddr 0x000139d4 align 2**12
         filesz 0x00000000 memsz 0x0000016c flags rw-
    LOAD off    0x00014000 vaddr 0x04020000 paddr 0x04020000 align 2**12
         filesz 0x00000020 memsz 0x00000020 flags r-x

Sections:
Idx Name          Size      VMA       LMA       File off  Algn
  0 .entry        00000020  04020000  04020000  00014000  2**5
                  CONTENTS, ALLOC, LOAD, READONLY, CODE
  1 .exceptions   00000234  04020020  00000000  00001020  2**2
                  CONTENTS, ALLOC, LOAD, READONLY, CODE
  2 .text         0000fc78  00000234  00000234  00002234  2**2
                  CONTENTS, ALLOC, LOAD, READONLY, CODE
  3 .rodata       00000550  0000feac  0000feac  00011eac  2**2
                  CONTENTS, ALLOC, LOAD, READONLY, DATA
  4 .rwdata       00001aec  000103fc  00011ee8  000123fc  2**2
                  CONTENTS, ALLOC, LOAD, DATA, SMALL_DATA
  5 .bss          0000016c  000139d4  000139d4  000149d4  2**2
                  ALLOC, SMALL_DATA
  6 .new_sdram_controller_0 00000000  00013b40  00013b40  00014020  2**0
                  CONTENTS
  7 .onchip_memory2_0 00000000  04020254  04020254  00014020  2**0
                  CONTENTS
  8 .comment      00000023  00000000  00000000  00014020  2**0
                  CONTENTS, READONLY
  9 .debug_aranges 00000ef8  00000000  00000000  00014048  2**3
                  CONTENTS, READONLY, DEBUGGING
 10 .debug_info   000240f1  00000000  00000000  00014f40  2**0
                  CONTENTS, READONLY, DEBUGGING
 11 .debug_abbrev 00009282  00000000  00000000  00039031  2**0
                  CONTENTS, READONLY, DEBUGGING
 12 .debug_line   0000b6cf  00000000  00000000  000422b3  2**0
                  CONTENTS, READONLY, DEBUGGING
 13 .debug_frame  000022d8  00000000  00000000  0004d984  2**2
                  CONTENTS, READONLY, DEBUGGING
 14 .debug_str    00003951  00000000  00000000  0004fc5c  2**0
                  CONTENTS, READONLY, DEBUGGING
 15 .debug_loc    00017975  00000000  00000000  000535ad  2**0
                  CONTENTS, READONLY, DEBUGGING
 16 .debug_alt_sim_info 00000020  00000000  00000000  0006af24  2**2
                  CONTENTS, READONLY, DEBUGGING
 17 .debug_ranges 000018d8  00000000  00000000  0006af48  2**3
                  CONTENTS, READONLY, DEBUGGING
 18 .thread_model 00000003  00000000  00000000  0006fb9a  2**0
                  CONTENTS, READONLY
 19 .cpu          0000000c  00000000  00000000  0006fb9d  2**0
                  CONTENTS, READONLY
 20 .qsys         00000001  00000000  00000000  0006fba9  2**0
                  CONTENTS, READONLY
 21 .simulation_enabled 00000001  00000000  00000000  0006fbaa  2**0
                  CONTENTS, READONLY
 22 .stderr_dev   0000000b  00000000  00000000  0006fbab  2**0
                  CONTENTS, READONLY
 23 .stdin_dev    0000000b  00000000  00000000  0006fbb6  2**0
                  CONTENTS, READONLY
 24 .stdout_dev   0000000b  00000000  00000000  0006fbc1  2**0
                  CONTENTS, READONLY
 25 .sopc_system_name 0000000a  00000000  00000000  0006fbcc  2**0
                  CONTENTS, READONLY
 26 .quartus_project_dir 00000045  00000000  00000000  0006fbd6  2**0
                  CONTENTS, READONLY
 27 .jdi          0000597d  00000000  00000000  0006fc1b  2**0
                  CONTENTS, READONLY
 28 .sopcinfo     00066a16  00000000  00000000  00075598  2**0
                  CONTENTS, READONLY
SYMBOL TABLE:
04020000 l    d  .entry	00000000 .entry
04020020 l    d  .exceptions	00000000 .exceptions
00000234 l    d  .text	00000000 .text
0000feac l    d  .rodata	00000000 .rodata
000103fc l    d  .rwdata	00000000 .rwdata
000139d4 l    d  .bss	00000000 .bss
00013b40 l    d  .new_sdram_controller_0	00000000 .new_sdram_controller_0
04020254 l    d  .onchip_memory2_0	00000000 .onchip_memory2_0
00000000 l    d  .comment	00000000 .comment
00000000 l    d  .debug_aranges	00000000 .debug_aranges
00000000 l    d  .debug_info	00000000 .debug_info
00000000 l    d  .debug_abbrev	00000000 .debug_abbrev
00000000 l    d  .debug_line	00000000 .debug_line
00000000 l    d  .debug_frame	00000000 .debug_frame
00000000 l    d  .debug_str	00000000 .debug_str
00000000 l    d  .debug_loc	00000000 .debug_loc
00000000 l    d  .debug_alt_sim_info	00000000 .debug_alt_sim_info
00000000 l    d  .debug_ranges	00000000 .debug_ranges
00000000 l    df *ABS*	00000000 C:/RTES/variants/sdram_instrCacheEnabled_dataCacheDisabled/sw/nios/sdram_instrCacheEnabled_dataCacheDisabled_bsp//obj/HAL/src/crt0.o
0000026c l       .text	00000000 alt_after_alt_main
00000000 l    df *ABS*	00000000 alt_irq_handler.c
00000000 l    df *ABS*	00000000 alt_instruction_exception_entry.c
00000000 l    df *ABS*	00000000 hello_world.c
00000000 l    df *ABS*	00000000 lib2-divmod.c
00000000 l    df *ABS*	00000000 printf.c
00000000 l    df *ABS*	00000000 vfprintf.c
00010142 l     O .rodata	00000010 zeroes.4404
00002f40 l     F .text	000000bc __sbprintf
00010152 l     O .rodata	00000010 blanks.4403
00000000 l    df *ABS*	00000000 wsetup.c
00000000 l    df *ABS*	00000000 dtoa.c
00003150 l     F .text	00000200 quorem
00000000 l    df *ABS*	00000000 fflush.c
00000000 l    df *ABS*	00000000 findfp.c
00004c80 l     F .text	00000008 __fp_unlock
00004c94 l     F .text	0000019c __sinit.part.1
00004e30 l     F .text	00000008 __fp_lock
00000000 l    df *ABS*	00000000 mallocr.c
00000000 l    df *ABS*	00000000 fwalk.c
00000000 l    df *ABS*	00000000 impure.c
000103fc l     O .rwdata	00000424 impure_data
00000000 l    df *ABS*	00000000 locale.c
00010840 l     O .rwdata	00000020 lc_ctype_charset
00010820 l     O .rwdata	00000020 lc_message_charset
00010860 l     O .rwdata	00000038 lconv
00000000 l    df *ABS*	00000000 makebuf.c
00000000 l    df *ABS*	00000000 mallocr.c
00000000 l    df *ABS*	00000000 memchr.c
00000000 l    df *ABS*	00000000 memcpy.c
00000000 l    df *ABS*	00000000 memset.c
00000000 l    df *ABS*	00000000 mprec.c
00010184 l     O .rodata	0000000c p05.2768
00000000 l    df *ABS*	00000000 s_fpclassify.c
00000000 l    df *ABS*	00000000 sbrkr.c
00000000 l    df *ABS*	00000000 stdio.c
00000000 l    df *ABS*	00000000 strcmp.c
00000000 l    df *ABS*	00000000 strlen.c
00000000 l    df *ABS*	00000000 vfprintf.c
00007748 l     F .text	000000fc __sprint_r.part.0
000102b8 l     O .rodata	00000010 blanks.4348
000102a8 l     O .rodata	00000010 zeroes.4349
00008cd4 l     F .text	000000bc __sbprintf
00000000 l    df *ABS*	00000000 writer.c
00000000 l    df *ABS*	00000000 closer.c
00000000 l    df *ABS*	00000000 mallocr.c
00000000 l    df *ABS*	00000000 fclose.c
00000000 l    df *ABS*	00000000 fputwc.c
00000000 l    df *ABS*	00000000 fstatr.c
00000000 l    df *ABS*	00000000 fvwrite.c
00000000 l    df *ABS*	00000000 int_errno.c
00000000 l    df *ABS*	00000000 isattyr.c
00000000 l    df *ABS*	00000000 lseekr.c
00000000 l    df *ABS*	00000000 memmove.c
00000000 l    df *ABS*	00000000 readr.c
00000000 l    df *ABS*	00000000 mallocr.c
00000000 l    df *ABS*	00000000 wbuf.c
00000000 l    df *ABS*	00000000 wcrtomb.c
00000000 l    df *ABS*	00000000 wctomb_r.c
00000000 l    df *ABS*	00000000 libgcc2.c
00000000 l    df *ABS*	00000000 libgcc2.c
00000000 l    df *ABS*	00000000 adddf3.c
00000000 l    df *ABS*	00000000 divdf3.c
00000000 l    df *ABS*	00000000 eqdf2.c
00000000 l    df *ABS*	00000000 gedf2.c
00000000 l    df *ABS*	00000000 ledf2.c
00000000 l    df *ABS*	00000000 muldf3.c
00000000 l    df *ABS*	00000000 subdf3.c
00000000 l    df *ABS*	00000000 fixdfsi.c
00000000 l    df *ABS*	00000000 floatsidf.c
00000000 l    df *ABS*	00000000 floatunsidf.c
00000000 l    df *ABS*	00000000 libgcc2.c
00000000 l    df *ABS*	00000000 libgcc2.c
00000000 l    df *ABS*	00000000 alt_close.c
0000d358 l     F .text	0000003c alt_get_errno
00000000 l    df *ABS*	00000000 alt_dev.c
0000d464 l     F .text	0000002c alt_dev_null_write
00000000 l    df *ABS*	00000000 alt_errno.c
00000000 l    df *ABS*	00000000 alt_fstat.c
0000d490 l     F .text	0000003c alt_get_errno
00000000 l    df *ABS*	00000000 alt_iic.c
00000000 l    df *ABS*	00000000 alt_iic_isr_register.c
00000000 l    df *ABS*	00000000 alt_irq_vars.c
00000000 l    df *ABS*	00000000 alt_isatty.c
0000d81c l     F .text	0000003c alt_get_errno
00000000 l    df *ABS*	00000000 alt_load.c
0000d8fc l     F .text	00000068 alt_load_section
00000000 l    df *ABS*	00000000 alt_lseek.c
0000d9e8 l     F .text	0000003c alt_get_errno
00000000 l    df *ABS*	00000000 alt_main.c
00000000 l    df *ABS*	00000000 alt_malloc_lock.c
00000000 l    df *ABS*	00000000 alt_printf.c
00000000 l    df *ABS*	00000000 alt_putchar.c
00000000 l    df *ABS*	00000000 alt_read.c
0000de24 l     F .text	0000003c alt_get_errno
00000000 l    df *ABS*	00000000 alt_release_fd.c
00000000 l    df *ABS*	00000000 alt_sbrk.c
00011edc l     O .rwdata	00000004 heap_end
00000000 l    df *ABS*	00000000 alt_write.c
0000e070 l     F .text	0000003c alt_get_errno
00000000 l    df *ABS*	00000000 alt_sys_init.c
0000e1a4 l     F .text	00000034 alt_dev_reg
00010e48 l     O .rwdata	00001060 jtag_uart_0
00000000 l    df *ABS*	00000000 altera_avalon_jtag_uart_fd.c
00000000 l    df *ABS*	00000000 altera_avalon_jtag_uart_init.c
0000e494 l     F .text	0000020c altera_avalon_jtag_uart_irq
0000e6a0 l     F .text	000000a0 altera_avalon_jtag_uart_timeout
00000000 l    df *ABS*	00000000 altera_avalon_jtag_uart_ioctl.c
00000000 l    df *ABS*	00000000 altera_avalon_jtag_uart_read.c
00000000 l    df *ABS*	00000000 altera_avalon_jtag_uart_write.c
00000000 l    df *ABS*	00000000 altera_avalon_timer_sc.c
0000ecd8 l     F .text	00000078 alt_avalon_timer_sc_irq
00000000 l    df *ABS*	00000000 alt_alarm_start.c
00000000 l    df *ABS*	00000000 alt_dcache_flush_all.c
00000000 l    df *ABS*	00000000 alt_dev_llist_insert.c
0000ef18 l     F .text	0000003c alt_get_errno
00000000 l    df *ABS*	00000000 alt_do_ctors.c
00000000 l    df *ABS*	00000000 alt_do_dtors.c
00000000 l    df *ABS*	00000000 alt_icache_flush_all.c
00000000 l    df *ABS*	00000000 alt_io_redirect.c
0000f188 l     F .text	000000c4 alt_open_fd
00000000 l    df *ABS*	00000000 alt_open.c
0000f2c8 l     F .text	0000003c alt_get_errno
0000f304 l     F .text	000000c4 alt_file_locked
00000000 l    df *ABS*	00000000 alt_tick.c
00000000 l    df *ABS*	00000000 altera_nios2_gen2_irq.c
00000000 l    df *ABS*	00000000 alt_find_dev.c
00000000 l    df *ABS*	00000000 alt_find_file.c
00000000 l    df *ABS*	00000000 alt_get_fd.c
00000000 l    df *ABS*	00000000 alt_icache_flush.c
00000000 l    df *ABS*	00000000 atexit.c
00000000 l    df *ABS*	00000000 exit.c
00000000 l    df *ABS*	00000000 memcmp.c
00000000 l    df *ABS*	00000000 putc.c
00000000 l    df *ABS*	00000000 __atexit.c
00000000 l    df *ABS*	00000000 __call_atexit.c
00000000 l    df *ABS*	00000000 alt_exit.c
00013a0c g     O .bss	00000004 alt_instruction_exception_handler
00000a10 g     F .text	00000034 latency_isr_parport
00007258 g     F .text	00000074 _mprec_log10
00007344 g     F .text	0000008c __any_on
0000972c g     F .text	00000054 _isatty_r
00010190 g     O .rodata	00000028 __mprec_tinytens
0000daf8 g     F .text	0000007c alt_main
00013a40 g     O .bss	00000100 alt_irq
00009780 g     F .text	00000060 _lseek_r
00011ee8 g       *ABS*	00000000 __flash_rwdata_start
0000be84 g     F .text	00000088 .hidden __eqdf2
00013b40 g       *ABS*	00000000 __alt_heap_start
00000cf0 g     F .text	0000003c printf
0000a058 g     F .text	0000009c _wcrtomb_r
00007570 g     F .text	0000005c __sseek
00004fd0 g     F .text	00000010 __sinit
00009f00 g     F .text	00000140 __swbuf_r
000055dc g     F .text	0000007c _setlocale_r
00004e38 g     F .text	00000068 __sfmoreglue
0000db98 g     F .text	00000024 __malloc_unlock
000097e0 g     F .text	0000015c memmove
00000270 g     F .text	00000058 test_parallel_port
00004fb8 g     F .text	00000018 _cleanup
000063d4 g     F .text	000000a8 _Balloc
000139d4 g     O .bss	00000004 snaph
0000bf0c g     F .text	000000dc .hidden __gtdf2
0000f6c0 g     F .text	00000024 altera_nios2_gen2_irq_init
04020000 g     F .entry	0000001c __reset
00000000 g       *ABS*	00000000 __flash_exceptions_start
00009214 g     F .text	0000005c _fstat_r
000139f8 g     O .bss	00000004 errno
000074ec g     F .text	00000008 __seofread
00013a04 g     O .bss	00000004 alt_argv
00019ea8 g       *ABS*	00000000 _gp
00010cc8 g     O .rwdata	00000180 alt_fd_list
0000f6e4 g     F .text	00000090 alt_find_dev
00006164 g     F .text	00000148 memcpy
00004c88 g     F .text	0000000c _cleanup_r
0000d170 g     F .text	000000dc .hidden __floatsidf
0000f24c g     F .text	0000007c alt_io_redirect
0000bfe8 g     F .text	000000f4 .hidden __ltdf2
0000feac g       *ABS*	00000000 __DTOR_END__
0000f0ec g     F .text	0000009c alt_exception_cause_generated_bad_addr
000073d0 g     F .text	00000074 __fpclassifyd
000071b4 g     F .text	000000a4 __ratio
00008cb8 g     F .text	0000001c __vfiprintf_internal
0000e898 g     F .text	0000021c altera_avalon_jtag_uart_read
00000cc0 g     F .text	00000030 _printf_r
04020000 g       *ABS*	00000000 __alt_mem_onchip_memory2_0
00000c04 g     F .text	00000064 .hidden __udivsi3
0000d858 g     F .text	000000a4 isatty
000101e0 g     O .rodata	000000c8 __mprec_tens
00005658 g     F .text	0000000c __locale_charset
0000f920 g     F .text	00000090 alt_icache_flush
000139f4 g     O .bss	00000004 __malloc_top_pad
000139d8 g     O .bss	00000004 flag
00011eb0 g     O .rwdata	00000004 __mb_cur_max
00005688 g     F .text	0000000c _localeconv_r
00009270 g     F .text	000004bc __sfvwrite_r
000067e0 g     F .text	0000003c __i2b
00007444 g     F .text	00000054 _sbrk_r
0000993c g     F .text	00000060 _read_r
00011ed0 g     O .rwdata	00000004 alt_max_fd
00008f08 g     F .text	000000f0 _fclose_r
00004c50 g     F .text	00000030 fflush
000139f0 g     O .bss	00000004 __malloc_max_sbrked_mem
0000acf0 g     F .text	000008ac .hidden __adddf3
00006f5c g     F .text	0000010c __b2d
0000a7b8 g     F .text	00000538 .hidden __umoddi3
0000da24 g     F .text	000000d4 lseek
00011ea8 g     O .rwdata	00000004 _global_impure_ptr
0000999c g     F .text	00000564 _realloc_r
00013b40 g       *ABS*	00000000 __bss_end
0000d72c g     F .text	000000f0 alt_iic_isr_register
0000f5b8 g     F .text	00000108 alt_tick
0000a240 g     F .text	00000578 .hidden __udivdi3
00009170 g     F .text	00000024 _fputwc_r
000101b8 g     O .rodata	00000028 __mprec_bigtens
000065c4 g     F .text	00000104 __s2b
0000d24c g     F .text	000000a8 .hidden __floatunsidf
00006c9c g     F .text	00000060 __mcmp
00004ff0 g     F .text	00000018 __fp_lock_all
0000d6e0 g     F .text	0000004c alt_ic_irq_enabled
0000f51c g     F .text	0000009c alt_alarm_stop
00000964 g     F .text	000000ac test_recovtime_parport
000139fc g     O .bss	00000004 alt_irq_active
040200fc g     F .exceptions	000000e4 alt_irq_handler
00010ca0 g     O .rwdata	00000028 alt_dev_null
0000eef8 g     F .text	00000020 alt_dcache_flush_all
000066c8 g     F .text	00000068 __hi0bits
0000d0f0 g     F .text	00000080 .hidden __fixdfsi
00011ee8 g       *ABS*	00000000 __ram_rwdata_end
00011ec8 g     O .rwdata	00000008 alt_dev_list
0000e0ac g     F .text	000000f8 write
0000fa78 g     F .text	000000a0 _putc_r
000103fc g       *ABS*	00000000 __ram_rodata_end
0000d4cc g     F .text	000000b0 fstat
0000bfe8 g     F .text	000000f4 .hidden __ledf2
00006a14 g     F .text	00000140 __pow5mult
0000785c g     F .text	0000145c ___vfiprintf_internal_r
000139e8 g     O .bss	00000004 __nlocale_changed
00000c68 g     F .text	00000058 .hidden __umodsi3
00013b40 g       *ABS*	00000000 end
0000e3d4 g     F .text	000000c0 altera_avalon_jtag_uart_init
040201e0 g     F .exceptions	00000074 alt_instruction_exception_entry
0000feac g       *ABS*	00000000 __CTOR_LIST__
04000000 g       *ABS*	00000000 __alt_stack_pointer
0000ed50 g     F .text	0000007c alt_avalon_timer_sc_init
0000d2f4 g     F .text	00000064 .hidden __clzsi2
0000eab4 g     F .text	00000224 altera_avalon_jtag_uart_write
000007d8 g     F .text	0000018c test_recovtime_print
00004fe0 g     F .text	00000004 __sfp_lock_acquire
00006080 g     F .text	000000e4 memchr
00000d2c g     F .text	000021f8 ___vfprintf_internal_r
00005144 g     F .text	00000310 _free_r
0000dbbc g     F .text	0000022c alt_printf
00005664 g     F .text	00000010 __locale_mb_cur_max
0000fcf8 g     F .text	00000180 __call_exitprocs
000139e4 g     O .bss	00000004 __mlocale_changed
00011eb4 g     O .rwdata	00000004 __malloc_sbrk_base
00000234 g     F .text	0000003c _start
00013a10 g     O .bss	00000004 _alt_tick_rate
000004f8 g     F .text	00000044 resp_isr_parport
00006b54 g     F .text	00000148 __lshift
00013a14 g     O .bss	00000004 _alt_nticks
0000de60 g     F .text	000000fc read
0000e210 g     F .text	00000060 alt_sys_init
0000fbe0 g     F .text	00000118 __register_exitproc
00000a44 g     F .text	0000009c test_latency_parport
0000681c g     F .text	000001f8 __multiply
0000e740 g     F .text	00000068 altera_avalon_jtag_uart_close
000103fc g       *ABS*	00000000 __ram_rwdata_start
0000feac g       *ABS*	00000000 __ram_rodata_start
00013a18 g     O .bss	00000028 __malloc_current_mallinfo
00007068 g     F .text	0000014c __d2b
0000e270 g     F .text	00000060 altera_avalon_jtag_uart_read_fd
0000f87c g     F .text	000000a4 alt_get_fd
00008df0 g     F .text	00000054 _close_r
0000f9fc g     F .text	0000007c memcmp
0000e330 g     F .text	00000050 altera_avalon_jtag_uart_close_fd
00013b40 g       *ABS*	00000000 __alt_stack_base
0000e380 g     F .text	00000054 altera_avalon_jtag_uart_ioctl_fd
00002ffc g     F .text	00000154 __swsetup_r
0000b59c g     F .text	000008e8 .hidden __divdf3
00004ea0 g     F .text	00000118 __sfp
000072cc g     F .text	00000078 __copybits
00010898 g     O .rwdata	00000408 __malloc_av_
00004fec g     F .text	00000004 __sinit_lock_release
0000c0dc g     F .text	00000718 .hidden __muldf3
00007498 g     F .text	00000054 __sread
0000f774 g     F .text	00000108 alt_find_file
0000ef54 g     F .text	000000a4 alt_dev_llist_insert
0000db74 g     F .text	00000024 __malloc_lock
0000dfc0 g     F .text	000000b0 sbrk
00004bf4 g     F .text	0000005c _fflush_r
00008e44 g     F .text	000000c4 _calloc_r
000139d4 g       *ABS*	00000000 __bss_start
000062ac g     F .text	00000128 memset
00000ae0 g     F .text	0000002c main
00013a08 g     O .bss	00000004 alt_envp
000002c8 g     F .text	000001a4 test_counter
000139ec g     O .bss	00000004 __malloc_max_total_mem
0000e2d0 g     F .text	00000060 altera_avalon_jtag_uart_write_fd
0000a040 g     F .text	00000018 __swbuf
000139dc g     O .bss	00000004 snapl
000075cc g     F .text	00000008 __sclose
04000000 g       *ABS*	00000000 __alt_heap_limit
00008ff8 g     F .text	00000014 fclose
00003350 g     F .text	00001688 _dtoa_r
00005874 g     F .text	0000080c _malloc_r
0000a1b4 g     F .text	00000030 __ascii_wctomb
00011ed4 g     O .rwdata	00000004 alt_errno
00005454 g     F .text	000000c4 _fwalk
0000fb18 g     F .text	000000c8 putc
00000b0c g     F .text	00000084 .hidden __divsi3
00005020 g     F .text	00000124 _malloc_trim_r
0000feac g       *ABS*	00000000 __CTOR_END__
000075d4 g     F .text	000000dc strcmp
0000feac g       *ABS*	00000000 __flash_rodata_start
0000feac g       *ABS*	00000000 __DTOR_LIST__
0000be84 g     F .text	00000088 .hidden __nedf2
0000e1d8 g     F .text	00000038 alt_irq_init
0000df5c g     F .text	00000064 alt_release_fd
000102c8 g     O .rodata	00000100 .hidden __clz_tab
000139e0 g     O .bss	00000004 _PathLocale
0000f9b0 g     F .text	00000014 atexit
00008d90 g     F .text	00000060 _write_r
00005694 g     F .text	00000018 setlocale
00011eac g     O .rwdata	00000004 _impure_ptr
00013a00 g     O .bss	00000004 alt_argc
000049d8 g     F .text	0000021c __sflush_r
0000f058 g     F .text	00000060 _do_dtors
00005680 g     F .text	00000008 __locale_cjk_lang
0000053c g     F .text	00000158 test_resptime_print
04020020 g       .exceptions	00000000 alt_irq_entry
00006ef8 g     F .text	00000064 __ulp
00005008 g     F .text	00000018 __fp_unlock_all
00000694 g     F .text	0000009c test_resptime_parport
00011ec0 g     O .rwdata	00000008 alt_fs_list
04020020 g       *ABS*	00000000 __ram_exceptions_start
000056ac g     F .text	0000000c localeconv
00000000 g       *ABS*	00000000 __alt_mem_new_sdram_controller_0
0000d57c g     F .text	00000050 alt_ic_isr_register
00011ee8 g       *ABS*	00000000 _edata
00013b40 g       *ABS*	00000000 _end
0000900c g     F .text	00000164 __fputwc
04020254 g       *ABS*	00000000 __ram_exceptions_end
0000e7a8 g     F .text	000000f0 altera_avalon_jtag_uart_ioctl
0000d654 g     F .text	0000008c alt_ic_irq_disable
000074f4 g     F .text	0000007c __swrite
00011eb8 g     O .rwdata	00000004 __malloc_trim_threshold
00005674 g     F .text	0000000c __locale_msgcharset
00000784 g     F .text	00000054 recov_isr_parport
0000f9c4 g     F .text	00000038 exit
00005518 g     F .text	000000c4 _fwalk_reent
00006cfc g     F .text	000001fc __mdiff
00000b90 g     F .text	00000074 .hidden __modsi3
04000000 g       *ABS*	00000000 __alt_data_end
04020020 g     F .exceptions	00000000 alt_exception
00004fe4 g     F .text	00000004 __sfp_lock_release
0000fe78 g     F .text	00000034 _exit
0000edcc g     F .text	0000012c alt_alarm_start
000056b8 g     F .text	000001bc __smakebuf_r
000076b0 g     F .text	00000098 strlen
0000046c g     F .text	0000008c resp_isr_print
0000f3c8 g     F .text	00000154 open
00000730 g     F .text	00000054 recov_isr_print
0000bf0c g     F .text	000000dc .hidden __gedf2
0000dde8 g     F .text	0000003c alt_putchar
00011ebc g     O .rwdata	00000004 __wctomb
00007844 g     F .text	00000018 __sprint_r
0000f0b8 g     F .text	00000034 alt_icache_flush_all
00011ed8 g     O .rwdata	00000004 alt_priority_mask
0000d5cc g     F .text	00000088 alt_ic_irq_enable
00002f24 g     F .text	0000001c __vfprintf_internal
0000a1e4 g     F .text	0000005c _wctomb_r
0000c7f4 g     F .text	000008fc .hidden __subdf3
00006730 g     F .text	000000b0 __lo0bits
00011ee0 g     O .rwdata	00000008 alt_alarm_list
0000eff8 g     F .text	00000060 _do_ctors
0000a0f4 g     F .text	000000c0 wcrtomb
0000d394 g     F .text	000000d0 close
0000d964 g     F .text	00000084 alt_load
00009194 g     F .text	00000080 fputwc
00004fe8 g     F .text	00000004 __sinit_lock_acquire
000064a4 g     F .text	00000120 __multadd
0000647c g     F .text	00000028 _Bfree



Disassembly of section .entry:

04020000 <__reset>:
 */

#if NIOS2_ICACHE_SIZE > 0 && defined(ALT_ALLOW_CODE_AT_RESET) && (!defined(ALT_SIM_OPTIMIZE) || defined(NIOS2_ECC_PRESENT))
    /* Assume the instruction cache size is always a power of two. */
#if NIOS2_ICACHE_SIZE > 0x8000
    movhi r2, %hi(NIOS2_ICACHE_SIZE)
 4020000:	00800074 	movhi	r2,1
#else
    movui r2, NIOS2_ICACHE_SIZE
#endif

0:
    initi r2
 4020004:	1001483a 	initi	r2
    addi r2, r2, -NIOS2_ICACHE_LINE_SIZE
 4020008:	10bff804 	addi	r2,r2,-32
    bgt r2, zero, 0b
 402000c:	00bffd16 	blt	zero,r2,4020004 <__ram_exceptions_end+0xfffffdb0>
 * Jump to the _start entry point in the .text section if reset code
 * is allowed or if optimizing for RTL simulation.
 */
#if defined(ALT_ALLOW_CODE_AT_RESET) || defined(ALT_SIM_OPTIMIZE)
    /* Jump to the _start entry point in the .text section. */
    movhi r1, %hi(_start)
 4020010:	00400034 	movhi	at,0
    ori r1, r1, %lo(_start)
 4020014:	08408d14 	ori	at,at,564
    jmp r1
 4020018:	0800683a 	jmp	at
 402001c:	00000000 	call	0 <__alt_mem_new_sdram_controller_0>

Disassembly of section .exceptions:

04020020 <alt_exception>:

#else /* ALT_EXCEPTION_STACK disabled */
        /* 
         * Reserve space on normal stack for registers about to be pushed.
         */
        addi  sp, sp, -76
 4020020:	deffed04 	addi	sp,sp,-76
         * documentation for details).
         *
         * Leave a gap in the stack frame at 4(sp) for the muldiv handler to
         * store zero into.
         */
        stw   ra,  0(sp)
 4020024:	dfc00015 	stw	ra,0(sp)
        stw   r1,   8(sp)
 4020028:	d8400215 	stw	at,8(sp)
        stw   r2,  12(sp)
 402002c:	d8800315 	stw	r2,12(sp)
        stw   r3,  16(sp)
 4020030:	d8c00415 	stw	r3,16(sp)
        stw   r4,  20(sp)
 4020034:	d9000515 	stw	r4,20(sp)
        stw   r5,  24(sp)
 4020038:	d9400615 	stw	r5,24(sp)
        stw   r6,  28(sp)
 402003c:	d9800715 	stw	r6,28(sp)
        stw   r7,  32(sp)
 4020040:	d9c00815 	stw	r7,32(sp)
        rdctl r5, estatus   /* Read early to avoid usage stall */
 4020044:	000b307a 	rdctl	r5,estatus
        stw   r8,  36(sp)
 4020048:	da000915 	stw	r8,36(sp)
        stw   r9,  40(sp)
 402004c:	da400a15 	stw	r9,40(sp)
        stw   r10, 44(sp)
 4020050:	da800b15 	stw	r10,44(sp)
        stw   r11, 48(sp)
 4020054:	dac00c15 	stw	r11,48(sp)
        stw   r12, 52(sp)
 4020058:	db000d15 	stw	r12,52(sp)
        stw   r13, 56(sp)
 402005c:	db400e15 	stw	r13,56(sp)
        stw   r14, 60(sp)
 4020060:	db800f15 	stw	r14,60(sp)
        stw   r15, 64(sp)
 4020064:	dbc01015 	stw	r15,64(sp)
        /*
         * ea-4 contains the address of the instruction being executed
         * when the exception occured. For interrupt exceptions, we will
         * will be re-issue the isntruction. Store it in 72(sp)
         */
        stw   r5,  68(sp)  /* estatus */
 4020068:	d9401115 	stw	r5,68(sp)
        addi  r15, ea, -4  /* instruction that caused exception */
 402006c:	ebffff04 	addi	r15,ea,-4
        stw   r15,  72(sp)
 4020070:	dbc01215 	stw	r15,72(sp)
#else
        /*
         * Test to see if the exception was a software exception or caused 
         * by an external interrupt, and vector accordingly.
         */
        rdctl r4, ipending
 4020074:	0009313a 	rdctl	r4,ipending
        andi  r2, r5, 1
 4020078:	2880004c 	andi	r2,r5,1
        beq   r2, zero, .Lnot_irq
 402007c:	10000326 	beq	r2,zero,402008c <alt_exception+0x6c>
        beq   r4, zero, .Lnot_irq
 4020080:	20000226 	beq	r4,zero,402008c <alt_exception+0x6c>
        /*
         * Now that all necessary registers have been preserved, call 
         * alt_irq_handler() to process the interrupts.
         */

        call alt_irq_handler
 4020084:	40200fc0 	call	40200fc <alt_irq_handler>

        .section .exceptions.irqreturn, "xa"

        br    .Lexception_exit
 4020088:	00000706 	br	40200a8 <alt_exception+0x88>
         * upon completion, so we write ea (address of instruction *after*
         * the one where the exception occured) into 72(sp). The actual
         * instruction that caused the exception is written in r2, which these
         * handlers will utilize.
         */
        stw ea, 72(sp) /* EA is PC+4 so will skip over instruction causing exception */
 402008c:	df401215 	stw	ea,72(sp)
.Lunknown_16bit:
        addi.n r4, r4, 2 /* Need PC+2 to skip over instruction causing exception */
        stw r4, 72(sp)

#else /* CDX is not Enabled and all instructions are 32bits */
        ldw r2, -4(ea) /* Instruction value that caused exception */
 4020090:	e8bfff17 	ldw	r2,-4(ea)
         * debugger is present) or go into an infinite loop since the
         * handling behavior is undefined; in that case we will not return here.
         */

        /* Load exception-causing address as first argument (r4) */
        addi   r4, ea, -4
 4020094:	e93fff04 	addi	r4,ea,-4

        /* Call the instruction-exception entry */
        call   alt_instruction_exception_entry
 4020098:	40201e00 	call	40201e0 <alt_instruction_exception_entry>
         * instruction
         *
         * Return code was 0: Skip. The instruction after the exception is
         * already stored in 72(sp).
         */
        bne   r2, r0, .Lexception_exit
 402009c:	1000021e 	bne	r2,zero,40200a8 <alt_exception+0x88>

        /*
         * Otherwise, modify 72(sp) to re-issue the instruction that caused the
         * exception.
         */
        addi  r15, ea, -4  /* instruction that caused exception */
 40200a0:	ebffff04 	addi	r15,ea,-4
        stw   r15,  72(sp)
 40200a4:	dbc01215 	stw	r15,72(sp)
        /* 
         * Restore the saved registers, so that all general purpose registers 
         * have been restored to their state at the time the interrupt occured.
         */

        ldw   r5,  68(sp)
 40200a8:	d9401117 	ldw	r5,68(sp)
        ldw   ea,  72(sp)  /* This becomes the PC once eret is executed */
 40200ac:	df401217 	ldw	ea,72(sp)
        ldw   ra,   0(sp)
 40200b0:	dfc00017 	ldw	ra,0(sp)

        wrctl estatus, r5
 40200b4:	2801707a 	wrctl	estatus,r5

        ldw   r1,   8(sp)
 40200b8:	d8400217 	ldw	at,8(sp)
        ldw   r2,  12(sp)
 40200bc:	d8800317 	ldw	r2,12(sp)
        ldw   r3,  16(sp)
 40200c0:	d8c00417 	ldw	r3,16(sp)
        ldw   r4,  20(sp)
 40200c4:	d9000517 	ldw	r4,20(sp)
        ldw   r5,  24(sp)
 40200c8:	d9400617 	ldw	r5,24(sp)
        ldw   r6,  28(sp)
 40200cc:	d9800717 	ldw	r6,28(sp)
        ldw   r7,  32(sp)
 40200d0:	d9c00817 	ldw	r7,32(sp)

#if defined(ALT_EXCEPTION_STACK) && defined(ALT_STACK_CHECK)
        ldw   et, %gprel(alt_exception_old_stack_limit)(gp)
#endif

        ldw   r8,  36(sp)
 40200d4:	da000917 	ldw	r8,36(sp)
        ldw   r9,  40(sp)
 40200d8:	da400a17 	ldw	r9,40(sp)
        ldw   r10, 44(sp)
 40200dc:	da800b17 	ldw	r10,44(sp)
        ldw   r11, 48(sp)
 40200e0:	dac00c17 	ldw	r11,48(sp)
        ldw   r12, 52(sp)
 40200e4:	db000d17 	ldw	r12,52(sp)
        ldw   r13, 56(sp)
 40200e8:	db400e17 	ldw	r13,56(sp)
        ldw   r14, 60(sp)
 40200ec:	db800f17 	ldw	r14,60(sp)
        ldw   r15, 64(sp)
 40200f0:	dbc01017 	ldw	r15,64(sp)
        stw   et, %gprel(alt_stack_limit_value)(gp)
        stw   zero, %gprel(alt_exception_old_stack_limit)(gp)
#endif /* ALT_STACK_CHECK */
        ldw   sp,  76(sp)
#else /* ALT_EXCEPTION_STACK disabled */
        addi  sp, sp, 76
 40200f4:	dec01304 	addi	sp,sp,76

        /*
         * Return to the interrupted instruction.
         */

        eret
 40200f8:	ef80083a 	eret

040200fc <alt_irq_handler>:
 * instruction is present if the macro ALT_CI_INTERRUPT_VECTOR defined.
 */

void alt_irq_handler (void) __attribute__ ((section (".exceptions")));
void alt_irq_handler (void)
{
 40200fc:	defff904 	addi	sp,sp,-28
 4020100:	dfc00615 	stw	ra,24(sp)
 4020104:	df000515 	stw	fp,20(sp)
 4020108:	df000504 	addi	fp,sp,20
IOWR_32DIRECT(PARALLELPORT_0_BASE, 0, 0x0);
 402010c:	0007883a 	mov	r3,zero
 4020110:	00810134 	movhi	r2,1028
 4020114:	10841004 	addi	r2,r2,4160
 4020118:	10c00035 	stwio	r3,0(r2)
  
  /*
   * Notify the operating system that we are at interrupt level.
   */ 
  
  ALT_OS_INT_ENTER();
 402011c:	0001883a 	nop
#ifndef NIOS2_EIC_PRESENT
static ALT_INLINE alt_u32 ALT_ALWAYS_INLINE alt_irq_pending (void)
{
  alt_u32 active;

  NIOS2_READ_IPENDING (active);
 4020120:	0005313a 	rdctl	r2,ipending
 4020124:	e0bffe15 	stw	r2,-8(fp)

  return active;
 4020128:	e0bffe17 	ldw	r2,-8(fp)
   * Consider the case where the high priority interupt is asserted during
   * the interrupt entry sequence for a lower priority interrupt to see why
   * this is the case.
   */

  active = alt_irq_pending ();
 402012c:	e0bffb15 	stw	r2,-20(fp)

  do
  {
    i = 0;
 4020130:	e03ffd15 	stw	zero,-12(fp)
    mask = 1;
 4020134:	00800044 	movi	r2,1
 4020138:	e0bffc15 	stw	r2,-16(fp)
     * called to clear the interrupt condition.
     */

    do
    {
      if (active & mask)
 402013c:	e0fffb17 	ldw	r3,-20(fp)
 4020140:	e0bffc17 	ldw	r2,-16(fp)
 4020144:	1884703a 	and	r2,r3,r2
 4020148:	10001426 	beq	r2,zero,402019c <alt_irq_handler+0xa0>
      { 
#ifdef ALT_ENHANCED_INTERRUPT_API_PRESENT
        alt_irq[i].handler(alt_irq[i].context); 
 402014c:	00800074 	movhi	r2,1
 4020150:	108e9004 	addi	r2,r2,14912
 4020154:	e0fffd17 	ldw	r3,-12(fp)
 4020158:	180690fa 	slli	r3,r3,3
 402015c:	10c5883a 	add	r2,r2,r3
 4020160:	10c00017 	ldw	r3,0(r2)
 4020164:	00800074 	movhi	r2,1
 4020168:	108e9004 	addi	r2,r2,14912
 402016c:	e13ffd17 	ldw	r4,-12(fp)
 4020170:	200890fa 	slli	r4,r4,3
 4020174:	1105883a 	add	r2,r2,r4
 4020178:	10800104 	addi	r2,r2,4
 402017c:	10800017 	ldw	r2,0(r2)
 4020180:	1009883a 	mov	r4,r2
 4020184:	183ee83a 	callr	r3
#else
        alt_irq[i].handler(alt_irq[i].context, i); 
#endif
        break;
 4020188:	0001883a 	nop
#ifndef NIOS2_EIC_PRESENT
static ALT_INLINE alt_u32 ALT_ALWAYS_INLINE alt_irq_pending (void)
{
  alt_u32 active;

  NIOS2_READ_IPENDING (active);
 402018c:	0005313a 	rdctl	r2,ipending
 4020190:	e0bfff15 	stw	r2,-4(fp)

  return active;
 4020194:	e0bfff17 	ldw	r2,-4(fp)
 4020198:	00000706 	br	40201b8 <alt_irq_handler+0xbc>
      }
      mask <<= 1;
 402019c:	e0bffc17 	ldw	r2,-16(fp)
 40201a0:	1085883a 	add	r2,r2,r2
 40201a4:	e0bffc15 	stw	r2,-16(fp)
      i++;
 40201a8:	e0bffd17 	ldw	r2,-12(fp)
 40201ac:	10800044 	addi	r2,r2,1
 40201b0:	e0bffd15 	stw	r2,-12(fp)

    } while (1);
 40201b4:	003fe106 	br	402013c <__ram_exceptions_end+0xfffffee8>

    active = alt_irq_pending ();
 40201b8:	e0bffb15 	stw	r2,-20(fp)
    
  } while (active);
 40201bc:	e0bffb17 	ldw	r2,-20(fp)
 40201c0:	103fdb1e 	bne	r2,zero,4020130 <__ram_exceptions_end+0xfffffedc>

  /*
   * Notify the operating system that interrupt processing is complete.
   */ 

  ALT_OS_INT_EXIT();
 40201c4:	0001883a 	nop
}
 40201c8:	0001883a 	nop
 40201cc:	e037883a 	mov	sp,fp
 40201d0:	dfc00117 	ldw	ra,4(sp)
 40201d4:	df000017 	ldw	fp,0(sp)
 40201d8:	dec00204 	addi	sp,sp,8
 40201dc:	f800283a 	ret

040201e0 <alt_instruction_exception_entry>:
 * that handler if it has been registered. Absent a handler, it will
 * break break or hang as discussed below.
 */
int 
alt_instruction_exception_entry (alt_u32 exception_pc)
{
 40201e0:	defffb04 	addi	sp,sp,-20
 40201e4:	dfc00415 	stw	ra,16(sp)
 40201e8:	df000315 	stw	fp,12(sp)
 40201ec:	df000304 	addi	fp,sp,12
 40201f0:	e13fff15 	stw	r4,-4(fp)
 * NIOS2_EXCEPTION_CAUSE_NOT_PRESENT. Your handling routine should
 * check the validity of the cause argument before proceeding.
 */
#ifdef NIOS2_HAS_EXTRA_EXCEPTION_INFO
  /* Get exception cause & "badaddr" */
  NIOS2_READ_EXCEPTION(cause);
 40201f4:	000531fa 	rdctl	r2,exception
 40201f8:	e0bffd15 	stw	r2,-12(fp)
  cause = ( (cause & NIOS2_EXCEPTION_REG_CAUSE_MASK) >>
 40201fc:	e0bffd17 	ldw	r2,-12(fp)
 4020200:	10801f0c 	andi	r2,r2,124
 4020204:	1004d0ba 	srli	r2,r2,2
 4020208:	e0bffd15 	stw	r2,-12(fp)
              NIOS2_EXCEPTION_REG_CAUSE_OFST );

  NIOS2_READ_BADADDR(badaddr);
 402020c:	0005333a 	rdctl	r2,badaddr
 4020210:	e0bffe15 	stw	r2,-8(fp)
#else
  cause = NIOS2_EXCEPTION_CAUSE_NOT_PRESENT;
  badaddr = 0;
#endif /* NIOS2_HAS_EXTRA_EXCEPTION_INFO */

  if(alt_instruction_exception_handler) {
 4020214:	d0a6d917 	ldw	r2,-25756(gp)
 4020218:	10000726 	beq	r2,zero,4020238 <alt_instruction_exception_entry+0x58>
     * Call handler. Its return value indicates whether the exception-causing
     * instruction should be re-issued. The code that called us,
     * alt_eceptions_entry.S, will look at this value and adjust the ea
     * register as necessary
     */
    return alt_instruction_exception_handler(cause, exception_pc, badaddr);
 402021c:	d0a6d917 	ldw	r2,-25756(gp)
 4020220:	e0fffd17 	ldw	r3,-12(fp)
 4020224:	e1bffe17 	ldw	r6,-8(fp)
 4020228:	e17fff17 	ldw	r5,-4(fp)
 402022c:	1809883a 	mov	r4,r3
 4020230:	103ee83a 	callr	r2
 4020234:	00000206 	br	4020240 <alt_instruction_exception_entry+0x60>
   *    (a peripheral which negates its interrupt output before its
   *    interrupt handler has been executed will cause spurious interrupts)
   */
  else {
#ifdef NIOS2_HAS_DEBUG_STUB
    NIOS2_BREAK();
 4020238:	003da03a 	break	0
      ;
#endif /* NIOS2_HAS_DEBUG_STUB */
  }

  /* We should not get here. Remove compiler warning. */
  return NIOS2_EXCEPTION_RETURN_REISSUE_INST;
 402023c:	0005883a 	mov	r2,zero
}
 4020240:	e037883a 	mov	sp,fp
 4020244:	dfc00117 	ldw	ra,4(sp)
 4020248:	df000017 	ldw	fp,0(sp)
 402024c:	dec00204 	addi	sp,sp,8
 4020250:	f800283a 	ret

Disassembly of section .text:

00000234 <_start>:

    /*
     * Now that the caches are initialized, set up the stack pointer and global pointer.
     * The values provided by the linker are assumed to be correctly aligned.
     */
    movhi sp, %hi(__alt_stack_pointer)
     234:	06c10034 	movhi	sp,1024
    ori sp, sp, %lo(__alt_stack_pointer)
     238:	dec00014 	ori	sp,sp,0
    movhi gp, %hi(_gp)
     23c:	06800074 	movhi	gp,1
    ori gp, gp, %lo(_gp)
     240:	d6a7aa14 	ori	gp,gp,40616
 */
#ifndef ALT_SIM_OPTIMIZE
    /* Log that the BSS is about to be cleared. */
    ALT_LOG_PUTS(alt_log_msg_bss)

    movhi r2, %hi(__bss_start)
     244:	00800074 	movhi	r2,1
    ori r2, r2, %lo(__bss_start)
     248:	108e7514 	ori	r2,r2,14804

    movhi r3, %hi(__bss_end)
     24c:	00c00074 	movhi	r3,1
    ori r3, r3, %lo(__bss_end)
     250:	18ced014 	ori	r3,r3,15168

    beq r2, r3, 1f
     254:	10c00326 	beq	r2,r3,264 <_start+0x30>

0:
    stw zero, (r2)
     258:	10000015 	stw	zero,0(r2)
    addi r2, r2, 4
     25c:	10800104 	addi	r2,r2,4
    bltu r2, r3, 0b
     260:	10fffd36 	bltu	r2,r3,258 <__ram_exceptions_end+0xfbfe0004>
     * section aren't defined until alt_load() has been called).
     */
    mov   et, zero
#endif

    call alt_load
     264:	000d9640 	call	d964 <alt_load>

    /* Log that alt_main is about to be called. */
    ALT_LOG_PUTS(alt_log_msg_alt_main)

    /* Call the C entry point. It should never return. */
    call alt_main
     268:	000daf80 	call	daf8 <alt_main>

0000026c <alt_after_alt_main>:

    /* Wait in infinite loop in case alt_main does return. */
alt_after_alt_main:
    br alt_after_alt_main
     26c:	003fff06 	br	26c <__ram_exceptions_end+0xfbfe0018>

00000270 <test_parallel_port>:
int snapl;
int snaph;
int flag;

void test_parallel_port()
{
     270:	defffe04 	addi	sp,sp,-8
     274:	dfc00115 	stw	ra,4(sp)
     278:	df000015 	stw	fp,0(sp)
     27c:	d839883a 	mov	fp,sp
	IOWR_32DIRECT(PARALLELPORT_0_BASE, 0, 0x1234abcd);
     280:	00c48d74 	movhi	r3,4661
     284:	18eaf344 	addi	r3,r3,-21555
     288:	00810134 	movhi	r2,1028
     28c:	10841004 	addi	r2,r2,4160
     290:	10c00035 	stwio	r3,0(r2)
	alt_printf("ParallelPort0=%x\n", IORD_32DIRECT(PARALLELPORT_0_BASE, 0));
     294:	00810134 	movhi	r2,1028
     298:	10841004 	addi	r2,r2,4160
     29c:	10800037 	ldwio	r2,0(r2)
     2a0:	100b883a 	mov	r5,r2
     2a4:	01000074 	movhi	r4,1
     2a8:	213fab04 	addi	r4,r4,-340
     2ac:	000dbbc0 	call	dbbc <alt_printf>
}
     2b0:	0001883a 	nop
     2b4:	e037883a 	mov	sp,fp
     2b8:	dfc00117 	ldw	ra,4(sp)
     2bc:	df000017 	ldw	fp,0(sp)
     2c0:	dec00204 	addi	sp,sp,8
     2c4:	f800283a 	ret

000002c8 <test_counter>:

void test_counter()
{
     2c8:	defffe04 	addi	sp,sp,-8
     2cc:	dfc00115 	stw	ra,4(sp)
     2d0:	df000015 	stw	fp,0(sp)
     2d4:	d839883a 	mov	fp,sp
	IOWR_32DIRECT(COUNTER_0_BASE, COUNT_Target, Count_1sec);
     2d8:	00c0bef4 	movhi	r3,763
     2dc:	18fc2004 	addi	r3,r3,-3968
     2e0:	00810134 	movhi	r2,1028
     2e4:	10840e04 	addi	r2,r2,4152
     2e8:	10c00035 	stwio	r3,0(r2)
	IOWR_32DIRECT(COUNTER_0_BASE, COUNT_RZ, arbval);
     2ec:	00ffffd4 	movui	r3,65535
     2f0:	00810134 	movhi	r2,1028
     2f4:	10840904 	addi	r2,r2,4132
     2f8:	10c00035 	stwio	r3,0(r2)
	alt_printf("iCounter after reset=%x\n", IORD_32DIRECT(COUNTER_0_BASE,0));
     2fc:	00810134 	movhi	r2,1028
     300:	10840804 	addi	r2,r2,4128
     304:	10800037 	ldwio	r2,0(r2)
     308:	100b883a 	mov	r5,r2
     30c:	01000074 	movhi	r4,1
     310:	213fb004 	addi	r4,r4,-320
     314:	000dbbc0 	call	dbbc <alt_printf>
	alt_printf("iEn and iEOT=%x\n", IORD_32DIRECT(COUNTER_0_BASE, 20));
     318:	00810134 	movhi	r2,1028
     31c:	10840d04 	addi	r2,r2,4148
     320:	10800037 	ldwio	r2,0(r2)
     324:	100b883a 	mov	r5,r2
     328:	01000074 	movhi	r4,1
     32c:	213fb704 	addi	r4,r4,-292
     330:	000dbbc0 	call	dbbc <alt_printf>
	IOWR_32DIRECT(COUNTER_0_BASE, COUNT_Start, arbval);
     334:	00ffffd4 	movui	r3,65535
     338:	00810134 	movhi	r2,1028
     33c:	10840a04 	addi	r2,r2,4136
     340:	10c00035 	stwio	r3,0(r2)
	alt_printf("iCounter while running=%x\n", IORD_32DIRECT(COUNTER_0_BASE,0));
     344:	00810134 	movhi	r2,1028
     348:	10840804 	addi	r2,r2,4128
     34c:	10800037 	ldwio	r2,0(r2)
     350:	100b883a 	mov	r5,r2
     354:	01000074 	movhi	r4,1
     358:	213fbc04 	addi	r4,r4,-272
     35c:	000dbbc0 	call	dbbc <alt_printf>
	alt_printf("iEn and iEOT=%x\n", IORD_32DIRECT(COUNTER_0_BASE, 20));
     360:	00810134 	movhi	r2,1028
     364:	10840d04 	addi	r2,r2,4148
     368:	10800037 	ldwio	r2,0(r2)
     36c:	100b883a 	mov	r5,r2
     370:	01000074 	movhi	r4,1
     374:	213fb704 	addi	r4,r4,-292
     378:	000dbbc0 	call	dbbc <alt_printf>
	IOWR_32DIRECT(COUNTER_0_BASE, COUNT_Stop, arbval);
     37c:	00ffffd4 	movui	r3,65535
     380:	00810134 	movhi	r2,1028
     384:	10840b04 	addi	r2,r2,4140
     388:	10c00035 	stwio	r3,0(r2)
	alt_printf("iCounter, first read after stop=%x\n", IORD_32DIRECT(COUNTER_0_BASE,0));
     38c:	00810134 	movhi	r2,1028
     390:	10840804 	addi	r2,r2,4128
     394:	10800037 	ldwio	r2,0(r2)
     398:	100b883a 	mov	r5,r2
     39c:	01000074 	movhi	r4,1
     3a0:	213fc304 	addi	r4,r4,-244
     3a4:	000dbbc0 	call	dbbc <alt_printf>
	alt_printf("iCounter, second read after stop=%x\n", IORD_32DIRECT(COUNTER_0_BASE,0));
     3a8:	00810134 	movhi	r2,1028
     3ac:	10840804 	addi	r2,r2,4128
     3b0:	10800037 	ldwio	r2,0(r2)
     3b4:	100b883a 	mov	r5,r2
     3b8:	01000074 	movhi	r4,1
     3bc:	213fcc04 	addi	r4,r4,-208
     3c0:	000dbbc0 	call	dbbc <alt_printf>
	alt_printf("iEn and iEOT=%x\n", IORD_32DIRECT(COUNTER_0_BASE, 20));
     3c4:	00810134 	movhi	r2,1028
     3c8:	10840d04 	addi	r2,r2,4148
     3cc:	10800037 	ldwio	r2,0(r2)
     3d0:	100b883a 	mov	r5,r2
     3d4:	01000074 	movhi	r4,1
     3d8:	213fb704 	addi	r4,r4,-292
     3dc:	000dbbc0 	call	dbbc <alt_printf>
	IOWR_32DIRECT(COUNTER_0_BASE, COUNT_Start, arbval);
     3e0:	00ffffd4 	movui	r3,65535
     3e4:	00810134 	movhi	r2,1028
     3e8:	10840a04 	addi	r2,r2,4136
     3ec:	10c00035 	stwio	r3,0(r2)
	alt_printf("iCounter, first read after restarting=%x\n", IORD_32DIRECT(COUNTER_0_BASE,0));
     3f0:	00810134 	movhi	r2,1028
     3f4:	10840804 	addi	r2,r2,4128
     3f8:	10800037 	ldwio	r2,0(r2)
     3fc:	100b883a 	mov	r5,r2
     400:	01000074 	movhi	r4,1
     404:	213fd604 	addi	r4,r4,-168
     408:	000dbbc0 	call	dbbc <alt_printf>
	alt_printf("iCounter, second read after restarting=%x\n", IORD_32DIRECT(COUNTER_0_BASE,0));
     40c:	00810134 	movhi	r2,1028
     410:	10840804 	addi	r2,r2,4128
     414:	10800037 	ldwio	r2,0(r2)
     418:	100b883a 	mov	r5,r2
     41c:	01000074 	movhi	r4,1
     420:	213fe104 	addi	r4,r4,-124
     424:	000dbbc0 	call	dbbc <alt_printf>
	alt_printf("iEn and iEOT=%x\n", IORD_32DIRECT(COUNTER_0_BASE, 20));
     428:	00810134 	movhi	r2,1028
     42c:	10840d04 	addi	r2,r2,4148
     430:	10800037 	ldwio	r2,0(r2)
     434:	100b883a 	mov	r5,r2
     438:	01000074 	movhi	r4,1
     43c:	213fb704 	addi	r4,r4,-292
     440:	000dbbc0 	call	dbbc <alt_printf>
	IOWR_32DIRECT(COUNTER_0_BASE, COUNT_Stop, arbval);
     444:	00ffffd4 	movui	r3,65535
     448:	00810134 	movhi	r2,1028
     44c:	10840b04 	addi	r2,r2,4140
     450:	10c00035 	stwio	r3,0(r2)
}
     454:	0001883a 	nop
     458:	e037883a 	mov	sp,fp
     45c:	dfc00117 	ldw	ra,4(sp)
     460:	df000017 	ldw	fp,0(sp)
     464:	dec00204 	addi	sp,sp,8
     468:	f800283a 	ret

0000046c <resp_isr_print>:

void resp_isr_print(void* context)
{
     46c:	defffe04 	addi	sp,sp,-8
     470:	df000115 	stw	fp,4(sp)
     474:	df000104 	addi	fp,sp,4
     478:	e13fff15 	stw	r4,-4(fp)
	IOWR_ALTERA_AVALON_TIMER_SNAPL(TIMER_0_BASE, arbval);
     47c:	00ffffd4 	movui	r3,65535
     480:	00810134 	movhi	r2,1028
     484:	10840404 	addi	r2,r2,4112
     488:	10c00035 	stwio	r3,0(r2)
	IOWR_ALTERA_AVALON_TIMER_SNAPH(TIMER_0_BASE, arbval);
     48c:	00ffffd4 	movui	r3,65535
     490:	00810134 	movhi	r2,1028
     494:	10840504 	addi	r2,r2,4116
     498:	10c00035 	stwio	r3,0(r2)
	snapl = IORD_ALTERA_AVALON_TIMER_SNAPL(TIMER_0_BASE);
     49c:	00810134 	movhi	r2,1028
     4a0:	10840404 	addi	r2,r2,4112
     4a4:	10800037 	ldwio	r2,0(r2)
     4a8:	d0a6cd15 	stw	r2,-25804(gp)
	snaph = IORD_ALTERA_AVALON_TIMER_SNAPH(TIMER_0_BASE);
     4ac:	00810134 	movhi	r2,1028
     4b0:	10840504 	addi	r2,r2,4116
     4b4:	10800037 	ldwio	r2,0(r2)
     4b8:	d0a6cb15 	stw	r2,-25812(gp)
	IOWR_ALTERA_AVALON_TIMER_CONTROL(TIMER_0_BASE, 0);
     4bc:	0007883a 	mov	r3,zero
     4c0:	00810134 	movhi	r2,1028
     4c4:	10840104 	addi	r2,r2,4100
     4c8:	10c00035 	stwio	r3,0(r2)
	IOWR_ALTERA_AVALON_TIMER_STATUS(TIMER_0_BASE, 0);
     4cc:	0007883a 	mov	r3,zero
     4d0:	00810134 	movhi	r2,1028
     4d4:	10840004 	addi	r2,r2,4096
     4d8:	10c00035 	stwio	r3,0(r2)
	flag = 1;
     4dc:	00800044 	movi	r2,1
     4e0:	d0a6cc15 	stw	r2,-25808(gp)
}
     4e4:	0001883a 	nop
     4e8:	e037883a 	mov	sp,fp
     4ec:	df000017 	ldw	fp,0(sp)
     4f0:	dec00104 	addi	sp,sp,4
     4f4:	f800283a 	ret

000004f8 <resp_isr_parport>:

void resp_isr_parport(void* context)
{
     4f8:	defffe04 	addi	sp,sp,-8
     4fc:	df000115 	stw	fp,4(sp)
     500:	df000104 	addi	fp,sp,4
     504:	e13fff15 	stw	r4,-4(fp)
	// Record end of response time by setting channel 1 low
	IOWR_32DIRECT(PARALLELPORT_0_BASE, PARPORT_Data, 0x0);
     508:	0007883a 	mov	r3,zero
     50c:	00810134 	movhi	r2,1028
     510:	10841004 	addi	r2,r2,4160
     514:	10c00035 	stwio	r3,0(r2)
	// Clear IRQ
	IOWR_32DIRECT(PARALLELPORT_0_BASE, PARPORT_IRQCLR, arbval);
     518:	00ffffd4 	movui	r3,65535
     51c:	00810134 	movhi	r2,1028
     520:	10841404 	addi	r2,r2,4176
     524:	10c00035 	stwio	r3,0(r2)
}
     528:	0001883a 	nop
     52c:	e037883a 	mov	sp,fp
     530:	df000017 	ldw	fp,0(sp)
     534:	dec00104 	addi	sp,sp,4
     538:	f800283a 	ret

0000053c <test_resptime_print>:

void test_resptime_print()
{
     53c:	defff804 	addi	sp,sp,-32
     540:	dfc00715 	stw	ra,28(sp)
     544:	df000615 	stw	fp,24(sp)
     548:	df000604 	addi	fp,sp,24
	// Register isr
	alt_ic_isr_register(TIMER_0_IRQ_INTERRUPT_CONTROLLER_ID, TIMER_0_IRQ, resp_isr_print, 0, 0);
     54c:	d8000015 	stw	zero,0(sp)
     550:	000f883a 	mov	r7,zero
     554:	01800034 	movhi	r6,0
     558:	31811b04 	addi	r6,r6,1132
     55c:	014000c4 	movi	r5,3
     560:	0009883a 	mov	r4,zero
     564:	000d57c0 	call	d57c <alt_ic_isr_register>
	// Initialize flag value
	flag = 0;
     568:	d026cc15 	stw	zero,-25808(gp)
	// Initialize timer
	IOWR_ALTERA_AVALON_TIMER_CONTROL(TIMER_0_BASE, 0);
     56c:	0007883a 	mov	r3,zero
     570:	00810134 	movhi	r2,1028
     574:	10840104 	addi	r2,r2,4100
     578:	10c00035 	stwio	r3,0(r2)
	IOWR_ALTERA_AVALON_TIMER_PERIODL(TIMER_0_BASE, 0xF080);
     57c:	00fc2014 	movui	r3,61568
     580:	00810134 	movhi	r2,1028
     584:	10840204 	addi	r2,r2,4104
     588:	10c00035 	stwio	r3,0(r2)
	IOWR_ALTERA_AVALON_TIMER_PERIODH(TIMER_0_BASE, 0x02FA);
     58c:	00c0be84 	movi	r3,762
     590:	00810134 	movhi	r2,1028
     594:	10840304 	addi	r2,r2,4108
     598:	10c00035 	stwio	r3,0(r2)
	IOWR_ALTERA_AVALON_TIMER_CONTROL(TIMER_0_BASE, TIMER_settings_start);
     59c:	00c001c4 	movi	r3,7
     5a0:	00810134 	movhi	r2,1028
     5a4:	10840104 	addi	r2,r2,4100
     5a8:	10c00035 	stwio	r3,0(r2)
	// Setup loop structure
	int counter = 0;
     5ac:	e03ffb15 	stw	zero,-20(fp)
	int max_iter = 10;
     5b0:	00800284 	movi	r2,10
     5b4:	e0bffd15 	stw	r2,-12(fp)
	int accum_val = 0;
     5b8:	e03ffc15 	stw	zero,-16(fp)
	int avg_val = 0;
     5bc:	e03ffe15 	stw	zero,-8(fp)
	int snapval = 0;
     5c0:	e03fff15 	stw	zero,-4(fp)
	printf("Testing response time using stock timer and\n"
     5c4:	e17ffd17 	ldw	r5,-12(fp)
     5c8:	01000074 	movhi	r4,1
     5cc:	213fec04 	addi	r4,r4,-80
     5d0:	0000cf00 	call	cf0 <printf>
			" counting the average over %d iterations...\n", max_iter);
	while(counter < max_iter)
     5d4:	00001e06 	br	650 <test_resptime_print+0x114>
	{
		if(flag)
     5d8:	d0a6cc17 	ldw	r2,-25808(gp)
     5dc:	10001c26 	beq	r2,zero,650 <test_resptime_print+0x114>
		{
			snapval = Count_1secH-snaph<<16|Count_1secL-snapl;
     5e0:	d0a6cb17 	ldw	r2,-25812(gp)
     5e4:	00c0be84 	movi	r3,762
     5e8:	1885c83a 	sub	r2,r3,r2
     5ec:	1006943a 	slli	r3,r2,16
     5f0:	d0a6cd17 	ldw	r2,-25804(gp)
     5f4:	013c2014 	movui	r4,61568
     5f8:	2085c83a 	sub	r2,r4,r2
     5fc:	1884b03a 	or	r2,r3,r2
     600:	e0bfff15 	stw	r2,-4(fp)
			alt_printf("Value at iteration %x is 0x%x clock cycles\n", counter+1, snapval);
     604:	e0bffb17 	ldw	r2,-20(fp)
     608:	10800044 	addi	r2,r2,1
     60c:	e1bfff17 	ldw	r6,-4(fp)
     610:	100b883a 	mov	r5,r2
     614:	01000074 	movhi	r4,1
     618:	21000304 	addi	r4,r4,12
     61c:	000dbbc0 	call	dbbc <alt_printf>
			flag = 0;
     620:	d026cc15 	stw	zero,-25808(gp)
			IOWR_ALTERA_AVALON_TIMER_CONTROL(TIMER_0_BASE, TIMER_settings_start);
     624:	00c001c4 	movi	r3,7
     628:	00810134 	movhi	r2,1028
     62c:	10840104 	addi	r2,r2,4100
     630:	10c00035 	stwio	r3,0(r2)
			accum_val += snapval;
     634:	e0fffc17 	ldw	r3,-16(fp)
     638:	e0bfff17 	ldw	r2,-4(fp)
     63c:	1885883a 	add	r2,r3,r2
     640:	e0bffc15 	stw	r2,-16(fp)
			counter += 1;
     644:	e0bffb17 	ldw	r2,-20(fp)
     648:	10800044 	addi	r2,r2,1
     64c:	e0bffb15 	stw	r2,-20(fp)
	int accum_val = 0;
	int avg_val = 0;
	int snapval = 0;
	printf("Testing response time using stock timer and\n"
			" counting the average over %d iterations...\n", max_iter);
	while(counter < max_iter)
     650:	e0fffb17 	ldw	r3,-20(fp)
     654:	e0bffd17 	ldw	r2,-12(fp)
     658:	18bfdf16 	blt	r3,r2,5d8 <__ram_exceptions_end+0xfbfe0384>
			IOWR_ALTERA_AVALON_TIMER_CONTROL(TIMER_0_BASE, TIMER_settings_start);
			accum_val += snapval;
			counter += 1;
		}
	}
	avg_val = accum_val/max_iter;
     65c:	e17ffd17 	ldw	r5,-12(fp)
     660:	e13ffc17 	ldw	r4,-16(fp)
     664:	0000b0c0 	call	b0c <__divsi3>
     668:	e0bffe15 	stw	r2,-8(fp)
	printf("Average value for response time is %d clock cycles", avg_val);
     66c:	e17ffe17 	ldw	r5,-8(fp)
     670:	01000074 	movhi	r4,1
     674:	21000e04 	addi	r4,r4,56
     678:	0000cf00 	call	cf0 <printf>
}
     67c:	0001883a 	nop
     680:	e037883a 	mov	sp,fp
     684:	dfc00117 	ldw	ra,4(sp)
     688:	df000017 	ldw	fp,0(sp)
     68c:	dec00204 	addi	sp,sp,8
     690:	f800283a 	ret

00000694 <test_resptime_parport>:
void test_resptime_parport()
{
     694:	defffb04 	addi	sp,sp,-20
     698:	dfc00415 	stw	ra,16(sp)
     69c:	df000315 	stw	fp,12(sp)
     6a0:	df000304 	addi	fp,sp,12
	// Register isr
	alt_ic_isr_register(PARALLELPORT_0_IRQ_INTERRUPT_CONTROLLER_ID, PARALLELPORT_0_IRQ, resp_isr_parport, 0, 0);
     6a4:	d8000015 	stw	zero,0(sp)
     6a8:	000f883a 	mov	r7,zero
     6ac:	01800034 	movhi	r6,0
     6b0:	31813e04 	addi	r6,r6,1272
     6b4:	01400044 	movi	r5,1
     6b8:	0009883a 	mov	r4,zero
     6bc:	000d57c0 	call	d57c <alt_ic_isr_register>
	IOWR_32DIRECT(PARALLELPORT_0_BASE, PARPORT_Data, 0x0);
     6c0:	0007883a 	mov	r3,zero
     6c4:	00810134 	movhi	r2,1028
     6c8:	10841004 	addi	r2,r2,4160
     6cc:	10c00035 	stwio	r3,0(r2)
	IOWR_32DIRECT(PARALLELPORT_0_BASE, PARPORT_IRQEN, 0x2);
     6d0:	00c00084 	movi	r3,2
     6d4:	00810134 	movhi	r2,1028
     6d8:	10841304 	addi	r2,r2,4172
     6dc:	10c00035 	stwio	r3,0(r2)
	int iterations = 10;
     6e0:	00800284 	movi	r2,10
     6e4:	e0bfff15 	stw	r2,-4(fp)
	int counter = 0;
     6e8:	e03ffe15 	stw	zero,-8(fp)
	while(counter < iterations)
     6ec:	00000706 	br	70c <test_resptime_parport+0x78>
	{
		// Trigger interrupt by setting channel 1 high
		IOWR_32DIRECT(PARALLELPORT_0_BASE, PARPORT_Data, 0x2);
     6f0:	00c00084 	movi	r3,2
     6f4:	00810134 	movhi	r2,1028
     6f8:	10841004 	addi	r2,r2,4160
     6fc:	10c00035 	stwio	r3,0(r2)
		counter += 1;
     700:	e0bffe17 	ldw	r2,-8(fp)
     704:	10800044 	addi	r2,r2,1
     708:	e0bffe15 	stw	r2,-8(fp)
	alt_ic_isr_register(PARALLELPORT_0_IRQ_INTERRUPT_CONTROLLER_ID, PARALLELPORT_0_IRQ, resp_isr_parport, 0, 0);
	IOWR_32DIRECT(PARALLELPORT_0_BASE, PARPORT_Data, 0x0);
	IOWR_32DIRECT(PARALLELPORT_0_BASE, PARPORT_IRQEN, 0x2);
	int iterations = 10;
	int counter = 0;
	while(counter < iterations)
     70c:	e0fffe17 	ldw	r3,-8(fp)
     710:	e0bfff17 	ldw	r2,-4(fp)
     714:	18bff616 	blt	r3,r2,6f0 <__ram_exceptions_end+0xfbfe049c>
	{
		// Trigger interrupt by setting channel 1 high
		IOWR_32DIRECT(PARALLELPORT_0_BASE, PARPORT_Data, 0x2);
		counter += 1;
	}
}
     718:	0001883a 	nop
     71c:	e037883a 	mov	sp,fp
     720:	dfc00117 	ldw	ra,4(sp)
     724:	df000017 	ldw	fp,0(sp)
     728:	dec00204 	addi	sp,sp,8
     72c:	f800283a 	ret

00000730 <recov_isr_print>:

void recov_isr_print(void* context)
{
     730:	defffe04 	addi	sp,sp,-8
     734:	df000115 	stw	fp,4(sp)
     738:	df000104 	addi	fp,sp,4
     73c:	e13fff15 	stw	r4,-4(fp)
	IOWR_ALTERA_AVALON_TIMER_CONTROL(TIMER_0_BASE, 0);
     740:	0007883a 	mov	r3,zero
     744:	00810134 	movhi	r2,1028
     748:	10840104 	addi	r2,r2,4100
     74c:	10c00035 	stwio	r3,0(r2)
	IOWR_ALTERA_AVALON_TIMER_STATUS(TIMER_0_BASE, 0);
     750:	0007883a 	mov	r3,zero
     754:	00810134 	movhi	r2,1028
     758:	10840004 	addi	r2,r2,4096
     75c:	10c00035 	stwio	r3,0(r2)
	IOWR_32DIRECT(COUNTER_0_BASE, COUNT_Start, arbval);
     760:	00ffffd4 	movui	r3,65535
     764:	00810134 	movhi	r2,1028
     768:	10840a04 	addi	r2,r2,4136
     76c:	10c00035 	stwio	r3,0(r2)
}
     770:	0001883a 	nop
     774:	e037883a 	mov	sp,fp
     778:	df000017 	ldw	fp,0(sp)
     77c:	dec00104 	addi	sp,sp,4
     780:	f800283a 	ret

00000784 <recov_isr_parport>:

void recov_isr_parport(void* context)
{
     784:	defffe04 	addi	sp,sp,-8
     788:	df000115 	stw	fp,4(sp)
     78c:	df000104 	addi	fp,sp,4
     790:	e13fff15 	stw	r4,-4(fp)
	// Clear all parport channels
	IOWR_32DIRECT(PARALLELPORT_0_BASE, PARPORT_Data, 0x0);
     794:	0007883a 	mov	r3,zero
     798:	00810134 	movhi	r2,1028
     79c:	10841004 	addi	r2,r2,4160
     7a0:	10c00035 	stwio	r3,0(r2)
	// Clear IRQ
	IOWR_32DIRECT(PARALLELPORT_0_BASE, PARPORT_IRQCLR, arbval);
     7a4:	00ffffd4 	movui	r3,65535
     7a8:	00810134 	movhi	r2,1028
     7ac:	10841404 	addi	r2,r2,4176
     7b0:	10c00035 	stwio	r3,0(r2)
	// Set channel 0 high to record start of recovery time
	IOWR_32DIRECT(PARALLELPORT_0_BASE, PARPORT_Data, 0x1);
     7b4:	00c00044 	movi	r3,1
     7b8:	00810134 	movhi	r2,1028
     7bc:	10841004 	addi	r2,r2,4160
     7c0:	10c00035 	stwio	r3,0(r2)
}
     7c4:	0001883a 	nop
     7c8:	e037883a 	mov	sp,fp
     7cc:	df000017 	ldw	fp,0(sp)
     7d0:	dec00104 	addi	sp,sp,4
     7d4:	f800283a 	ret

000007d8 <test_recovtime_print>:

void test_recovtime_print()
{
     7d8:	defff804 	addi	sp,sp,-32
     7dc:	dfc00715 	stw	ra,28(sp)
     7e0:	df000615 	stw	fp,24(sp)
     7e4:	df000604 	addi	fp,sp,24
	// Register interrupt function
	alt_ic_isr_register(TIMER_0_IRQ_INTERRUPT_CONTROLLER_ID, TIMER_0_IRQ, recov_isr_print, 0, 0);
     7e8:	d8000015 	stw	zero,0(sp)
     7ec:	000f883a 	mov	r7,zero
     7f0:	01800034 	movhi	r6,0
     7f4:	3181cc04 	addi	r6,r6,1840
     7f8:	014000c4 	movi	r5,3
     7fc:	0009883a 	mov	r4,zero
     800:	000d57c0 	call	d57c <alt_ic_isr_register>
	// Initialize counter, with maximum target value
	IOWR_32DIRECT(COUNTER_0_BASE, COUNT_Target, 0xFFFFFFFF);
     804:	00ffffc4 	movi	r3,-1
     808:	00810134 	movhi	r2,1028
     80c:	10840e04 	addi	r2,r2,4152
     810:	10c00035 	stwio	r3,0(r2)
	IOWR_32DIRECT(COUNTER_0_BASE, COUNT_RZ, arbval);
     814:	00ffffd4 	movui	r3,65535
     818:	00810134 	movhi	r2,1028
     81c:	10840904 	addi	r2,r2,4132
     820:	10c00035 	stwio	r3,0(r2)
	// Initialize timer
	IOWR_ALTERA_AVALON_TIMER_CONTROL(TIMER_0_BASE, 0);
     824:	0007883a 	mov	r3,zero
     828:	00810134 	movhi	r2,1028
     82c:	10840104 	addi	r2,r2,4100
     830:	10c00035 	stwio	r3,0(r2)
	IOWR_ALTERA_AVALON_TIMER_PERIODL(TIMER_0_BASE, 0xF080);
     834:	00fc2014 	movui	r3,61568
     838:	00810134 	movhi	r2,1028
     83c:	10840204 	addi	r2,r2,4104
     840:	10c00035 	stwio	r3,0(r2)
	IOWR_ALTERA_AVALON_TIMER_PERIODH(TIMER_0_BASE, 0x02FA);
     844:	00c0be84 	movi	r3,762
     848:	00810134 	movhi	r2,1028
     84c:	10840304 	addi	r2,r2,4108
     850:	10c00035 	stwio	r3,0(r2)
	IOWR_ALTERA_AVALON_TIMER_CONTROL(TIMER_0_BASE, TIMER_settings_start);
     854:	00c001c4 	movi	r3,7
     858:	00810134 	movhi	r2,1028
     85c:	10840104 	addi	r2,r2,4100
     860:	10c00035 	stwio	r3,0(r2)
	// Setup loop structure
	int counter = 0;
     864:	e03ffb15 	stw	zero,-20(fp)
	int max_iter = 10;
     868:	00800284 	movi	r2,10
     86c:	e0bffe15 	stw	r2,-8(fp)
	int accum_val = 0;
     870:	e03ffc15 	stw	zero,-16(fp)
	int avg_val = 0;
     874:	e03fff15 	stw	zero,-4(fp)
	int read_val;
	printf("\n\nTesting recovery time using custom counter and\n"
     878:	e17ffe17 	ldw	r5,-8(fp)
     87c:	01000074 	movhi	r4,1
     880:	21001b04 	addi	r4,r4,108
     884:	0000cf00 	call	cf0 <printf>
			" counting the average over %d iterations...\n", max_iter);
	while(counter < max_iter)
     888:	00002506 	br	920 <test_recovtime_print+0x148>
	{
		read_val = IORD_32DIRECT(COUNTER_0_BASE,0);
     88c:	00810134 	movhi	r2,1028
     890:	10840804 	addi	r2,r2,4128
     894:	10800037 	ldwio	r2,0(r2)
     898:	e0bffd15 	stw	r2,-12(fp)
		while(read_val == 0)
     89c:	00000406 	br	8b0 <test_recovtime_print+0xd8>
		{
			read_val = IORD_32DIRECT(COUNTER_0_BASE,0);
     8a0:	00810134 	movhi	r2,1028
     8a4:	10840804 	addi	r2,r2,4128
     8a8:	10800037 	ldwio	r2,0(r2)
     8ac:	e0bffd15 	stw	r2,-12(fp)
	printf("\n\nTesting recovery time using custom counter and\n"
			" counting the average over %d iterations...\n", max_iter);
	while(counter < max_iter)
	{
		read_val = IORD_32DIRECT(COUNTER_0_BASE,0);
		while(read_val == 0)
     8b0:	e0bffd17 	ldw	r2,-12(fp)
     8b4:	103ffa26 	beq	r2,zero,8a0 <__ram_exceptions_end+0xfbfe064c>
		{
			read_val = IORD_32DIRECT(COUNTER_0_BASE,0);
		}
		alt_printf("Value at iteration %x is 0x%x clock cycles\n", counter+1, read_val);
     8b8:	e0bffb17 	ldw	r2,-20(fp)
     8bc:	10800044 	addi	r2,r2,1
     8c0:	e1bffd17 	ldw	r6,-12(fp)
     8c4:	100b883a 	mov	r5,r2
     8c8:	01000074 	movhi	r4,1
     8cc:	21000304 	addi	r4,r4,12
     8d0:	000dbbc0 	call	dbbc <alt_printf>
		accum_val += read_val;
     8d4:	e0fffc17 	ldw	r3,-16(fp)
     8d8:	e0bffd17 	ldw	r2,-12(fp)
     8dc:	1885883a 	add	r2,r3,r2
     8e0:	e0bffc15 	stw	r2,-16(fp)
		counter += 1;
     8e4:	e0bffb17 	ldw	r2,-20(fp)
     8e8:	10800044 	addi	r2,r2,1
     8ec:	e0bffb15 	stw	r2,-20(fp)
		IOWR_32DIRECT(COUNTER_0_BASE, COUNT_Stop, arbval);
     8f0:	00ffffd4 	movui	r3,65535
     8f4:	00810134 	movhi	r2,1028
     8f8:	10840b04 	addi	r2,r2,4140
     8fc:	10c00035 	stwio	r3,0(r2)
		IOWR_32DIRECT(COUNTER_0_BASE, COUNT_RZ, arbval);
     900:	00ffffd4 	movui	r3,65535
     904:	00810134 	movhi	r2,1028
     908:	10840904 	addi	r2,r2,4132
     90c:	10c00035 	stwio	r3,0(r2)
		IOWR_ALTERA_AVALON_TIMER_CONTROL(TIMER_0_BASE, TIMER_settings_start);
     910:	00c001c4 	movi	r3,7
     914:	00810134 	movhi	r2,1028
     918:	10840104 	addi	r2,r2,4100
     91c:	10c00035 	stwio	r3,0(r2)
	int accum_val = 0;
	int avg_val = 0;
	int read_val;
	printf("\n\nTesting recovery time using custom counter and\n"
			" counting the average over %d iterations...\n", max_iter);
	while(counter < max_iter)
     920:	e0fffb17 	ldw	r3,-20(fp)
     924:	e0bffe17 	ldw	r2,-8(fp)
     928:	18bfd816 	blt	r3,r2,88c <__ram_exceptions_end+0xfbfe0638>
		counter += 1;
		IOWR_32DIRECT(COUNTER_0_BASE, COUNT_Stop, arbval);
		IOWR_32DIRECT(COUNTER_0_BASE, COUNT_RZ, arbval);
		IOWR_ALTERA_AVALON_TIMER_CONTROL(TIMER_0_BASE, TIMER_settings_start);
	}
	avg_val = accum_val/max_iter;
     92c:	e17ffe17 	ldw	r5,-8(fp)
     930:	e13ffc17 	ldw	r4,-16(fp)
     934:	0000b0c0 	call	b0c <__divsi3>
     938:	e0bfff15 	stw	r2,-4(fp)
	printf("Average value for recovery time is %d clock cycles", avg_val);
     93c:	e17fff17 	ldw	r5,-4(fp)
     940:	01000074 	movhi	r4,1
     944:	21003304 	addi	r4,r4,204
     948:	0000cf00 	call	cf0 <printf>
}
     94c:	0001883a 	nop
     950:	e037883a 	mov	sp,fp
     954:	dfc00117 	ldw	ra,4(sp)
     958:	df000017 	ldw	fp,0(sp)
     95c:	dec00204 	addi	sp,sp,8
     960:	f800283a 	ret

00000964 <test_recovtime_parport>:

void test_recovtime_parport()
{
     964:	defffb04 	addi	sp,sp,-20
     968:	dfc00415 	stw	ra,16(sp)
     96c:	df000315 	stw	fp,12(sp)
     970:	df000304 	addi	fp,sp,12
	// Register isr
		alt_ic_isr_register(PARALLELPORT_0_IRQ_INTERRUPT_CONTROLLER_ID, PARALLELPORT_0_IRQ, recov_isr_parport, 0, 0);
     974:	d8000015 	stw	zero,0(sp)
     978:	000f883a 	mov	r7,zero
     97c:	01800034 	movhi	r6,0
     980:	3181e104 	addi	r6,r6,1924
     984:	01400044 	movi	r5,1
     988:	0009883a 	mov	r4,zero
     98c:	000d57c0 	call	d57c <alt_ic_isr_register>
		IOWR_32DIRECT(PARALLELPORT_0_BASE, PARPORT_Data, 0x0);
     990:	0007883a 	mov	r3,zero
     994:	00810134 	movhi	r2,1028
     998:	10841004 	addi	r2,r2,4160
     99c:	10c00035 	stwio	r3,0(r2)
		IOWR_32DIRECT(PARALLELPORT_0_BASE, PARPORT_IRQEN, 0x2);
     9a0:	00c00084 	movi	r3,2
     9a4:	00810134 	movhi	r2,1028
     9a8:	10841304 	addi	r2,r2,4172
     9ac:	10c00035 	stwio	r3,0(r2)
		int iterations = 10;
     9b0:	00800284 	movi	r2,10
     9b4:	e0bfff15 	stw	r2,-4(fp)
		int counter = 0;
     9b8:	e03ffe15 	stw	zero,-8(fp)
		while(counter < iterations)
     9bc:	00000b06 	br	9ec <test_recovtime_parport+0x88>
		{
			// Trigger the interrupt by setting channel 1 high
			IOWR_32DIRECT(PARALLELPORT_0_BASE, PARPORT_Data, 0x2);
     9c0:	00c00084 	movi	r3,2
     9c4:	00810134 	movhi	r2,1028
     9c8:	10841004 	addi	r2,r2,4160
     9cc:	10c00035 	stwio	r3,0(r2)
			// Record end of recovery time by setting channel 0 low
			IOWR_32DIRECT(PARALLELPORT_0_BASE, PARPORT_Data, 0x0);
     9d0:	0007883a 	mov	r3,zero
     9d4:	00810134 	movhi	r2,1028
     9d8:	10841004 	addi	r2,r2,4160
     9dc:	10c00035 	stwio	r3,0(r2)
			counter += 1;
     9e0:	e0bffe17 	ldw	r2,-8(fp)
     9e4:	10800044 	addi	r2,r2,1
     9e8:	e0bffe15 	stw	r2,-8(fp)
		alt_ic_isr_register(PARALLELPORT_0_IRQ_INTERRUPT_CONTROLLER_ID, PARALLELPORT_0_IRQ, recov_isr_parport, 0, 0);
		IOWR_32DIRECT(PARALLELPORT_0_BASE, PARPORT_Data, 0x0);
		IOWR_32DIRECT(PARALLELPORT_0_BASE, PARPORT_IRQEN, 0x2);
		int iterations = 10;
		int counter = 0;
		while(counter < iterations)
     9ec:	e0fffe17 	ldw	r3,-8(fp)
     9f0:	e0bfff17 	ldw	r2,-4(fp)
     9f4:	18bff216 	blt	r3,r2,9c0 <__ram_exceptions_end+0xfbfe076c>
			IOWR_32DIRECT(PARALLELPORT_0_BASE, PARPORT_Data, 0x2);
			// Record end of recovery time by setting channel 0 low
			IOWR_32DIRECT(PARALLELPORT_0_BASE, PARPORT_Data, 0x0);
			counter += 1;
		}
}
     9f8:	0001883a 	nop
     9fc:	e037883a 	mov	sp,fp
     a00:	dfc00117 	ldw	ra,4(sp)
     a04:	df000017 	ldw	fp,0(sp)
     a08:	dec00204 	addi	sp,sp,8
     a0c:	f800283a 	ret

00000a10 <latency_isr_parport>:

void latency_isr_parport(void* context)
{
     a10:	defffe04 	addi	sp,sp,-8
     a14:	df000115 	stw	fp,4(sp)
     a18:	df000104 	addi	fp,sp,4
     a1c:	e13fff15 	stw	r4,-4(fp)
	IOWR_32DIRECT(PARALLELPORT_0_BASE, PARPORT_IRQCLR, arbval);
     a20:	00ffffd4 	movui	r3,65535
     a24:	00810134 	movhi	r2,1028
     a28:	10841404 	addi	r2,r2,4176
     a2c:	10c00035 	stwio	r3,0(r2)
}
     a30:	0001883a 	nop
     a34:	e037883a 	mov	sp,fp
     a38:	df000017 	ldw	fp,0(sp)
     a3c:	dec00104 	addi	sp,sp,4
     a40:	f800283a 	ret

00000a44 <test_latency_parport>:

void test_latency_parport()
{
     a44:	defffb04 	addi	sp,sp,-20
     a48:	dfc00415 	stw	ra,16(sp)
     a4c:	df000315 	stw	fp,12(sp)
     a50:	df000304 	addi	fp,sp,12
	alt_ic_isr_register(PARALLELPORT_0_IRQ_INTERRUPT_CONTROLLER_ID, PARALLELPORT_0_IRQ, latency_isr_parport, 0, 0);
     a54:	d8000015 	stw	zero,0(sp)
     a58:	000f883a 	mov	r7,zero
     a5c:	01800034 	movhi	r6,0
     a60:	31828404 	addi	r6,r6,2576
     a64:	01400044 	movi	r5,1
     a68:	0009883a 	mov	r4,zero
     a6c:	000d57c0 	call	d57c <alt_ic_isr_register>
	IOWR_32DIRECT(PARALLELPORT_0_BASE, PARPORT_Data, 0x0);
     a70:	0007883a 	mov	r3,zero
     a74:	00810134 	movhi	r2,1028
     a78:	10841004 	addi	r2,r2,4160
     a7c:	10c00035 	stwio	r3,0(r2)
	IOWR_32DIRECT(PARALLELPORT_0_BASE, PARPORT_IRQEN, 0x1);
     a80:	00c00044 	movi	r3,1
     a84:	00810134 	movhi	r2,1028
     a88:	10841304 	addi	r2,r2,4172
     a8c:	10c00035 	stwio	r3,0(r2)
	int iterations = 1e2;
     a90:	00801904 	movi	r2,100
     a94:	e0bfff15 	stw	r2,-4(fp)
	int counter = 0;
     a98:	e03ffe15 	stw	zero,-8(fp)
	while(counter < iterations)
     a9c:	00000706 	br	abc <test_latency_parport+0x78>
	{
		// Trigger the interrupt by setting channel 0 high
		IOWR_32DIRECT(PARALLELPORT_0_BASE, PARPORT_Data, 0x1);
     aa0:	00c00044 	movi	r3,1
     aa4:	00810134 	movhi	r2,1028
     aa8:	10841004 	addi	r2,r2,4160
     aac:	10c00035 	stwio	r3,0(r2)

		counter += 1;
     ab0:	e0bffe17 	ldw	r2,-8(fp)
     ab4:	10800044 	addi	r2,r2,1
     ab8:	e0bffe15 	stw	r2,-8(fp)
	alt_ic_isr_register(PARALLELPORT_0_IRQ_INTERRUPT_CONTROLLER_ID, PARALLELPORT_0_IRQ, latency_isr_parport, 0, 0);
	IOWR_32DIRECT(PARALLELPORT_0_BASE, PARPORT_Data, 0x0);
	IOWR_32DIRECT(PARALLELPORT_0_BASE, PARPORT_IRQEN, 0x1);
	int iterations = 1e2;
	int counter = 0;
	while(counter < iterations)
     abc:	e0fffe17 	ldw	r3,-8(fp)
     ac0:	e0bfff17 	ldw	r2,-4(fp)
     ac4:	18bff616 	blt	r3,r2,aa0 <__ram_exceptions_end+0xfbfe084c>
		// Trigger the interrupt by setting channel 0 high
		IOWR_32DIRECT(PARALLELPORT_0_BASE, PARPORT_Data, 0x1);

		counter += 1;
	}
}
     ac8:	0001883a 	nop
     acc:	e037883a 	mov	sp,fp
     ad0:	dfc00117 	ldw	ra,4(sp)
     ad4:	df000017 	ldw	fp,0(sp)
     ad8:	dec00204 	addi	sp,sp,8
     adc:	f800283a 	ret

00000ae0 <main>:

int main()
{
     ae0:	defffe04 	addi	sp,sp,-8
     ae4:	dfc00115 	stw	ra,4(sp)
     ae8:	df000015 	stw	fp,0(sp)
     aec:	d839883a 	mov	fp,sp
	//test_parallel_port();
	//test_counter();

	// Latency tests
	// De-comment line 90 in alt_irq_handler.c to run this test
	test_latency_parport();
     af0:	0000a440 	call	a44 <test_latency_parport>
	//test_resptime_parport();

	// Recovery time tests
	//test_recovtime_print();
	//test_recovtime_parport();
	return 0;
     af4:	0005883a 	mov	r2,zero
}
     af8:	e037883a 	mov	sp,fp
     afc:	dfc00117 	ldw	ra,4(sp)
     b00:	df000017 	ldw	fp,0(sp)
     b04:	dec00204 	addi	sp,sp,8
     b08:	f800283a 	ret

00000b0c <__divsi3>:
     b0c:	20001b16 	blt	r4,zero,b7c <__divsi3+0x70>
     b10:	000f883a 	mov	r7,zero
     b14:	28001616 	blt	r5,zero,b70 <__divsi3+0x64>
     b18:	200d883a 	mov	r6,r4
     b1c:	29001a2e 	bgeu	r5,r4,b88 <__divsi3+0x7c>
     b20:	00800804 	movi	r2,32
     b24:	00c00044 	movi	r3,1
     b28:	00000106 	br	b30 <__divsi3+0x24>
     b2c:	10000d26 	beq	r2,zero,b64 <__divsi3+0x58>
     b30:	294b883a 	add	r5,r5,r5
     b34:	10bfffc4 	addi	r2,r2,-1
     b38:	18c7883a 	add	r3,r3,r3
     b3c:	293ffb36 	bltu	r5,r4,b2c <__ram_exceptions_end+0xfbfe08d8>
     b40:	0005883a 	mov	r2,zero
     b44:	18000726 	beq	r3,zero,b64 <__divsi3+0x58>
     b48:	0005883a 	mov	r2,zero
     b4c:	31400236 	bltu	r6,r5,b58 <__divsi3+0x4c>
     b50:	314dc83a 	sub	r6,r6,r5
     b54:	10c4b03a 	or	r2,r2,r3
     b58:	1806d07a 	srli	r3,r3,1
     b5c:	280ad07a 	srli	r5,r5,1
     b60:	183ffa1e 	bne	r3,zero,b4c <__ram_exceptions_end+0xfbfe08f8>
     b64:	38000126 	beq	r7,zero,b6c <__divsi3+0x60>
     b68:	0085c83a 	sub	r2,zero,r2
     b6c:	f800283a 	ret
     b70:	014bc83a 	sub	r5,zero,r5
     b74:	39c0005c 	xori	r7,r7,1
     b78:	003fe706 	br	b18 <__ram_exceptions_end+0xfbfe08c4>
     b7c:	0109c83a 	sub	r4,zero,r4
     b80:	01c00044 	movi	r7,1
     b84:	003fe306 	br	b14 <__ram_exceptions_end+0xfbfe08c0>
     b88:	00c00044 	movi	r3,1
     b8c:	003fee06 	br	b48 <__ram_exceptions_end+0xfbfe08f4>

00000b90 <__modsi3>:
     b90:	20001716 	blt	r4,zero,bf0 <__modsi3+0x60>
     b94:	000f883a 	mov	r7,zero
     b98:	2005883a 	mov	r2,r4
     b9c:	28001216 	blt	r5,zero,be8 <__modsi3+0x58>
     ba0:	2900162e 	bgeu	r5,r4,bfc <__modsi3+0x6c>
     ba4:	01800804 	movi	r6,32
     ba8:	00c00044 	movi	r3,1
     bac:	00000106 	br	bb4 <__modsi3+0x24>
     bb0:	30000a26 	beq	r6,zero,bdc <__modsi3+0x4c>
     bb4:	294b883a 	add	r5,r5,r5
     bb8:	31bfffc4 	addi	r6,r6,-1
     bbc:	18c7883a 	add	r3,r3,r3
     bc0:	293ffb36 	bltu	r5,r4,bb0 <__ram_exceptions_end+0xfbfe095c>
     bc4:	18000526 	beq	r3,zero,bdc <__modsi3+0x4c>
     bc8:	1806d07a 	srli	r3,r3,1
     bcc:	11400136 	bltu	r2,r5,bd4 <__modsi3+0x44>
     bd0:	1145c83a 	sub	r2,r2,r5
     bd4:	280ad07a 	srli	r5,r5,1
     bd8:	183ffb1e 	bne	r3,zero,bc8 <__ram_exceptions_end+0xfbfe0974>
     bdc:	38000126 	beq	r7,zero,be4 <__modsi3+0x54>
     be0:	0085c83a 	sub	r2,zero,r2
     be4:	f800283a 	ret
     be8:	014bc83a 	sub	r5,zero,r5
     bec:	003fec06 	br	ba0 <__ram_exceptions_end+0xfbfe094c>
     bf0:	0109c83a 	sub	r4,zero,r4
     bf4:	01c00044 	movi	r7,1
     bf8:	003fe706 	br	b98 <__ram_exceptions_end+0xfbfe0944>
     bfc:	00c00044 	movi	r3,1
     c00:	003ff106 	br	bc8 <__ram_exceptions_end+0xfbfe0974>

00000c04 <__udivsi3>:
     c04:	200d883a 	mov	r6,r4
     c08:	2900152e 	bgeu	r5,r4,c60 <__udivsi3+0x5c>
     c0c:	28001416 	blt	r5,zero,c60 <__udivsi3+0x5c>
     c10:	00800804 	movi	r2,32
     c14:	00c00044 	movi	r3,1
     c18:	00000206 	br	c24 <__udivsi3+0x20>
     c1c:	10000e26 	beq	r2,zero,c58 <__udivsi3+0x54>
     c20:	28000516 	blt	r5,zero,c38 <__udivsi3+0x34>
     c24:	294b883a 	add	r5,r5,r5
     c28:	10bfffc4 	addi	r2,r2,-1
     c2c:	18c7883a 	add	r3,r3,r3
     c30:	293ffa36 	bltu	r5,r4,c1c <__ram_exceptions_end+0xfbfe09c8>
     c34:	18000826 	beq	r3,zero,c58 <__udivsi3+0x54>
     c38:	0005883a 	mov	r2,zero
     c3c:	31400236 	bltu	r6,r5,c48 <__udivsi3+0x44>
     c40:	314dc83a 	sub	r6,r6,r5
     c44:	10c4b03a 	or	r2,r2,r3
     c48:	1806d07a 	srli	r3,r3,1
     c4c:	280ad07a 	srli	r5,r5,1
     c50:	183ffa1e 	bne	r3,zero,c3c <__ram_exceptions_end+0xfbfe09e8>
     c54:	f800283a 	ret
     c58:	0005883a 	mov	r2,zero
     c5c:	f800283a 	ret
     c60:	00c00044 	movi	r3,1
     c64:	003ff406 	br	c38 <__ram_exceptions_end+0xfbfe09e4>

00000c68 <__umodsi3>:
     c68:	2005883a 	mov	r2,r4
     c6c:	2900122e 	bgeu	r5,r4,cb8 <__umodsi3+0x50>
     c70:	28001116 	blt	r5,zero,cb8 <__umodsi3+0x50>
     c74:	01800804 	movi	r6,32
     c78:	00c00044 	movi	r3,1
     c7c:	00000206 	br	c88 <__umodsi3+0x20>
     c80:	30000c26 	beq	r6,zero,cb4 <__umodsi3+0x4c>
     c84:	28000516 	blt	r5,zero,c9c <__umodsi3+0x34>
     c88:	294b883a 	add	r5,r5,r5
     c8c:	31bfffc4 	addi	r6,r6,-1
     c90:	18c7883a 	add	r3,r3,r3
     c94:	293ffa36 	bltu	r5,r4,c80 <__ram_exceptions_end+0xfbfe0a2c>
     c98:	18000626 	beq	r3,zero,cb4 <__umodsi3+0x4c>
     c9c:	1806d07a 	srli	r3,r3,1
     ca0:	11400136 	bltu	r2,r5,ca8 <__umodsi3+0x40>
     ca4:	1145c83a 	sub	r2,r2,r5
     ca8:	280ad07a 	srli	r5,r5,1
     cac:	183ffb1e 	bne	r3,zero,c9c <__ram_exceptions_end+0xfbfe0a48>
     cb0:	f800283a 	ret
     cb4:	f800283a 	ret
     cb8:	00c00044 	movi	r3,1
     cbc:	003ff706 	br	c9c <__ram_exceptions_end+0xfbfe0a48>

00000cc0 <_printf_r>:
     cc0:	defffd04 	addi	sp,sp,-12
     cc4:	2805883a 	mov	r2,r5
     cc8:	dfc00015 	stw	ra,0(sp)
     ccc:	d9800115 	stw	r6,4(sp)
     cd0:	d9c00215 	stw	r7,8(sp)
     cd4:	21400217 	ldw	r5,8(r4)
     cd8:	d9c00104 	addi	r7,sp,4
     cdc:	100d883a 	mov	r6,r2
     ce0:	0000d2c0 	call	d2c <___vfprintf_internal_r>
     ce4:	dfc00017 	ldw	ra,0(sp)
     ce8:	dec00304 	addi	sp,sp,12
     cec:	f800283a 	ret

00000cf0 <printf>:
     cf0:	defffc04 	addi	sp,sp,-16
     cf4:	dfc00015 	stw	ra,0(sp)
     cf8:	d9400115 	stw	r5,4(sp)
     cfc:	d9800215 	stw	r6,8(sp)
     d00:	d9c00315 	stw	r7,12(sp)
     d04:	00800074 	movhi	r2,1
     d08:	1087ab04 	addi	r2,r2,7852
     d0c:	10800017 	ldw	r2,0(r2)
     d10:	200b883a 	mov	r5,r4
     d14:	d9800104 	addi	r6,sp,4
     d18:	11000217 	ldw	r4,8(r2)
     d1c:	0002f240 	call	2f24 <__vfprintf_internal>
     d20:	dfc00017 	ldw	ra,0(sp)
     d24:	dec00404 	addi	sp,sp,16
     d28:	f800283a 	ret

00000d2c <___vfprintf_internal_r>:
     d2c:	deffb804 	addi	sp,sp,-288
     d30:	dfc04715 	stw	ra,284(sp)
     d34:	ddc04515 	stw	r23,276(sp)
     d38:	dd404315 	stw	r21,268(sp)
     d3c:	d9002c15 	stw	r4,176(sp)
     d40:	282f883a 	mov	r23,r5
     d44:	302b883a 	mov	r21,r6
     d48:	d9c02d15 	stw	r7,180(sp)
     d4c:	df004615 	stw	fp,280(sp)
     d50:	dd804415 	stw	r22,272(sp)
     d54:	dd004215 	stw	r20,264(sp)
     d58:	dcc04115 	stw	r19,260(sp)
     d5c:	dc804015 	stw	r18,256(sp)
     d60:	dc403f15 	stw	r17,252(sp)
     d64:	dc003e15 	stw	r16,248(sp)
     d68:	00056880 	call	5688 <_localeconv_r>
     d6c:	10800017 	ldw	r2,0(r2)
     d70:	1009883a 	mov	r4,r2
     d74:	d8803415 	stw	r2,208(sp)
     d78:	00076b00 	call	76b0 <strlen>
     d7c:	d8803715 	stw	r2,220(sp)
     d80:	d8802c17 	ldw	r2,176(sp)
     d84:	10000226 	beq	r2,zero,d90 <___vfprintf_internal_r+0x64>
     d88:	10800e17 	ldw	r2,56(r2)
     d8c:	1000f926 	beq	r2,zero,1174 <___vfprintf_internal_r+0x448>
     d90:	b880030b 	ldhu	r2,12(r23)
     d94:	10c8000c 	andi	r3,r2,8192
     d98:	1800061e 	bne	r3,zero,db4 <___vfprintf_internal_r+0x88>
     d9c:	b9001917 	ldw	r4,100(r23)
     da0:	00f7ffc4 	movi	r3,-8193
     da4:	10880014 	ori	r2,r2,8192
     da8:	20c6703a 	and	r3,r4,r3
     dac:	b880030d 	sth	r2,12(r23)
     db0:	b8c01915 	stw	r3,100(r23)
     db4:	10c0020c 	andi	r3,r2,8
     db8:	1800c126 	beq	r3,zero,10c0 <___vfprintf_internal_r+0x394>
     dbc:	b8c00417 	ldw	r3,16(r23)
     dc0:	1800bf26 	beq	r3,zero,10c0 <___vfprintf_internal_r+0x394>
     dc4:	1080068c 	andi	r2,r2,26
     dc8:	00c00284 	movi	r3,10
     dcc:	10c0c426 	beq	r2,r3,10e0 <___vfprintf_internal_r+0x3b4>
     dd0:	d8c00404 	addi	r3,sp,16
     dd4:	05000074 	movhi	r20,1
     dd8:	d9001e04 	addi	r4,sp,120
     ddc:	a5005084 	addi	r20,r20,322
     de0:	d8c01e15 	stw	r3,120(sp)
     de4:	d8002015 	stw	zero,128(sp)
     de8:	d8001f15 	stw	zero,124(sp)
     dec:	d8003315 	stw	zero,204(sp)
     df0:	d8003615 	stw	zero,216(sp)
     df4:	d8003815 	stw	zero,224(sp)
     df8:	1811883a 	mov	r8,r3
     dfc:	d8003915 	stw	zero,228(sp)
     e00:	d8003a15 	stw	zero,232(sp)
     e04:	d8002f15 	stw	zero,188(sp)
     e08:	d9002815 	stw	r4,160(sp)
     e0c:	a8800007 	ldb	r2,0(r21)
     e10:	10027b26 	beq	r2,zero,1800 <___vfprintf_internal_r+0xad4>
     e14:	00c00944 	movi	r3,37
     e18:	a821883a 	mov	r16,r21
     e1c:	10c0021e 	bne	r2,r3,e28 <___vfprintf_internal_r+0xfc>
     e20:	00001406 	br	e74 <___vfprintf_internal_r+0x148>
     e24:	10c00326 	beq	r2,r3,e34 <___vfprintf_internal_r+0x108>
     e28:	84000044 	addi	r16,r16,1
     e2c:	80800007 	ldb	r2,0(r16)
     e30:	103ffc1e 	bne	r2,zero,e24 <__ram_exceptions_end+0xfbfe0bd0>
     e34:	8563c83a 	sub	r17,r16,r21
     e38:	88000e26 	beq	r17,zero,e74 <___vfprintf_internal_r+0x148>
     e3c:	d8c02017 	ldw	r3,128(sp)
     e40:	d8801f17 	ldw	r2,124(sp)
     e44:	45400015 	stw	r21,0(r8)
     e48:	1c47883a 	add	r3,r3,r17
     e4c:	10800044 	addi	r2,r2,1
     e50:	d8c02015 	stw	r3,128(sp)
     e54:	44400115 	stw	r17,4(r8)
     e58:	d8801f15 	stw	r2,124(sp)
     e5c:	00c001c4 	movi	r3,7
     e60:	1880a716 	blt	r3,r2,1100 <___vfprintf_internal_r+0x3d4>
     e64:	42000204 	addi	r8,r8,8
     e68:	d9402f17 	ldw	r5,188(sp)
     e6c:	2c4b883a 	add	r5,r5,r17
     e70:	d9402f15 	stw	r5,188(sp)
     e74:	80800007 	ldb	r2,0(r16)
     e78:	1000a826 	beq	r2,zero,111c <___vfprintf_internal_r+0x3f0>
     e7c:	84400047 	ldb	r17,1(r16)
     e80:	00bfffc4 	movi	r2,-1
     e84:	85400044 	addi	r21,r16,1
     e88:	d8002785 	stb	zero,158(sp)
     e8c:	0007883a 	mov	r3,zero
     e90:	000f883a 	mov	r7,zero
     e94:	d8802915 	stw	r2,164(sp)
     e98:	d8003115 	stw	zero,196(sp)
     e9c:	0025883a 	mov	r18,zero
     ea0:	01401604 	movi	r5,88
     ea4:	01800244 	movi	r6,9
     ea8:	02800a84 	movi	r10,42
     eac:	02401b04 	movi	r9,108
     eb0:	ad400044 	addi	r21,r21,1
     eb4:	88bff804 	addi	r2,r17,-32
     eb8:	28830436 	bltu	r5,r2,1acc <___vfprintf_internal_r+0xda0>
     ebc:	100490ba 	slli	r2,r2,2
     ec0:	01000034 	movhi	r4,0
     ec4:	2103b504 	addi	r4,r4,3796
     ec8:	1105883a 	add	r2,r2,r4
     ecc:	10800017 	ldw	r2,0(r2)
     ed0:	1000683a 	jmp	r2
     ed4:	000019ec 	andhi	zero,zero,103
     ed8:	00001acc 	andi	zero,zero,107
     edc:	00001acc 	andi	zero,zero,107
     ee0:	00001a0c 	andi	zero,zero,104
     ee4:	00001acc 	andi	zero,zero,107
     ee8:	00001acc 	andi	zero,zero,107
     eec:	00001acc 	andi	zero,zero,107
     ef0:	00001acc 	andi	zero,zero,107
     ef4:	00001acc 	andi	zero,zero,107
     ef8:	00001acc 	andi	zero,zero,107
     efc:	00001180 	call	118 <__alt_mem_new_sdram_controller_0+0x118>
     f00:	00001928 	cmpgeui	zero,zero,100
     f04:	00001acc 	andi	zero,zero,107
     f08:	00001048 	cmpgei	zero,zero,65
     f0c:	000011a8 	cmpgeui	zero,zero,70
     f10:	00001acc 	andi	zero,zero,107
     f14:	000011e8 	cmpgeui	zero,zero,71
     f18:	000011f4 	movhi	zero,71
     f1c:	000011f4 	movhi	zero,71
     f20:	000011f4 	movhi	zero,71
     f24:	000011f4 	movhi	zero,71
     f28:	000011f4 	movhi	zero,71
     f2c:	000011f4 	movhi	zero,71
     f30:	000011f4 	movhi	zero,71
     f34:	000011f4 	movhi	zero,71
     f38:	000011f4 	movhi	zero,71
     f3c:	00001acc 	andi	zero,zero,107
     f40:	00001acc 	andi	zero,zero,107
     f44:	00001acc 	andi	zero,zero,107
     f48:	00001acc 	andi	zero,zero,107
     f4c:	00001acc 	andi	zero,zero,107
     f50:	00001acc 	andi	zero,zero,107
     f54:	00001acc 	andi	zero,zero,107
     f58:	00001acc 	andi	zero,zero,107
     f5c:	00001acc 	andi	zero,zero,107
     f60:	00001acc 	andi	zero,zero,107
     f64:	00001228 	cmpgeui	zero,zero,72
     f68:	000012e4 	muli	zero,zero,75
     f6c:	00001acc 	andi	zero,zero,107
     f70:	000012e4 	muli	zero,zero,75
     f74:	00001acc 	andi	zero,zero,107
     f78:	00001acc 	andi	zero,zero,107
     f7c:	00001acc 	andi	zero,zero,107
     f80:	00001acc 	andi	zero,zero,107
     f84:	00001384 	movi	zero,78
     f88:	00001acc 	andi	zero,zero,107
     f8c:	00001acc 	andi	zero,zero,107
     f90:	00001390 	cmplti	zero,zero,78
     f94:	00001acc 	andi	zero,zero,107
     f98:	00001acc 	andi	zero,zero,107
     f9c:	00001acc 	andi	zero,zero,107
     fa0:	00001acc 	andi	zero,zero,107
     fa4:	00001acc 	andi	zero,zero,107
     fa8:	00001808 	cmpgei	zero,zero,96
     fac:	00001acc 	andi	zero,zero,107
     fb0:	00001acc 	andi	zero,zero,107
     fb4:	00001868 	cmpgeui	zero,zero,97
     fb8:	00001acc 	andi	zero,zero,107
     fbc:	00001acc 	andi	zero,zero,107
     fc0:	00001acc 	andi	zero,zero,107
     fc4:	00001acc 	andi	zero,zero,107
     fc8:	00001acc 	andi	zero,zero,107
     fcc:	00001acc 	andi	zero,zero,107
     fd0:	00001acc 	andi	zero,zero,107
     fd4:	00001acc 	andi	zero,zero,107
     fd8:	00001acc 	andi	zero,zero,107
     fdc:	00001acc 	andi	zero,zero,107
     fe0:	00001a78 	rdprs	zero,zero,105
     fe4:	00001a18 	cmpnei	zero,zero,104
     fe8:	000012e4 	muli	zero,zero,75
     fec:	000012e4 	muli	zero,zero,75
     ff0:	000012e4 	muli	zero,zero,75
     ff4:	00001a28 	cmpgeui	zero,zero,104
     ff8:	00001a18 	cmpnei	zero,zero,104
     ffc:	00001acc 	andi	zero,zero,107
    1000:	00001acc 	andi	zero,zero,107
    1004:	00001a34 	movhi	zero,104
    1008:	00001acc 	andi	zero,zero,107
    100c:	00001a44 	movi	zero,105
    1010:	00001918 	cmpnei	zero,zero,100
    1014:	00001054 	movui	zero,65
    1018:	00001938 	rdprs	zero,zero,100
    101c:	00001acc 	andi	zero,zero,107
    1020:	00001944 	movi	zero,101
    1024:	00001acc 	andi	zero,zero,107
    1028:	000019a0 	cmpeqi	zero,zero,102
    102c:	00001acc 	andi	zero,zero,107
    1030:	00001acc 	andi	zero,zero,107
    1034:	000019b0 	cmpltui	zero,zero,102
    1038:	d9003117 	ldw	r4,196(sp)
    103c:	d8802d15 	stw	r2,180(sp)
    1040:	0109c83a 	sub	r4,zero,r4
    1044:	d9003115 	stw	r4,196(sp)
    1048:	94800114 	ori	r18,r18,4
    104c:	ac400007 	ldb	r17,0(r21)
    1050:	003f9706 	br	eb0 <__ram_exceptions_end+0xfbfe0c5c>
    1054:	00800c04 	movi	r2,48
    1058:	d9002d17 	ldw	r4,180(sp)
    105c:	d9402917 	ldw	r5,164(sp)
    1060:	d8802705 	stb	r2,156(sp)
    1064:	00801e04 	movi	r2,120
    1068:	d8802745 	stb	r2,157(sp)
    106c:	d8002785 	stb	zero,158(sp)
    1070:	20c00104 	addi	r3,r4,4
    1074:	24c00017 	ldw	r19,0(r4)
    1078:	002d883a 	mov	r22,zero
    107c:	90800094 	ori	r2,r18,2
    1080:	28029a16 	blt	r5,zero,1aec <___vfprintf_internal_r+0xdc0>
    1084:	00bfdfc4 	movi	r2,-129
    1088:	90a4703a 	and	r18,r18,r2
    108c:	d8c02d15 	stw	r3,180(sp)
    1090:	94800094 	ori	r18,r18,2
    1094:	9802871e 	bne	r19,zero,1ab4 <___vfprintf_internal_r+0xd88>
    1098:	00800074 	movhi	r2,1
    109c:	10804904 	addi	r2,r2,292
    10a0:	d8803915 	stw	r2,228(sp)
    10a4:	04401e04 	movi	r17,120
    10a8:	d8802917 	ldw	r2,164(sp)
    10ac:	0039883a 	mov	fp,zero
    10b0:	1001e926 	beq	r2,zero,1858 <___vfprintf_internal_r+0xb2c>
    10b4:	0027883a 	mov	r19,zero
    10b8:	002d883a 	mov	r22,zero
    10bc:	00020506 	br	18d4 <___vfprintf_internal_r+0xba8>
    10c0:	d9002c17 	ldw	r4,176(sp)
    10c4:	b80b883a 	mov	r5,r23
    10c8:	0002ffc0 	call	2ffc <__swsetup_r>
    10cc:	1005ac1e 	bne	r2,zero,2780 <___vfprintf_internal_r+0x1a54>
    10d0:	b880030b 	ldhu	r2,12(r23)
    10d4:	00c00284 	movi	r3,10
    10d8:	1080068c 	andi	r2,r2,26
    10dc:	10ff3c1e 	bne	r2,r3,dd0 <__ram_exceptions_end+0xfbfe0b7c>
    10e0:	b880038f 	ldh	r2,14(r23)
    10e4:	103f3a16 	blt	r2,zero,dd0 <__ram_exceptions_end+0xfbfe0b7c>
    10e8:	d9c02d17 	ldw	r7,180(sp)
    10ec:	d9002c17 	ldw	r4,176(sp)
    10f0:	a80d883a 	mov	r6,r21
    10f4:	b80b883a 	mov	r5,r23
    10f8:	0002f400 	call	2f40 <__sbprintf>
    10fc:	00001106 	br	1144 <___vfprintf_internal_r+0x418>
    1100:	d9002c17 	ldw	r4,176(sp)
    1104:	d9801e04 	addi	r6,sp,120
    1108:	b80b883a 	mov	r5,r23
    110c:	00078440 	call	7844 <__sprint_r>
    1110:	1000081e 	bne	r2,zero,1134 <___vfprintf_internal_r+0x408>
    1114:	da000404 	addi	r8,sp,16
    1118:	003f5306 	br	e68 <__ram_exceptions_end+0xfbfe0c14>
    111c:	d8802017 	ldw	r2,128(sp)
    1120:	10000426 	beq	r2,zero,1134 <___vfprintf_internal_r+0x408>
    1124:	d9002c17 	ldw	r4,176(sp)
    1128:	d9801e04 	addi	r6,sp,120
    112c:	b80b883a 	mov	r5,r23
    1130:	00078440 	call	7844 <__sprint_r>
    1134:	b880030b 	ldhu	r2,12(r23)
    1138:	1080100c 	andi	r2,r2,64
    113c:	1005901e 	bne	r2,zero,2780 <___vfprintf_internal_r+0x1a54>
    1140:	d8802f17 	ldw	r2,188(sp)
    1144:	dfc04717 	ldw	ra,284(sp)
    1148:	df004617 	ldw	fp,280(sp)
    114c:	ddc04517 	ldw	r23,276(sp)
    1150:	dd804417 	ldw	r22,272(sp)
    1154:	dd404317 	ldw	r21,268(sp)
    1158:	dd004217 	ldw	r20,264(sp)
    115c:	dcc04117 	ldw	r19,260(sp)
    1160:	dc804017 	ldw	r18,256(sp)
    1164:	dc403f17 	ldw	r17,252(sp)
    1168:	dc003e17 	ldw	r16,248(sp)
    116c:	dec04804 	addi	sp,sp,288
    1170:	f800283a 	ret
    1174:	d9002c17 	ldw	r4,176(sp)
    1178:	0004fd00 	call	4fd0 <__sinit>
    117c:	003f0406 	br	d90 <__ram_exceptions_end+0xfbfe0b3c>
    1180:	d8802d17 	ldw	r2,180(sp)
    1184:	d9002d17 	ldw	r4,180(sp)
    1188:	10800017 	ldw	r2,0(r2)
    118c:	d8803115 	stw	r2,196(sp)
    1190:	20800104 	addi	r2,r4,4
    1194:	d9003117 	ldw	r4,196(sp)
    1198:	203fa716 	blt	r4,zero,1038 <__ram_exceptions_end+0xfbfe0de4>
    119c:	d8802d15 	stw	r2,180(sp)
    11a0:	ac400007 	ldb	r17,0(r21)
    11a4:	003f4206 	br	eb0 <__ram_exceptions_end+0xfbfe0c5c>
    11a8:	ac400007 	ldb	r17,0(r21)
    11ac:	aac00044 	addi	r11,r21,1
    11b0:	8a872826 	beq	r17,r10,2e54 <___vfprintf_internal_r+0x2128>
    11b4:	88bff404 	addi	r2,r17,-48
    11b8:	0009883a 	mov	r4,zero
    11bc:	30867d36 	bltu	r6,r2,2bb4 <___vfprintf_internal_r+0x1e88>
    11c0:	5c400007 	ldb	r17,0(r11)
    11c4:	210002a4 	muli	r4,r4,10
    11c8:	5d400044 	addi	r21,r11,1
    11cc:	a817883a 	mov	r11,r21
    11d0:	2089883a 	add	r4,r4,r2
    11d4:	88bff404 	addi	r2,r17,-48
    11d8:	30bff92e 	bgeu	r6,r2,11c0 <__ram_exceptions_end+0xfbfe0f6c>
    11dc:	2005c916 	blt	r4,zero,2904 <___vfprintf_internal_r+0x1bd8>
    11e0:	d9002915 	stw	r4,164(sp)
    11e4:	003f3306 	br	eb4 <__ram_exceptions_end+0xfbfe0c60>
    11e8:	94802014 	ori	r18,r18,128
    11ec:	ac400007 	ldb	r17,0(r21)
    11f0:	003f2f06 	br	eb0 <__ram_exceptions_end+0xfbfe0c5c>
    11f4:	a809883a 	mov	r4,r21
    11f8:	d8003115 	stw	zero,196(sp)
    11fc:	88bff404 	addi	r2,r17,-48
    1200:	0017883a 	mov	r11,zero
    1204:	24400007 	ldb	r17,0(r4)
    1208:	5ac002a4 	muli	r11,r11,10
    120c:	ad400044 	addi	r21,r21,1
    1210:	a809883a 	mov	r4,r21
    1214:	12d7883a 	add	r11,r2,r11
    1218:	88bff404 	addi	r2,r17,-48
    121c:	30bff92e 	bgeu	r6,r2,1204 <__ram_exceptions_end+0xfbfe0fb0>
    1220:	dac03115 	stw	r11,196(sp)
    1224:	003f2306 	br	eb4 <__ram_exceptions_end+0xfbfe0c60>
    1228:	18c03fcc 	andi	r3,r3,255
    122c:	18072b1e 	bne	r3,zero,2edc <___vfprintf_internal_r+0x21b0>
    1230:	94800414 	ori	r18,r18,16
    1234:	9080080c 	andi	r2,r18,32
    1238:	10037b26 	beq	r2,zero,2028 <___vfprintf_internal_r+0x12fc>
    123c:	d9402d17 	ldw	r5,180(sp)
    1240:	28800117 	ldw	r2,4(r5)
    1244:	2cc00017 	ldw	r19,0(r5)
    1248:	29400204 	addi	r5,r5,8
    124c:	d9402d15 	stw	r5,180(sp)
    1250:	102d883a 	mov	r22,r2
    1254:	10044b16 	blt	r2,zero,2384 <___vfprintf_internal_r+0x1658>
    1258:	d9402917 	ldw	r5,164(sp)
    125c:	df002783 	ldbu	fp,158(sp)
    1260:	2803bc16 	blt	r5,zero,2154 <___vfprintf_internal_r+0x1428>
    1264:	00ffdfc4 	movi	r3,-129
    1268:	9d84b03a 	or	r2,r19,r22
    126c:	90e4703a 	and	r18,r18,r3
    1270:	10017726 	beq	r2,zero,1850 <___vfprintf_internal_r+0xb24>
    1274:	b0038326 	beq	r22,zero,2084 <___vfprintf_internal_r+0x1358>
    1278:	dc402a15 	stw	r17,168(sp)
    127c:	dc001e04 	addi	r16,sp,120
    1280:	b023883a 	mov	r17,r22
    1284:	402d883a 	mov	r22,r8
    1288:	9809883a 	mov	r4,r19
    128c:	880b883a 	mov	r5,r17
    1290:	01800284 	movi	r6,10
    1294:	000f883a 	mov	r7,zero
    1298:	000a7b80 	call	a7b8 <__umoddi3>
    129c:	10800c04 	addi	r2,r2,48
    12a0:	843fffc4 	addi	r16,r16,-1
    12a4:	9809883a 	mov	r4,r19
    12a8:	880b883a 	mov	r5,r17
    12ac:	80800005 	stb	r2,0(r16)
    12b0:	01800284 	movi	r6,10
    12b4:	000f883a 	mov	r7,zero
    12b8:	000a2400 	call	a240 <__udivdi3>
    12bc:	1027883a 	mov	r19,r2
    12c0:	10c4b03a 	or	r2,r2,r3
    12c4:	1823883a 	mov	r17,r3
    12c8:	103fef1e 	bne	r2,zero,1288 <__ram_exceptions_end+0xfbfe1034>
    12cc:	d8c02817 	ldw	r3,160(sp)
    12d0:	dc402a17 	ldw	r17,168(sp)
    12d4:	b011883a 	mov	r8,r22
    12d8:	1c07c83a 	sub	r3,r3,r16
    12dc:	d8c02e15 	stw	r3,184(sp)
    12e0:	00005906 	br	1448 <___vfprintf_internal_r+0x71c>
    12e4:	18c03fcc 	andi	r3,r3,255
    12e8:	1806fa1e 	bne	r3,zero,2ed4 <___vfprintf_internal_r+0x21a8>
    12ec:	9080020c 	andi	r2,r18,8
    12f0:	10048a26 	beq	r2,zero,251c <___vfprintf_internal_r+0x17f0>
    12f4:	d8c02d17 	ldw	r3,180(sp)
    12f8:	d9002d17 	ldw	r4,180(sp)
    12fc:	d9402d17 	ldw	r5,180(sp)
    1300:	18c00017 	ldw	r3,0(r3)
    1304:	21000117 	ldw	r4,4(r4)
    1308:	29400204 	addi	r5,r5,8
    130c:	d8c03615 	stw	r3,216(sp)
    1310:	d9003815 	stw	r4,224(sp)
    1314:	d9402d15 	stw	r5,180(sp)
    1318:	d9003617 	ldw	r4,216(sp)
    131c:	d9403817 	ldw	r5,224(sp)
    1320:	da003d15 	stw	r8,244(sp)
    1324:	04000044 	movi	r16,1
    1328:	00073d00 	call	73d0 <__fpclassifyd>
    132c:	da003d17 	ldw	r8,244(sp)
    1330:	14041f1e 	bne	r2,r16,23b0 <___vfprintf_internal_r+0x1684>
    1334:	d9003617 	ldw	r4,216(sp)
    1338:	d9403817 	ldw	r5,224(sp)
    133c:	000d883a 	mov	r6,zero
    1340:	000f883a 	mov	r7,zero
    1344:	000bfe80 	call	bfe8 <__ledf2>
    1348:	da003d17 	ldw	r8,244(sp)
    134c:	1005be16 	blt	r2,zero,2a48 <___vfprintf_internal_r+0x1d1c>
    1350:	df002783 	ldbu	fp,158(sp)
    1354:	008011c4 	movi	r2,71
    1358:	1445330e 	bge	r2,r17,2828 <___vfprintf_internal_r+0x1afc>
    135c:	04000074 	movhi	r16,1
    1360:	84004104 	addi	r16,r16,260
    1364:	00c000c4 	movi	r3,3
    1368:	00bfdfc4 	movi	r2,-129
    136c:	d8c02a15 	stw	r3,168(sp)
    1370:	90a4703a 	and	r18,r18,r2
    1374:	d8c02e15 	stw	r3,184(sp)
    1378:	d8002915 	stw	zero,164(sp)
    137c:	d8003215 	stw	zero,200(sp)
    1380:	00003706 	br	1460 <___vfprintf_internal_r+0x734>
    1384:	94800214 	ori	r18,r18,8
    1388:	ac400007 	ldb	r17,0(r21)
    138c:	003ec806 	br	eb0 <__ram_exceptions_end+0xfbfe0c5c>
    1390:	18c03fcc 	andi	r3,r3,255
    1394:	1806db1e 	bne	r3,zero,2f04 <___vfprintf_internal_r+0x21d8>
    1398:	94800414 	ori	r18,r18,16
    139c:	9080080c 	andi	r2,r18,32
    13a0:	1002d826 	beq	r2,zero,1f04 <___vfprintf_internal_r+0x11d8>
    13a4:	d9402d17 	ldw	r5,180(sp)
    13a8:	d8c02917 	ldw	r3,164(sp)
    13ac:	d8002785 	stb	zero,158(sp)
    13b0:	28800204 	addi	r2,r5,8
    13b4:	2cc00017 	ldw	r19,0(r5)
    13b8:	2d800117 	ldw	r22,4(r5)
    13bc:	18048f16 	blt	r3,zero,25fc <___vfprintf_internal_r+0x18d0>
    13c0:	013fdfc4 	movi	r4,-129
    13c4:	9d86b03a 	or	r3,r19,r22
    13c8:	d8802d15 	stw	r2,180(sp)
    13cc:	9124703a 	and	r18,r18,r4
    13d0:	1802d91e 	bne	r3,zero,1f38 <___vfprintf_internal_r+0x120c>
    13d4:	d8c02917 	ldw	r3,164(sp)
    13d8:	0039883a 	mov	fp,zero
    13dc:	1805c326 	beq	r3,zero,2aec <___vfprintf_internal_r+0x1dc0>
    13e0:	0027883a 	mov	r19,zero
    13e4:	002d883a 	mov	r22,zero
    13e8:	dc001e04 	addi	r16,sp,120
    13ec:	9806d0fa 	srli	r3,r19,3
    13f0:	b008977a 	slli	r4,r22,29
    13f4:	b02cd0fa 	srli	r22,r22,3
    13f8:	9cc001cc 	andi	r19,r19,7
    13fc:	98800c04 	addi	r2,r19,48
    1400:	843fffc4 	addi	r16,r16,-1
    1404:	20e6b03a 	or	r19,r4,r3
    1408:	80800005 	stb	r2,0(r16)
    140c:	9d86b03a 	or	r3,r19,r22
    1410:	183ff61e 	bne	r3,zero,13ec <__ram_exceptions_end+0xfbfe1198>
    1414:	90c0004c 	andi	r3,r18,1
    1418:	18013b26 	beq	r3,zero,1908 <___vfprintf_internal_r+0xbdc>
    141c:	10803fcc 	andi	r2,r2,255
    1420:	1080201c 	xori	r2,r2,128
    1424:	10bfe004 	addi	r2,r2,-128
    1428:	00c00c04 	movi	r3,48
    142c:	10c13626 	beq	r2,r3,1908 <___vfprintf_internal_r+0xbdc>
    1430:	80ffffc5 	stb	r3,-1(r16)
    1434:	d8c02817 	ldw	r3,160(sp)
    1438:	80bfffc4 	addi	r2,r16,-1
    143c:	1021883a 	mov	r16,r2
    1440:	1887c83a 	sub	r3,r3,r2
    1444:	d8c02e15 	stw	r3,184(sp)
    1448:	d8802e17 	ldw	r2,184(sp)
    144c:	d9002917 	ldw	r4,164(sp)
    1450:	1100010e 	bge	r2,r4,1458 <___vfprintf_internal_r+0x72c>
    1454:	2005883a 	mov	r2,r4
    1458:	d8802a15 	stw	r2,168(sp)
    145c:	d8003215 	stw	zero,200(sp)
    1460:	e7003fcc 	andi	fp,fp,255
    1464:	e700201c 	xori	fp,fp,128
    1468:	e73fe004 	addi	fp,fp,-128
    146c:	e0000326 	beq	fp,zero,147c <___vfprintf_internal_r+0x750>
    1470:	d8c02a17 	ldw	r3,168(sp)
    1474:	18c00044 	addi	r3,r3,1
    1478:	d8c02a15 	stw	r3,168(sp)
    147c:	90c0008c 	andi	r3,r18,2
    1480:	d8c02b15 	stw	r3,172(sp)
    1484:	18000326 	beq	r3,zero,1494 <___vfprintf_internal_r+0x768>
    1488:	d8c02a17 	ldw	r3,168(sp)
    148c:	18c00084 	addi	r3,r3,2
    1490:	d8c02a15 	stw	r3,168(sp)
    1494:	90c0210c 	andi	r3,r18,132
    1498:	d8c03015 	stw	r3,192(sp)
    149c:	1801a31e 	bne	r3,zero,1b2c <___vfprintf_internal_r+0xe00>
    14a0:	d9003117 	ldw	r4,196(sp)
    14a4:	d8c02a17 	ldw	r3,168(sp)
    14a8:	20e7c83a 	sub	r19,r4,r3
    14ac:	04c19f0e 	bge	zero,r19,1b2c <___vfprintf_internal_r+0xe00>
    14b0:	02400404 	movi	r9,16
    14b4:	d8c02017 	ldw	r3,128(sp)
    14b8:	d8801f17 	ldw	r2,124(sp)
    14bc:	4cc50d0e 	bge	r9,r19,28f4 <___vfprintf_internal_r+0x1bc8>
    14c0:	01400074 	movhi	r5,1
    14c4:	29405484 	addi	r5,r5,338
    14c8:	dc403b15 	stw	r17,236(sp)
    14cc:	d9403515 	stw	r5,212(sp)
    14d0:	9823883a 	mov	r17,r19
    14d4:	482d883a 	mov	r22,r9
    14d8:	9027883a 	mov	r19,r18
    14dc:	070001c4 	movi	fp,7
    14e0:	8025883a 	mov	r18,r16
    14e4:	dc002c17 	ldw	r16,176(sp)
    14e8:	00000306 	br	14f8 <___vfprintf_internal_r+0x7cc>
    14ec:	8c7ffc04 	addi	r17,r17,-16
    14f0:	42000204 	addi	r8,r8,8
    14f4:	b440130e 	bge	r22,r17,1544 <___vfprintf_internal_r+0x818>
    14f8:	01000074 	movhi	r4,1
    14fc:	18c00404 	addi	r3,r3,16
    1500:	10800044 	addi	r2,r2,1
    1504:	21005484 	addi	r4,r4,338
    1508:	41000015 	stw	r4,0(r8)
    150c:	45800115 	stw	r22,4(r8)
    1510:	d8c02015 	stw	r3,128(sp)
    1514:	d8801f15 	stw	r2,124(sp)
    1518:	e0bff40e 	bge	fp,r2,14ec <__ram_exceptions_end+0xfbfe1298>
    151c:	d9801e04 	addi	r6,sp,120
    1520:	b80b883a 	mov	r5,r23
    1524:	8009883a 	mov	r4,r16
    1528:	00078440 	call	7844 <__sprint_r>
    152c:	103f011e 	bne	r2,zero,1134 <__ram_exceptions_end+0xfbfe0ee0>
    1530:	8c7ffc04 	addi	r17,r17,-16
    1534:	d8c02017 	ldw	r3,128(sp)
    1538:	d8801f17 	ldw	r2,124(sp)
    153c:	da000404 	addi	r8,sp,16
    1540:	b47fed16 	blt	r22,r17,14f8 <__ram_exceptions_end+0xfbfe12a4>
    1544:	9021883a 	mov	r16,r18
    1548:	9825883a 	mov	r18,r19
    154c:	8827883a 	mov	r19,r17
    1550:	dc403b17 	ldw	r17,236(sp)
    1554:	d9403517 	ldw	r5,212(sp)
    1558:	98c7883a 	add	r3,r19,r3
    155c:	10800044 	addi	r2,r2,1
    1560:	41400015 	stw	r5,0(r8)
    1564:	44c00115 	stw	r19,4(r8)
    1568:	d8c02015 	stw	r3,128(sp)
    156c:	d8801f15 	stw	r2,124(sp)
    1570:	010001c4 	movi	r4,7
    1574:	2082a316 	blt	r4,r2,2004 <___vfprintf_internal_r+0x12d8>
    1578:	df002787 	ldb	fp,158(sp)
    157c:	42000204 	addi	r8,r8,8
    1580:	e0000c26 	beq	fp,zero,15b4 <___vfprintf_internal_r+0x888>
    1584:	d8801f17 	ldw	r2,124(sp)
    1588:	d9002784 	addi	r4,sp,158
    158c:	18c00044 	addi	r3,r3,1
    1590:	10800044 	addi	r2,r2,1
    1594:	41000015 	stw	r4,0(r8)
    1598:	01000044 	movi	r4,1
    159c:	41000115 	stw	r4,4(r8)
    15a0:	d8c02015 	stw	r3,128(sp)
    15a4:	d8801f15 	stw	r2,124(sp)
    15a8:	010001c4 	movi	r4,7
    15ac:	20823c16 	blt	r4,r2,1ea0 <___vfprintf_internal_r+0x1174>
    15b0:	42000204 	addi	r8,r8,8
    15b4:	d8802b17 	ldw	r2,172(sp)
    15b8:	10000c26 	beq	r2,zero,15ec <___vfprintf_internal_r+0x8c0>
    15bc:	d8801f17 	ldw	r2,124(sp)
    15c0:	d9002704 	addi	r4,sp,156
    15c4:	18c00084 	addi	r3,r3,2
    15c8:	10800044 	addi	r2,r2,1
    15cc:	41000015 	stw	r4,0(r8)
    15d0:	01000084 	movi	r4,2
    15d4:	41000115 	stw	r4,4(r8)
    15d8:	d8c02015 	stw	r3,128(sp)
    15dc:	d8801f15 	stw	r2,124(sp)
    15e0:	010001c4 	movi	r4,7
    15e4:	20823616 	blt	r4,r2,1ec0 <___vfprintf_internal_r+0x1194>
    15e8:	42000204 	addi	r8,r8,8
    15ec:	d9003017 	ldw	r4,192(sp)
    15f0:	00802004 	movi	r2,128
    15f4:	20819926 	beq	r4,r2,1c5c <___vfprintf_internal_r+0xf30>
    15f8:	d9402917 	ldw	r5,164(sp)
    15fc:	d8802e17 	ldw	r2,184(sp)
    1600:	28adc83a 	sub	r22,r5,r2
    1604:	0580310e 	bge	zero,r22,16cc <___vfprintf_internal_r+0x9a0>
    1608:	07000404 	movi	fp,16
    160c:	d8801f17 	ldw	r2,124(sp)
    1610:	e584140e 	bge	fp,r22,2664 <___vfprintf_internal_r+0x1938>
    1614:	01400074 	movhi	r5,1
    1618:	29405084 	addi	r5,r5,322
    161c:	dc402915 	stw	r17,164(sp)
    1620:	d9402b15 	stw	r5,172(sp)
    1624:	b023883a 	mov	r17,r22
    1628:	04c001c4 	movi	r19,7
    162c:	a82d883a 	mov	r22,r21
    1630:	902b883a 	mov	r21,r18
    1634:	8025883a 	mov	r18,r16
    1638:	dc002c17 	ldw	r16,176(sp)
    163c:	00000306 	br	164c <___vfprintf_internal_r+0x920>
    1640:	8c7ffc04 	addi	r17,r17,-16
    1644:	42000204 	addi	r8,r8,8
    1648:	e440110e 	bge	fp,r17,1690 <___vfprintf_internal_r+0x964>
    164c:	18c00404 	addi	r3,r3,16
    1650:	10800044 	addi	r2,r2,1
    1654:	45000015 	stw	r20,0(r8)
    1658:	47000115 	stw	fp,4(r8)
    165c:	d8c02015 	stw	r3,128(sp)
    1660:	d8801f15 	stw	r2,124(sp)
    1664:	98bff60e 	bge	r19,r2,1640 <__ram_exceptions_end+0xfbfe13ec>
    1668:	d9801e04 	addi	r6,sp,120
    166c:	b80b883a 	mov	r5,r23
    1670:	8009883a 	mov	r4,r16
    1674:	00078440 	call	7844 <__sprint_r>
    1678:	103eae1e 	bne	r2,zero,1134 <__ram_exceptions_end+0xfbfe0ee0>
    167c:	8c7ffc04 	addi	r17,r17,-16
    1680:	d8c02017 	ldw	r3,128(sp)
    1684:	d8801f17 	ldw	r2,124(sp)
    1688:	da000404 	addi	r8,sp,16
    168c:	e47fef16 	blt	fp,r17,164c <__ram_exceptions_end+0xfbfe13f8>
    1690:	9021883a 	mov	r16,r18
    1694:	a825883a 	mov	r18,r21
    1698:	b02b883a 	mov	r21,r22
    169c:	882d883a 	mov	r22,r17
    16a0:	dc402917 	ldw	r17,164(sp)
    16a4:	d9002b17 	ldw	r4,172(sp)
    16a8:	1d87883a 	add	r3,r3,r22
    16ac:	10800044 	addi	r2,r2,1
    16b0:	41000015 	stw	r4,0(r8)
    16b4:	45800115 	stw	r22,4(r8)
    16b8:	d8c02015 	stw	r3,128(sp)
    16bc:	d8801f15 	stw	r2,124(sp)
    16c0:	010001c4 	movi	r4,7
    16c4:	2081ee16 	blt	r4,r2,1e80 <___vfprintf_internal_r+0x1154>
    16c8:	42000204 	addi	r8,r8,8
    16cc:	9080400c 	andi	r2,r18,256
    16d0:	1001181e 	bne	r2,zero,1b34 <___vfprintf_internal_r+0xe08>
    16d4:	d9402e17 	ldw	r5,184(sp)
    16d8:	d8801f17 	ldw	r2,124(sp)
    16dc:	44000015 	stw	r16,0(r8)
    16e0:	1947883a 	add	r3,r3,r5
    16e4:	10800044 	addi	r2,r2,1
    16e8:	41400115 	stw	r5,4(r8)
    16ec:	d8c02015 	stw	r3,128(sp)
    16f0:	d8801f15 	stw	r2,124(sp)
    16f4:	010001c4 	movi	r4,7
    16f8:	2081d316 	blt	r4,r2,1e48 <___vfprintf_internal_r+0x111c>
    16fc:	42000204 	addi	r8,r8,8
    1700:	9480010c 	andi	r18,r18,4
    1704:	90003226 	beq	r18,zero,17d0 <___vfprintf_internal_r+0xaa4>
    1708:	d9403117 	ldw	r5,196(sp)
    170c:	d8802a17 	ldw	r2,168(sp)
    1710:	28a1c83a 	sub	r16,r5,r2
    1714:	04002e0e 	bge	zero,r16,17d0 <___vfprintf_internal_r+0xaa4>
    1718:	04400404 	movi	r17,16
    171c:	d8801f17 	ldw	r2,124(sp)
    1720:	8c04a20e 	bge	r17,r16,29ac <___vfprintf_internal_r+0x1c80>
    1724:	01400074 	movhi	r5,1
    1728:	29405484 	addi	r5,r5,338
    172c:	d9403515 	stw	r5,212(sp)
    1730:	048001c4 	movi	r18,7
    1734:	dcc02c17 	ldw	r19,176(sp)
    1738:	00000306 	br	1748 <___vfprintf_internal_r+0xa1c>
    173c:	843ffc04 	addi	r16,r16,-16
    1740:	42000204 	addi	r8,r8,8
    1744:	8c00130e 	bge	r17,r16,1794 <___vfprintf_internal_r+0xa68>
    1748:	01000074 	movhi	r4,1
    174c:	18c00404 	addi	r3,r3,16
    1750:	10800044 	addi	r2,r2,1
    1754:	21005484 	addi	r4,r4,338
    1758:	41000015 	stw	r4,0(r8)
    175c:	44400115 	stw	r17,4(r8)
    1760:	d8c02015 	stw	r3,128(sp)
    1764:	d8801f15 	stw	r2,124(sp)
    1768:	90bff40e 	bge	r18,r2,173c <__ram_exceptions_end+0xfbfe14e8>
    176c:	d9801e04 	addi	r6,sp,120
    1770:	b80b883a 	mov	r5,r23
    1774:	9809883a 	mov	r4,r19
    1778:	00078440 	call	7844 <__sprint_r>
    177c:	103e6d1e 	bne	r2,zero,1134 <__ram_exceptions_end+0xfbfe0ee0>
    1780:	843ffc04 	addi	r16,r16,-16
    1784:	d8c02017 	ldw	r3,128(sp)
    1788:	d8801f17 	ldw	r2,124(sp)
    178c:	da000404 	addi	r8,sp,16
    1790:	8c3fed16 	blt	r17,r16,1748 <__ram_exceptions_end+0xfbfe14f4>
    1794:	d9403517 	ldw	r5,212(sp)
    1798:	1c07883a 	add	r3,r3,r16
    179c:	10800044 	addi	r2,r2,1
    17a0:	41400015 	stw	r5,0(r8)
    17a4:	44000115 	stw	r16,4(r8)
    17a8:	d8c02015 	stw	r3,128(sp)
    17ac:	d8801f15 	stw	r2,124(sp)
    17b0:	010001c4 	movi	r4,7
    17b4:	2080060e 	bge	r4,r2,17d0 <___vfprintf_internal_r+0xaa4>
    17b8:	d9002c17 	ldw	r4,176(sp)
    17bc:	d9801e04 	addi	r6,sp,120
    17c0:	b80b883a 	mov	r5,r23
    17c4:	00078440 	call	7844 <__sprint_r>
    17c8:	103e5a1e 	bne	r2,zero,1134 <__ram_exceptions_end+0xfbfe0ee0>
    17cc:	d8c02017 	ldw	r3,128(sp)
    17d0:	d8803117 	ldw	r2,196(sp)
    17d4:	d9002a17 	ldw	r4,168(sp)
    17d8:	1100010e 	bge	r2,r4,17e0 <___vfprintf_internal_r+0xab4>
    17dc:	2005883a 	mov	r2,r4
    17e0:	d9402f17 	ldw	r5,188(sp)
    17e4:	288b883a 	add	r5,r5,r2
    17e8:	d9402f15 	stw	r5,188(sp)
    17ec:	18019e1e 	bne	r3,zero,1e68 <___vfprintf_internal_r+0x113c>
    17f0:	a8800007 	ldb	r2,0(r21)
    17f4:	d8001f15 	stw	zero,124(sp)
    17f8:	da000404 	addi	r8,sp,16
    17fc:	103d851e 	bne	r2,zero,e14 <__ram_exceptions_end+0xfbfe0bc0>
    1800:	a821883a 	mov	r16,r21
    1804:	003d9b06 	br	e74 <__ram_exceptions_end+0xfbfe0c20>
    1808:	18c03fcc 	andi	r3,r3,255
    180c:	1805c11e 	bne	r3,zero,2f14 <___vfprintf_internal_r+0x21e8>
    1810:	94800414 	ori	r18,r18,16
    1814:	9080080c 	andi	r2,r18,32
    1818:	10020c26 	beq	r2,zero,204c <___vfprintf_internal_r+0x1320>
    181c:	d8802d17 	ldw	r2,180(sp)
    1820:	d9002917 	ldw	r4,164(sp)
    1824:	d8002785 	stb	zero,158(sp)
    1828:	10c00204 	addi	r3,r2,8
    182c:	14c00017 	ldw	r19,0(r2)
    1830:	15800117 	ldw	r22,4(r2)
    1834:	20040f16 	blt	r4,zero,2874 <___vfprintf_internal_r+0x1b48>
    1838:	013fdfc4 	movi	r4,-129
    183c:	9d84b03a 	or	r2,r19,r22
    1840:	d8c02d15 	stw	r3,180(sp)
    1844:	9124703a 	and	r18,r18,r4
    1848:	0039883a 	mov	fp,zero
    184c:	103e891e 	bne	r2,zero,1274 <__ram_exceptions_end+0xfbfe1020>
    1850:	d9002917 	ldw	r4,164(sp)
    1854:	2002c11e 	bne	r4,zero,235c <___vfprintf_internal_r+0x1630>
    1858:	d8002915 	stw	zero,164(sp)
    185c:	d8002e15 	stw	zero,184(sp)
    1860:	dc001e04 	addi	r16,sp,120
    1864:	003ef806 	br	1448 <__ram_exceptions_end+0xfbfe11f4>
    1868:	18c03fcc 	andi	r3,r3,255
    186c:	18059d1e 	bne	r3,zero,2ee4 <___vfprintf_internal_r+0x21b8>
    1870:	01400074 	movhi	r5,1
    1874:	29404404 	addi	r5,r5,272
    1878:	d9403915 	stw	r5,228(sp)
    187c:	9080080c 	andi	r2,r18,32
    1880:	10005226 	beq	r2,zero,19cc <___vfprintf_internal_r+0xca0>
    1884:	d8802d17 	ldw	r2,180(sp)
    1888:	14c00017 	ldw	r19,0(r2)
    188c:	15800117 	ldw	r22,4(r2)
    1890:	10800204 	addi	r2,r2,8
    1894:	d8802d15 	stw	r2,180(sp)
    1898:	9080004c 	andi	r2,r18,1
    189c:	10019026 	beq	r2,zero,1ee0 <___vfprintf_internal_r+0x11b4>
    18a0:	9d84b03a 	or	r2,r19,r22
    18a4:	10036926 	beq	r2,zero,264c <___vfprintf_internal_r+0x1920>
    18a8:	d8c02917 	ldw	r3,164(sp)
    18ac:	00800c04 	movi	r2,48
    18b0:	d8802705 	stb	r2,156(sp)
    18b4:	dc402745 	stb	r17,157(sp)
    18b8:	d8002785 	stb	zero,158(sp)
    18bc:	90800094 	ori	r2,r18,2
    18c0:	18045d16 	blt	r3,zero,2a38 <___vfprintf_internal_r+0x1d0c>
    18c4:	00bfdfc4 	movi	r2,-129
    18c8:	90a4703a 	and	r18,r18,r2
    18cc:	94800094 	ori	r18,r18,2
    18d0:	0039883a 	mov	fp,zero
    18d4:	d9003917 	ldw	r4,228(sp)
    18d8:	dc001e04 	addi	r16,sp,120
    18dc:	988003cc 	andi	r2,r19,15
    18e0:	b006973a 	slli	r3,r22,28
    18e4:	2085883a 	add	r2,r4,r2
    18e8:	9826d13a 	srli	r19,r19,4
    18ec:	10800003 	ldbu	r2,0(r2)
    18f0:	b02cd13a 	srli	r22,r22,4
    18f4:	843fffc4 	addi	r16,r16,-1
    18f8:	1ce6b03a 	or	r19,r3,r19
    18fc:	80800005 	stb	r2,0(r16)
    1900:	9d84b03a 	or	r2,r19,r22
    1904:	103ff51e 	bne	r2,zero,18dc <__ram_exceptions_end+0xfbfe1688>
    1908:	d8c02817 	ldw	r3,160(sp)
    190c:	1c07c83a 	sub	r3,r3,r16
    1910:	d8c02e15 	stw	r3,184(sp)
    1914:	003ecc06 	br	1448 <__ram_exceptions_end+0xfbfe11f4>
    1918:	18c03fcc 	andi	r3,r3,255
    191c:	183e9f26 	beq	r3,zero,139c <__ram_exceptions_end+0xfbfe1148>
    1920:	d9c02785 	stb	r7,158(sp)
    1924:	003e9d06 	br	139c <__ram_exceptions_end+0xfbfe1148>
    1928:	00c00044 	movi	r3,1
    192c:	01c00ac4 	movi	r7,43
    1930:	ac400007 	ldb	r17,0(r21)
    1934:	003d5e06 	br	eb0 <__ram_exceptions_end+0xfbfe0c5c>
    1938:	94800814 	ori	r18,r18,32
    193c:	ac400007 	ldb	r17,0(r21)
    1940:	003d5b06 	br	eb0 <__ram_exceptions_end+0xfbfe0c5c>
    1944:	d8c02d17 	ldw	r3,180(sp)
    1948:	d8002785 	stb	zero,158(sp)
    194c:	1c000017 	ldw	r16,0(r3)
    1950:	1cc00104 	addi	r19,r3,4
    1954:	80041926 	beq	r16,zero,29bc <___vfprintf_internal_r+0x1c90>
    1958:	d9002917 	ldw	r4,164(sp)
    195c:	2003d016 	blt	r4,zero,28a0 <___vfprintf_internal_r+0x1b74>
    1960:	200d883a 	mov	r6,r4
    1964:	000b883a 	mov	r5,zero
    1968:	8009883a 	mov	r4,r16
    196c:	da003d15 	stw	r8,244(sp)
    1970:	00060800 	call	6080 <memchr>
    1974:	da003d17 	ldw	r8,244(sp)
    1978:	10045426 	beq	r2,zero,2acc <___vfprintf_internal_r+0x1da0>
    197c:	1405c83a 	sub	r2,r2,r16
    1980:	d8802e15 	stw	r2,184(sp)
    1984:	1003cc16 	blt	r2,zero,28b8 <___vfprintf_internal_r+0x1b8c>
    1988:	df002783 	ldbu	fp,158(sp)
    198c:	d8802a15 	stw	r2,168(sp)
    1990:	dcc02d15 	stw	r19,180(sp)
    1994:	d8002915 	stw	zero,164(sp)
    1998:	d8003215 	stw	zero,200(sp)
    199c:	003eb006 	br	1460 <__ram_exceptions_end+0xfbfe120c>
    19a0:	18c03fcc 	andi	r3,r3,255
    19a4:	183f9b26 	beq	r3,zero,1814 <__ram_exceptions_end+0xfbfe15c0>
    19a8:	d9c02785 	stb	r7,158(sp)
    19ac:	003f9906 	br	1814 <__ram_exceptions_end+0xfbfe15c0>
    19b0:	18c03fcc 	andi	r3,r3,255
    19b4:	1805551e 	bne	r3,zero,2f0c <___vfprintf_internal_r+0x21e0>
    19b8:	01400074 	movhi	r5,1
    19bc:	29404904 	addi	r5,r5,292
    19c0:	d9403915 	stw	r5,228(sp)
    19c4:	9080080c 	andi	r2,r18,32
    19c8:	103fae1e 	bne	r2,zero,1884 <__ram_exceptions_end+0xfbfe1630>
    19cc:	9080040c 	andi	r2,r18,16
    19d0:	1002de26 	beq	r2,zero,254c <___vfprintf_internal_r+0x1820>
    19d4:	d8c02d17 	ldw	r3,180(sp)
    19d8:	002d883a 	mov	r22,zero
    19dc:	1cc00017 	ldw	r19,0(r3)
    19e0:	18c00104 	addi	r3,r3,4
    19e4:	d8c02d15 	stw	r3,180(sp)
    19e8:	003fab06 	br	1898 <__ram_exceptions_end+0xfbfe1644>
    19ec:	38803fcc 	andi	r2,r7,255
    19f0:	1080201c 	xori	r2,r2,128
    19f4:	10bfe004 	addi	r2,r2,-128
    19f8:	1002d21e 	bne	r2,zero,2544 <___vfprintf_internal_r+0x1818>
    19fc:	00c00044 	movi	r3,1
    1a00:	01c00804 	movi	r7,32
    1a04:	ac400007 	ldb	r17,0(r21)
    1a08:	003d2906 	br	eb0 <__ram_exceptions_end+0xfbfe0c5c>
    1a0c:	94800054 	ori	r18,r18,1
    1a10:	ac400007 	ldb	r17,0(r21)
    1a14:	003d2606 	br	eb0 <__ram_exceptions_end+0xfbfe0c5c>
    1a18:	18c03fcc 	andi	r3,r3,255
    1a1c:	183e0526 	beq	r3,zero,1234 <__ram_exceptions_end+0xfbfe0fe0>
    1a20:	d9c02785 	stb	r7,158(sp)
    1a24:	003e0306 	br	1234 <__ram_exceptions_end+0xfbfe0fe0>
    1a28:	94801014 	ori	r18,r18,64
    1a2c:	ac400007 	ldb	r17,0(r21)
    1a30:	003d1f06 	br	eb0 <__ram_exceptions_end+0xfbfe0c5c>
    1a34:	ac400007 	ldb	r17,0(r21)
    1a38:	8a438726 	beq	r17,r9,2858 <___vfprintf_internal_r+0x1b2c>
    1a3c:	94800414 	ori	r18,r18,16
    1a40:	003d1b06 	br	eb0 <__ram_exceptions_end+0xfbfe0c5c>
    1a44:	18c03fcc 	andi	r3,r3,255
    1a48:	1805341e 	bne	r3,zero,2f1c <___vfprintf_internal_r+0x21f0>
    1a4c:	9080080c 	andi	r2,r18,32
    1a50:	1002cd26 	beq	r2,zero,2588 <___vfprintf_internal_r+0x185c>
    1a54:	d9402d17 	ldw	r5,180(sp)
    1a58:	d9002f17 	ldw	r4,188(sp)
    1a5c:	28800017 	ldw	r2,0(r5)
    1a60:	2007d7fa 	srai	r3,r4,31
    1a64:	29400104 	addi	r5,r5,4
    1a68:	d9402d15 	stw	r5,180(sp)
    1a6c:	11000015 	stw	r4,0(r2)
    1a70:	10c00115 	stw	r3,4(r2)
    1a74:	003ce506 	br	e0c <__ram_exceptions_end+0xfbfe0bb8>
    1a78:	d8c02d17 	ldw	r3,180(sp)
    1a7c:	d9002d17 	ldw	r4,180(sp)
    1a80:	d8002785 	stb	zero,158(sp)
    1a84:	18800017 	ldw	r2,0(r3)
    1a88:	21000104 	addi	r4,r4,4
    1a8c:	00c00044 	movi	r3,1
    1a90:	d8c02a15 	stw	r3,168(sp)
    1a94:	d8801405 	stb	r2,80(sp)
    1a98:	d9002d15 	stw	r4,180(sp)
    1a9c:	d8c02e15 	stw	r3,184(sp)
    1aa0:	d8002915 	stw	zero,164(sp)
    1aa4:	d8003215 	stw	zero,200(sp)
    1aa8:	dc001404 	addi	r16,sp,80
    1aac:	0039883a 	mov	fp,zero
    1ab0:	003e7206 	br	147c <__ram_exceptions_end+0xfbfe1228>
    1ab4:	01000074 	movhi	r4,1
    1ab8:	21004904 	addi	r4,r4,292
    1abc:	0039883a 	mov	fp,zero
    1ac0:	d9003915 	stw	r4,228(sp)
    1ac4:	04401e04 	movi	r17,120
    1ac8:	003f8206 	br	18d4 <__ram_exceptions_end+0xfbfe1680>
    1acc:	18c03fcc 	andi	r3,r3,255
    1ad0:	1805061e 	bne	r3,zero,2eec <___vfprintf_internal_r+0x21c0>
    1ad4:	883d9126 	beq	r17,zero,111c <__ram_exceptions_end+0xfbfe0ec8>
    1ad8:	00c00044 	movi	r3,1
    1adc:	d8c02a15 	stw	r3,168(sp)
    1ae0:	dc401405 	stb	r17,80(sp)
    1ae4:	d8002785 	stb	zero,158(sp)
    1ae8:	003fec06 	br	1a9c <__ram_exceptions_end+0xfbfe1848>
    1aec:	01400074 	movhi	r5,1
    1af0:	29404904 	addi	r5,r5,292
    1af4:	d9403915 	stw	r5,228(sp)
    1af8:	d8c02d15 	stw	r3,180(sp)
    1afc:	1025883a 	mov	r18,r2
    1b00:	04401e04 	movi	r17,120
    1b04:	9d84b03a 	or	r2,r19,r22
    1b08:	1000fc1e 	bne	r2,zero,1efc <___vfprintf_internal_r+0x11d0>
    1b0c:	0039883a 	mov	fp,zero
    1b10:	00800084 	movi	r2,2
    1b14:	10803fcc 	andi	r2,r2,255
    1b18:	00c00044 	movi	r3,1
    1b1c:	10c20f26 	beq	r2,r3,235c <___vfprintf_internal_r+0x1630>
    1b20:	00c00084 	movi	r3,2
    1b24:	10fd6326 	beq	r2,r3,10b4 <__ram_exceptions_end+0xfbfe0e60>
    1b28:	003e2d06 	br	13e0 <__ram_exceptions_end+0xfbfe118c>
    1b2c:	d8c02017 	ldw	r3,128(sp)
    1b30:	003e9306 	br	1580 <__ram_exceptions_end+0xfbfe132c>
    1b34:	00801944 	movi	r2,101
    1b38:	14407e0e 	bge	r2,r17,1d34 <___vfprintf_internal_r+0x1008>
    1b3c:	d9003617 	ldw	r4,216(sp)
    1b40:	d9403817 	ldw	r5,224(sp)
    1b44:	000d883a 	mov	r6,zero
    1b48:	000f883a 	mov	r7,zero
    1b4c:	d8c03c15 	stw	r3,240(sp)
    1b50:	da003d15 	stw	r8,244(sp)
    1b54:	000be840 	call	be84 <__eqdf2>
    1b58:	d8c03c17 	ldw	r3,240(sp)
    1b5c:	da003d17 	ldw	r8,244(sp)
    1b60:	1000f71e 	bne	r2,zero,1f40 <___vfprintf_internal_r+0x1214>
    1b64:	d8801f17 	ldw	r2,124(sp)
    1b68:	01000074 	movhi	r4,1
    1b6c:	21005004 	addi	r4,r4,320
    1b70:	18c00044 	addi	r3,r3,1
    1b74:	10800044 	addi	r2,r2,1
    1b78:	41000015 	stw	r4,0(r8)
    1b7c:	01000044 	movi	r4,1
    1b80:	41000115 	stw	r4,4(r8)
    1b84:	d8c02015 	stw	r3,128(sp)
    1b88:	d8801f15 	stw	r2,124(sp)
    1b8c:	010001c4 	movi	r4,7
    1b90:	2082b816 	blt	r4,r2,2674 <___vfprintf_internal_r+0x1948>
    1b94:	42000204 	addi	r8,r8,8
    1b98:	d8802617 	ldw	r2,152(sp)
    1b9c:	d9403317 	ldw	r5,204(sp)
    1ba0:	11400216 	blt	r2,r5,1bac <___vfprintf_internal_r+0xe80>
    1ba4:	9080004c 	andi	r2,r18,1
    1ba8:	103ed526 	beq	r2,zero,1700 <__ram_exceptions_end+0xfbfe14ac>
    1bac:	d8803717 	ldw	r2,220(sp)
    1bb0:	d9003417 	ldw	r4,208(sp)
    1bb4:	d9403717 	ldw	r5,220(sp)
    1bb8:	1887883a 	add	r3,r3,r2
    1bbc:	d8801f17 	ldw	r2,124(sp)
    1bc0:	41000015 	stw	r4,0(r8)
    1bc4:	41400115 	stw	r5,4(r8)
    1bc8:	10800044 	addi	r2,r2,1
    1bcc:	d8c02015 	stw	r3,128(sp)
    1bd0:	d8801f15 	stw	r2,124(sp)
    1bd4:	010001c4 	movi	r4,7
    1bd8:	20832916 	blt	r4,r2,2880 <___vfprintf_internal_r+0x1b54>
    1bdc:	42000204 	addi	r8,r8,8
    1be0:	d8803317 	ldw	r2,204(sp)
    1be4:	143fffc4 	addi	r16,r2,-1
    1be8:	043ec50e 	bge	zero,r16,1700 <__ram_exceptions_end+0xfbfe14ac>
    1bec:	04400404 	movi	r17,16
    1bf0:	d8801f17 	ldw	r2,124(sp)
    1bf4:	8c00880e 	bge	r17,r16,1e18 <___vfprintf_internal_r+0x10ec>
    1bf8:	01400074 	movhi	r5,1
    1bfc:	29405084 	addi	r5,r5,322
    1c00:	d9402b15 	stw	r5,172(sp)
    1c04:	058001c4 	movi	r22,7
    1c08:	dcc02c17 	ldw	r19,176(sp)
    1c0c:	00000306 	br	1c1c <___vfprintf_internal_r+0xef0>
    1c10:	42000204 	addi	r8,r8,8
    1c14:	843ffc04 	addi	r16,r16,-16
    1c18:	8c00820e 	bge	r17,r16,1e24 <___vfprintf_internal_r+0x10f8>
    1c1c:	18c00404 	addi	r3,r3,16
    1c20:	10800044 	addi	r2,r2,1
    1c24:	45000015 	stw	r20,0(r8)
    1c28:	44400115 	stw	r17,4(r8)
    1c2c:	d8c02015 	stw	r3,128(sp)
    1c30:	d8801f15 	stw	r2,124(sp)
    1c34:	b0bff60e 	bge	r22,r2,1c10 <__ram_exceptions_end+0xfbfe19bc>
    1c38:	d9801e04 	addi	r6,sp,120
    1c3c:	b80b883a 	mov	r5,r23
    1c40:	9809883a 	mov	r4,r19
    1c44:	00078440 	call	7844 <__sprint_r>
    1c48:	103d3a1e 	bne	r2,zero,1134 <__ram_exceptions_end+0xfbfe0ee0>
    1c4c:	d8c02017 	ldw	r3,128(sp)
    1c50:	d8801f17 	ldw	r2,124(sp)
    1c54:	da000404 	addi	r8,sp,16
    1c58:	003fee06 	br	1c14 <__ram_exceptions_end+0xfbfe19c0>
    1c5c:	d9403117 	ldw	r5,196(sp)
    1c60:	d8802a17 	ldw	r2,168(sp)
    1c64:	28adc83a 	sub	r22,r5,r2
    1c68:	05be630e 	bge	zero,r22,15f8 <__ram_exceptions_end+0xfbfe13a4>
    1c6c:	07000404 	movi	fp,16
    1c70:	d8801f17 	ldw	r2,124(sp)
    1c74:	e5838f0e 	bge	fp,r22,2ab4 <___vfprintf_internal_r+0x1d88>
    1c78:	01400074 	movhi	r5,1
    1c7c:	29405084 	addi	r5,r5,322
    1c80:	dc403015 	stw	r17,192(sp)
    1c84:	d9402b15 	stw	r5,172(sp)
    1c88:	b023883a 	mov	r17,r22
    1c8c:	04c001c4 	movi	r19,7
    1c90:	a82d883a 	mov	r22,r21
    1c94:	902b883a 	mov	r21,r18
    1c98:	8025883a 	mov	r18,r16
    1c9c:	dc002c17 	ldw	r16,176(sp)
    1ca0:	00000306 	br	1cb0 <___vfprintf_internal_r+0xf84>
    1ca4:	8c7ffc04 	addi	r17,r17,-16
    1ca8:	42000204 	addi	r8,r8,8
    1cac:	e440110e 	bge	fp,r17,1cf4 <___vfprintf_internal_r+0xfc8>
    1cb0:	18c00404 	addi	r3,r3,16
    1cb4:	10800044 	addi	r2,r2,1
    1cb8:	45000015 	stw	r20,0(r8)
    1cbc:	47000115 	stw	fp,4(r8)
    1cc0:	d8c02015 	stw	r3,128(sp)
    1cc4:	d8801f15 	stw	r2,124(sp)
    1cc8:	98bff60e 	bge	r19,r2,1ca4 <__ram_exceptions_end+0xfbfe1a50>
    1ccc:	d9801e04 	addi	r6,sp,120
    1cd0:	b80b883a 	mov	r5,r23
    1cd4:	8009883a 	mov	r4,r16
    1cd8:	00078440 	call	7844 <__sprint_r>
    1cdc:	103d151e 	bne	r2,zero,1134 <__ram_exceptions_end+0xfbfe0ee0>
    1ce0:	8c7ffc04 	addi	r17,r17,-16
    1ce4:	d8c02017 	ldw	r3,128(sp)
    1ce8:	d8801f17 	ldw	r2,124(sp)
    1cec:	da000404 	addi	r8,sp,16
    1cf0:	e47fef16 	blt	fp,r17,1cb0 <__ram_exceptions_end+0xfbfe1a5c>
    1cf4:	9021883a 	mov	r16,r18
    1cf8:	a825883a 	mov	r18,r21
    1cfc:	b02b883a 	mov	r21,r22
    1d00:	882d883a 	mov	r22,r17
    1d04:	dc403017 	ldw	r17,192(sp)
    1d08:	d9002b17 	ldw	r4,172(sp)
    1d0c:	1d87883a 	add	r3,r3,r22
    1d10:	10800044 	addi	r2,r2,1
    1d14:	41000015 	stw	r4,0(r8)
    1d18:	45800115 	stw	r22,4(r8)
    1d1c:	d8c02015 	stw	r3,128(sp)
    1d20:	d8801f15 	stw	r2,124(sp)
    1d24:	010001c4 	movi	r4,7
    1d28:	20818e16 	blt	r4,r2,2364 <___vfprintf_internal_r+0x1638>
    1d2c:	42000204 	addi	r8,r8,8
    1d30:	003e3106 	br	15f8 <__ram_exceptions_end+0xfbfe13a4>
    1d34:	d9403317 	ldw	r5,204(sp)
    1d38:	00800044 	movi	r2,1
    1d3c:	18c00044 	addi	r3,r3,1
    1d40:	1141530e 	bge	r2,r5,2290 <___vfprintf_internal_r+0x1564>
    1d44:	dc401f17 	ldw	r17,124(sp)
    1d48:	00800044 	movi	r2,1
    1d4c:	40800115 	stw	r2,4(r8)
    1d50:	8c400044 	addi	r17,r17,1
    1d54:	44000015 	stw	r16,0(r8)
    1d58:	d8c02015 	stw	r3,128(sp)
    1d5c:	dc401f15 	stw	r17,124(sp)
    1d60:	008001c4 	movi	r2,7
    1d64:	14416b16 	blt	r2,r17,2314 <___vfprintf_internal_r+0x15e8>
    1d68:	42000204 	addi	r8,r8,8
    1d6c:	d8803717 	ldw	r2,220(sp)
    1d70:	d9003417 	ldw	r4,208(sp)
    1d74:	8c400044 	addi	r17,r17,1
    1d78:	10c7883a 	add	r3,r2,r3
    1d7c:	40800115 	stw	r2,4(r8)
    1d80:	41000015 	stw	r4,0(r8)
    1d84:	d8c02015 	stw	r3,128(sp)
    1d88:	dc401f15 	stw	r17,124(sp)
    1d8c:	008001c4 	movi	r2,7
    1d90:	14416916 	blt	r2,r17,2338 <___vfprintf_internal_r+0x160c>
    1d94:	45800204 	addi	r22,r8,8
    1d98:	d9003617 	ldw	r4,216(sp)
    1d9c:	d9403817 	ldw	r5,224(sp)
    1da0:	000d883a 	mov	r6,zero
    1da4:	000f883a 	mov	r7,zero
    1da8:	d8c03c15 	stw	r3,240(sp)
    1dac:	000be840 	call	be84 <__eqdf2>
    1db0:	d8c03c17 	ldw	r3,240(sp)
    1db4:	1000bc26 	beq	r2,zero,20a8 <___vfprintf_internal_r+0x137c>
    1db8:	d9403317 	ldw	r5,204(sp)
    1dbc:	84000044 	addi	r16,r16,1
    1dc0:	8c400044 	addi	r17,r17,1
    1dc4:	28bfffc4 	addi	r2,r5,-1
    1dc8:	1887883a 	add	r3,r3,r2
    1dcc:	b0800115 	stw	r2,4(r22)
    1dd0:	b4000015 	stw	r16,0(r22)
    1dd4:	d8c02015 	stw	r3,128(sp)
    1dd8:	dc401f15 	stw	r17,124(sp)
    1ddc:	008001c4 	movi	r2,7
    1de0:	14414316 	blt	r2,r17,22f0 <___vfprintf_internal_r+0x15c4>
    1de4:	b5800204 	addi	r22,r22,8
    1de8:	d9003a17 	ldw	r4,232(sp)
    1dec:	df0022c4 	addi	fp,sp,139
    1df0:	8c400044 	addi	r17,r17,1
    1df4:	20c7883a 	add	r3,r4,r3
    1df8:	b7000015 	stw	fp,0(r22)
    1dfc:	b1000115 	stw	r4,4(r22)
    1e00:	d8c02015 	stw	r3,128(sp)
    1e04:	dc401f15 	stw	r17,124(sp)
    1e08:	008001c4 	movi	r2,7
    1e0c:	14400e16 	blt	r2,r17,1e48 <___vfprintf_internal_r+0x111c>
    1e10:	b2000204 	addi	r8,r22,8
    1e14:	003e3a06 	br	1700 <__ram_exceptions_end+0xfbfe14ac>
    1e18:	01000074 	movhi	r4,1
    1e1c:	21005084 	addi	r4,r4,322
    1e20:	d9002b15 	stw	r4,172(sp)
    1e24:	d9002b17 	ldw	r4,172(sp)
    1e28:	1c07883a 	add	r3,r3,r16
    1e2c:	44000115 	stw	r16,4(r8)
    1e30:	41000015 	stw	r4,0(r8)
    1e34:	10800044 	addi	r2,r2,1
    1e38:	d8c02015 	stw	r3,128(sp)
    1e3c:	d8801f15 	stw	r2,124(sp)
    1e40:	010001c4 	movi	r4,7
    1e44:	20be2d0e 	bge	r4,r2,16fc <__ram_exceptions_end+0xfbfe14a8>
    1e48:	d9002c17 	ldw	r4,176(sp)
    1e4c:	d9801e04 	addi	r6,sp,120
    1e50:	b80b883a 	mov	r5,r23
    1e54:	00078440 	call	7844 <__sprint_r>
    1e58:	103cb61e 	bne	r2,zero,1134 <__ram_exceptions_end+0xfbfe0ee0>
    1e5c:	d8c02017 	ldw	r3,128(sp)
    1e60:	da000404 	addi	r8,sp,16
    1e64:	003e2606 	br	1700 <__ram_exceptions_end+0xfbfe14ac>
    1e68:	d9002c17 	ldw	r4,176(sp)
    1e6c:	d9801e04 	addi	r6,sp,120
    1e70:	b80b883a 	mov	r5,r23
    1e74:	00078440 	call	7844 <__sprint_r>
    1e78:	103e5d26 	beq	r2,zero,17f0 <__ram_exceptions_end+0xfbfe159c>
    1e7c:	003cad06 	br	1134 <__ram_exceptions_end+0xfbfe0ee0>
    1e80:	d9002c17 	ldw	r4,176(sp)
    1e84:	d9801e04 	addi	r6,sp,120
    1e88:	b80b883a 	mov	r5,r23
    1e8c:	00078440 	call	7844 <__sprint_r>
    1e90:	103ca81e 	bne	r2,zero,1134 <__ram_exceptions_end+0xfbfe0ee0>
    1e94:	d8c02017 	ldw	r3,128(sp)
    1e98:	da000404 	addi	r8,sp,16
    1e9c:	003e0b06 	br	16cc <__ram_exceptions_end+0xfbfe1478>
    1ea0:	d9002c17 	ldw	r4,176(sp)
    1ea4:	d9801e04 	addi	r6,sp,120
    1ea8:	b80b883a 	mov	r5,r23
    1eac:	00078440 	call	7844 <__sprint_r>
    1eb0:	103ca01e 	bne	r2,zero,1134 <__ram_exceptions_end+0xfbfe0ee0>
    1eb4:	d8c02017 	ldw	r3,128(sp)
    1eb8:	da000404 	addi	r8,sp,16
    1ebc:	003dbd06 	br	15b4 <__ram_exceptions_end+0xfbfe1360>
    1ec0:	d9002c17 	ldw	r4,176(sp)
    1ec4:	d9801e04 	addi	r6,sp,120
    1ec8:	b80b883a 	mov	r5,r23
    1ecc:	00078440 	call	7844 <__sprint_r>
    1ed0:	103c981e 	bne	r2,zero,1134 <__ram_exceptions_end+0xfbfe0ee0>
    1ed4:	d8c02017 	ldw	r3,128(sp)
    1ed8:	da000404 	addi	r8,sp,16
    1edc:	003dc306 	br	15ec <__ram_exceptions_end+0xfbfe1398>
    1ee0:	d8802917 	ldw	r2,164(sp)
    1ee4:	d8002785 	stb	zero,158(sp)
    1ee8:	103f0616 	blt	r2,zero,1b04 <__ram_exceptions_end+0xfbfe18b0>
    1eec:	00ffdfc4 	movi	r3,-129
    1ef0:	9d84b03a 	or	r2,r19,r22
    1ef4:	90e4703a 	and	r18,r18,r3
    1ef8:	103c6b26 	beq	r2,zero,10a8 <__ram_exceptions_end+0xfbfe0e54>
    1efc:	0039883a 	mov	fp,zero
    1f00:	003e7406 	br	18d4 <__ram_exceptions_end+0xfbfe1680>
    1f04:	9080040c 	andi	r2,r18,16
    1f08:	1001b326 	beq	r2,zero,25d8 <___vfprintf_internal_r+0x18ac>
    1f0c:	d9002d17 	ldw	r4,180(sp)
    1f10:	d9402917 	ldw	r5,164(sp)
    1f14:	d8002785 	stb	zero,158(sp)
    1f18:	20800104 	addi	r2,r4,4
    1f1c:	24c00017 	ldw	r19,0(r4)
    1f20:	002d883a 	mov	r22,zero
    1f24:	2801b516 	blt	r5,zero,25fc <___vfprintf_internal_r+0x18d0>
    1f28:	00ffdfc4 	movi	r3,-129
    1f2c:	d8802d15 	stw	r2,180(sp)
    1f30:	90e4703a 	and	r18,r18,r3
    1f34:	983d2726 	beq	r19,zero,13d4 <__ram_exceptions_end+0xfbfe1180>
    1f38:	0039883a 	mov	fp,zero
    1f3c:	003d2a06 	br	13e8 <__ram_exceptions_end+0xfbfe1194>
    1f40:	dc402617 	ldw	r17,152(sp)
    1f44:	0441d30e 	bge	zero,r17,2694 <___vfprintf_internal_r+0x1968>
    1f48:	dc403217 	ldw	r17,200(sp)
    1f4c:	d8803317 	ldw	r2,204(sp)
    1f50:	1440010e 	bge	r2,r17,1f58 <___vfprintf_internal_r+0x122c>
    1f54:	1023883a 	mov	r17,r2
    1f58:	04400a0e 	bge	zero,r17,1f84 <___vfprintf_internal_r+0x1258>
    1f5c:	d8801f17 	ldw	r2,124(sp)
    1f60:	1c47883a 	add	r3,r3,r17
    1f64:	44000015 	stw	r16,0(r8)
    1f68:	10800044 	addi	r2,r2,1
    1f6c:	44400115 	stw	r17,4(r8)
    1f70:	d8c02015 	stw	r3,128(sp)
    1f74:	d8801f15 	stw	r2,124(sp)
    1f78:	010001c4 	movi	r4,7
    1f7c:	20826516 	blt	r4,r2,2914 <___vfprintf_internal_r+0x1be8>
    1f80:	42000204 	addi	r8,r8,8
    1f84:	88026116 	blt	r17,zero,290c <___vfprintf_internal_r+0x1be0>
    1f88:	d9003217 	ldw	r4,200(sp)
    1f8c:	2463c83a 	sub	r17,r4,r17
    1f90:	04407b0e 	bge	zero,r17,2180 <___vfprintf_internal_r+0x1454>
    1f94:	05800404 	movi	r22,16
    1f98:	d8801f17 	ldw	r2,124(sp)
    1f9c:	b4419d0e 	bge	r22,r17,2614 <___vfprintf_internal_r+0x18e8>
    1fa0:	01000074 	movhi	r4,1
    1fa4:	21005084 	addi	r4,r4,322
    1fa8:	d9002b15 	stw	r4,172(sp)
    1fac:	070001c4 	movi	fp,7
    1fb0:	dcc02c17 	ldw	r19,176(sp)
    1fb4:	00000306 	br	1fc4 <___vfprintf_internal_r+0x1298>
    1fb8:	42000204 	addi	r8,r8,8
    1fbc:	8c7ffc04 	addi	r17,r17,-16
    1fc0:	b441970e 	bge	r22,r17,2620 <___vfprintf_internal_r+0x18f4>
    1fc4:	18c00404 	addi	r3,r3,16
    1fc8:	10800044 	addi	r2,r2,1
    1fcc:	45000015 	stw	r20,0(r8)
    1fd0:	45800115 	stw	r22,4(r8)
    1fd4:	d8c02015 	stw	r3,128(sp)
    1fd8:	d8801f15 	stw	r2,124(sp)
    1fdc:	e0bff60e 	bge	fp,r2,1fb8 <__ram_exceptions_end+0xfbfe1d64>
    1fe0:	d9801e04 	addi	r6,sp,120
    1fe4:	b80b883a 	mov	r5,r23
    1fe8:	9809883a 	mov	r4,r19
    1fec:	00078440 	call	7844 <__sprint_r>
    1ff0:	103c501e 	bne	r2,zero,1134 <__ram_exceptions_end+0xfbfe0ee0>
    1ff4:	d8c02017 	ldw	r3,128(sp)
    1ff8:	d8801f17 	ldw	r2,124(sp)
    1ffc:	da000404 	addi	r8,sp,16
    2000:	003fee06 	br	1fbc <__ram_exceptions_end+0xfbfe1d68>
    2004:	d9002c17 	ldw	r4,176(sp)
    2008:	d9801e04 	addi	r6,sp,120
    200c:	b80b883a 	mov	r5,r23
    2010:	00078440 	call	7844 <__sprint_r>
    2014:	103c471e 	bne	r2,zero,1134 <__ram_exceptions_end+0xfbfe0ee0>
    2018:	d8c02017 	ldw	r3,128(sp)
    201c:	df002787 	ldb	fp,158(sp)
    2020:	da000404 	addi	r8,sp,16
    2024:	003d5606 	br	1580 <__ram_exceptions_end+0xfbfe132c>
    2028:	9080040c 	andi	r2,r18,16
    202c:	10016126 	beq	r2,zero,25b4 <___vfprintf_internal_r+0x1888>
    2030:	d8802d17 	ldw	r2,180(sp)
    2034:	14c00017 	ldw	r19,0(r2)
    2038:	10800104 	addi	r2,r2,4
    203c:	d8802d15 	stw	r2,180(sp)
    2040:	982dd7fa 	srai	r22,r19,31
    2044:	b005883a 	mov	r2,r22
    2048:	003c8206 	br	1254 <__ram_exceptions_end+0xfbfe1000>
    204c:	9080040c 	andi	r2,r18,16
    2050:	10003526 	beq	r2,zero,2128 <___vfprintf_internal_r+0x13fc>
    2054:	d9402d17 	ldw	r5,180(sp)
    2058:	d8c02917 	ldw	r3,164(sp)
    205c:	d8002785 	stb	zero,158(sp)
    2060:	28800104 	addi	r2,r5,4
    2064:	2cc00017 	ldw	r19,0(r5)
    2068:	002d883a 	mov	r22,zero
    206c:	18003716 	blt	r3,zero,214c <___vfprintf_internal_r+0x1420>
    2070:	00ffdfc4 	movi	r3,-129
    2074:	d8802d15 	stw	r2,180(sp)
    2078:	90e4703a 	and	r18,r18,r3
    207c:	0039883a 	mov	fp,zero
    2080:	983df326 	beq	r19,zero,1850 <__ram_exceptions_end+0xfbfe15fc>
    2084:	00800244 	movi	r2,9
    2088:	14fc7b36 	bltu	r2,r19,1278 <__ram_exceptions_end+0xfbfe1024>
    208c:	d8c02817 	ldw	r3,160(sp)
    2090:	dc001dc4 	addi	r16,sp,119
    2094:	9cc00c04 	addi	r19,r19,48
    2098:	1c07c83a 	sub	r3,r3,r16
    209c:	dcc01dc5 	stb	r19,119(sp)
    20a0:	d8c02e15 	stw	r3,184(sp)
    20a4:	003ce806 	br	1448 <__ram_exceptions_end+0xfbfe11f4>
    20a8:	d8803317 	ldw	r2,204(sp)
    20ac:	143fffc4 	addi	r16,r2,-1
    20b0:	043f4d0e 	bge	zero,r16,1de8 <__ram_exceptions_end+0xfbfe1b94>
    20b4:	07000404 	movi	fp,16
    20b8:	e400810e 	bge	fp,r16,22c0 <___vfprintf_internal_r+0x1594>
    20bc:	01400074 	movhi	r5,1
    20c0:	29405084 	addi	r5,r5,322
    20c4:	d9402b15 	stw	r5,172(sp)
    20c8:	01c001c4 	movi	r7,7
    20cc:	dcc02c17 	ldw	r19,176(sp)
    20d0:	00000306 	br	20e0 <___vfprintf_internal_r+0x13b4>
    20d4:	b5800204 	addi	r22,r22,8
    20d8:	843ffc04 	addi	r16,r16,-16
    20dc:	e4007b0e 	bge	fp,r16,22cc <___vfprintf_internal_r+0x15a0>
    20e0:	18c00404 	addi	r3,r3,16
    20e4:	8c400044 	addi	r17,r17,1
    20e8:	b5000015 	stw	r20,0(r22)
    20ec:	b7000115 	stw	fp,4(r22)
    20f0:	d8c02015 	stw	r3,128(sp)
    20f4:	dc401f15 	stw	r17,124(sp)
    20f8:	3c7ff60e 	bge	r7,r17,20d4 <__ram_exceptions_end+0xfbfe1e80>
    20fc:	d9801e04 	addi	r6,sp,120
    2100:	b80b883a 	mov	r5,r23
    2104:	9809883a 	mov	r4,r19
    2108:	d9c03c15 	stw	r7,240(sp)
    210c:	00078440 	call	7844 <__sprint_r>
    2110:	d9c03c17 	ldw	r7,240(sp)
    2114:	103c071e 	bne	r2,zero,1134 <__ram_exceptions_end+0xfbfe0ee0>
    2118:	d8c02017 	ldw	r3,128(sp)
    211c:	dc401f17 	ldw	r17,124(sp)
    2120:	dd800404 	addi	r22,sp,16
    2124:	003fec06 	br	20d8 <__ram_exceptions_end+0xfbfe1e84>
    2128:	9080100c 	andi	r2,r18,64
    212c:	d8002785 	stb	zero,158(sp)
    2130:	10010e26 	beq	r2,zero,256c <___vfprintf_internal_r+0x1840>
    2134:	d9002d17 	ldw	r4,180(sp)
    2138:	d9402917 	ldw	r5,164(sp)
    213c:	002d883a 	mov	r22,zero
    2140:	20800104 	addi	r2,r4,4
    2144:	24c0000b 	ldhu	r19,0(r4)
    2148:	283fc90e 	bge	r5,zero,2070 <__ram_exceptions_end+0xfbfe1e1c>
    214c:	d8802d15 	stw	r2,180(sp)
    2150:	0039883a 	mov	fp,zero
    2154:	9d84b03a 	or	r2,r19,r22
    2158:	103c461e 	bne	r2,zero,1274 <__ram_exceptions_end+0xfbfe1020>
    215c:	00800044 	movi	r2,1
    2160:	003e6c06 	br	1b14 <__ram_exceptions_end+0xfbfe18c0>
    2164:	d9002c17 	ldw	r4,176(sp)
    2168:	d9801e04 	addi	r6,sp,120
    216c:	b80b883a 	mov	r5,r23
    2170:	00078440 	call	7844 <__sprint_r>
    2174:	103bef1e 	bne	r2,zero,1134 <__ram_exceptions_end+0xfbfe0ee0>
    2178:	d8c02017 	ldw	r3,128(sp)
    217c:	da000404 	addi	r8,sp,16
    2180:	d9003217 	ldw	r4,200(sp)
    2184:	d8802617 	ldw	r2,152(sp)
    2188:	d9403317 	ldw	r5,204(sp)
    218c:	8123883a 	add	r17,r16,r4
    2190:	11400216 	blt	r2,r5,219c <___vfprintf_internal_r+0x1470>
    2194:	9100004c 	andi	r4,r18,1
    2198:	20000d26 	beq	r4,zero,21d0 <___vfprintf_internal_r+0x14a4>
    219c:	d9003717 	ldw	r4,220(sp)
    21a0:	d9403417 	ldw	r5,208(sp)
    21a4:	1907883a 	add	r3,r3,r4
    21a8:	d9001f17 	ldw	r4,124(sp)
    21ac:	41400015 	stw	r5,0(r8)
    21b0:	d9403717 	ldw	r5,220(sp)
    21b4:	21000044 	addi	r4,r4,1
    21b8:	d8c02015 	stw	r3,128(sp)
    21bc:	41400115 	stw	r5,4(r8)
    21c0:	d9001f15 	stw	r4,124(sp)
    21c4:	014001c4 	movi	r5,7
    21c8:	2901e816 	blt	r5,r4,296c <___vfprintf_internal_r+0x1c40>
    21cc:	42000204 	addi	r8,r8,8
    21d0:	d9003317 	ldw	r4,204(sp)
    21d4:	8121883a 	add	r16,r16,r4
    21d8:	2085c83a 	sub	r2,r4,r2
    21dc:	8461c83a 	sub	r16,r16,r17
    21e0:	1400010e 	bge	r2,r16,21e8 <___vfprintf_internal_r+0x14bc>
    21e4:	1021883a 	mov	r16,r2
    21e8:	04000a0e 	bge	zero,r16,2214 <___vfprintf_internal_r+0x14e8>
    21ec:	d9001f17 	ldw	r4,124(sp)
    21f0:	1c07883a 	add	r3,r3,r16
    21f4:	44400015 	stw	r17,0(r8)
    21f8:	21000044 	addi	r4,r4,1
    21fc:	44000115 	stw	r16,4(r8)
    2200:	d8c02015 	stw	r3,128(sp)
    2204:	d9001f15 	stw	r4,124(sp)
    2208:	014001c4 	movi	r5,7
    220c:	2901fb16 	blt	r5,r4,29fc <___vfprintf_internal_r+0x1cd0>
    2210:	42000204 	addi	r8,r8,8
    2214:	8001f716 	blt	r16,zero,29f4 <___vfprintf_internal_r+0x1cc8>
    2218:	1421c83a 	sub	r16,r2,r16
    221c:	043d380e 	bge	zero,r16,1700 <__ram_exceptions_end+0xfbfe14ac>
    2220:	04400404 	movi	r17,16
    2224:	d8801f17 	ldw	r2,124(sp)
    2228:	8c3efb0e 	bge	r17,r16,1e18 <__ram_exceptions_end+0xfbfe1bc4>
    222c:	01400074 	movhi	r5,1
    2230:	29405084 	addi	r5,r5,322
    2234:	d9402b15 	stw	r5,172(sp)
    2238:	058001c4 	movi	r22,7
    223c:	dcc02c17 	ldw	r19,176(sp)
    2240:	00000306 	br	2250 <___vfprintf_internal_r+0x1524>
    2244:	42000204 	addi	r8,r8,8
    2248:	843ffc04 	addi	r16,r16,-16
    224c:	8c3ef50e 	bge	r17,r16,1e24 <__ram_exceptions_end+0xfbfe1bd0>
    2250:	18c00404 	addi	r3,r3,16
    2254:	10800044 	addi	r2,r2,1
    2258:	45000015 	stw	r20,0(r8)
    225c:	44400115 	stw	r17,4(r8)
    2260:	d8c02015 	stw	r3,128(sp)
    2264:	d8801f15 	stw	r2,124(sp)
    2268:	b0bff60e 	bge	r22,r2,2244 <__ram_exceptions_end+0xfbfe1ff0>
    226c:	d9801e04 	addi	r6,sp,120
    2270:	b80b883a 	mov	r5,r23
    2274:	9809883a 	mov	r4,r19
    2278:	00078440 	call	7844 <__sprint_r>
    227c:	103bad1e 	bne	r2,zero,1134 <__ram_exceptions_end+0xfbfe0ee0>
    2280:	d8c02017 	ldw	r3,128(sp)
    2284:	d8801f17 	ldw	r2,124(sp)
    2288:	da000404 	addi	r8,sp,16
    228c:	003fee06 	br	2248 <__ram_exceptions_end+0xfbfe1ff4>
    2290:	9088703a 	and	r4,r18,r2
    2294:	203eab1e 	bne	r4,zero,1d44 <__ram_exceptions_end+0xfbfe1af0>
    2298:	dc401f17 	ldw	r17,124(sp)
    229c:	40800115 	stw	r2,4(r8)
    22a0:	44000015 	stw	r16,0(r8)
    22a4:	8c400044 	addi	r17,r17,1
    22a8:	d8c02015 	stw	r3,128(sp)
    22ac:	dc401f15 	stw	r17,124(sp)
    22b0:	008001c4 	movi	r2,7
    22b4:	14400e16 	blt	r2,r17,22f0 <___vfprintf_internal_r+0x15c4>
    22b8:	45800204 	addi	r22,r8,8
    22bc:	003eca06 	br	1de8 <__ram_exceptions_end+0xfbfe1b94>
    22c0:	01000074 	movhi	r4,1
    22c4:	21005084 	addi	r4,r4,322
    22c8:	d9002b15 	stw	r4,172(sp)
    22cc:	d8802b17 	ldw	r2,172(sp)
    22d0:	1c07883a 	add	r3,r3,r16
    22d4:	8c400044 	addi	r17,r17,1
    22d8:	b0800015 	stw	r2,0(r22)
    22dc:	b4000115 	stw	r16,4(r22)
    22e0:	d8c02015 	stw	r3,128(sp)
    22e4:	dc401f15 	stw	r17,124(sp)
    22e8:	008001c4 	movi	r2,7
    22ec:	147ebd0e 	bge	r2,r17,1de4 <__ram_exceptions_end+0xfbfe1b90>
    22f0:	d9002c17 	ldw	r4,176(sp)
    22f4:	d9801e04 	addi	r6,sp,120
    22f8:	b80b883a 	mov	r5,r23
    22fc:	00078440 	call	7844 <__sprint_r>
    2300:	103b8c1e 	bne	r2,zero,1134 <__ram_exceptions_end+0xfbfe0ee0>
    2304:	d8c02017 	ldw	r3,128(sp)
    2308:	dc401f17 	ldw	r17,124(sp)
    230c:	dd800404 	addi	r22,sp,16
    2310:	003eb506 	br	1de8 <__ram_exceptions_end+0xfbfe1b94>
    2314:	d9002c17 	ldw	r4,176(sp)
    2318:	d9801e04 	addi	r6,sp,120
    231c:	b80b883a 	mov	r5,r23
    2320:	00078440 	call	7844 <__sprint_r>
    2324:	103b831e 	bne	r2,zero,1134 <__ram_exceptions_end+0xfbfe0ee0>
    2328:	d8c02017 	ldw	r3,128(sp)
    232c:	dc401f17 	ldw	r17,124(sp)
    2330:	da000404 	addi	r8,sp,16
    2334:	003e8d06 	br	1d6c <__ram_exceptions_end+0xfbfe1b18>
    2338:	d9002c17 	ldw	r4,176(sp)
    233c:	d9801e04 	addi	r6,sp,120
    2340:	b80b883a 	mov	r5,r23
    2344:	00078440 	call	7844 <__sprint_r>
    2348:	103b7a1e 	bne	r2,zero,1134 <__ram_exceptions_end+0xfbfe0ee0>
    234c:	d8c02017 	ldw	r3,128(sp)
    2350:	dc401f17 	ldw	r17,124(sp)
    2354:	dd800404 	addi	r22,sp,16
    2358:	003e8f06 	br	1d98 <__ram_exceptions_end+0xfbfe1b44>
    235c:	0027883a 	mov	r19,zero
    2360:	003f4a06 	br	208c <__ram_exceptions_end+0xfbfe1e38>
    2364:	d9002c17 	ldw	r4,176(sp)
    2368:	d9801e04 	addi	r6,sp,120
    236c:	b80b883a 	mov	r5,r23
    2370:	00078440 	call	7844 <__sprint_r>
    2374:	103b6f1e 	bne	r2,zero,1134 <__ram_exceptions_end+0xfbfe0ee0>
    2378:	d8c02017 	ldw	r3,128(sp)
    237c:	da000404 	addi	r8,sp,16
    2380:	003c9d06 	br	15f8 <__ram_exceptions_end+0xfbfe13a4>
    2384:	04e7c83a 	sub	r19,zero,r19
    2388:	9804c03a 	cmpne	r2,r19,zero
    238c:	05adc83a 	sub	r22,zero,r22
    2390:	b0adc83a 	sub	r22,r22,r2
    2394:	d8802917 	ldw	r2,164(sp)
    2398:	07000b44 	movi	fp,45
    239c:	df002785 	stb	fp,158(sp)
    23a0:	10017b16 	blt	r2,zero,2990 <___vfprintf_internal_r+0x1c64>
    23a4:	00bfdfc4 	movi	r2,-129
    23a8:	90a4703a 	and	r18,r18,r2
    23ac:	003bb106 	br	1274 <__ram_exceptions_end+0xfbfe1020>
    23b0:	d9003617 	ldw	r4,216(sp)
    23b4:	d9403817 	ldw	r5,224(sp)
    23b8:	da003d15 	stw	r8,244(sp)
    23bc:	00073d00 	call	73d0 <__fpclassifyd>
    23c0:	da003d17 	ldw	r8,244(sp)
    23c4:	1000f026 	beq	r2,zero,2788 <___vfprintf_internal_r+0x1a5c>
    23c8:	d9002917 	ldw	r4,164(sp)
    23cc:	05bff7c4 	movi	r22,-33
    23d0:	00bfffc4 	movi	r2,-1
    23d4:	8dac703a 	and	r22,r17,r22
    23d8:	20820026 	beq	r4,r2,2bdc <___vfprintf_internal_r+0x1eb0>
    23dc:	008011c4 	movi	r2,71
    23e0:	b081f726 	beq	r22,r2,2bc0 <___vfprintf_internal_r+0x1e94>
    23e4:	d9003817 	ldw	r4,224(sp)
    23e8:	90c04014 	ori	r3,r18,256
    23ec:	d8c02b15 	stw	r3,172(sp)
    23f0:	20021516 	blt	r4,zero,2c48 <___vfprintf_internal_r+0x1f1c>
    23f4:	dcc03817 	ldw	r19,224(sp)
    23f8:	d8002a05 	stb	zero,168(sp)
    23fc:	00801984 	movi	r2,102
    2400:	8881f926 	beq	r17,r2,2be8 <___vfprintf_internal_r+0x1ebc>
    2404:	00801184 	movi	r2,70
    2408:	88821c26 	beq	r17,r2,2c7c <___vfprintf_internal_r+0x1f50>
    240c:	00801144 	movi	r2,69
    2410:	b081ef26 	beq	r22,r2,2bd0 <___vfprintf_internal_r+0x1ea4>
    2414:	d8c02917 	ldw	r3,164(sp)
    2418:	d8802104 	addi	r2,sp,132
    241c:	d8800315 	stw	r2,12(sp)
    2420:	d9403617 	ldw	r5,216(sp)
    2424:	d8802504 	addi	r2,sp,148
    2428:	d9002c17 	ldw	r4,176(sp)
    242c:	d8800215 	stw	r2,8(sp)
    2430:	d8802604 	addi	r2,sp,152
    2434:	d8c00015 	stw	r3,0(sp)
    2438:	d8800115 	stw	r2,4(sp)
    243c:	01c00084 	movi	r7,2
    2440:	980d883a 	mov	r6,r19
    2444:	d8c03c15 	stw	r3,240(sp)
    2448:	da003d15 	stw	r8,244(sp)
    244c:	00033500 	call	3350 <_dtoa_r>
    2450:	1021883a 	mov	r16,r2
    2454:	008019c4 	movi	r2,103
    2458:	d8c03c17 	ldw	r3,240(sp)
    245c:	da003d17 	ldw	r8,244(sp)
    2460:	88817126 	beq	r17,r2,2a28 <___vfprintf_internal_r+0x1cfc>
    2464:	008011c4 	movi	r2,71
    2468:	88829226 	beq	r17,r2,2eb4 <___vfprintf_internal_r+0x2188>
    246c:	80f9883a 	add	fp,r16,r3
    2470:	d9003617 	ldw	r4,216(sp)
    2474:	000d883a 	mov	r6,zero
    2478:	000f883a 	mov	r7,zero
    247c:	980b883a 	mov	r5,r19
    2480:	da003d15 	stw	r8,244(sp)
    2484:	000be840 	call	be84 <__eqdf2>
    2488:	da003d17 	ldw	r8,244(sp)
    248c:	10018d26 	beq	r2,zero,2ac4 <___vfprintf_internal_r+0x1d98>
    2490:	d8802117 	ldw	r2,132(sp)
    2494:	1700062e 	bgeu	r2,fp,24b0 <___vfprintf_internal_r+0x1784>
    2498:	01000c04 	movi	r4,48
    249c:	10c00044 	addi	r3,r2,1
    24a0:	d8c02115 	stw	r3,132(sp)
    24a4:	11000005 	stb	r4,0(r2)
    24a8:	d8802117 	ldw	r2,132(sp)
    24ac:	173ffb36 	bltu	r2,fp,249c <__ram_exceptions_end+0xfbfe2248>
    24b0:	1405c83a 	sub	r2,r2,r16
    24b4:	d8803315 	stw	r2,204(sp)
    24b8:	008011c4 	movi	r2,71
    24bc:	b0817626 	beq	r22,r2,2a98 <___vfprintf_internal_r+0x1d6c>
    24c0:	00801944 	movi	r2,101
    24c4:	1442810e 	bge	r2,r17,2ecc <___vfprintf_internal_r+0x21a0>
    24c8:	d8c02617 	ldw	r3,152(sp)
    24cc:	00801984 	movi	r2,102
    24d0:	d8c03215 	stw	r3,200(sp)
    24d4:	8881fe26 	beq	r17,r2,2cd0 <___vfprintf_internal_r+0x1fa4>
    24d8:	d8c03217 	ldw	r3,200(sp)
    24dc:	d9003317 	ldw	r4,204(sp)
    24e0:	1901dd16 	blt	r3,r4,2c58 <___vfprintf_internal_r+0x1f2c>
    24e4:	9480004c 	andi	r18,r18,1
    24e8:	90022b1e 	bne	r18,zero,2d98 <___vfprintf_internal_r+0x206c>
    24ec:	1805883a 	mov	r2,r3
    24f0:	18028016 	blt	r3,zero,2ef4 <___vfprintf_internal_r+0x21c8>
    24f4:	d8c03217 	ldw	r3,200(sp)
    24f8:	044019c4 	movi	r17,103
    24fc:	d8c02e15 	stw	r3,184(sp)
    2500:	df002a07 	ldb	fp,168(sp)
    2504:	e001531e 	bne	fp,zero,2a54 <___vfprintf_internal_r+0x1d28>
    2508:	df002783 	ldbu	fp,158(sp)
    250c:	d8802a15 	stw	r2,168(sp)
    2510:	dc802b17 	ldw	r18,172(sp)
    2514:	d8002915 	stw	zero,164(sp)
    2518:	003bd106 	br	1460 <__ram_exceptions_end+0xfbfe120c>
    251c:	d8802d17 	ldw	r2,180(sp)
    2520:	d8c02d17 	ldw	r3,180(sp)
    2524:	d9002d17 	ldw	r4,180(sp)
    2528:	10800017 	ldw	r2,0(r2)
    252c:	18c00117 	ldw	r3,4(r3)
    2530:	21000204 	addi	r4,r4,8
    2534:	d8803615 	stw	r2,216(sp)
    2538:	d8c03815 	stw	r3,224(sp)
    253c:	d9002d15 	stw	r4,180(sp)
    2540:	003b7506 	br	1318 <__ram_exceptions_end+0xfbfe10c4>
    2544:	ac400007 	ldb	r17,0(r21)
    2548:	003a5906 	br	eb0 <__ram_exceptions_end+0xfbfe0c5c>
    254c:	9080100c 	andi	r2,r18,64
    2550:	1000a826 	beq	r2,zero,27f4 <___vfprintf_internal_r+0x1ac8>
    2554:	d9002d17 	ldw	r4,180(sp)
    2558:	002d883a 	mov	r22,zero
    255c:	24c0000b 	ldhu	r19,0(r4)
    2560:	21000104 	addi	r4,r4,4
    2564:	d9002d15 	stw	r4,180(sp)
    2568:	003ccb06 	br	1898 <__ram_exceptions_end+0xfbfe1644>
    256c:	d8c02d17 	ldw	r3,180(sp)
    2570:	d9002917 	ldw	r4,164(sp)
    2574:	002d883a 	mov	r22,zero
    2578:	18800104 	addi	r2,r3,4
    257c:	1cc00017 	ldw	r19,0(r3)
    2580:	203ebb0e 	bge	r4,zero,2070 <__ram_exceptions_end+0xfbfe1e1c>
    2584:	003ef106 	br	214c <__ram_exceptions_end+0xfbfe1ef8>
    2588:	9080040c 	andi	r2,r18,16
    258c:	1000921e 	bne	r2,zero,27d8 <___vfprintf_internal_r+0x1aac>
    2590:	9480100c 	andi	r18,r18,64
    2594:	90013926 	beq	r18,zero,2a7c <___vfprintf_internal_r+0x1d50>
    2598:	d9002d17 	ldw	r4,180(sp)
    259c:	d9402f17 	ldw	r5,188(sp)
    25a0:	20800017 	ldw	r2,0(r4)
    25a4:	21000104 	addi	r4,r4,4
    25a8:	d9002d15 	stw	r4,180(sp)
    25ac:	1140000d 	sth	r5,0(r2)
    25b0:	003a1606 	br	e0c <__ram_exceptions_end+0xfbfe0bb8>
    25b4:	9080100c 	andi	r2,r18,64
    25b8:	10008026 	beq	r2,zero,27bc <___vfprintf_internal_r+0x1a90>
    25bc:	d8c02d17 	ldw	r3,180(sp)
    25c0:	1cc0000f 	ldh	r19,0(r3)
    25c4:	18c00104 	addi	r3,r3,4
    25c8:	d8c02d15 	stw	r3,180(sp)
    25cc:	982dd7fa 	srai	r22,r19,31
    25d0:	b005883a 	mov	r2,r22
    25d4:	003b1f06 	br	1254 <__ram_exceptions_end+0xfbfe1000>
    25d8:	9080100c 	andi	r2,r18,64
    25dc:	d8002785 	stb	zero,158(sp)
    25e0:	10008a1e 	bne	r2,zero,280c <___vfprintf_internal_r+0x1ae0>
    25e4:	d9402d17 	ldw	r5,180(sp)
    25e8:	d8c02917 	ldw	r3,164(sp)
    25ec:	002d883a 	mov	r22,zero
    25f0:	28800104 	addi	r2,r5,4
    25f4:	2cc00017 	ldw	r19,0(r5)
    25f8:	183e4b0e 	bge	r3,zero,1f28 <__ram_exceptions_end+0xfbfe1cd4>
    25fc:	9d86b03a 	or	r3,r19,r22
    2600:	d8802d15 	stw	r2,180(sp)
    2604:	183e4c1e 	bne	r3,zero,1f38 <__ram_exceptions_end+0xfbfe1ce4>
    2608:	0039883a 	mov	fp,zero
    260c:	0005883a 	mov	r2,zero
    2610:	003d4006 	br	1b14 <__ram_exceptions_end+0xfbfe18c0>
    2614:	01400074 	movhi	r5,1
    2618:	29405084 	addi	r5,r5,322
    261c:	d9402b15 	stw	r5,172(sp)
    2620:	d9402b17 	ldw	r5,172(sp)
    2624:	1c47883a 	add	r3,r3,r17
    2628:	10800044 	addi	r2,r2,1
    262c:	41400015 	stw	r5,0(r8)
    2630:	44400115 	stw	r17,4(r8)
    2634:	d8c02015 	stw	r3,128(sp)
    2638:	d8801f15 	stw	r2,124(sp)
    263c:	010001c4 	movi	r4,7
    2640:	20bec816 	blt	r4,r2,2164 <__ram_exceptions_end+0xfbfe1f10>
    2644:	42000204 	addi	r8,r8,8
    2648:	003ecd06 	br	2180 <__ram_exceptions_end+0xfbfe1f2c>
    264c:	d9002917 	ldw	r4,164(sp)
    2650:	d8002785 	stb	zero,158(sp)
    2654:	203d2d16 	blt	r4,zero,1b0c <__ram_exceptions_end+0xfbfe18b8>
    2658:	00bfdfc4 	movi	r2,-129
    265c:	90a4703a 	and	r18,r18,r2
    2660:	003a9106 	br	10a8 <__ram_exceptions_end+0xfbfe0e54>
    2664:	01000074 	movhi	r4,1
    2668:	21005084 	addi	r4,r4,322
    266c:	d9002b15 	stw	r4,172(sp)
    2670:	003c0c06 	br	16a4 <__ram_exceptions_end+0xfbfe1450>
    2674:	d9002c17 	ldw	r4,176(sp)
    2678:	d9801e04 	addi	r6,sp,120
    267c:	b80b883a 	mov	r5,r23
    2680:	00078440 	call	7844 <__sprint_r>
    2684:	103aab1e 	bne	r2,zero,1134 <__ram_exceptions_end+0xfbfe0ee0>
    2688:	d8c02017 	ldw	r3,128(sp)
    268c:	da000404 	addi	r8,sp,16
    2690:	003d4106 	br	1b98 <__ram_exceptions_end+0xfbfe1944>
    2694:	d8801f17 	ldw	r2,124(sp)
    2698:	01400074 	movhi	r5,1
    269c:	01000044 	movi	r4,1
    26a0:	18c00044 	addi	r3,r3,1
    26a4:	10800044 	addi	r2,r2,1
    26a8:	29405004 	addi	r5,r5,320
    26ac:	41000115 	stw	r4,4(r8)
    26b0:	41400015 	stw	r5,0(r8)
    26b4:	d8c02015 	stw	r3,128(sp)
    26b8:	d8801f15 	stw	r2,124(sp)
    26bc:	010001c4 	movi	r4,7
    26c0:	20805c16 	blt	r4,r2,2834 <___vfprintf_internal_r+0x1b08>
    26c4:	42000204 	addi	r8,r8,8
    26c8:	8800041e 	bne	r17,zero,26dc <___vfprintf_internal_r+0x19b0>
    26cc:	d8803317 	ldw	r2,204(sp)
    26d0:	1000021e 	bne	r2,zero,26dc <___vfprintf_internal_r+0x19b0>
    26d4:	9080004c 	andi	r2,r18,1
    26d8:	103c0926 	beq	r2,zero,1700 <__ram_exceptions_end+0xfbfe14ac>
    26dc:	d9003717 	ldw	r4,220(sp)
    26e0:	d8801f17 	ldw	r2,124(sp)
    26e4:	d9403417 	ldw	r5,208(sp)
    26e8:	20c7883a 	add	r3,r4,r3
    26ec:	10800044 	addi	r2,r2,1
    26f0:	41000115 	stw	r4,4(r8)
    26f4:	41400015 	stw	r5,0(r8)
    26f8:	d8c02015 	stw	r3,128(sp)
    26fc:	d8801f15 	stw	r2,124(sp)
    2700:	010001c4 	movi	r4,7
    2704:	20812116 	blt	r4,r2,2b8c <___vfprintf_internal_r+0x1e60>
    2708:	42000204 	addi	r8,r8,8
    270c:	0463c83a 	sub	r17,zero,r17
    2710:	0440730e 	bge	zero,r17,28e0 <___vfprintf_internal_r+0x1bb4>
    2714:	05800404 	movi	r22,16
    2718:	b440860e 	bge	r22,r17,2934 <___vfprintf_internal_r+0x1c08>
    271c:	01400074 	movhi	r5,1
    2720:	29405084 	addi	r5,r5,322
    2724:	d9402b15 	stw	r5,172(sp)
    2728:	070001c4 	movi	fp,7
    272c:	dcc02c17 	ldw	r19,176(sp)
    2730:	00000306 	br	2740 <___vfprintf_internal_r+0x1a14>
    2734:	42000204 	addi	r8,r8,8
    2738:	8c7ffc04 	addi	r17,r17,-16
    273c:	b440800e 	bge	r22,r17,2940 <___vfprintf_internal_r+0x1c14>
    2740:	18c00404 	addi	r3,r3,16
    2744:	10800044 	addi	r2,r2,1
    2748:	45000015 	stw	r20,0(r8)
    274c:	45800115 	stw	r22,4(r8)
    2750:	d8c02015 	stw	r3,128(sp)
    2754:	d8801f15 	stw	r2,124(sp)
    2758:	e0bff60e 	bge	fp,r2,2734 <__ram_exceptions_end+0xfbfe24e0>
    275c:	d9801e04 	addi	r6,sp,120
    2760:	b80b883a 	mov	r5,r23
    2764:	9809883a 	mov	r4,r19
    2768:	00078440 	call	7844 <__sprint_r>
    276c:	103a711e 	bne	r2,zero,1134 <__ram_exceptions_end+0xfbfe0ee0>
    2770:	d8c02017 	ldw	r3,128(sp)
    2774:	d8801f17 	ldw	r2,124(sp)
    2778:	da000404 	addi	r8,sp,16
    277c:	003fee06 	br	2738 <__ram_exceptions_end+0xfbfe24e4>
    2780:	00bfffc4 	movi	r2,-1
    2784:	003a6f06 	br	1144 <__ram_exceptions_end+0xfbfe0ef0>
    2788:	008011c4 	movi	r2,71
    278c:	1440b816 	blt	r2,r17,2a70 <___vfprintf_internal_r+0x1d44>
    2790:	04000074 	movhi	r16,1
    2794:	84004204 	addi	r16,r16,264
    2798:	00c000c4 	movi	r3,3
    279c:	00bfdfc4 	movi	r2,-129
    27a0:	d8c02a15 	stw	r3,168(sp)
    27a4:	90a4703a 	and	r18,r18,r2
    27a8:	df002783 	ldbu	fp,158(sp)
    27ac:	d8c02e15 	stw	r3,184(sp)
    27b0:	d8002915 	stw	zero,164(sp)
    27b4:	d8003215 	stw	zero,200(sp)
    27b8:	003b2906 	br	1460 <__ram_exceptions_end+0xfbfe120c>
    27bc:	d9002d17 	ldw	r4,180(sp)
    27c0:	24c00017 	ldw	r19,0(r4)
    27c4:	21000104 	addi	r4,r4,4
    27c8:	d9002d15 	stw	r4,180(sp)
    27cc:	982dd7fa 	srai	r22,r19,31
    27d0:	b005883a 	mov	r2,r22
    27d4:	003a9f06 	br	1254 <__ram_exceptions_end+0xfbfe1000>
    27d8:	d9402d17 	ldw	r5,180(sp)
    27dc:	d8c02f17 	ldw	r3,188(sp)
    27e0:	28800017 	ldw	r2,0(r5)
    27e4:	29400104 	addi	r5,r5,4
    27e8:	d9402d15 	stw	r5,180(sp)
    27ec:	10c00015 	stw	r3,0(r2)
    27f0:	00398606 	br	e0c <__ram_exceptions_end+0xfbfe0bb8>
    27f4:	d9402d17 	ldw	r5,180(sp)
    27f8:	002d883a 	mov	r22,zero
    27fc:	2cc00017 	ldw	r19,0(r5)
    2800:	29400104 	addi	r5,r5,4
    2804:	d9402d15 	stw	r5,180(sp)
    2808:	003c2306 	br	1898 <__ram_exceptions_end+0xfbfe1644>
    280c:	d8c02d17 	ldw	r3,180(sp)
    2810:	d9002917 	ldw	r4,164(sp)
    2814:	002d883a 	mov	r22,zero
    2818:	18800104 	addi	r2,r3,4
    281c:	1cc0000b 	ldhu	r19,0(r3)
    2820:	203dc10e 	bge	r4,zero,1f28 <__ram_exceptions_end+0xfbfe1cd4>
    2824:	003f7506 	br	25fc <__ram_exceptions_end+0xfbfe23a8>
    2828:	04000074 	movhi	r16,1
    282c:	84004004 	addi	r16,r16,256
    2830:	003acc06 	br	1364 <__ram_exceptions_end+0xfbfe1110>
    2834:	d9002c17 	ldw	r4,176(sp)
    2838:	d9801e04 	addi	r6,sp,120
    283c:	b80b883a 	mov	r5,r23
    2840:	00078440 	call	7844 <__sprint_r>
    2844:	103a3b1e 	bne	r2,zero,1134 <__ram_exceptions_end+0xfbfe0ee0>
    2848:	dc402617 	ldw	r17,152(sp)
    284c:	d8c02017 	ldw	r3,128(sp)
    2850:	da000404 	addi	r8,sp,16
    2854:	003f9c06 	br	26c8 <__ram_exceptions_end+0xfbfe2474>
    2858:	ac400043 	ldbu	r17,1(r21)
    285c:	94800814 	ori	r18,r18,32
    2860:	ad400044 	addi	r21,r21,1
    2864:	8c403fcc 	andi	r17,r17,255
    2868:	8c40201c 	xori	r17,r17,128
    286c:	8c7fe004 	addi	r17,r17,-128
    2870:	00398f06 	br	eb0 <__ram_exceptions_end+0xfbfe0c5c>
    2874:	d8c02d15 	stw	r3,180(sp)
    2878:	0039883a 	mov	fp,zero
    287c:	003e3506 	br	2154 <__ram_exceptions_end+0xfbfe1f00>
    2880:	d9002c17 	ldw	r4,176(sp)
    2884:	d9801e04 	addi	r6,sp,120
    2888:	b80b883a 	mov	r5,r23
    288c:	00078440 	call	7844 <__sprint_r>
    2890:	103a281e 	bne	r2,zero,1134 <__ram_exceptions_end+0xfbfe0ee0>
    2894:	d8c02017 	ldw	r3,128(sp)
    2898:	da000404 	addi	r8,sp,16
    289c:	003cd006 	br	1be0 <__ram_exceptions_end+0xfbfe198c>
    28a0:	8009883a 	mov	r4,r16
    28a4:	da003d15 	stw	r8,244(sp)
    28a8:	00076b00 	call	76b0 <strlen>
    28ac:	d8802e15 	stw	r2,184(sp)
    28b0:	da003d17 	ldw	r8,244(sp)
    28b4:	103c340e 	bge	r2,zero,1988 <__ram_exceptions_end+0xfbfe1734>
    28b8:	0005883a 	mov	r2,zero
    28bc:	003c3206 	br	1988 <__ram_exceptions_end+0xfbfe1734>
    28c0:	d9002c17 	ldw	r4,176(sp)
    28c4:	d9801e04 	addi	r6,sp,120
    28c8:	b80b883a 	mov	r5,r23
    28cc:	00078440 	call	7844 <__sprint_r>
    28d0:	103a181e 	bne	r2,zero,1134 <__ram_exceptions_end+0xfbfe0ee0>
    28d4:	d8c02017 	ldw	r3,128(sp)
    28d8:	d8801f17 	ldw	r2,124(sp)
    28dc:	da000404 	addi	r8,sp,16
    28e0:	d9403317 	ldw	r5,204(sp)
    28e4:	10800044 	addi	r2,r2,1
    28e8:	44000015 	stw	r16,0(r8)
    28ec:	28c7883a 	add	r3,r5,r3
    28f0:	003b7d06 	br	16e8 <__ram_exceptions_end+0xfbfe1494>
    28f4:	01000074 	movhi	r4,1
    28f8:	21005484 	addi	r4,r4,338
    28fc:	d9003515 	stw	r4,212(sp)
    2900:	003b1406 	br	1554 <__ram_exceptions_end+0xfbfe1300>
    2904:	013fffc4 	movi	r4,-1
    2908:	003a3506 	br	11e0 <__ram_exceptions_end+0xfbfe0f8c>
    290c:	0023883a 	mov	r17,zero
    2910:	003d9d06 	br	1f88 <__ram_exceptions_end+0xfbfe1d34>
    2914:	d9002c17 	ldw	r4,176(sp)
    2918:	d9801e04 	addi	r6,sp,120
    291c:	b80b883a 	mov	r5,r23
    2920:	00078440 	call	7844 <__sprint_r>
    2924:	103a031e 	bne	r2,zero,1134 <__ram_exceptions_end+0xfbfe0ee0>
    2928:	d8c02017 	ldw	r3,128(sp)
    292c:	da000404 	addi	r8,sp,16
    2930:	003d9406 	br	1f84 <__ram_exceptions_end+0xfbfe1d30>
    2934:	01000074 	movhi	r4,1
    2938:	21005084 	addi	r4,r4,322
    293c:	d9002b15 	stw	r4,172(sp)
    2940:	d9002b17 	ldw	r4,172(sp)
    2944:	1c47883a 	add	r3,r3,r17
    2948:	10800044 	addi	r2,r2,1
    294c:	41000015 	stw	r4,0(r8)
    2950:	44400115 	stw	r17,4(r8)
    2954:	d8c02015 	stw	r3,128(sp)
    2958:	d8801f15 	stw	r2,124(sp)
    295c:	010001c4 	movi	r4,7
    2960:	20bfd716 	blt	r4,r2,28c0 <__ram_exceptions_end+0xfbfe266c>
    2964:	42000204 	addi	r8,r8,8
    2968:	003fdd06 	br	28e0 <__ram_exceptions_end+0xfbfe268c>
    296c:	d9002c17 	ldw	r4,176(sp)
    2970:	d9801e04 	addi	r6,sp,120
    2974:	b80b883a 	mov	r5,r23
    2978:	00078440 	call	7844 <__sprint_r>
    297c:	1039ed1e 	bne	r2,zero,1134 <__ram_exceptions_end+0xfbfe0ee0>
    2980:	d8802617 	ldw	r2,152(sp)
    2984:	d8c02017 	ldw	r3,128(sp)
    2988:	da000404 	addi	r8,sp,16
    298c:	003e1006 	br	21d0 <__ram_exceptions_end+0xfbfe1f7c>
    2990:	00800044 	movi	r2,1
    2994:	10803fcc 	andi	r2,r2,255
    2998:	00c00044 	movi	r3,1
    299c:	10fa3526 	beq	r2,r3,1274 <__ram_exceptions_end+0xfbfe1020>
    29a0:	00c00084 	movi	r3,2
    29a4:	10fbcb26 	beq	r2,r3,18d4 <__ram_exceptions_end+0xfbfe1680>
    29a8:	003a8f06 	br	13e8 <__ram_exceptions_end+0xfbfe1194>
    29ac:	01000074 	movhi	r4,1
    29b0:	21005484 	addi	r4,r4,338
    29b4:	d9003515 	stw	r4,212(sp)
    29b8:	003b7606 	br	1794 <__ram_exceptions_end+0xfbfe1540>
    29bc:	d8802917 	ldw	r2,164(sp)
    29c0:	00c00184 	movi	r3,6
    29c4:	1880012e 	bgeu	r3,r2,29cc <___vfprintf_internal_r+0x1ca0>
    29c8:	1805883a 	mov	r2,r3
    29cc:	d8802e15 	stw	r2,184(sp)
    29d0:	1000ef16 	blt	r2,zero,2d90 <___vfprintf_internal_r+0x2064>
    29d4:	04000074 	movhi	r16,1
    29d8:	d8802a15 	stw	r2,168(sp)
    29dc:	dcc02d15 	stw	r19,180(sp)
    29e0:	d8002915 	stw	zero,164(sp)
    29e4:	d8003215 	stw	zero,200(sp)
    29e8:	84004e04 	addi	r16,r16,312
    29ec:	0039883a 	mov	fp,zero
    29f0:	003aa206 	br	147c <__ram_exceptions_end+0xfbfe1228>
    29f4:	0021883a 	mov	r16,zero
    29f8:	003e0706 	br	2218 <__ram_exceptions_end+0xfbfe1fc4>
    29fc:	d9002c17 	ldw	r4,176(sp)
    2a00:	d9801e04 	addi	r6,sp,120
    2a04:	b80b883a 	mov	r5,r23
    2a08:	00078440 	call	7844 <__sprint_r>
    2a0c:	1039c91e 	bne	r2,zero,1134 <__ram_exceptions_end+0xfbfe0ee0>
    2a10:	d8802617 	ldw	r2,152(sp)
    2a14:	d9403317 	ldw	r5,204(sp)
    2a18:	d8c02017 	ldw	r3,128(sp)
    2a1c:	da000404 	addi	r8,sp,16
    2a20:	2885c83a 	sub	r2,r5,r2
    2a24:	003dfb06 	br	2214 <__ram_exceptions_end+0xfbfe1fc0>
    2a28:	9080004c 	andi	r2,r18,1
    2a2c:	103e8f1e 	bne	r2,zero,246c <__ram_exceptions_end+0xfbfe2218>
    2a30:	d8802117 	ldw	r2,132(sp)
    2a34:	003e9e06 	br	24b0 <__ram_exceptions_end+0xfbfe225c>
    2a38:	1025883a 	mov	r18,r2
    2a3c:	0039883a 	mov	fp,zero
    2a40:	00800084 	movi	r2,2
    2a44:	003fd306 	br	2994 <__ram_exceptions_end+0xfbfe2740>
    2a48:	07000b44 	movi	fp,45
    2a4c:	df002785 	stb	fp,158(sp)
    2a50:	003a4006 	br	1354 <__ram_exceptions_end+0xfbfe1100>
    2a54:	00c00b44 	movi	r3,45
    2a58:	d8c02785 	stb	r3,158(sp)
    2a5c:	d8802a15 	stw	r2,168(sp)
    2a60:	dc802b17 	ldw	r18,172(sp)
    2a64:	d8002915 	stw	zero,164(sp)
    2a68:	07000b44 	movi	fp,45
    2a6c:	003a8006 	br	1470 <__ram_exceptions_end+0xfbfe121c>
    2a70:	04000074 	movhi	r16,1
    2a74:	84004304 	addi	r16,r16,268
    2a78:	003f4706 	br	2798 <__ram_exceptions_end+0xfbfe2544>
    2a7c:	d8c02d17 	ldw	r3,180(sp)
    2a80:	d9002f17 	ldw	r4,188(sp)
    2a84:	18800017 	ldw	r2,0(r3)
    2a88:	18c00104 	addi	r3,r3,4
    2a8c:	d8c02d15 	stw	r3,180(sp)
    2a90:	11000015 	stw	r4,0(r2)
    2a94:	0038dd06 	br	e0c <__ram_exceptions_end+0xfbfe0bb8>
    2a98:	dd802617 	ldw	r22,152(sp)
    2a9c:	00bfff44 	movi	r2,-3
    2aa0:	b0801c16 	blt	r22,r2,2b14 <___vfprintf_internal_r+0x1de8>
    2aa4:	d9402917 	ldw	r5,164(sp)
    2aa8:	2d801a16 	blt	r5,r22,2b14 <___vfprintf_internal_r+0x1de8>
    2aac:	dd803215 	stw	r22,200(sp)
    2ab0:	003e8906 	br	24d8 <__ram_exceptions_end+0xfbfe2284>
    2ab4:	01000074 	movhi	r4,1
    2ab8:	21005084 	addi	r4,r4,322
    2abc:	d9002b15 	stw	r4,172(sp)
    2ac0:	003c9106 	br	1d08 <__ram_exceptions_end+0xfbfe1ab4>
    2ac4:	e005883a 	mov	r2,fp
    2ac8:	003e7906 	br	24b0 <__ram_exceptions_end+0xfbfe225c>
    2acc:	d9402917 	ldw	r5,164(sp)
    2ad0:	df002783 	ldbu	fp,158(sp)
    2ad4:	dcc02d15 	stw	r19,180(sp)
    2ad8:	d9402a15 	stw	r5,168(sp)
    2adc:	d9402e15 	stw	r5,184(sp)
    2ae0:	d8002915 	stw	zero,164(sp)
    2ae4:	d8003215 	stw	zero,200(sp)
    2ae8:	003a5d06 	br	1460 <__ram_exceptions_end+0xfbfe120c>
    2aec:	9080004c 	andi	r2,r18,1
    2af0:	0039883a 	mov	fp,zero
    2af4:	10000426 	beq	r2,zero,2b08 <___vfprintf_internal_r+0x1ddc>
    2af8:	00800c04 	movi	r2,48
    2afc:	dc001dc4 	addi	r16,sp,119
    2b00:	d8801dc5 	stb	r2,119(sp)
    2b04:	003b8006 	br	1908 <__ram_exceptions_end+0xfbfe16b4>
    2b08:	d8002e15 	stw	zero,184(sp)
    2b0c:	dc001e04 	addi	r16,sp,120
    2b10:	003a4d06 	br	1448 <__ram_exceptions_end+0xfbfe11f4>
    2b14:	8c7fff84 	addi	r17,r17,-2
    2b18:	b5bfffc4 	addi	r22,r22,-1
    2b1c:	dd802615 	stw	r22,152(sp)
    2b20:	dc4022c5 	stb	r17,139(sp)
    2b24:	b000bf16 	blt	r22,zero,2e24 <___vfprintf_internal_r+0x20f8>
    2b28:	00800ac4 	movi	r2,43
    2b2c:	d8802305 	stb	r2,140(sp)
    2b30:	00800244 	movi	r2,9
    2b34:	15807016 	blt	r2,r22,2cf8 <___vfprintf_internal_r+0x1fcc>
    2b38:	00800c04 	movi	r2,48
    2b3c:	b5800c04 	addi	r22,r22,48
    2b40:	d8802345 	stb	r2,141(sp)
    2b44:	dd802385 	stb	r22,142(sp)
    2b48:	d88023c4 	addi	r2,sp,143
    2b4c:	df0022c4 	addi	fp,sp,139
    2b50:	d8c03317 	ldw	r3,204(sp)
    2b54:	1739c83a 	sub	fp,r2,fp
    2b58:	d9003317 	ldw	r4,204(sp)
    2b5c:	e0c7883a 	add	r3,fp,r3
    2b60:	df003a15 	stw	fp,232(sp)
    2b64:	d8c02e15 	stw	r3,184(sp)
    2b68:	00800044 	movi	r2,1
    2b6c:	1100b30e 	bge	r2,r4,2e3c <___vfprintf_internal_r+0x2110>
    2b70:	d8c02e17 	ldw	r3,184(sp)
    2b74:	18c00044 	addi	r3,r3,1
    2b78:	d8c02e15 	stw	r3,184(sp)
    2b7c:	1805883a 	mov	r2,r3
    2b80:	1800ac16 	blt	r3,zero,2e34 <___vfprintf_internal_r+0x2108>
    2b84:	d8003215 	stw	zero,200(sp)
    2b88:	003e5d06 	br	2500 <__ram_exceptions_end+0xfbfe22ac>
    2b8c:	d9002c17 	ldw	r4,176(sp)
    2b90:	d9801e04 	addi	r6,sp,120
    2b94:	b80b883a 	mov	r5,r23
    2b98:	00078440 	call	7844 <__sprint_r>
    2b9c:	1039651e 	bne	r2,zero,1134 <__ram_exceptions_end+0xfbfe0ee0>
    2ba0:	dc402617 	ldw	r17,152(sp)
    2ba4:	d8c02017 	ldw	r3,128(sp)
    2ba8:	d8801f17 	ldw	r2,124(sp)
    2bac:	da000404 	addi	r8,sp,16
    2bb0:	003ed606 	br	270c <__ram_exceptions_end+0xfbfe24b8>
    2bb4:	582b883a 	mov	r21,r11
    2bb8:	d8002915 	stw	zero,164(sp)
    2bbc:	0038bd06 	br	eb4 <__ram_exceptions_end+0xfbfe0c60>
    2bc0:	d8802917 	ldw	r2,164(sp)
    2bc4:	103e071e 	bne	r2,zero,23e4 <__ram_exceptions_end+0xfbfe2190>
    2bc8:	dc002915 	stw	r16,164(sp)
    2bcc:	003e0506 	br	23e4 <__ram_exceptions_end+0xfbfe2190>
    2bd0:	d9002917 	ldw	r4,164(sp)
    2bd4:	20c00044 	addi	r3,r4,1
    2bd8:	003e0f06 	br	2418 <__ram_exceptions_end+0xfbfe21c4>
    2bdc:	01400184 	movi	r5,6
    2be0:	d9402915 	stw	r5,164(sp)
    2be4:	003dff06 	br	23e4 <__ram_exceptions_end+0xfbfe2190>
    2be8:	d8802104 	addi	r2,sp,132
    2bec:	d8800315 	stw	r2,12(sp)
    2bf0:	d8802504 	addi	r2,sp,148
    2bf4:	d8800215 	stw	r2,8(sp)
    2bf8:	d8802604 	addi	r2,sp,152
    2bfc:	d8800115 	stw	r2,4(sp)
    2c00:	d8802917 	ldw	r2,164(sp)
    2c04:	d9403617 	ldw	r5,216(sp)
    2c08:	d9002c17 	ldw	r4,176(sp)
    2c0c:	d8800015 	stw	r2,0(sp)
    2c10:	01c000c4 	movi	r7,3
    2c14:	980d883a 	mov	r6,r19
    2c18:	da003d15 	stw	r8,244(sp)
    2c1c:	00033500 	call	3350 <_dtoa_r>
    2c20:	d8c02917 	ldw	r3,164(sp)
    2c24:	da003d17 	ldw	r8,244(sp)
    2c28:	1021883a 	mov	r16,r2
    2c2c:	10f9883a 	add	fp,r2,r3
    2c30:	81000007 	ldb	r4,0(r16)
    2c34:	00800c04 	movi	r2,48
    2c38:	20805e26 	beq	r4,r2,2db4 <___vfprintf_internal_r+0x2088>
    2c3c:	d8c02617 	ldw	r3,152(sp)
    2c40:	e0f9883a 	add	fp,fp,r3
    2c44:	003e0a06 	br	2470 <__ram_exceptions_end+0xfbfe221c>
    2c48:	00c00b44 	movi	r3,45
    2c4c:	24e0003c 	xorhi	r19,r4,32768
    2c50:	d8c02a05 	stb	r3,168(sp)
    2c54:	003de906 	br	23fc <__ram_exceptions_end+0xfbfe21a8>
    2c58:	d8c03217 	ldw	r3,200(sp)
    2c5c:	00c07a0e 	bge	zero,r3,2e48 <___vfprintf_internal_r+0x211c>
    2c60:	00800044 	movi	r2,1
    2c64:	d9003317 	ldw	r4,204(sp)
    2c68:	1105883a 	add	r2,r2,r4
    2c6c:	d8802e15 	stw	r2,184(sp)
    2c70:	10004e16 	blt	r2,zero,2dac <___vfprintf_internal_r+0x2080>
    2c74:	044019c4 	movi	r17,103
    2c78:	003e2106 	br	2500 <__ram_exceptions_end+0xfbfe22ac>
    2c7c:	d9002917 	ldw	r4,164(sp)
    2c80:	d8802104 	addi	r2,sp,132
    2c84:	d8800315 	stw	r2,12(sp)
    2c88:	d9000015 	stw	r4,0(sp)
    2c8c:	d8802504 	addi	r2,sp,148
    2c90:	d9403617 	ldw	r5,216(sp)
    2c94:	d9002c17 	ldw	r4,176(sp)
    2c98:	d8800215 	stw	r2,8(sp)
    2c9c:	d8802604 	addi	r2,sp,152
    2ca0:	d8800115 	stw	r2,4(sp)
    2ca4:	01c000c4 	movi	r7,3
    2ca8:	980d883a 	mov	r6,r19
    2cac:	da003d15 	stw	r8,244(sp)
    2cb0:	00033500 	call	3350 <_dtoa_r>
    2cb4:	d8c02917 	ldw	r3,164(sp)
    2cb8:	da003d17 	ldw	r8,244(sp)
    2cbc:	1021883a 	mov	r16,r2
    2cc0:	00801184 	movi	r2,70
    2cc4:	80f9883a 	add	fp,r16,r3
    2cc8:	88bfd926 	beq	r17,r2,2c30 <__ram_exceptions_end+0xfbfe29dc>
    2ccc:	003de806 	br	2470 <__ram_exceptions_end+0xfbfe221c>
    2cd0:	d9002917 	ldw	r4,164(sp)
    2cd4:	00c04d0e 	bge	zero,r3,2e0c <___vfprintf_internal_r+0x20e0>
    2cd8:	2000441e 	bne	r4,zero,2dec <___vfprintf_internal_r+0x20c0>
    2cdc:	9480004c 	andi	r18,r18,1
    2ce0:	9000421e 	bne	r18,zero,2dec <___vfprintf_internal_r+0x20c0>
    2ce4:	1805883a 	mov	r2,r3
    2ce8:	18007016 	blt	r3,zero,2eac <___vfprintf_internal_r+0x2180>
    2cec:	d8c03217 	ldw	r3,200(sp)
    2cf0:	d8c02e15 	stw	r3,184(sp)
    2cf4:	003e0206 	br	2500 <__ram_exceptions_end+0xfbfe22ac>
    2cf8:	df0022c4 	addi	fp,sp,139
    2cfc:	dc002915 	stw	r16,164(sp)
    2d00:	4027883a 	mov	r19,r8
    2d04:	e021883a 	mov	r16,fp
    2d08:	b009883a 	mov	r4,r22
    2d0c:	01400284 	movi	r5,10
    2d10:	0000b900 	call	b90 <__modsi3>
    2d14:	10800c04 	addi	r2,r2,48
    2d18:	843fffc4 	addi	r16,r16,-1
    2d1c:	b009883a 	mov	r4,r22
    2d20:	01400284 	movi	r5,10
    2d24:	80800005 	stb	r2,0(r16)
    2d28:	0000b0c0 	call	b0c <__divsi3>
    2d2c:	102d883a 	mov	r22,r2
    2d30:	00800244 	movi	r2,9
    2d34:	15bff416 	blt	r2,r22,2d08 <__ram_exceptions_end+0xfbfe2ab4>
    2d38:	9811883a 	mov	r8,r19
    2d3c:	b0800c04 	addi	r2,r22,48
    2d40:	8027883a 	mov	r19,r16
    2d44:	997fffc4 	addi	r5,r19,-1
    2d48:	98bfffc5 	stb	r2,-1(r19)
    2d4c:	dc002917 	ldw	r16,164(sp)
    2d50:	2f006a2e 	bgeu	r5,fp,2efc <___vfprintf_internal_r+0x21d0>
    2d54:	d9c02384 	addi	r7,sp,142
    2d58:	3ccfc83a 	sub	r7,r7,r19
    2d5c:	d9002344 	addi	r4,sp,141
    2d60:	e1cf883a 	add	r7,fp,r7
    2d64:	00000106 	br	2d6c <___vfprintf_internal_r+0x2040>
    2d68:	28800003 	ldbu	r2,0(r5)
    2d6c:	20800005 	stb	r2,0(r4)
    2d70:	21000044 	addi	r4,r4,1
    2d74:	29400044 	addi	r5,r5,1
    2d78:	393ffb1e 	bne	r7,r4,2d68 <__ram_exceptions_end+0xfbfe2b14>
    2d7c:	d8802304 	addi	r2,sp,140
    2d80:	14c5c83a 	sub	r2,r2,r19
    2d84:	d8c02344 	addi	r3,sp,141
    2d88:	1885883a 	add	r2,r3,r2
    2d8c:	003f7006 	br	2b50 <__ram_exceptions_end+0xfbfe28fc>
    2d90:	0005883a 	mov	r2,zero
    2d94:	003f0f06 	br	29d4 <__ram_exceptions_end+0xfbfe2780>
    2d98:	d8c03217 	ldw	r3,200(sp)
    2d9c:	18c00044 	addi	r3,r3,1
    2da0:	d8c02e15 	stw	r3,184(sp)
    2da4:	1805883a 	mov	r2,r3
    2da8:	183fb20e 	bge	r3,zero,2c74 <__ram_exceptions_end+0xfbfe2a20>
    2dac:	0005883a 	mov	r2,zero
    2db0:	003fb006 	br	2c74 <__ram_exceptions_end+0xfbfe2a20>
    2db4:	d9003617 	ldw	r4,216(sp)
    2db8:	000d883a 	mov	r6,zero
    2dbc:	000f883a 	mov	r7,zero
    2dc0:	980b883a 	mov	r5,r19
    2dc4:	d8c03c15 	stw	r3,240(sp)
    2dc8:	da003d15 	stw	r8,244(sp)
    2dcc:	000be840 	call	be84 <__eqdf2>
    2dd0:	d8c03c17 	ldw	r3,240(sp)
    2dd4:	da003d17 	ldw	r8,244(sp)
    2dd8:	103f9826 	beq	r2,zero,2c3c <__ram_exceptions_end+0xfbfe29e8>
    2ddc:	00800044 	movi	r2,1
    2de0:	10c7c83a 	sub	r3,r2,r3
    2de4:	d8c02615 	stw	r3,152(sp)
    2de8:	003f9506 	br	2c40 <__ram_exceptions_end+0xfbfe29ec>
    2dec:	d9002917 	ldw	r4,164(sp)
    2df0:	d8c03217 	ldw	r3,200(sp)
    2df4:	20800044 	addi	r2,r4,1
    2df8:	1885883a 	add	r2,r3,r2
    2dfc:	d8802e15 	stw	r2,184(sp)
    2e00:	103dbf0e 	bge	r2,zero,2500 <__ram_exceptions_end+0xfbfe22ac>
    2e04:	0005883a 	mov	r2,zero
    2e08:	003dbd06 	br	2500 <__ram_exceptions_end+0xfbfe22ac>
    2e0c:	2000211e 	bne	r4,zero,2e94 <___vfprintf_internal_r+0x2168>
    2e10:	9480004c 	andi	r18,r18,1
    2e14:	90001f1e 	bne	r18,zero,2e94 <___vfprintf_internal_r+0x2168>
    2e18:	00800044 	movi	r2,1
    2e1c:	d8802e15 	stw	r2,184(sp)
    2e20:	003db706 	br	2500 <__ram_exceptions_end+0xfbfe22ac>
    2e24:	00800b44 	movi	r2,45
    2e28:	05adc83a 	sub	r22,zero,r22
    2e2c:	d8802305 	stb	r2,140(sp)
    2e30:	003f3f06 	br	2b30 <__ram_exceptions_end+0xfbfe28dc>
    2e34:	0005883a 	mov	r2,zero
    2e38:	003f5206 	br	2b84 <__ram_exceptions_end+0xfbfe2930>
    2e3c:	90a4703a 	and	r18,r18,r2
    2e40:	903f4e26 	beq	r18,zero,2b7c <__ram_exceptions_end+0xfbfe2928>
    2e44:	003f4a06 	br	2b70 <__ram_exceptions_end+0xfbfe291c>
    2e48:	00800084 	movi	r2,2
    2e4c:	10c5c83a 	sub	r2,r2,r3
    2e50:	003f8406 	br	2c64 <__ram_exceptions_end+0xfbfe2a10>
    2e54:	d8802d17 	ldw	r2,180(sp)
    2e58:	d9002d17 	ldw	r4,180(sp)
    2e5c:	ac400043 	ldbu	r17,1(r21)
    2e60:	10800017 	ldw	r2,0(r2)
    2e64:	582b883a 	mov	r21,r11
    2e68:	d8802915 	stw	r2,164(sp)
    2e6c:	20800104 	addi	r2,r4,4
    2e70:	d9002917 	ldw	r4,164(sp)
    2e74:	d8802d15 	stw	r2,180(sp)
    2e78:	203e7a0e 	bge	r4,zero,2864 <__ram_exceptions_end+0xfbfe2610>
    2e7c:	8c403fcc 	andi	r17,r17,255
    2e80:	00bfffc4 	movi	r2,-1
    2e84:	8c40201c 	xori	r17,r17,128
    2e88:	d8802915 	stw	r2,164(sp)
    2e8c:	8c7fe004 	addi	r17,r17,-128
    2e90:	00380706 	br	eb0 <__ram_exceptions_end+0xfbfe0c5c>
    2e94:	d8c02917 	ldw	r3,164(sp)
    2e98:	18c00084 	addi	r3,r3,2
    2e9c:	d8c02e15 	stw	r3,184(sp)
    2ea0:	1805883a 	mov	r2,r3
    2ea4:	183d960e 	bge	r3,zero,2500 <__ram_exceptions_end+0xfbfe22ac>
    2ea8:	003fd606 	br	2e04 <__ram_exceptions_end+0xfbfe2bb0>
    2eac:	0005883a 	mov	r2,zero
    2eb0:	003f8e06 	br	2cec <__ram_exceptions_end+0xfbfe2a98>
    2eb4:	9080004c 	andi	r2,r18,1
    2eb8:	103f811e 	bne	r2,zero,2cc0 <__ram_exceptions_end+0xfbfe2a6c>
    2ebc:	d8802117 	ldw	r2,132(sp)
    2ec0:	1405c83a 	sub	r2,r2,r16
    2ec4:	d8803315 	stw	r2,204(sp)
    2ec8:	b47ef326 	beq	r22,r17,2a98 <__ram_exceptions_end+0xfbfe2844>
    2ecc:	dd802617 	ldw	r22,152(sp)
    2ed0:	003f1106 	br	2b18 <__ram_exceptions_end+0xfbfe28c4>
    2ed4:	d9c02785 	stb	r7,158(sp)
    2ed8:	00390406 	br	12ec <__ram_exceptions_end+0xfbfe1098>
    2edc:	d9c02785 	stb	r7,158(sp)
    2ee0:	0038d306 	br	1230 <__ram_exceptions_end+0xfbfe0fdc>
    2ee4:	d9c02785 	stb	r7,158(sp)
    2ee8:	003a6106 	br	1870 <__ram_exceptions_end+0xfbfe161c>
    2eec:	d9c02785 	stb	r7,158(sp)
    2ef0:	003af806 	br	1ad4 <__ram_exceptions_end+0xfbfe1880>
    2ef4:	0005883a 	mov	r2,zero
    2ef8:	003d7e06 	br	24f4 <__ram_exceptions_end+0xfbfe22a0>
    2efc:	d8802344 	addi	r2,sp,141
    2f00:	003f1306 	br	2b50 <__ram_exceptions_end+0xfbfe28fc>
    2f04:	d9c02785 	stb	r7,158(sp)
    2f08:	00392306 	br	1398 <__ram_exceptions_end+0xfbfe1144>
    2f0c:	d9c02785 	stb	r7,158(sp)
    2f10:	003aa906 	br	19b8 <__ram_exceptions_end+0xfbfe1764>
    2f14:	d9c02785 	stb	r7,158(sp)
    2f18:	003a3d06 	br	1810 <__ram_exceptions_end+0xfbfe15bc>
    2f1c:	d9c02785 	stb	r7,158(sp)
    2f20:	003aca06 	br	1a4c <__ram_exceptions_end+0xfbfe17f8>

00002f24 <__vfprintf_internal>:
    2f24:	00800074 	movhi	r2,1
    2f28:	1087ab04 	addi	r2,r2,7852
    2f2c:	300f883a 	mov	r7,r6
    2f30:	280d883a 	mov	r6,r5
    2f34:	200b883a 	mov	r5,r4
    2f38:	11000017 	ldw	r4,0(r2)
    2f3c:	0000d2c1 	jmpi	d2c <___vfprintf_internal_r>

00002f40 <__sbprintf>:
    2f40:	2880030b 	ldhu	r2,12(r5)
    2f44:	2ac01917 	ldw	r11,100(r5)
    2f48:	2a80038b 	ldhu	r10,14(r5)
    2f4c:	2a400717 	ldw	r9,28(r5)
    2f50:	2a000917 	ldw	r8,36(r5)
    2f54:	defee204 	addi	sp,sp,-1144
    2f58:	00c10004 	movi	r3,1024
    2f5c:	dc011a15 	stw	r16,1128(sp)
    2f60:	10bfff4c 	andi	r2,r2,65533
    2f64:	2821883a 	mov	r16,r5
    2f68:	d8cb883a 	add	r5,sp,r3
    2f6c:	dc811c15 	stw	r18,1136(sp)
    2f70:	dc411b15 	stw	r17,1132(sp)
    2f74:	dfc11d15 	stw	ra,1140(sp)
    2f78:	2025883a 	mov	r18,r4
    2f7c:	d881030d 	sth	r2,1036(sp)
    2f80:	dac11915 	stw	r11,1124(sp)
    2f84:	da81038d 	sth	r10,1038(sp)
    2f88:	da410715 	stw	r9,1052(sp)
    2f8c:	da010915 	stw	r8,1060(sp)
    2f90:	dec10015 	stw	sp,1024(sp)
    2f94:	dec10415 	stw	sp,1040(sp)
    2f98:	d8c10215 	stw	r3,1032(sp)
    2f9c:	d8c10515 	stw	r3,1044(sp)
    2fa0:	d8010615 	stw	zero,1048(sp)
    2fa4:	0000d2c0 	call	d2c <___vfprintf_internal_r>
    2fa8:	1023883a 	mov	r17,r2
    2fac:	10000416 	blt	r2,zero,2fc0 <__sbprintf+0x80>
    2fb0:	d9410004 	addi	r5,sp,1024
    2fb4:	9009883a 	mov	r4,r18
    2fb8:	0004bf40 	call	4bf4 <_fflush_r>
    2fbc:	10000d1e 	bne	r2,zero,2ff4 <__sbprintf+0xb4>
    2fc0:	d881030b 	ldhu	r2,1036(sp)
    2fc4:	1080100c 	andi	r2,r2,64
    2fc8:	10000326 	beq	r2,zero,2fd8 <__sbprintf+0x98>
    2fcc:	8080030b 	ldhu	r2,12(r16)
    2fd0:	10801014 	ori	r2,r2,64
    2fd4:	8080030d 	sth	r2,12(r16)
    2fd8:	8805883a 	mov	r2,r17
    2fdc:	dfc11d17 	ldw	ra,1140(sp)
    2fe0:	dc811c17 	ldw	r18,1136(sp)
    2fe4:	dc411b17 	ldw	r17,1132(sp)
    2fe8:	dc011a17 	ldw	r16,1128(sp)
    2fec:	dec11e04 	addi	sp,sp,1144
    2ff0:	f800283a 	ret
    2ff4:	047fffc4 	movi	r17,-1
    2ff8:	003ff106 	br	2fc0 <__ram_exceptions_end+0xfbfe2d6c>

00002ffc <__swsetup_r>:
    2ffc:	00800074 	movhi	r2,1
    3000:	defffd04 	addi	sp,sp,-12
    3004:	1087ab04 	addi	r2,r2,7852
    3008:	dc400115 	stw	r17,4(sp)
    300c:	2023883a 	mov	r17,r4
    3010:	11000017 	ldw	r4,0(r2)
    3014:	dc000015 	stw	r16,0(sp)
    3018:	dfc00215 	stw	ra,8(sp)
    301c:	2821883a 	mov	r16,r5
    3020:	20000226 	beq	r4,zero,302c <__swsetup_r+0x30>
    3024:	20800e17 	ldw	r2,56(r4)
    3028:	10003126 	beq	r2,zero,30f0 <__swsetup_r+0xf4>
    302c:	8080030b 	ldhu	r2,12(r16)
    3030:	10c0020c 	andi	r3,r2,8
    3034:	1009883a 	mov	r4,r2
    3038:	18000f26 	beq	r3,zero,3078 <__swsetup_r+0x7c>
    303c:	80c00417 	ldw	r3,16(r16)
    3040:	18001526 	beq	r3,zero,3098 <__swsetup_r+0x9c>
    3044:	1100004c 	andi	r4,r2,1
    3048:	20001c1e 	bne	r4,zero,30bc <__swsetup_r+0xc0>
    304c:	1080008c 	andi	r2,r2,2
    3050:	1000291e 	bne	r2,zero,30f8 <__swsetup_r+0xfc>
    3054:	80800517 	ldw	r2,20(r16)
    3058:	80800215 	stw	r2,8(r16)
    305c:	18001c26 	beq	r3,zero,30d0 <__swsetup_r+0xd4>
    3060:	0005883a 	mov	r2,zero
    3064:	dfc00217 	ldw	ra,8(sp)
    3068:	dc400117 	ldw	r17,4(sp)
    306c:	dc000017 	ldw	r16,0(sp)
    3070:	dec00304 	addi	sp,sp,12
    3074:	f800283a 	ret
    3078:	2080040c 	andi	r2,r4,16
    307c:	10002e26 	beq	r2,zero,3138 <__swsetup_r+0x13c>
    3080:	2080010c 	andi	r2,r4,4
    3084:	10001e1e 	bne	r2,zero,3100 <__swsetup_r+0x104>
    3088:	80c00417 	ldw	r3,16(r16)
    308c:	20800214 	ori	r2,r4,8
    3090:	8080030d 	sth	r2,12(r16)
    3094:	183feb1e 	bne	r3,zero,3044 <__ram_exceptions_end+0xfbfe2df0>
    3098:	1100a00c 	andi	r4,r2,640
    309c:	01408004 	movi	r5,512
    30a0:	217fe826 	beq	r4,r5,3044 <__ram_exceptions_end+0xfbfe2df0>
    30a4:	800b883a 	mov	r5,r16
    30a8:	8809883a 	mov	r4,r17
    30ac:	00056b80 	call	56b8 <__smakebuf_r>
    30b0:	8080030b 	ldhu	r2,12(r16)
    30b4:	80c00417 	ldw	r3,16(r16)
    30b8:	003fe206 	br	3044 <__ram_exceptions_end+0xfbfe2df0>
    30bc:	80800517 	ldw	r2,20(r16)
    30c0:	80000215 	stw	zero,8(r16)
    30c4:	0085c83a 	sub	r2,zero,r2
    30c8:	80800615 	stw	r2,24(r16)
    30cc:	183fe41e 	bne	r3,zero,3060 <__ram_exceptions_end+0xfbfe2e0c>
    30d0:	80c0030b 	ldhu	r3,12(r16)
    30d4:	0005883a 	mov	r2,zero
    30d8:	1900200c 	andi	r4,r3,128
    30dc:	203fe126 	beq	r4,zero,3064 <__ram_exceptions_end+0xfbfe2e10>
    30e0:	18c01014 	ori	r3,r3,64
    30e4:	80c0030d 	sth	r3,12(r16)
    30e8:	00bfffc4 	movi	r2,-1
    30ec:	003fdd06 	br	3064 <__ram_exceptions_end+0xfbfe2e10>
    30f0:	0004fd00 	call	4fd0 <__sinit>
    30f4:	003fcd06 	br	302c <__ram_exceptions_end+0xfbfe2dd8>
    30f8:	0005883a 	mov	r2,zero
    30fc:	003fd606 	br	3058 <__ram_exceptions_end+0xfbfe2e04>
    3100:	81400c17 	ldw	r5,48(r16)
    3104:	28000626 	beq	r5,zero,3120 <__swsetup_r+0x124>
    3108:	80801004 	addi	r2,r16,64
    310c:	28800326 	beq	r5,r2,311c <__swsetup_r+0x120>
    3110:	8809883a 	mov	r4,r17
    3114:	00051440 	call	5144 <_free_r>
    3118:	8100030b 	ldhu	r4,12(r16)
    311c:	80000c15 	stw	zero,48(r16)
    3120:	80c00417 	ldw	r3,16(r16)
    3124:	00bff6c4 	movi	r2,-37
    3128:	1108703a 	and	r4,r2,r4
    312c:	80000115 	stw	zero,4(r16)
    3130:	80c00015 	stw	r3,0(r16)
    3134:	003fd506 	br	308c <__ram_exceptions_end+0xfbfe2e38>
    3138:	00800244 	movi	r2,9
    313c:	88800015 	stw	r2,0(r17)
    3140:	20801014 	ori	r2,r4,64
    3144:	8080030d 	sth	r2,12(r16)
    3148:	00bfffc4 	movi	r2,-1
    314c:	003fc506 	br	3064 <__ram_exceptions_end+0xfbfe2e10>

00003150 <quorem>:
    3150:	defff704 	addi	sp,sp,-36
    3154:	dc800215 	stw	r18,8(sp)
    3158:	20800417 	ldw	r2,16(r4)
    315c:	2c800417 	ldw	r18,16(r5)
    3160:	dfc00815 	stw	ra,32(sp)
    3164:	ddc00715 	stw	r23,28(sp)
    3168:	dd800615 	stw	r22,24(sp)
    316c:	dd400515 	stw	r21,20(sp)
    3170:	dd000415 	stw	r20,16(sp)
    3174:	dcc00315 	stw	r19,12(sp)
    3178:	dc400115 	stw	r17,4(sp)
    317c:	dc000015 	stw	r16,0(sp)
    3180:	14807116 	blt	r2,r18,3348 <quorem+0x1f8>
    3184:	94bfffc4 	addi	r18,r18,-1
    3188:	94ad883a 	add	r22,r18,r18
    318c:	b5ad883a 	add	r22,r22,r22
    3190:	2c400504 	addi	r17,r5,20
    3194:	8da9883a 	add	r20,r17,r22
    3198:	25400504 	addi	r21,r4,20
    319c:	282f883a 	mov	r23,r5
    31a0:	adad883a 	add	r22,r21,r22
    31a4:	a1400017 	ldw	r5,0(r20)
    31a8:	2021883a 	mov	r16,r4
    31ac:	b1000017 	ldw	r4,0(r22)
    31b0:	29400044 	addi	r5,r5,1
    31b4:	0000c040 	call	c04 <__udivsi3>
    31b8:	1027883a 	mov	r19,r2
    31bc:	10002c26 	beq	r2,zero,3270 <quorem+0x120>
    31c0:	a813883a 	mov	r9,r21
    31c4:	880b883a 	mov	r5,r17
    31c8:	0009883a 	mov	r4,zero
    31cc:	000d883a 	mov	r6,zero
    31d0:	2a000017 	ldw	r8,0(r5)
    31d4:	49c00017 	ldw	r7,0(r9)
    31d8:	29400104 	addi	r5,r5,4
    31dc:	40bfffcc 	andi	r2,r8,65535
    31e0:	14c5383a 	mul	r2,r2,r19
    31e4:	4010d43a 	srli	r8,r8,16
    31e8:	38ffffcc 	andi	r3,r7,65535
    31ec:	1105883a 	add	r2,r2,r4
    31f0:	1008d43a 	srli	r4,r2,16
    31f4:	44d1383a 	mul	r8,r8,r19
    31f8:	198d883a 	add	r6,r3,r6
    31fc:	10ffffcc 	andi	r3,r2,65535
    3200:	30c7c83a 	sub	r3,r6,r3
    3204:	380ed43a 	srli	r7,r7,16
    3208:	4105883a 	add	r2,r8,r4
    320c:	180dd43a 	srai	r6,r3,16
    3210:	113fffcc 	andi	r4,r2,65535
    3214:	390fc83a 	sub	r7,r7,r4
    3218:	398d883a 	add	r6,r7,r6
    321c:	300e943a 	slli	r7,r6,16
    3220:	18ffffcc 	andi	r3,r3,65535
    3224:	1008d43a 	srli	r4,r2,16
    3228:	38ceb03a 	or	r7,r7,r3
    322c:	49c00015 	stw	r7,0(r9)
    3230:	300dd43a 	srai	r6,r6,16
    3234:	4a400104 	addi	r9,r9,4
    3238:	a17fe52e 	bgeu	r20,r5,31d0 <__ram_exceptions_end+0xfbfe2f7c>
    323c:	b0800017 	ldw	r2,0(r22)
    3240:	10000b1e 	bne	r2,zero,3270 <quorem+0x120>
    3244:	b0bfff04 	addi	r2,r22,-4
    3248:	a880082e 	bgeu	r21,r2,326c <quorem+0x11c>
    324c:	b0ffff17 	ldw	r3,-4(r22)
    3250:	18000326 	beq	r3,zero,3260 <quorem+0x110>
    3254:	00000506 	br	326c <quorem+0x11c>
    3258:	10c00017 	ldw	r3,0(r2)
    325c:	1800031e 	bne	r3,zero,326c <quorem+0x11c>
    3260:	10bfff04 	addi	r2,r2,-4
    3264:	94bfffc4 	addi	r18,r18,-1
    3268:	a8bffb36 	bltu	r21,r2,3258 <__ram_exceptions_end+0xfbfe3004>
    326c:	84800415 	stw	r18,16(r16)
    3270:	b80b883a 	mov	r5,r23
    3274:	8009883a 	mov	r4,r16
    3278:	0006c9c0 	call	6c9c <__mcmp>
    327c:	10002616 	blt	r2,zero,3318 <quorem+0x1c8>
    3280:	9cc00044 	addi	r19,r19,1
    3284:	a805883a 	mov	r2,r21
    3288:	000b883a 	mov	r5,zero
    328c:	11000017 	ldw	r4,0(r2)
    3290:	89800017 	ldw	r6,0(r17)
    3294:	10800104 	addi	r2,r2,4
    3298:	20ffffcc 	andi	r3,r4,65535
    329c:	194b883a 	add	r5,r3,r5
    32a0:	30ffffcc 	andi	r3,r6,65535
    32a4:	28c7c83a 	sub	r3,r5,r3
    32a8:	300cd43a 	srli	r6,r6,16
    32ac:	2008d43a 	srli	r4,r4,16
    32b0:	180bd43a 	srai	r5,r3,16
    32b4:	18ffffcc 	andi	r3,r3,65535
    32b8:	2189c83a 	sub	r4,r4,r6
    32bc:	2149883a 	add	r4,r4,r5
    32c0:	200c943a 	slli	r6,r4,16
    32c4:	8c400104 	addi	r17,r17,4
    32c8:	200bd43a 	srai	r5,r4,16
    32cc:	30c6b03a 	or	r3,r6,r3
    32d0:	10ffff15 	stw	r3,-4(r2)
    32d4:	a47fed2e 	bgeu	r20,r17,328c <__ram_exceptions_end+0xfbfe3038>
    32d8:	9485883a 	add	r2,r18,r18
    32dc:	1085883a 	add	r2,r2,r2
    32e0:	a887883a 	add	r3,r21,r2
    32e4:	18800017 	ldw	r2,0(r3)
    32e8:	10000b1e 	bne	r2,zero,3318 <quorem+0x1c8>
    32ec:	18bfff04 	addi	r2,r3,-4
    32f0:	a880082e 	bgeu	r21,r2,3314 <quorem+0x1c4>
    32f4:	18ffff17 	ldw	r3,-4(r3)
    32f8:	18000326 	beq	r3,zero,3308 <quorem+0x1b8>
    32fc:	00000506 	br	3314 <quorem+0x1c4>
    3300:	10c00017 	ldw	r3,0(r2)
    3304:	1800031e 	bne	r3,zero,3314 <quorem+0x1c4>
    3308:	10bfff04 	addi	r2,r2,-4
    330c:	94bfffc4 	addi	r18,r18,-1
    3310:	a8bffb36 	bltu	r21,r2,3300 <__ram_exceptions_end+0xfbfe30ac>
    3314:	84800415 	stw	r18,16(r16)
    3318:	9805883a 	mov	r2,r19
    331c:	dfc00817 	ldw	ra,32(sp)
    3320:	ddc00717 	ldw	r23,28(sp)
    3324:	dd800617 	ldw	r22,24(sp)
    3328:	dd400517 	ldw	r21,20(sp)
    332c:	dd000417 	ldw	r20,16(sp)
    3330:	dcc00317 	ldw	r19,12(sp)
    3334:	dc800217 	ldw	r18,8(sp)
    3338:	dc400117 	ldw	r17,4(sp)
    333c:	dc000017 	ldw	r16,0(sp)
    3340:	dec00904 	addi	sp,sp,36
    3344:	f800283a 	ret
    3348:	0005883a 	mov	r2,zero
    334c:	003ff306 	br	331c <__ram_exceptions_end+0xfbfe30c8>

00003350 <_dtoa_r>:
    3350:	20801017 	ldw	r2,64(r4)
    3354:	deffde04 	addi	sp,sp,-136
    3358:	df002015 	stw	fp,128(sp)
    335c:	dcc01b15 	stw	r19,108(sp)
    3360:	dc801a15 	stw	r18,104(sp)
    3364:	dc401915 	stw	r17,100(sp)
    3368:	dc001815 	stw	r16,96(sp)
    336c:	dfc02115 	stw	ra,132(sp)
    3370:	ddc01f15 	stw	r23,124(sp)
    3374:	dd801e15 	stw	r22,120(sp)
    3378:	dd401d15 	stw	r21,116(sp)
    337c:	dd001c15 	stw	r20,112(sp)
    3380:	d9c00315 	stw	r7,12(sp)
    3384:	2039883a 	mov	fp,r4
    3388:	3023883a 	mov	r17,r6
    338c:	2825883a 	mov	r18,r5
    3390:	dc002417 	ldw	r16,144(sp)
    3394:	3027883a 	mov	r19,r6
    3398:	10000826 	beq	r2,zero,33bc <_dtoa_r+0x6c>
    339c:	21801117 	ldw	r6,68(r4)
    33a0:	00c00044 	movi	r3,1
    33a4:	100b883a 	mov	r5,r2
    33a8:	1986983a 	sll	r3,r3,r6
    33ac:	11800115 	stw	r6,4(r2)
    33b0:	10c00215 	stw	r3,8(r2)
    33b4:	000647c0 	call	647c <_Bfree>
    33b8:	e0001015 	stw	zero,64(fp)
    33bc:	88002e16 	blt	r17,zero,3478 <_dtoa_r+0x128>
    33c0:	80000015 	stw	zero,0(r16)
    33c4:	889ffc2c 	andhi	r2,r17,32752
    33c8:	00dffc34 	movhi	r3,32752
    33cc:	10c01c26 	beq	r2,r3,3440 <_dtoa_r+0xf0>
    33d0:	000d883a 	mov	r6,zero
    33d4:	000f883a 	mov	r7,zero
    33d8:	9009883a 	mov	r4,r18
    33dc:	980b883a 	mov	r5,r19
    33e0:	000be840 	call	be84 <__eqdf2>
    33e4:	10002b1e 	bne	r2,zero,3494 <_dtoa_r+0x144>
    33e8:	d9c02317 	ldw	r7,140(sp)
    33ec:	00800044 	movi	r2,1
    33f0:	38800015 	stw	r2,0(r7)
    33f4:	d8802517 	ldw	r2,148(sp)
    33f8:	10019e26 	beq	r2,zero,3a74 <_dtoa_r+0x724>
    33fc:	d8c02517 	ldw	r3,148(sp)
    3400:	00800074 	movhi	r2,1
    3404:	10805044 	addi	r2,r2,321
    3408:	18800015 	stw	r2,0(r3)
    340c:	10bfffc4 	addi	r2,r2,-1
    3410:	dfc02117 	ldw	ra,132(sp)
    3414:	df002017 	ldw	fp,128(sp)
    3418:	ddc01f17 	ldw	r23,124(sp)
    341c:	dd801e17 	ldw	r22,120(sp)
    3420:	dd401d17 	ldw	r21,116(sp)
    3424:	dd001c17 	ldw	r20,112(sp)
    3428:	dcc01b17 	ldw	r19,108(sp)
    342c:	dc801a17 	ldw	r18,104(sp)
    3430:	dc401917 	ldw	r17,100(sp)
    3434:	dc001817 	ldw	r16,96(sp)
    3438:	dec02204 	addi	sp,sp,136
    343c:	f800283a 	ret
    3440:	d8c02317 	ldw	r3,140(sp)
    3444:	0089c3c4 	movi	r2,9999
    3448:	18800015 	stw	r2,0(r3)
    344c:	90017726 	beq	r18,zero,3a2c <_dtoa_r+0x6dc>
    3450:	00800074 	movhi	r2,1
    3454:	10805c04 	addi	r2,r2,368
    3458:	d9002517 	ldw	r4,148(sp)
    345c:	203fec26 	beq	r4,zero,3410 <__ram_exceptions_end+0xfbfe31bc>
    3460:	10c000c7 	ldb	r3,3(r2)
    3464:	1801781e 	bne	r3,zero,3a48 <_dtoa_r+0x6f8>
    3468:	10c000c4 	addi	r3,r2,3
    346c:	d9802517 	ldw	r6,148(sp)
    3470:	30c00015 	stw	r3,0(r6)
    3474:	003fe606 	br	3410 <__ram_exceptions_end+0xfbfe31bc>
    3478:	04e00034 	movhi	r19,32768
    347c:	9cffffc4 	addi	r19,r19,-1
    3480:	00800044 	movi	r2,1
    3484:	8ce6703a 	and	r19,r17,r19
    3488:	80800015 	stw	r2,0(r16)
    348c:	9823883a 	mov	r17,r19
    3490:	003fcc06 	br	33c4 <__ram_exceptions_end+0xfbfe3170>
    3494:	d8800204 	addi	r2,sp,8
    3498:	d8800015 	stw	r2,0(sp)
    349c:	d9c00104 	addi	r7,sp,4
    34a0:	900b883a 	mov	r5,r18
    34a4:	980d883a 	mov	r6,r19
    34a8:	e009883a 	mov	r4,fp
    34ac:	8820d53a 	srli	r16,r17,20
    34b0:	00070680 	call	7068 <__d2b>
    34b4:	d8800915 	stw	r2,36(sp)
    34b8:	8001651e 	bne	r16,zero,3a50 <_dtoa_r+0x700>
    34bc:	dd800217 	ldw	r22,8(sp)
    34c0:	dc000117 	ldw	r16,4(sp)
    34c4:	00800804 	movi	r2,32
    34c8:	b421883a 	add	r16,r22,r16
    34cc:	80c10c84 	addi	r3,r16,1074
    34d0:	10c2d10e 	bge	r2,r3,4018 <_dtoa_r+0xcc8>
    34d4:	00801004 	movi	r2,64
    34d8:	81010484 	addi	r4,r16,1042
    34dc:	10c7c83a 	sub	r3,r2,r3
    34e0:	9108d83a 	srl	r4,r18,r4
    34e4:	88e2983a 	sll	r17,r17,r3
    34e8:	2448b03a 	or	r4,r4,r17
    34ec:	000d24c0 	call	d24c <__floatunsidf>
    34f0:	017f8434 	movhi	r5,65040
    34f4:	01800044 	movi	r6,1
    34f8:	1009883a 	mov	r4,r2
    34fc:	194b883a 	add	r5,r3,r5
    3500:	843fffc4 	addi	r16,r16,-1
    3504:	d9801115 	stw	r6,68(sp)
    3508:	000d883a 	mov	r6,zero
    350c:	01cffe34 	movhi	r7,16376
    3510:	000c7f40 	call	c7f4 <__subdf3>
    3514:	0198dbf4 	movhi	r6,25455
    3518:	01cff4f4 	movhi	r7,16339
    351c:	3190d844 	addi	r6,r6,17249
    3520:	39e1e9c4 	addi	r7,r7,-30809
    3524:	1009883a 	mov	r4,r2
    3528:	180b883a 	mov	r5,r3
    352c:	000c0dc0 	call	c0dc <__muldf3>
    3530:	01a2d874 	movhi	r6,35681
    3534:	01cff1f4 	movhi	r7,16327
    3538:	31b22cc4 	addi	r6,r6,-14157
    353c:	39e28a04 	addi	r7,r7,-30168
    3540:	180b883a 	mov	r5,r3
    3544:	1009883a 	mov	r4,r2
    3548:	000acf00 	call	acf0 <__adddf3>
    354c:	8009883a 	mov	r4,r16
    3550:	1029883a 	mov	r20,r2
    3554:	1823883a 	mov	r17,r3
    3558:	000d1700 	call	d170 <__floatsidf>
    355c:	019427f4 	movhi	r6,20639
    3560:	01cff4f4 	movhi	r7,16339
    3564:	319e7ec4 	addi	r6,r6,31227
    3568:	39d104c4 	addi	r7,r7,17427
    356c:	1009883a 	mov	r4,r2
    3570:	180b883a 	mov	r5,r3
    3574:	000c0dc0 	call	c0dc <__muldf3>
    3578:	100d883a 	mov	r6,r2
    357c:	180f883a 	mov	r7,r3
    3580:	a009883a 	mov	r4,r20
    3584:	880b883a 	mov	r5,r17
    3588:	000acf00 	call	acf0 <__adddf3>
    358c:	1009883a 	mov	r4,r2
    3590:	180b883a 	mov	r5,r3
    3594:	1029883a 	mov	r20,r2
    3598:	1823883a 	mov	r17,r3
    359c:	000d0f00 	call	d0f0 <__fixdfsi>
    35a0:	000d883a 	mov	r6,zero
    35a4:	000f883a 	mov	r7,zero
    35a8:	a009883a 	mov	r4,r20
    35ac:	880b883a 	mov	r5,r17
    35b0:	d8800515 	stw	r2,20(sp)
    35b4:	000bfe80 	call	bfe8 <__ledf2>
    35b8:	10028716 	blt	r2,zero,3fd8 <_dtoa_r+0xc88>
    35bc:	d8c00517 	ldw	r3,20(sp)
    35c0:	00800584 	movi	r2,22
    35c4:	10c27536 	bltu	r2,r3,3f9c <_dtoa_r+0xc4c>
    35c8:	180490fa 	slli	r2,r3,3
    35cc:	00c00074 	movhi	r3,1
    35d0:	18c07804 	addi	r3,r3,480
    35d4:	1885883a 	add	r2,r3,r2
    35d8:	11000017 	ldw	r4,0(r2)
    35dc:	11400117 	ldw	r5,4(r2)
    35e0:	900d883a 	mov	r6,r18
    35e4:	980f883a 	mov	r7,r19
    35e8:	000bf0c0 	call	bf0c <__gedf2>
    35ec:	00828d0e 	bge	zero,r2,4024 <_dtoa_r+0xcd4>
    35f0:	d9000517 	ldw	r4,20(sp)
    35f4:	d8000e15 	stw	zero,56(sp)
    35f8:	213fffc4 	addi	r4,r4,-1
    35fc:	d9000515 	stw	r4,20(sp)
    3600:	b42dc83a 	sub	r22,r22,r16
    3604:	b5bfffc4 	addi	r22,r22,-1
    3608:	b0026f16 	blt	r22,zero,3fc8 <_dtoa_r+0xc78>
    360c:	d8000815 	stw	zero,32(sp)
    3610:	d9c00517 	ldw	r7,20(sp)
    3614:	38026416 	blt	r7,zero,3fa8 <_dtoa_r+0xc58>
    3618:	b1ed883a 	add	r22,r22,r7
    361c:	d9c00d15 	stw	r7,52(sp)
    3620:	d8000a15 	stw	zero,40(sp)
    3624:	d9800317 	ldw	r6,12(sp)
    3628:	00800244 	movi	r2,9
    362c:	11811436 	bltu	r2,r6,3a80 <_dtoa_r+0x730>
    3630:	00800144 	movi	r2,5
    3634:	1184e10e 	bge	r2,r6,49bc <_dtoa_r+0x166c>
    3638:	31bfff04 	addi	r6,r6,-4
    363c:	d9800315 	stw	r6,12(sp)
    3640:	0023883a 	mov	r17,zero
    3644:	d9800317 	ldw	r6,12(sp)
    3648:	008000c4 	movi	r2,3
    364c:	30836726 	beq	r6,r2,43ec <_dtoa_r+0x109c>
    3650:	1183410e 	bge	r2,r6,4358 <_dtoa_r+0x1008>
    3654:	d9c00317 	ldw	r7,12(sp)
    3658:	00800104 	movi	r2,4
    365c:	38827c26 	beq	r7,r2,4050 <_dtoa_r+0xd00>
    3660:	00800144 	movi	r2,5
    3664:	3884c41e 	bne	r7,r2,4978 <_dtoa_r+0x1628>
    3668:	00800044 	movi	r2,1
    366c:	d8800b15 	stw	r2,44(sp)
    3670:	d8c00517 	ldw	r3,20(sp)
    3674:	d9002217 	ldw	r4,136(sp)
    3678:	1907883a 	add	r3,r3,r4
    367c:	19800044 	addi	r6,r3,1
    3680:	d8c00c15 	stw	r3,48(sp)
    3684:	d9800615 	stw	r6,24(sp)
    3688:	0183a40e 	bge	zero,r6,451c <_dtoa_r+0x11cc>
    368c:	d9800617 	ldw	r6,24(sp)
    3690:	3021883a 	mov	r16,r6
    3694:	e0001115 	stw	zero,68(fp)
    3698:	008005c4 	movi	r2,23
    369c:	1184c92e 	bgeu	r2,r6,49c4 <_dtoa_r+0x1674>
    36a0:	00c00044 	movi	r3,1
    36a4:	00800104 	movi	r2,4
    36a8:	1085883a 	add	r2,r2,r2
    36ac:	11000504 	addi	r4,r2,20
    36b0:	180b883a 	mov	r5,r3
    36b4:	18c00044 	addi	r3,r3,1
    36b8:	313ffb2e 	bgeu	r6,r4,36a8 <__ram_exceptions_end+0xfbfe3454>
    36bc:	e1401115 	stw	r5,68(fp)
    36c0:	e009883a 	mov	r4,fp
    36c4:	00063d40 	call	63d4 <_Balloc>
    36c8:	d8800715 	stw	r2,28(sp)
    36cc:	e0801015 	stw	r2,64(fp)
    36d0:	00800384 	movi	r2,14
    36d4:	1400f736 	bltu	r2,r16,3ab4 <_dtoa_r+0x764>
    36d8:	8800f626 	beq	r17,zero,3ab4 <_dtoa_r+0x764>
    36dc:	d9c00517 	ldw	r7,20(sp)
    36e0:	01c39a0e 	bge	zero,r7,454c <_dtoa_r+0x11fc>
    36e4:	388003cc 	andi	r2,r7,15
    36e8:	100490fa 	slli	r2,r2,3
    36ec:	382bd13a 	srai	r21,r7,4
    36f0:	00c00074 	movhi	r3,1
    36f4:	18c07804 	addi	r3,r3,480
    36f8:	1885883a 	add	r2,r3,r2
    36fc:	a8c0040c 	andi	r3,r21,16
    3700:	12400017 	ldw	r9,0(r2)
    3704:	12000117 	ldw	r8,4(r2)
    3708:	18037926 	beq	r3,zero,44f0 <_dtoa_r+0x11a0>
    370c:	00800074 	movhi	r2,1
    3710:	10806e04 	addi	r2,r2,440
    3714:	11800817 	ldw	r6,32(r2)
    3718:	11c00917 	ldw	r7,36(r2)
    371c:	9009883a 	mov	r4,r18
    3720:	980b883a 	mov	r5,r19
    3724:	da001715 	stw	r8,92(sp)
    3728:	da401615 	stw	r9,88(sp)
    372c:	000b59c0 	call	b59c <__divdf3>
    3730:	da001717 	ldw	r8,92(sp)
    3734:	da401617 	ldw	r9,88(sp)
    3738:	ad4003cc 	andi	r21,r21,15
    373c:	040000c4 	movi	r16,3
    3740:	1023883a 	mov	r17,r2
    3744:	1829883a 	mov	r20,r3
    3748:	a8001126 	beq	r21,zero,3790 <_dtoa_r+0x440>
    374c:	05c00074 	movhi	r23,1
    3750:	bdc06e04 	addi	r23,r23,440
    3754:	4805883a 	mov	r2,r9
    3758:	4007883a 	mov	r3,r8
    375c:	a980004c 	andi	r6,r21,1
    3760:	1009883a 	mov	r4,r2
    3764:	a82bd07a 	srai	r21,r21,1
    3768:	180b883a 	mov	r5,r3
    376c:	30000426 	beq	r6,zero,3780 <_dtoa_r+0x430>
    3770:	b9800017 	ldw	r6,0(r23)
    3774:	b9c00117 	ldw	r7,4(r23)
    3778:	84000044 	addi	r16,r16,1
    377c:	000c0dc0 	call	c0dc <__muldf3>
    3780:	bdc00204 	addi	r23,r23,8
    3784:	a83ff51e 	bne	r21,zero,375c <__ram_exceptions_end+0xfbfe3508>
    3788:	1013883a 	mov	r9,r2
    378c:	1811883a 	mov	r8,r3
    3790:	480d883a 	mov	r6,r9
    3794:	400f883a 	mov	r7,r8
    3798:	8809883a 	mov	r4,r17
    379c:	a00b883a 	mov	r5,r20
    37a0:	000b59c0 	call	b59c <__divdf3>
    37a4:	d8800f15 	stw	r2,60(sp)
    37a8:	d8c01015 	stw	r3,64(sp)
    37ac:	d8c00e17 	ldw	r3,56(sp)
    37b0:	18000626 	beq	r3,zero,37cc <_dtoa_r+0x47c>
    37b4:	d9000f17 	ldw	r4,60(sp)
    37b8:	d9401017 	ldw	r5,64(sp)
    37bc:	000d883a 	mov	r6,zero
    37c0:	01cffc34 	movhi	r7,16368
    37c4:	000bfe80 	call	bfe8 <__ledf2>
    37c8:	10040b16 	blt	r2,zero,47f8 <_dtoa_r+0x14a8>
    37cc:	8009883a 	mov	r4,r16
    37d0:	000d1700 	call	d170 <__floatsidf>
    37d4:	d9800f17 	ldw	r6,60(sp)
    37d8:	d9c01017 	ldw	r7,64(sp)
    37dc:	1009883a 	mov	r4,r2
    37e0:	180b883a 	mov	r5,r3
    37e4:	000c0dc0 	call	c0dc <__muldf3>
    37e8:	000d883a 	mov	r6,zero
    37ec:	01d00734 	movhi	r7,16412
    37f0:	1009883a 	mov	r4,r2
    37f4:	180b883a 	mov	r5,r3
    37f8:	000acf00 	call	acf0 <__adddf3>
    37fc:	1021883a 	mov	r16,r2
    3800:	d8800617 	ldw	r2,24(sp)
    3804:	047f3034 	movhi	r17,64704
    3808:	1c63883a 	add	r17,r3,r17
    380c:	10031826 	beq	r2,zero,4470 <_dtoa_r+0x1120>
    3810:	d8c00517 	ldw	r3,20(sp)
    3814:	db000617 	ldw	r12,24(sp)
    3818:	d8c01315 	stw	r3,76(sp)
    381c:	d9000b17 	ldw	r4,44(sp)
    3820:	20038f26 	beq	r4,zero,4660 <_dtoa_r+0x1310>
    3824:	60bfffc4 	addi	r2,r12,-1
    3828:	100490fa 	slli	r2,r2,3
    382c:	00c00074 	movhi	r3,1
    3830:	18c07804 	addi	r3,r3,480
    3834:	1885883a 	add	r2,r3,r2
    3838:	11800017 	ldw	r6,0(r2)
    383c:	11c00117 	ldw	r7,4(r2)
    3840:	d8800717 	ldw	r2,28(sp)
    3844:	0009883a 	mov	r4,zero
    3848:	014ff834 	movhi	r5,16352
    384c:	db001615 	stw	r12,88(sp)
    3850:	15c00044 	addi	r23,r2,1
    3854:	000b59c0 	call	b59c <__divdf3>
    3858:	800d883a 	mov	r6,r16
    385c:	880f883a 	mov	r7,r17
    3860:	1009883a 	mov	r4,r2
    3864:	180b883a 	mov	r5,r3
    3868:	000c7f40 	call	c7f4 <__subdf3>
    386c:	d9401017 	ldw	r5,64(sp)
    3870:	d9000f17 	ldw	r4,60(sp)
    3874:	102b883a 	mov	r21,r2
    3878:	d8c01215 	stw	r3,72(sp)
    387c:	000d0f00 	call	d0f0 <__fixdfsi>
    3880:	1009883a 	mov	r4,r2
    3884:	1029883a 	mov	r20,r2
    3888:	000d1700 	call	d170 <__floatsidf>
    388c:	d9000f17 	ldw	r4,60(sp)
    3890:	d9401017 	ldw	r5,64(sp)
    3894:	100d883a 	mov	r6,r2
    3898:	180f883a 	mov	r7,r3
    389c:	000c7f40 	call	c7f4 <__subdf3>
    38a0:	1823883a 	mov	r17,r3
    38a4:	d8c00717 	ldw	r3,28(sp)
    38a8:	d9401217 	ldw	r5,72(sp)
    38ac:	a2000c04 	addi	r8,r20,48
    38b0:	1021883a 	mov	r16,r2
    38b4:	1a000005 	stb	r8,0(r3)
    38b8:	800d883a 	mov	r6,r16
    38bc:	880f883a 	mov	r7,r17
    38c0:	a809883a 	mov	r4,r21
    38c4:	4029883a 	mov	r20,r8
    38c8:	000bf0c0 	call	bf0c <__gedf2>
    38cc:	00841d16 	blt	zero,r2,4944 <_dtoa_r+0x15f4>
    38d0:	800d883a 	mov	r6,r16
    38d4:	880f883a 	mov	r7,r17
    38d8:	0009883a 	mov	r4,zero
    38dc:	014ffc34 	movhi	r5,16368
    38e0:	000c7f40 	call	c7f4 <__subdf3>
    38e4:	d9401217 	ldw	r5,72(sp)
    38e8:	100d883a 	mov	r6,r2
    38ec:	180f883a 	mov	r7,r3
    38f0:	a809883a 	mov	r4,r21
    38f4:	000bf0c0 	call	bf0c <__gedf2>
    38f8:	db001617 	ldw	r12,88(sp)
    38fc:	00840e16 	blt	zero,r2,4938 <_dtoa_r+0x15e8>
    3900:	00800044 	movi	r2,1
    3904:	13006b0e 	bge	r2,r12,3ab4 <_dtoa_r+0x764>
    3908:	d9000717 	ldw	r4,28(sp)
    390c:	dd800f15 	stw	r22,60(sp)
    3910:	dcc01015 	stw	r19,64(sp)
    3914:	2319883a 	add	r12,r4,r12
    3918:	dcc01217 	ldw	r19,72(sp)
    391c:	602d883a 	mov	r22,r12
    3920:	dc801215 	stw	r18,72(sp)
    3924:	b825883a 	mov	r18,r23
    3928:	00000906 	br	3950 <_dtoa_r+0x600>
    392c:	000c7f40 	call	c7f4 <__subdf3>
    3930:	a80d883a 	mov	r6,r21
    3934:	980f883a 	mov	r7,r19
    3938:	1009883a 	mov	r4,r2
    393c:	180b883a 	mov	r5,r3
    3940:	000bfe80 	call	bfe8 <__ledf2>
    3944:	1003e816 	blt	r2,zero,48e8 <_dtoa_r+0x1598>
    3948:	b825883a 	mov	r18,r23
    394c:	bd83e926 	beq	r23,r22,48f4 <_dtoa_r+0x15a4>
    3950:	a809883a 	mov	r4,r21
    3954:	980b883a 	mov	r5,r19
    3958:	000d883a 	mov	r6,zero
    395c:	01d00934 	movhi	r7,16420
    3960:	000c0dc0 	call	c0dc <__muldf3>
    3964:	000d883a 	mov	r6,zero
    3968:	01d00934 	movhi	r7,16420
    396c:	8009883a 	mov	r4,r16
    3970:	880b883a 	mov	r5,r17
    3974:	102b883a 	mov	r21,r2
    3978:	1827883a 	mov	r19,r3
    397c:	000c0dc0 	call	c0dc <__muldf3>
    3980:	180b883a 	mov	r5,r3
    3984:	1009883a 	mov	r4,r2
    3988:	1821883a 	mov	r16,r3
    398c:	1023883a 	mov	r17,r2
    3990:	000d0f00 	call	d0f0 <__fixdfsi>
    3994:	1009883a 	mov	r4,r2
    3998:	1029883a 	mov	r20,r2
    399c:	000d1700 	call	d170 <__floatsidf>
    39a0:	8809883a 	mov	r4,r17
    39a4:	800b883a 	mov	r5,r16
    39a8:	100d883a 	mov	r6,r2
    39ac:	180f883a 	mov	r7,r3
    39b0:	000c7f40 	call	c7f4 <__subdf3>
    39b4:	a5000c04 	addi	r20,r20,48
    39b8:	a80d883a 	mov	r6,r21
    39bc:	980f883a 	mov	r7,r19
    39c0:	1009883a 	mov	r4,r2
    39c4:	180b883a 	mov	r5,r3
    39c8:	95000005 	stb	r20,0(r18)
    39cc:	1021883a 	mov	r16,r2
    39d0:	1823883a 	mov	r17,r3
    39d4:	000bfe80 	call	bfe8 <__ledf2>
    39d8:	bdc00044 	addi	r23,r23,1
    39dc:	800d883a 	mov	r6,r16
    39e0:	880f883a 	mov	r7,r17
    39e4:	0009883a 	mov	r4,zero
    39e8:	014ffc34 	movhi	r5,16368
    39ec:	103fcf0e 	bge	r2,zero,392c <__ram_exceptions_end+0xfbfe36d8>
    39f0:	d8c01317 	ldw	r3,76(sp)
    39f4:	d8c00515 	stw	r3,20(sp)
    39f8:	d9400917 	ldw	r5,36(sp)
    39fc:	e009883a 	mov	r4,fp
    3a00:	000647c0 	call	647c <_Bfree>
    3a04:	d9000517 	ldw	r4,20(sp)
    3a08:	d9802317 	ldw	r6,140(sp)
    3a0c:	d9c02517 	ldw	r7,148(sp)
    3a10:	b8000005 	stb	zero,0(r23)
    3a14:	20800044 	addi	r2,r4,1
    3a18:	30800015 	stw	r2,0(r6)
    3a1c:	3802aa26 	beq	r7,zero,44c8 <_dtoa_r+0x1178>
    3a20:	3dc00015 	stw	r23,0(r7)
    3a24:	d8800717 	ldw	r2,28(sp)
    3a28:	003e7906 	br	3410 <__ram_exceptions_end+0xfbfe31bc>
    3a2c:	00800434 	movhi	r2,16
    3a30:	10bfffc4 	addi	r2,r2,-1
    3a34:	88a2703a 	and	r17,r17,r2
    3a38:	883e851e 	bne	r17,zero,3450 <__ram_exceptions_end+0xfbfe31fc>
    3a3c:	00800074 	movhi	r2,1
    3a40:	10805904 	addi	r2,r2,356
    3a44:	003e8406 	br	3458 <__ram_exceptions_end+0xfbfe3204>
    3a48:	10c00204 	addi	r3,r2,8
    3a4c:	003e8706 	br	346c <__ram_exceptions_end+0xfbfe3218>
    3a50:	01400434 	movhi	r5,16
    3a54:	297fffc4 	addi	r5,r5,-1
    3a58:	994a703a 	and	r5,r19,r5
    3a5c:	9009883a 	mov	r4,r18
    3a60:	843f0044 	addi	r16,r16,-1023
    3a64:	294ffc34 	orhi	r5,r5,16368
    3a68:	dd800217 	ldw	r22,8(sp)
    3a6c:	d8001115 	stw	zero,68(sp)
    3a70:	003ea506 	br	3508 <__ram_exceptions_end+0xfbfe32b4>
    3a74:	00800074 	movhi	r2,1
    3a78:	10805004 	addi	r2,r2,320
    3a7c:	003e6406 	br	3410 <__ram_exceptions_end+0xfbfe31bc>
    3a80:	e0001115 	stw	zero,68(fp)
    3a84:	000b883a 	mov	r5,zero
    3a88:	e009883a 	mov	r4,fp
    3a8c:	00063d40 	call	63d4 <_Balloc>
    3a90:	01bfffc4 	movi	r6,-1
    3a94:	01c00044 	movi	r7,1
    3a98:	d8800715 	stw	r2,28(sp)
    3a9c:	d9800c15 	stw	r6,48(sp)
    3aa0:	e0801015 	stw	r2,64(fp)
    3aa4:	d8000315 	stw	zero,12(sp)
    3aa8:	d9c00b15 	stw	r7,44(sp)
    3aac:	d9800615 	stw	r6,24(sp)
    3ab0:	d8002215 	stw	zero,136(sp)
    3ab4:	d8800117 	ldw	r2,4(sp)
    3ab8:	10008916 	blt	r2,zero,3ce0 <_dtoa_r+0x990>
    3abc:	d9000517 	ldw	r4,20(sp)
    3ac0:	00c00384 	movi	r3,14
    3ac4:	19008616 	blt	r3,r4,3ce0 <_dtoa_r+0x990>
    3ac8:	200490fa 	slli	r2,r4,3
    3acc:	00c00074 	movhi	r3,1
    3ad0:	d9802217 	ldw	r6,136(sp)
    3ad4:	18c07804 	addi	r3,r3,480
    3ad8:	1885883a 	add	r2,r3,r2
    3adc:	14000017 	ldw	r16,0(r2)
    3ae0:	14400117 	ldw	r17,4(r2)
    3ae4:	30016316 	blt	r6,zero,4074 <_dtoa_r+0xd24>
    3ae8:	800d883a 	mov	r6,r16
    3aec:	880f883a 	mov	r7,r17
    3af0:	9009883a 	mov	r4,r18
    3af4:	980b883a 	mov	r5,r19
    3af8:	000b59c0 	call	b59c <__divdf3>
    3afc:	180b883a 	mov	r5,r3
    3b00:	1009883a 	mov	r4,r2
    3b04:	000d0f00 	call	d0f0 <__fixdfsi>
    3b08:	1009883a 	mov	r4,r2
    3b0c:	102b883a 	mov	r21,r2
    3b10:	000d1700 	call	d170 <__floatsidf>
    3b14:	800d883a 	mov	r6,r16
    3b18:	880f883a 	mov	r7,r17
    3b1c:	1009883a 	mov	r4,r2
    3b20:	180b883a 	mov	r5,r3
    3b24:	000c0dc0 	call	c0dc <__muldf3>
    3b28:	100d883a 	mov	r6,r2
    3b2c:	180f883a 	mov	r7,r3
    3b30:	9009883a 	mov	r4,r18
    3b34:	980b883a 	mov	r5,r19
    3b38:	000c7f40 	call	c7f4 <__subdf3>
    3b3c:	d9c00717 	ldw	r7,28(sp)
    3b40:	1009883a 	mov	r4,r2
    3b44:	a8800c04 	addi	r2,r21,48
    3b48:	38800005 	stb	r2,0(r7)
    3b4c:	3dc00044 	addi	r23,r7,1
    3b50:	d9c00617 	ldw	r7,24(sp)
    3b54:	01800044 	movi	r6,1
    3b58:	180b883a 	mov	r5,r3
    3b5c:	2005883a 	mov	r2,r4
    3b60:	39803826 	beq	r7,r6,3c44 <_dtoa_r+0x8f4>
    3b64:	000d883a 	mov	r6,zero
    3b68:	01d00934 	movhi	r7,16420
    3b6c:	000c0dc0 	call	c0dc <__muldf3>
    3b70:	000d883a 	mov	r6,zero
    3b74:	000f883a 	mov	r7,zero
    3b78:	1009883a 	mov	r4,r2
    3b7c:	180b883a 	mov	r5,r3
    3b80:	1025883a 	mov	r18,r2
    3b84:	1827883a 	mov	r19,r3
    3b88:	000be840 	call	be84 <__eqdf2>
    3b8c:	103f9a26 	beq	r2,zero,39f8 <__ram_exceptions_end+0xfbfe37a4>
    3b90:	d9c00617 	ldw	r7,24(sp)
    3b94:	d8c00717 	ldw	r3,28(sp)
    3b98:	b829883a 	mov	r20,r23
    3b9c:	38bfffc4 	addi	r2,r7,-1
    3ba0:	18ad883a 	add	r22,r3,r2
    3ba4:	00000a06 	br	3bd0 <_dtoa_r+0x880>
    3ba8:	000c0dc0 	call	c0dc <__muldf3>
    3bac:	000d883a 	mov	r6,zero
    3bb0:	000f883a 	mov	r7,zero
    3bb4:	1009883a 	mov	r4,r2
    3bb8:	180b883a 	mov	r5,r3
    3bbc:	1025883a 	mov	r18,r2
    3bc0:	1827883a 	mov	r19,r3
    3bc4:	b829883a 	mov	r20,r23
    3bc8:	000be840 	call	be84 <__eqdf2>
    3bcc:	103f8a26 	beq	r2,zero,39f8 <__ram_exceptions_end+0xfbfe37a4>
    3bd0:	800d883a 	mov	r6,r16
    3bd4:	880f883a 	mov	r7,r17
    3bd8:	9009883a 	mov	r4,r18
    3bdc:	980b883a 	mov	r5,r19
    3be0:	000b59c0 	call	b59c <__divdf3>
    3be4:	180b883a 	mov	r5,r3
    3be8:	1009883a 	mov	r4,r2
    3bec:	000d0f00 	call	d0f0 <__fixdfsi>
    3bf0:	1009883a 	mov	r4,r2
    3bf4:	102b883a 	mov	r21,r2
    3bf8:	000d1700 	call	d170 <__floatsidf>
    3bfc:	800d883a 	mov	r6,r16
    3c00:	880f883a 	mov	r7,r17
    3c04:	1009883a 	mov	r4,r2
    3c08:	180b883a 	mov	r5,r3
    3c0c:	000c0dc0 	call	c0dc <__muldf3>
    3c10:	100d883a 	mov	r6,r2
    3c14:	180f883a 	mov	r7,r3
    3c18:	9009883a 	mov	r4,r18
    3c1c:	980b883a 	mov	r5,r19
    3c20:	000c7f40 	call	c7f4 <__subdf3>
    3c24:	aa000c04 	addi	r8,r21,48
    3c28:	a2000005 	stb	r8,0(r20)
    3c2c:	000d883a 	mov	r6,zero
    3c30:	01d00934 	movhi	r7,16420
    3c34:	1009883a 	mov	r4,r2
    3c38:	180b883a 	mov	r5,r3
    3c3c:	a5c00044 	addi	r23,r20,1
    3c40:	b53fd91e 	bne	r22,r20,3ba8 <__ram_exceptions_end+0xfbfe3954>
    3c44:	100d883a 	mov	r6,r2
    3c48:	180f883a 	mov	r7,r3
    3c4c:	1009883a 	mov	r4,r2
    3c50:	180b883a 	mov	r5,r3
    3c54:	000acf00 	call	acf0 <__adddf3>
    3c58:	100d883a 	mov	r6,r2
    3c5c:	180f883a 	mov	r7,r3
    3c60:	8009883a 	mov	r4,r16
    3c64:	880b883a 	mov	r5,r17
    3c68:	1027883a 	mov	r19,r2
    3c6c:	1825883a 	mov	r18,r3
    3c70:	000bfe80 	call	bfe8 <__ledf2>
    3c74:	10000816 	blt	r2,zero,3c98 <_dtoa_r+0x948>
    3c78:	980d883a 	mov	r6,r19
    3c7c:	900f883a 	mov	r7,r18
    3c80:	8009883a 	mov	r4,r16
    3c84:	880b883a 	mov	r5,r17
    3c88:	000be840 	call	be84 <__eqdf2>
    3c8c:	103f5a1e 	bne	r2,zero,39f8 <__ram_exceptions_end+0xfbfe37a4>
    3c90:	ad40004c 	andi	r21,r21,1
    3c94:	a83f5826 	beq	r21,zero,39f8 <__ram_exceptions_end+0xfbfe37a4>
    3c98:	bd3fffc3 	ldbu	r20,-1(r23)
    3c9c:	b8bfffc4 	addi	r2,r23,-1
    3ca0:	1007883a 	mov	r3,r2
    3ca4:	01400e44 	movi	r5,57
    3ca8:	d9800717 	ldw	r6,28(sp)
    3cac:	00000506 	br	3cc4 <_dtoa_r+0x974>
    3cb0:	18ffffc4 	addi	r3,r3,-1
    3cb4:	11824726 	beq	r2,r6,45d4 <_dtoa_r+0x1284>
    3cb8:	1d000003 	ldbu	r20,0(r3)
    3cbc:	102f883a 	mov	r23,r2
    3cc0:	10bfffc4 	addi	r2,r2,-1
    3cc4:	a1003fcc 	andi	r4,r20,255
    3cc8:	2100201c 	xori	r4,r4,128
    3ccc:	213fe004 	addi	r4,r4,-128
    3cd0:	217ff726 	beq	r4,r5,3cb0 <__ram_exceptions_end+0xfbfe3a5c>
    3cd4:	a2000044 	addi	r8,r20,1
    3cd8:	12000005 	stb	r8,0(r2)
    3cdc:	003f4606 	br	39f8 <__ram_exceptions_end+0xfbfe37a4>
    3ce0:	d9000b17 	ldw	r4,44(sp)
    3ce4:	2000c826 	beq	r4,zero,4008 <_dtoa_r+0xcb8>
    3ce8:	d9800317 	ldw	r6,12(sp)
    3cec:	00c00044 	movi	r3,1
    3cf0:	1980f90e 	bge	r3,r6,40d8 <_dtoa_r+0xd88>
    3cf4:	d8800617 	ldw	r2,24(sp)
    3cf8:	d8c00a17 	ldw	r3,40(sp)
    3cfc:	157fffc4 	addi	r21,r2,-1
    3d00:	1d41f316 	blt	r3,r21,44d0 <_dtoa_r+0x1180>
    3d04:	1d6bc83a 	sub	r21,r3,r21
    3d08:	d9c00617 	ldw	r7,24(sp)
    3d0c:	3802aa16 	blt	r7,zero,47b8 <_dtoa_r+0x1468>
    3d10:	dd000817 	ldw	r20,32(sp)
    3d14:	d8800617 	ldw	r2,24(sp)
    3d18:	d8c00817 	ldw	r3,32(sp)
    3d1c:	01400044 	movi	r5,1
    3d20:	e009883a 	mov	r4,fp
    3d24:	1887883a 	add	r3,r3,r2
    3d28:	d8c00815 	stw	r3,32(sp)
    3d2c:	b0ad883a 	add	r22,r22,r2
    3d30:	00067e00 	call	67e0 <__i2b>
    3d34:	1023883a 	mov	r17,r2
    3d38:	a0000826 	beq	r20,zero,3d5c <_dtoa_r+0xa0c>
    3d3c:	0580070e 	bge	zero,r22,3d5c <_dtoa_r+0xa0c>
    3d40:	a005883a 	mov	r2,r20
    3d44:	b500b916 	blt	r22,r20,402c <_dtoa_r+0xcdc>
    3d48:	d9000817 	ldw	r4,32(sp)
    3d4c:	a0a9c83a 	sub	r20,r20,r2
    3d50:	b0adc83a 	sub	r22,r22,r2
    3d54:	2089c83a 	sub	r4,r4,r2
    3d58:	d9000815 	stw	r4,32(sp)
    3d5c:	d9800a17 	ldw	r6,40(sp)
    3d60:	0181810e 	bge	zero,r6,4368 <_dtoa_r+0x1018>
    3d64:	d9c00b17 	ldw	r7,44(sp)
    3d68:	3800b326 	beq	r7,zero,4038 <_dtoa_r+0xce8>
    3d6c:	a800b226 	beq	r21,zero,4038 <_dtoa_r+0xce8>
    3d70:	880b883a 	mov	r5,r17
    3d74:	a80d883a 	mov	r6,r21
    3d78:	e009883a 	mov	r4,fp
    3d7c:	0006a140 	call	6a14 <__pow5mult>
    3d80:	d9800917 	ldw	r6,36(sp)
    3d84:	100b883a 	mov	r5,r2
    3d88:	e009883a 	mov	r4,fp
    3d8c:	1023883a 	mov	r17,r2
    3d90:	000681c0 	call	681c <__multiply>
    3d94:	1021883a 	mov	r16,r2
    3d98:	d8800a17 	ldw	r2,40(sp)
    3d9c:	d9400917 	ldw	r5,36(sp)
    3da0:	e009883a 	mov	r4,fp
    3da4:	1545c83a 	sub	r2,r2,r21
    3da8:	d8800a15 	stw	r2,40(sp)
    3dac:	000647c0 	call	647c <_Bfree>
    3db0:	d8c00a17 	ldw	r3,40(sp)
    3db4:	18009f1e 	bne	r3,zero,4034 <_dtoa_r+0xce4>
    3db8:	05c00044 	movi	r23,1
    3dbc:	e009883a 	mov	r4,fp
    3dc0:	b80b883a 	mov	r5,r23
    3dc4:	00067e00 	call	67e0 <__i2b>
    3dc8:	d9000d17 	ldw	r4,52(sp)
    3dcc:	102b883a 	mov	r21,r2
    3dd0:	2000ce26 	beq	r4,zero,410c <_dtoa_r+0xdbc>
    3dd4:	200d883a 	mov	r6,r4
    3dd8:	100b883a 	mov	r5,r2
    3ddc:	e009883a 	mov	r4,fp
    3de0:	0006a140 	call	6a14 <__pow5mult>
    3de4:	d9800317 	ldw	r6,12(sp)
    3de8:	102b883a 	mov	r21,r2
    3dec:	b981810e 	bge	r23,r6,43f4 <_dtoa_r+0x10a4>
    3df0:	0027883a 	mov	r19,zero
    3df4:	a8800417 	ldw	r2,16(r21)
    3df8:	05c00804 	movi	r23,32
    3dfc:	10800104 	addi	r2,r2,4
    3e00:	1085883a 	add	r2,r2,r2
    3e04:	1085883a 	add	r2,r2,r2
    3e08:	a885883a 	add	r2,r21,r2
    3e0c:	11000017 	ldw	r4,0(r2)
    3e10:	00066c80 	call	66c8 <__hi0bits>
    3e14:	b885c83a 	sub	r2,r23,r2
    3e18:	1585883a 	add	r2,r2,r22
    3e1c:	108007cc 	andi	r2,r2,31
    3e20:	1000b326 	beq	r2,zero,40f0 <_dtoa_r+0xda0>
    3e24:	00c00804 	movi	r3,32
    3e28:	1887c83a 	sub	r3,r3,r2
    3e2c:	01000104 	movi	r4,4
    3e30:	20c2cd0e 	bge	r4,r3,4968 <_dtoa_r+0x1618>
    3e34:	00c00704 	movi	r3,28
    3e38:	1885c83a 	sub	r2,r3,r2
    3e3c:	d8c00817 	ldw	r3,32(sp)
    3e40:	a0a9883a 	add	r20,r20,r2
    3e44:	b0ad883a 	add	r22,r22,r2
    3e48:	1887883a 	add	r3,r3,r2
    3e4c:	d8c00815 	stw	r3,32(sp)
    3e50:	d9800817 	ldw	r6,32(sp)
    3e54:	0180040e 	bge	zero,r6,3e68 <_dtoa_r+0xb18>
    3e58:	800b883a 	mov	r5,r16
    3e5c:	e009883a 	mov	r4,fp
    3e60:	0006b540 	call	6b54 <__lshift>
    3e64:	1021883a 	mov	r16,r2
    3e68:	0580050e 	bge	zero,r22,3e80 <_dtoa_r+0xb30>
    3e6c:	a80b883a 	mov	r5,r21
    3e70:	b00d883a 	mov	r6,r22
    3e74:	e009883a 	mov	r4,fp
    3e78:	0006b540 	call	6b54 <__lshift>
    3e7c:	102b883a 	mov	r21,r2
    3e80:	d9c00e17 	ldw	r7,56(sp)
    3e84:	3801211e 	bne	r7,zero,430c <_dtoa_r+0xfbc>
    3e88:	d9800617 	ldw	r6,24(sp)
    3e8c:	0181380e 	bge	zero,r6,4370 <_dtoa_r+0x1020>
    3e90:	d8c00b17 	ldw	r3,44(sp)
    3e94:	1800ab1e 	bne	r3,zero,4144 <_dtoa_r+0xdf4>
    3e98:	dc800717 	ldw	r18,28(sp)
    3e9c:	dcc00617 	ldw	r19,24(sp)
    3ea0:	9029883a 	mov	r20,r18
    3ea4:	00000206 	br	3eb0 <_dtoa_r+0xb60>
    3ea8:	00064a40 	call	64a4 <__multadd>
    3eac:	1021883a 	mov	r16,r2
    3eb0:	a80b883a 	mov	r5,r21
    3eb4:	8009883a 	mov	r4,r16
    3eb8:	00031500 	call	3150 <quorem>
    3ebc:	10800c04 	addi	r2,r2,48
    3ec0:	90800005 	stb	r2,0(r18)
    3ec4:	94800044 	addi	r18,r18,1
    3ec8:	9507c83a 	sub	r3,r18,r20
    3ecc:	000f883a 	mov	r7,zero
    3ed0:	01800284 	movi	r6,10
    3ed4:	800b883a 	mov	r5,r16
    3ed8:	e009883a 	mov	r4,fp
    3edc:	1cfff216 	blt	r3,r19,3ea8 <__ram_exceptions_end+0xfbfe3c54>
    3ee0:	1011883a 	mov	r8,r2
    3ee4:	d8800617 	ldw	r2,24(sp)
    3ee8:	0082370e 	bge	zero,r2,47c8 <_dtoa_r+0x1478>
    3eec:	d9000717 	ldw	r4,28(sp)
    3ef0:	0025883a 	mov	r18,zero
    3ef4:	20af883a 	add	r23,r4,r2
    3ef8:	01800044 	movi	r6,1
    3efc:	800b883a 	mov	r5,r16
    3f00:	e009883a 	mov	r4,fp
    3f04:	da001715 	stw	r8,92(sp)
    3f08:	0006b540 	call	6b54 <__lshift>
    3f0c:	a80b883a 	mov	r5,r21
    3f10:	1009883a 	mov	r4,r2
    3f14:	d8800915 	stw	r2,36(sp)
    3f18:	0006c9c0 	call	6c9c <__mcmp>
    3f1c:	da001717 	ldw	r8,92(sp)
    3f20:	0081800e 	bge	zero,r2,4524 <_dtoa_r+0x11d4>
    3f24:	b93fffc3 	ldbu	r4,-1(r23)
    3f28:	b8bfffc4 	addi	r2,r23,-1
    3f2c:	1007883a 	mov	r3,r2
    3f30:	01800e44 	movi	r6,57
    3f34:	d9c00717 	ldw	r7,28(sp)
    3f38:	00000506 	br	3f50 <_dtoa_r+0xc00>
    3f3c:	18ffffc4 	addi	r3,r3,-1
    3f40:	11c12326 	beq	r2,r7,43d0 <_dtoa_r+0x1080>
    3f44:	19000003 	ldbu	r4,0(r3)
    3f48:	102f883a 	mov	r23,r2
    3f4c:	10bfffc4 	addi	r2,r2,-1
    3f50:	21403fcc 	andi	r5,r4,255
    3f54:	2940201c 	xori	r5,r5,128
    3f58:	297fe004 	addi	r5,r5,-128
    3f5c:	29bff726 	beq	r5,r6,3f3c <__ram_exceptions_end+0xfbfe3ce8>
    3f60:	21000044 	addi	r4,r4,1
    3f64:	11000005 	stb	r4,0(r2)
    3f68:	a80b883a 	mov	r5,r21
    3f6c:	e009883a 	mov	r4,fp
    3f70:	000647c0 	call	647c <_Bfree>
    3f74:	883ea026 	beq	r17,zero,39f8 <__ram_exceptions_end+0xfbfe37a4>
    3f78:	90000426 	beq	r18,zero,3f8c <_dtoa_r+0xc3c>
    3f7c:	94400326 	beq	r18,r17,3f8c <_dtoa_r+0xc3c>
    3f80:	900b883a 	mov	r5,r18
    3f84:	e009883a 	mov	r4,fp
    3f88:	000647c0 	call	647c <_Bfree>
    3f8c:	880b883a 	mov	r5,r17
    3f90:	e009883a 	mov	r4,fp
    3f94:	000647c0 	call	647c <_Bfree>
    3f98:	003e9706 	br	39f8 <__ram_exceptions_end+0xfbfe37a4>
    3f9c:	01800044 	movi	r6,1
    3fa0:	d9800e15 	stw	r6,56(sp)
    3fa4:	003d9606 	br	3600 <__ram_exceptions_end+0xfbfe33ac>
    3fa8:	d8800817 	ldw	r2,32(sp)
    3fac:	d8c00517 	ldw	r3,20(sp)
    3fb0:	d8000d15 	stw	zero,52(sp)
    3fb4:	10c5c83a 	sub	r2,r2,r3
    3fb8:	00c9c83a 	sub	r4,zero,r3
    3fbc:	d8800815 	stw	r2,32(sp)
    3fc0:	d9000a15 	stw	r4,40(sp)
    3fc4:	003d9706 	br	3624 <__ram_exceptions_end+0xfbfe33d0>
    3fc8:	05adc83a 	sub	r22,zero,r22
    3fcc:	dd800815 	stw	r22,32(sp)
    3fd0:	002d883a 	mov	r22,zero
    3fd4:	003d8e06 	br	3610 <__ram_exceptions_end+0xfbfe33bc>
    3fd8:	d9000517 	ldw	r4,20(sp)
    3fdc:	000d1700 	call	d170 <__floatsidf>
    3fe0:	100d883a 	mov	r6,r2
    3fe4:	180f883a 	mov	r7,r3
    3fe8:	a009883a 	mov	r4,r20
    3fec:	880b883a 	mov	r5,r17
    3ff0:	000be840 	call	be84 <__eqdf2>
    3ff4:	103d7126 	beq	r2,zero,35bc <__ram_exceptions_end+0xfbfe3368>
    3ff8:	d9c00517 	ldw	r7,20(sp)
    3ffc:	39ffffc4 	addi	r7,r7,-1
    4000:	d9c00515 	stw	r7,20(sp)
    4004:	003d6d06 	br	35bc <__ram_exceptions_end+0xfbfe3368>
    4008:	dd400a17 	ldw	r21,40(sp)
    400c:	dd000817 	ldw	r20,32(sp)
    4010:	0023883a 	mov	r17,zero
    4014:	003f4806 	br	3d38 <__ram_exceptions_end+0xfbfe3ae4>
    4018:	10e3c83a 	sub	r17,r2,r3
    401c:	9448983a 	sll	r4,r18,r17
    4020:	003d3206 	br	34ec <__ram_exceptions_end+0xfbfe3298>
    4024:	d8000e15 	stw	zero,56(sp)
    4028:	003d7506 	br	3600 <__ram_exceptions_end+0xfbfe33ac>
    402c:	b005883a 	mov	r2,r22
    4030:	003f4506 	br	3d48 <__ram_exceptions_end+0xfbfe3af4>
    4034:	dc000915 	stw	r16,36(sp)
    4038:	d9800a17 	ldw	r6,40(sp)
    403c:	d9400917 	ldw	r5,36(sp)
    4040:	e009883a 	mov	r4,fp
    4044:	0006a140 	call	6a14 <__pow5mult>
    4048:	1021883a 	mov	r16,r2
    404c:	003f5a06 	br	3db8 <__ram_exceptions_end+0xfbfe3b64>
    4050:	01c00044 	movi	r7,1
    4054:	d9c00b15 	stw	r7,44(sp)
    4058:	d8802217 	ldw	r2,136(sp)
    405c:	0081280e 	bge	zero,r2,4500 <_dtoa_r+0x11b0>
    4060:	100d883a 	mov	r6,r2
    4064:	1021883a 	mov	r16,r2
    4068:	d8800c15 	stw	r2,48(sp)
    406c:	d8800615 	stw	r2,24(sp)
    4070:	003d8806 	br	3694 <__ram_exceptions_end+0xfbfe3440>
    4074:	d8800617 	ldw	r2,24(sp)
    4078:	00be9b16 	blt	zero,r2,3ae8 <__ram_exceptions_end+0xfbfe3894>
    407c:	10010f1e 	bne	r2,zero,44bc <_dtoa_r+0x116c>
    4080:	880b883a 	mov	r5,r17
    4084:	000d883a 	mov	r6,zero
    4088:	01d00534 	movhi	r7,16404
    408c:	8009883a 	mov	r4,r16
    4090:	000c0dc0 	call	c0dc <__muldf3>
    4094:	900d883a 	mov	r6,r18
    4098:	980f883a 	mov	r7,r19
    409c:	1009883a 	mov	r4,r2
    40a0:	180b883a 	mov	r5,r3
    40a4:	000bf0c0 	call	bf0c <__gedf2>
    40a8:	002b883a 	mov	r21,zero
    40ac:	0023883a 	mov	r17,zero
    40b0:	1000bf16 	blt	r2,zero,43b0 <_dtoa_r+0x1060>
    40b4:	d9802217 	ldw	r6,136(sp)
    40b8:	ddc00717 	ldw	r23,28(sp)
    40bc:	018c303a 	nor	r6,zero,r6
    40c0:	d9800515 	stw	r6,20(sp)
    40c4:	a80b883a 	mov	r5,r21
    40c8:	e009883a 	mov	r4,fp
    40cc:	000647c0 	call	647c <_Bfree>
    40d0:	883e4926 	beq	r17,zero,39f8 <__ram_exceptions_end+0xfbfe37a4>
    40d4:	003fad06 	br	3f8c <__ram_exceptions_end+0xfbfe3d38>
    40d8:	d9c01117 	ldw	r7,68(sp)
    40dc:	3801bc26 	beq	r7,zero,47d0 <_dtoa_r+0x1480>
    40e0:	10810cc4 	addi	r2,r2,1075
    40e4:	dd400a17 	ldw	r21,40(sp)
    40e8:	dd000817 	ldw	r20,32(sp)
    40ec:	003f0a06 	br	3d18 <__ram_exceptions_end+0xfbfe3ac4>
    40f0:	00800704 	movi	r2,28
    40f4:	d9000817 	ldw	r4,32(sp)
    40f8:	a0a9883a 	add	r20,r20,r2
    40fc:	b0ad883a 	add	r22,r22,r2
    4100:	2089883a 	add	r4,r4,r2
    4104:	d9000815 	stw	r4,32(sp)
    4108:	003f5106 	br	3e50 <__ram_exceptions_end+0xfbfe3bfc>
    410c:	d8c00317 	ldw	r3,12(sp)
    4110:	b8c1fc0e 	bge	r23,r3,4904 <_dtoa_r+0x15b4>
    4114:	0027883a 	mov	r19,zero
    4118:	b805883a 	mov	r2,r23
    411c:	003f3e06 	br	3e18 <__ram_exceptions_end+0xfbfe3bc4>
    4120:	880b883a 	mov	r5,r17
    4124:	e009883a 	mov	r4,fp
    4128:	000f883a 	mov	r7,zero
    412c:	01800284 	movi	r6,10
    4130:	00064a40 	call	64a4 <__multadd>
    4134:	d9000c17 	ldw	r4,48(sp)
    4138:	1023883a 	mov	r17,r2
    413c:	0102040e 	bge	zero,r4,4950 <_dtoa_r+0x1600>
    4140:	d9000615 	stw	r4,24(sp)
    4144:	0500050e 	bge	zero,r20,415c <_dtoa_r+0xe0c>
    4148:	880b883a 	mov	r5,r17
    414c:	a00d883a 	mov	r6,r20
    4150:	e009883a 	mov	r4,fp
    4154:	0006b540 	call	6b54 <__lshift>
    4158:	1023883a 	mov	r17,r2
    415c:	9801241e 	bne	r19,zero,45f0 <_dtoa_r+0x12a0>
    4160:	8829883a 	mov	r20,r17
    4164:	d9000617 	ldw	r4,24(sp)
    4168:	dcc00717 	ldw	r19,28(sp)
    416c:	9480004c 	andi	r18,r18,1
    4170:	20bfffc4 	addi	r2,r4,-1
    4174:	9885883a 	add	r2,r19,r2
    4178:	d8800415 	stw	r2,16(sp)
    417c:	dc800615 	stw	r18,24(sp)
    4180:	a80b883a 	mov	r5,r21
    4184:	8009883a 	mov	r4,r16
    4188:	00031500 	call	3150 <quorem>
    418c:	880b883a 	mov	r5,r17
    4190:	8009883a 	mov	r4,r16
    4194:	102f883a 	mov	r23,r2
    4198:	0006c9c0 	call	6c9c <__mcmp>
    419c:	a80b883a 	mov	r5,r21
    41a0:	a00d883a 	mov	r6,r20
    41a4:	e009883a 	mov	r4,fp
    41a8:	102d883a 	mov	r22,r2
    41ac:	0006cfc0 	call	6cfc <__mdiff>
    41b0:	1007883a 	mov	r3,r2
    41b4:	10800317 	ldw	r2,12(r2)
    41b8:	bc800c04 	addi	r18,r23,48
    41bc:	180b883a 	mov	r5,r3
    41c0:	10004e1e 	bne	r2,zero,42fc <_dtoa_r+0xfac>
    41c4:	8009883a 	mov	r4,r16
    41c8:	d8c01615 	stw	r3,88(sp)
    41cc:	0006c9c0 	call	6c9c <__mcmp>
    41d0:	d8c01617 	ldw	r3,88(sp)
    41d4:	e009883a 	mov	r4,fp
    41d8:	d8801615 	stw	r2,88(sp)
    41dc:	180b883a 	mov	r5,r3
    41e0:	000647c0 	call	647c <_Bfree>
    41e4:	d8801617 	ldw	r2,88(sp)
    41e8:	1000041e 	bne	r2,zero,41fc <_dtoa_r+0xeac>
    41ec:	d9800317 	ldw	r6,12(sp)
    41f0:	3000021e 	bne	r6,zero,41fc <_dtoa_r+0xeac>
    41f4:	d8c00617 	ldw	r3,24(sp)
    41f8:	18003726 	beq	r3,zero,42d8 <_dtoa_r+0xf88>
    41fc:	b0002016 	blt	r22,zero,4280 <_dtoa_r+0xf30>
    4200:	b000041e 	bne	r22,zero,4214 <_dtoa_r+0xec4>
    4204:	d9000317 	ldw	r4,12(sp)
    4208:	2000021e 	bne	r4,zero,4214 <_dtoa_r+0xec4>
    420c:	d8c00617 	ldw	r3,24(sp)
    4210:	18001b26 	beq	r3,zero,4280 <_dtoa_r+0xf30>
    4214:	00810716 	blt	zero,r2,4634 <_dtoa_r+0x12e4>
    4218:	d8c00417 	ldw	r3,16(sp)
    421c:	9d800044 	addi	r22,r19,1
    4220:	9c800005 	stb	r18,0(r19)
    4224:	b02f883a 	mov	r23,r22
    4228:	98c10626 	beq	r19,r3,4644 <_dtoa_r+0x12f4>
    422c:	800b883a 	mov	r5,r16
    4230:	000f883a 	mov	r7,zero
    4234:	01800284 	movi	r6,10
    4238:	e009883a 	mov	r4,fp
    423c:	00064a40 	call	64a4 <__multadd>
    4240:	1021883a 	mov	r16,r2
    4244:	000f883a 	mov	r7,zero
    4248:	01800284 	movi	r6,10
    424c:	880b883a 	mov	r5,r17
    4250:	e009883a 	mov	r4,fp
    4254:	8d002526 	beq	r17,r20,42ec <_dtoa_r+0xf9c>
    4258:	00064a40 	call	64a4 <__multadd>
    425c:	a00b883a 	mov	r5,r20
    4260:	000f883a 	mov	r7,zero
    4264:	01800284 	movi	r6,10
    4268:	e009883a 	mov	r4,fp
    426c:	1023883a 	mov	r17,r2
    4270:	00064a40 	call	64a4 <__multadd>
    4274:	1029883a 	mov	r20,r2
    4278:	b027883a 	mov	r19,r22
    427c:	003fc006 	br	4180 <__ram_exceptions_end+0xfbfe3f2c>
    4280:	9011883a 	mov	r8,r18
    4284:	00800e0e 	bge	zero,r2,42c0 <_dtoa_r+0xf70>
    4288:	800b883a 	mov	r5,r16
    428c:	01800044 	movi	r6,1
    4290:	e009883a 	mov	r4,fp
    4294:	da001715 	stw	r8,92(sp)
    4298:	0006b540 	call	6b54 <__lshift>
    429c:	a80b883a 	mov	r5,r21
    42a0:	1009883a 	mov	r4,r2
    42a4:	1021883a 	mov	r16,r2
    42a8:	0006c9c0 	call	6c9c <__mcmp>
    42ac:	da001717 	ldw	r8,92(sp)
    42b0:	0081960e 	bge	zero,r2,490c <_dtoa_r+0x15bc>
    42b4:	00800e44 	movi	r2,57
    42b8:	40817026 	beq	r8,r2,487c <_dtoa_r+0x152c>
    42bc:	ba000c44 	addi	r8,r23,49
    42c0:	8825883a 	mov	r18,r17
    42c4:	9dc00044 	addi	r23,r19,1
    42c8:	9a000005 	stb	r8,0(r19)
    42cc:	a023883a 	mov	r17,r20
    42d0:	dc000915 	stw	r16,36(sp)
    42d4:	003f2406 	br	3f68 <__ram_exceptions_end+0xfbfe3d14>
    42d8:	00800e44 	movi	r2,57
    42dc:	9011883a 	mov	r8,r18
    42e0:	90816626 	beq	r18,r2,487c <_dtoa_r+0x152c>
    42e4:	05bff516 	blt	zero,r22,42bc <__ram_exceptions_end+0xfbfe4068>
    42e8:	003ff506 	br	42c0 <__ram_exceptions_end+0xfbfe406c>
    42ec:	00064a40 	call	64a4 <__multadd>
    42f0:	1023883a 	mov	r17,r2
    42f4:	1029883a 	mov	r20,r2
    42f8:	003fdf06 	br	4278 <__ram_exceptions_end+0xfbfe4024>
    42fc:	e009883a 	mov	r4,fp
    4300:	000647c0 	call	647c <_Bfree>
    4304:	00800044 	movi	r2,1
    4308:	003fbc06 	br	41fc <__ram_exceptions_end+0xfbfe3fa8>
    430c:	a80b883a 	mov	r5,r21
    4310:	8009883a 	mov	r4,r16
    4314:	0006c9c0 	call	6c9c <__mcmp>
    4318:	103edb0e 	bge	r2,zero,3e88 <__ram_exceptions_end+0xfbfe3c34>
    431c:	800b883a 	mov	r5,r16
    4320:	000f883a 	mov	r7,zero
    4324:	01800284 	movi	r6,10
    4328:	e009883a 	mov	r4,fp
    432c:	00064a40 	call	64a4 <__multadd>
    4330:	1021883a 	mov	r16,r2
    4334:	d8800517 	ldw	r2,20(sp)
    4338:	d8c00b17 	ldw	r3,44(sp)
    433c:	10bfffc4 	addi	r2,r2,-1
    4340:	d8800515 	stw	r2,20(sp)
    4344:	183f761e 	bne	r3,zero,4120 <__ram_exceptions_end+0xfbfe3ecc>
    4348:	d9000c17 	ldw	r4,48(sp)
    434c:	0101730e 	bge	zero,r4,491c <_dtoa_r+0x15cc>
    4350:	d9000615 	stw	r4,24(sp)
    4354:	003ed006 	br	3e98 <__ram_exceptions_end+0xfbfe3c44>
    4358:	00800084 	movi	r2,2
    435c:	3081861e 	bne	r6,r2,4978 <_dtoa_r+0x1628>
    4360:	d8000b15 	stw	zero,44(sp)
    4364:	003f3c06 	br	4058 <__ram_exceptions_end+0xfbfe3e04>
    4368:	dc000917 	ldw	r16,36(sp)
    436c:	003e9206 	br	3db8 <__ram_exceptions_end+0xfbfe3b64>
    4370:	d9c00317 	ldw	r7,12(sp)
    4374:	00800084 	movi	r2,2
    4378:	11fec50e 	bge	r2,r7,3e90 <__ram_exceptions_end+0xfbfe3c3c>
    437c:	d9000617 	ldw	r4,24(sp)
    4380:	20013c1e 	bne	r4,zero,4874 <_dtoa_r+0x1524>
    4384:	a80b883a 	mov	r5,r21
    4388:	000f883a 	mov	r7,zero
    438c:	01800144 	movi	r6,5
    4390:	e009883a 	mov	r4,fp
    4394:	00064a40 	call	64a4 <__multadd>
    4398:	100b883a 	mov	r5,r2
    439c:	8009883a 	mov	r4,r16
    43a0:	102b883a 	mov	r21,r2
    43a4:	0006c9c0 	call	6c9c <__mcmp>
    43a8:	dc000915 	stw	r16,36(sp)
    43ac:	00bf410e 	bge	zero,r2,40b4 <__ram_exceptions_end+0xfbfe3e60>
    43b0:	d9c00717 	ldw	r7,28(sp)
    43b4:	00800c44 	movi	r2,49
    43b8:	38800005 	stb	r2,0(r7)
    43bc:	d8800517 	ldw	r2,20(sp)
    43c0:	3dc00044 	addi	r23,r7,1
    43c4:	10800044 	addi	r2,r2,1
    43c8:	d8800515 	stw	r2,20(sp)
    43cc:	003f3d06 	br	40c4 <__ram_exceptions_end+0xfbfe3e70>
    43d0:	d9800517 	ldw	r6,20(sp)
    43d4:	d9c00717 	ldw	r7,28(sp)
    43d8:	00800c44 	movi	r2,49
    43dc:	31800044 	addi	r6,r6,1
    43e0:	d9800515 	stw	r6,20(sp)
    43e4:	38800005 	stb	r2,0(r7)
    43e8:	003edf06 	br	3f68 <__ram_exceptions_end+0xfbfe3d14>
    43ec:	d8000b15 	stw	zero,44(sp)
    43f0:	003c9f06 	br	3670 <__ram_exceptions_end+0xfbfe341c>
    43f4:	903e7e1e 	bne	r18,zero,3df0 <__ram_exceptions_end+0xfbfe3b9c>
    43f8:	00800434 	movhi	r2,16
    43fc:	10bfffc4 	addi	r2,r2,-1
    4400:	9884703a 	and	r2,r19,r2
    4404:	1000ea1e 	bne	r2,zero,47b0 <_dtoa_r+0x1460>
    4408:	9cdffc2c 	andhi	r19,r19,32752
    440c:	9800e826 	beq	r19,zero,47b0 <_dtoa_r+0x1460>
    4410:	d9c00817 	ldw	r7,32(sp)
    4414:	b5800044 	addi	r22,r22,1
    4418:	04c00044 	movi	r19,1
    441c:	39c00044 	addi	r7,r7,1
    4420:	d9c00815 	stw	r7,32(sp)
    4424:	d8800d17 	ldw	r2,52(sp)
    4428:	103e721e 	bne	r2,zero,3df4 <__ram_exceptions_end+0xfbfe3ba0>
    442c:	00800044 	movi	r2,1
    4430:	003e7906 	br	3e18 <__ram_exceptions_end+0xfbfe3bc4>
    4434:	8009883a 	mov	r4,r16
    4438:	000d1700 	call	d170 <__floatsidf>
    443c:	d9800f17 	ldw	r6,60(sp)
    4440:	d9c01017 	ldw	r7,64(sp)
    4444:	1009883a 	mov	r4,r2
    4448:	180b883a 	mov	r5,r3
    444c:	000c0dc0 	call	c0dc <__muldf3>
    4450:	000d883a 	mov	r6,zero
    4454:	01d00734 	movhi	r7,16412
    4458:	1009883a 	mov	r4,r2
    445c:	180b883a 	mov	r5,r3
    4460:	000acf00 	call	acf0 <__adddf3>
    4464:	047f3034 	movhi	r17,64704
    4468:	1021883a 	mov	r16,r2
    446c:	1c63883a 	add	r17,r3,r17
    4470:	d9000f17 	ldw	r4,60(sp)
    4474:	d9401017 	ldw	r5,64(sp)
    4478:	000d883a 	mov	r6,zero
    447c:	01d00534 	movhi	r7,16404
    4480:	000c7f40 	call	c7f4 <__subdf3>
    4484:	800d883a 	mov	r6,r16
    4488:	880f883a 	mov	r7,r17
    448c:	1009883a 	mov	r4,r2
    4490:	180b883a 	mov	r5,r3
    4494:	102b883a 	mov	r21,r2
    4498:	1829883a 	mov	r20,r3
    449c:	000bf0c0 	call	bf0c <__gedf2>
    44a0:	00806c16 	blt	zero,r2,4654 <_dtoa_r+0x1304>
    44a4:	89e0003c 	xorhi	r7,r17,32768
    44a8:	800d883a 	mov	r6,r16
    44ac:	a809883a 	mov	r4,r21
    44b0:	a00b883a 	mov	r5,r20
    44b4:	000bfe80 	call	bfe8 <__ledf2>
    44b8:	103d7e0e 	bge	r2,zero,3ab4 <__ram_exceptions_end+0xfbfe3860>
    44bc:	002b883a 	mov	r21,zero
    44c0:	0023883a 	mov	r17,zero
    44c4:	003efb06 	br	40b4 <__ram_exceptions_end+0xfbfe3e60>
    44c8:	d8800717 	ldw	r2,28(sp)
    44cc:	003bd006 	br	3410 <__ram_exceptions_end+0xfbfe31bc>
    44d0:	d9000a17 	ldw	r4,40(sp)
    44d4:	d9800d17 	ldw	r6,52(sp)
    44d8:	dd400a15 	stw	r21,40(sp)
    44dc:	a905c83a 	sub	r2,r21,r4
    44e0:	308d883a 	add	r6,r6,r2
    44e4:	d9800d15 	stw	r6,52(sp)
    44e8:	002b883a 	mov	r21,zero
    44ec:	003e0606 	br	3d08 <__ram_exceptions_end+0xfbfe3ab4>
    44f0:	9023883a 	mov	r17,r18
    44f4:	9829883a 	mov	r20,r19
    44f8:	04000084 	movi	r16,2
    44fc:	003c9206 	br	3748 <__ram_exceptions_end+0xfbfe34f4>
    4500:	04000044 	movi	r16,1
    4504:	dc000c15 	stw	r16,48(sp)
    4508:	dc000615 	stw	r16,24(sp)
    450c:	dc002215 	stw	r16,136(sp)
    4510:	e0001115 	stw	zero,68(fp)
    4514:	000b883a 	mov	r5,zero
    4518:	003c6906 	br	36c0 <__ram_exceptions_end+0xfbfe346c>
    451c:	3021883a 	mov	r16,r6
    4520:	003ffb06 	br	4510 <__ram_exceptions_end+0xfbfe42bc>
    4524:	1000021e 	bne	r2,zero,4530 <_dtoa_r+0x11e0>
    4528:	4200004c 	andi	r8,r8,1
    452c:	403e7d1e 	bne	r8,zero,3f24 <__ram_exceptions_end+0xfbfe3cd0>
    4530:	01000c04 	movi	r4,48
    4534:	00000106 	br	453c <_dtoa_r+0x11ec>
    4538:	102f883a 	mov	r23,r2
    453c:	b8bfffc4 	addi	r2,r23,-1
    4540:	10c00007 	ldb	r3,0(r2)
    4544:	193ffc26 	beq	r3,r4,4538 <__ram_exceptions_end+0xfbfe42e4>
    4548:	003e8706 	br	3f68 <__ram_exceptions_end+0xfbfe3d14>
    454c:	d8800517 	ldw	r2,20(sp)
    4550:	00a3c83a 	sub	r17,zero,r2
    4554:	8800a426 	beq	r17,zero,47e8 <_dtoa_r+0x1498>
    4558:	888003cc 	andi	r2,r17,15
    455c:	100490fa 	slli	r2,r2,3
    4560:	00c00074 	movhi	r3,1
    4564:	18c07804 	addi	r3,r3,480
    4568:	1885883a 	add	r2,r3,r2
    456c:	11800017 	ldw	r6,0(r2)
    4570:	11c00117 	ldw	r7,4(r2)
    4574:	9009883a 	mov	r4,r18
    4578:	980b883a 	mov	r5,r19
    457c:	8823d13a 	srai	r17,r17,4
    4580:	000c0dc0 	call	c0dc <__muldf3>
    4584:	d8800f15 	stw	r2,60(sp)
    4588:	d8c01015 	stw	r3,64(sp)
    458c:	8800e826 	beq	r17,zero,4930 <_dtoa_r+0x15e0>
    4590:	05000074 	movhi	r20,1
    4594:	a5006e04 	addi	r20,r20,440
    4598:	04000084 	movi	r16,2
    459c:	8980004c 	andi	r6,r17,1
    45a0:	1009883a 	mov	r4,r2
    45a4:	8823d07a 	srai	r17,r17,1
    45a8:	180b883a 	mov	r5,r3
    45ac:	30000426 	beq	r6,zero,45c0 <_dtoa_r+0x1270>
    45b0:	a1800017 	ldw	r6,0(r20)
    45b4:	a1c00117 	ldw	r7,4(r20)
    45b8:	84000044 	addi	r16,r16,1
    45bc:	000c0dc0 	call	c0dc <__muldf3>
    45c0:	a5000204 	addi	r20,r20,8
    45c4:	883ff51e 	bne	r17,zero,459c <__ram_exceptions_end+0xfbfe4348>
    45c8:	d8800f15 	stw	r2,60(sp)
    45cc:	d8c01015 	stw	r3,64(sp)
    45d0:	003c7606 	br	37ac <__ram_exceptions_end+0xfbfe3558>
    45d4:	00c00c04 	movi	r3,48
    45d8:	10c00005 	stb	r3,0(r2)
    45dc:	d8c00517 	ldw	r3,20(sp)
    45e0:	bd3fffc3 	ldbu	r20,-1(r23)
    45e4:	18c00044 	addi	r3,r3,1
    45e8:	d8c00515 	stw	r3,20(sp)
    45ec:	003db906 	br	3cd4 <__ram_exceptions_end+0xfbfe3a80>
    45f0:	89400117 	ldw	r5,4(r17)
    45f4:	e009883a 	mov	r4,fp
    45f8:	00063d40 	call	63d4 <_Balloc>
    45fc:	89800417 	ldw	r6,16(r17)
    4600:	89400304 	addi	r5,r17,12
    4604:	11000304 	addi	r4,r2,12
    4608:	31800084 	addi	r6,r6,2
    460c:	318d883a 	add	r6,r6,r6
    4610:	318d883a 	add	r6,r6,r6
    4614:	1027883a 	mov	r19,r2
    4618:	00061640 	call	6164 <memcpy>
    461c:	01800044 	movi	r6,1
    4620:	980b883a 	mov	r5,r19
    4624:	e009883a 	mov	r4,fp
    4628:	0006b540 	call	6b54 <__lshift>
    462c:	1029883a 	mov	r20,r2
    4630:	003ecc06 	br	4164 <__ram_exceptions_end+0xfbfe3f10>
    4634:	00800e44 	movi	r2,57
    4638:	90809026 	beq	r18,r2,487c <_dtoa_r+0x152c>
    463c:	92000044 	addi	r8,r18,1
    4640:	003f1f06 	br	42c0 <__ram_exceptions_end+0xfbfe406c>
    4644:	9011883a 	mov	r8,r18
    4648:	8825883a 	mov	r18,r17
    464c:	a023883a 	mov	r17,r20
    4650:	003e2906 	br	3ef8 <__ram_exceptions_end+0xfbfe3ca4>
    4654:	002b883a 	mov	r21,zero
    4658:	0023883a 	mov	r17,zero
    465c:	003f5406 	br	43b0 <__ram_exceptions_end+0xfbfe415c>
    4660:	61bfffc4 	addi	r6,r12,-1
    4664:	300490fa 	slli	r2,r6,3
    4668:	00c00074 	movhi	r3,1
    466c:	18c07804 	addi	r3,r3,480
    4670:	1885883a 	add	r2,r3,r2
    4674:	11000017 	ldw	r4,0(r2)
    4678:	11400117 	ldw	r5,4(r2)
    467c:	d8800717 	ldw	r2,28(sp)
    4680:	880f883a 	mov	r7,r17
    4684:	d9801215 	stw	r6,72(sp)
    4688:	800d883a 	mov	r6,r16
    468c:	db001615 	stw	r12,88(sp)
    4690:	15c00044 	addi	r23,r2,1
    4694:	000c0dc0 	call	c0dc <__muldf3>
    4698:	d9401017 	ldw	r5,64(sp)
    469c:	d9000f17 	ldw	r4,60(sp)
    46a0:	d8c01515 	stw	r3,84(sp)
    46a4:	d8801415 	stw	r2,80(sp)
    46a8:	000d0f00 	call	d0f0 <__fixdfsi>
    46ac:	1009883a 	mov	r4,r2
    46b0:	1021883a 	mov	r16,r2
    46b4:	000d1700 	call	d170 <__floatsidf>
    46b8:	d9000f17 	ldw	r4,60(sp)
    46bc:	d9401017 	ldw	r5,64(sp)
    46c0:	100d883a 	mov	r6,r2
    46c4:	180f883a 	mov	r7,r3
    46c8:	000c7f40 	call	c7f4 <__subdf3>
    46cc:	1829883a 	mov	r20,r3
    46d0:	d8c00717 	ldw	r3,28(sp)
    46d4:	84000c04 	addi	r16,r16,48
    46d8:	1023883a 	mov	r17,r2
    46dc:	1c000005 	stb	r16,0(r3)
    46e0:	db001617 	ldw	r12,88(sp)
    46e4:	00800044 	movi	r2,1
    46e8:	60802226 	beq	r12,r2,4774 <_dtoa_r+0x1424>
    46ec:	d9c00717 	ldw	r7,28(sp)
    46f0:	8805883a 	mov	r2,r17
    46f4:	b82b883a 	mov	r21,r23
    46f8:	3b19883a 	add	r12,r7,r12
    46fc:	6023883a 	mov	r17,r12
    4700:	a007883a 	mov	r3,r20
    4704:	dc800f15 	stw	r18,60(sp)
    4708:	000d883a 	mov	r6,zero
    470c:	01d00934 	movhi	r7,16420
    4710:	1009883a 	mov	r4,r2
    4714:	180b883a 	mov	r5,r3
    4718:	000c0dc0 	call	c0dc <__muldf3>
    471c:	180b883a 	mov	r5,r3
    4720:	1009883a 	mov	r4,r2
    4724:	1829883a 	mov	r20,r3
    4728:	1025883a 	mov	r18,r2
    472c:	000d0f00 	call	d0f0 <__fixdfsi>
    4730:	1009883a 	mov	r4,r2
    4734:	1021883a 	mov	r16,r2
    4738:	000d1700 	call	d170 <__floatsidf>
    473c:	100d883a 	mov	r6,r2
    4740:	180f883a 	mov	r7,r3
    4744:	9009883a 	mov	r4,r18
    4748:	a00b883a 	mov	r5,r20
    474c:	84000c04 	addi	r16,r16,48
    4750:	000c7f40 	call	c7f4 <__subdf3>
    4754:	ad400044 	addi	r21,r21,1
    4758:	ac3fffc5 	stb	r16,-1(r21)
    475c:	ac7fea1e 	bne	r21,r17,4708 <__ram_exceptions_end+0xfbfe44b4>
    4760:	1023883a 	mov	r17,r2
    4764:	d8801217 	ldw	r2,72(sp)
    4768:	dc800f17 	ldw	r18,60(sp)
    476c:	1829883a 	mov	r20,r3
    4770:	b8af883a 	add	r23,r23,r2
    4774:	d9001417 	ldw	r4,80(sp)
    4778:	d9401517 	ldw	r5,84(sp)
    477c:	000d883a 	mov	r6,zero
    4780:	01cff834 	movhi	r7,16352
    4784:	000acf00 	call	acf0 <__adddf3>
    4788:	880d883a 	mov	r6,r17
    478c:	a00f883a 	mov	r7,r20
    4790:	1009883a 	mov	r4,r2
    4794:	180b883a 	mov	r5,r3
    4798:	000bfe80 	call	bfe8 <__ledf2>
    479c:	10003e0e 	bge	r2,zero,4898 <_dtoa_r+0x1548>
    47a0:	d9001317 	ldw	r4,76(sp)
    47a4:	bd3fffc3 	ldbu	r20,-1(r23)
    47a8:	d9000515 	stw	r4,20(sp)
    47ac:	003d3b06 	br	3c9c <__ram_exceptions_end+0xfbfe3a48>
    47b0:	0027883a 	mov	r19,zero
    47b4:	003f1b06 	br	4424 <__ram_exceptions_end+0xfbfe41d0>
    47b8:	d8800817 	ldw	r2,32(sp)
    47bc:	11e9c83a 	sub	r20,r2,r7
    47c0:	0005883a 	mov	r2,zero
    47c4:	003d5406 	br	3d18 <__ram_exceptions_end+0xfbfe3ac4>
    47c8:	00800044 	movi	r2,1
    47cc:	003dc706 	br	3eec <__ram_exceptions_end+0xfbfe3c98>
    47d0:	d8c00217 	ldw	r3,8(sp)
    47d4:	00800d84 	movi	r2,54
    47d8:	dd400a17 	ldw	r21,40(sp)
    47dc:	10c5c83a 	sub	r2,r2,r3
    47e0:	dd000817 	ldw	r20,32(sp)
    47e4:	003d4c06 	br	3d18 <__ram_exceptions_end+0xfbfe3ac4>
    47e8:	dc800f15 	stw	r18,60(sp)
    47ec:	dcc01015 	stw	r19,64(sp)
    47f0:	04000084 	movi	r16,2
    47f4:	003bed06 	br	37ac <__ram_exceptions_end+0xfbfe3558>
    47f8:	d9000617 	ldw	r4,24(sp)
    47fc:	203f0d26 	beq	r4,zero,4434 <__ram_exceptions_end+0xfbfe41e0>
    4800:	d9800c17 	ldw	r6,48(sp)
    4804:	01bcab0e 	bge	zero,r6,3ab4 <__ram_exceptions_end+0xfbfe3860>
    4808:	d9401017 	ldw	r5,64(sp)
    480c:	d9000f17 	ldw	r4,60(sp)
    4810:	000d883a 	mov	r6,zero
    4814:	01d00934 	movhi	r7,16420
    4818:	000c0dc0 	call	c0dc <__muldf3>
    481c:	81000044 	addi	r4,r16,1
    4820:	d8800f15 	stw	r2,60(sp)
    4824:	d8c01015 	stw	r3,64(sp)
    4828:	000d1700 	call	d170 <__floatsidf>
    482c:	d9800f17 	ldw	r6,60(sp)
    4830:	d9c01017 	ldw	r7,64(sp)
    4834:	1009883a 	mov	r4,r2
    4838:	180b883a 	mov	r5,r3
    483c:	000c0dc0 	call	c0dc <__muldf3>
    4840:	01d00734 	movhi	r7,16412
    4844:	000d883a 	mov	r6,zero
    4848:	1009883a 	mov	r4,r2
    484c:	180b883a 	mov	r5,r3
    4850:	000acf00 	call	acf0 <__adddf3>
    4854:	d9c00517 	ldw	r7,20(sp)
    4858:	047f3034 	movhi	r17,64704
    485c:	1021883a 	mov	r16,r2
    4860:	39ffffc4 	addi	r7,r7,-1
    4864:	d9c01315 	stw	r7,76(sp)
    4868:	1c63883a 	add	r17,r3,r17
    486c:	db000c17 	ldw	r12,48(sp)
    4870:	003bea06 	br	381c <__ram_exceptions_end+0xfbfe35c8>
    4874:	dc000915 	stw	r16,36(sp)
    4878:	003e0e06 	br	40b4 <__ram_exceptions_end+0xfbfe3e60>
    487c:	01000e44 	movi	r4,57
    4880:	8825883a 	mov	r18,r17
    4884:	9dc00044 	addi	r23,r19,1
    4888:	99000005 	stb	r4,0(r19)
    488c:	a023883a 	mov	r17,r20
    4890:	dc000915 	stw	r16,36(sp)
    4894:	003da406 	br	3f28 <__ram_exceptions_end+0xfbfe3cd4>
    4898:	d9801417 	ldw	r6,80(sp)
    489c:	d9c01517 	ldw	r7,84(sp)
    48a0:	0009883a 	mov	r4,zero
    48a4:	014ff834 	movhi	r5,16352
    48a8:	000c7f40 	call	c7f4 <__subdf3>
    48ac:	880d883a 	mov	r6,r17
    48b0:	a00f883a 	mov	r7,r20
    48b4:	1009883a 	mov	r4,r2
    48b8:	180b883a 	mov	r5,r3
    48bc:	000bf0c0 	call	bf0c <__gedf2>
    48c0:	00bc7c0e 	bge	zero,r2,3ab4 <__ram_exceptions_end+0xfbfe3860>
    48c4:	01000c04 	movi	r4,48
    48c8:	00000106 	br	48d0 <_dtoa_r+0x1580>
    48cc:	102f883a 	mov	r23,r2
    48d0:	b8bfffc4 	addi	r2,r23,-1
    48d4:	10c00007 	ldb	r3,0(r2)
    48d8:	193ffc26 	beq	r3,r4,48cc <__ram_exceptions_end+0xfbfe4678>
    48dc:	d9801317 	ldw	r6,76(sp)
    48e0:	d9800515 	stw	r6,20(sp)
    48e4:	003c4406 	br	39f8 <__ram_exceptions_end+0xfbfe37a4>
    48e8:	d9801317 	ldw	r6,76(sp)
    48ec:	d9800515 	stw	r6,20(sp)
    48f0:	003cea06 	br	3c9c <__ram_exceptions_end+0xfbfe3a48>
    48f4:	dd800f17 	ldw	r22,60(sp)
    48f8:	dcc01017 	ldw	r19,64(sp)
    48fc:	dc801217 	ldw	r18,72(sp)
    4900:	003c6c06 	br	3ab4 <__ram_exceptions_end+0xfbfe3860>
    4904:	903e031e 	bne	r18,zero,4114 <__ram_exceptions_end+0xfbfe3ec0>
    4908:	003ebb06 	br	43f8 <__ram_exceptions_end+0xfbfe41a4>
    490c:	103e6c1e 	bne	r2,zero,42c0 <__ram_exceptions_end+0xfbfe406c>
    4910:	4080004c 	andi	r2,r8,1
    4914:	103e6a26 	beq	r2,zero,42c0 <__ram_exceptions_end+0xfbfe406c>
    4918:	003e6606 	br	42b4 <__ram_exceptions_end+0xfbfe4060>
    491c:	d8c00317 	ldw	r3,12(sp)
    4920:	00800084 	movi	r2,2
    4924:	10c02916 	blt	r2,r3,49cc <_dtoa_r+0x167c>
    4928:	d9000c17 	ldw	r4,48(sp)
    492c:	003e8806 	br	4350 <__ram_exceptions_end+0xfbfe40fc>
    4930:	04000084 	movi	r16,2
    4934:	003b9d06 	br	37ac <__ram_exceptions_end+0xfbfe3558>
    4938:	d9001317 	ldw	r4,76(sp)
    493c:	d9000515 	stw	r4,20(sp)
    4940:	003cd606 	br	3c9c <__ram_exceptions_end+0xfbfe3a48>
    4944:	d8801317 	ldw	r2,76(sp)
    4948:	d8800515 	stw	r2,20(sp)
    494c:	003c2a06 	br	39f8 <__ram_exceptions_end+0xfbfe37a4>
    4950:	d9800317 	ldw	r6,12(sp)
    4954:	00800084 	movi	r2,2
    4958:	11801516 	blt	r2,r6,49b0 <_dtoa_r+0x1660>
    495c:	d9c00c17 	ldw	r7,48(sp)
    4960:	d9c00615 	stw	r7,24(sp)
    4964:	003df706 	br	4144 <__ram_exceptions_end+0xfbfe3ef0>
    4968:	193d3926 	beq	r3,r4,3e50 <__ram_exceptions_end+0xfbfe3bfc>
    496c:	00c00f04 	movi	r3,60
    4970:	1885c83a 	sub	r2,r3,r2
    4974:	003ddf06 	br	40f4 <__ram_exceptions_end+0xfbfe3ea0>
    4978:	e009883a 	mov	r4,fp
    497c:	e0001115 	stw	zero,68(fp)
    4980:	000b883a 	mov	r5,zero
    4984:	00063d40 	call	63d4 <_Balloc>
    4988:	d8800715 	stw	r2,28(sp)
    498c:	d8c00717 	ldw	r3,28(sp)
    4990:	00bfffc4 	movi	r2,-1
    4994:	01000044 	movi	r4,1
    4998:	d8800c15 	stw	r2,48(sp)
    499c:	e0c01015 	stw	r3,64(fp)
    49a0:	d9000b15 	stw	r4,44(sp)
    49a4:	d8800615 	stw	r2,24(sp)
    49a8:	d8002215 	stw	zero,136(sp)
    49ac:	003c4106 	br	3ab4 <__ram_exceptions_end+0xfbfe3860>
    49b0:	d8c00c17 	ldw	r3,48(sp)
    49b4:	d8c00615 	stw	r3,24(sp)
    49b8:	003e7006 	br	437c <__ram_exceptions_end+0xfbfe4128>
    49bc:	04400044 	movi	r17,1
    49c0:	003b2006 	br	3644 <__ram_exceptions_end+0xfbfe33f0>
    49c4:	000b883a 	mov	r5,zero
    49c8:	003b3d06 	br	36c0 <__ram_exceptions_end+0xfbfe346c>
    49cc:	d8800c17 	ldw	r2,48(sp)
    49d0:	d8800615 	stw	r2,24(sp)
    49d4:	003e6906 	br	437c <__ram_exceptions_end+0xfbfe4128>

000049d8 <__sflush_r>:
    49d8:	2880030b 	ldhu	r2,12(r5)
    49dc:	defffb04 	addi	sp,sp,-20
    49e0:	dcc00315 	stw	r19,12(sp)
    49e4:	dc400115 	stw	r17,4(sp)
    49e8:	dfc00415 	stw	ra,16(sp)
    49ec:	dc800215 	stw	r18,8(sp)
    49f0:	dc000015 	stw	r16,0(sp)
    49f4:	10c0020c 	andi	r3,r2,8
    49f8:	2823883a 	mov	r17,r5
    49fc:	2027883a 	mov	r19,r4
    4a00:	1800311e 	bne	r3,zero,4ac8 <__sflush_r+0xf0>
    4a04:	28c00117 	ldw	r3,4(r5)
    4a08:	10820014 	ori	r2,r2,2048
    4a0c:	2880030d 	sth	r2,12(r5)
    4a10:	00c04b0e 	bge	zero,r3,4b40 <__sflush_r+0x168>
    4a14:	8a000a17 	ldw	r8,40(r17)
    4a18:	40002326 	beq	r8,zero,4aa8 <__sflush_r+0xd0>
    4a1c:	9c000017 	ldw	r16,0(r19)
    4a20:	10c4000c 	andi	r3,r2,4096
    4a24:	98000015 	stw	zero,0(r19)
    4a28:	18004826 	beq	r3,zero,4b4c <__sflush_r+0x174>
    4a2c:	89801417 	ldw	r6,80(r17)
    4a30:	10c0010c 	andi	r3,r2,4
    4a34:	18000626 	beq	r3,zero,4a50 <__sflush_r+0x78>
    4a38:	88c00117 	ldw	r3,4(r17)
    4a3c:	88800c17 	ldw	r2,48(r17)
    4a40:	30cdc83a 	sub	r6,r6,r3
    4a44:	10000226 	beq	r2,zero,4a50 <__sflush_r+0x78>
    4a48:	88800f17 	ldw	r2,60(r17)
    4a4c:	308dc83a 	sub	r6,r6,r2
    4a50:	89400717 	ldw	r5,28(r17)
    4a54:	000f883a 	mov	r7,zero
    4a58:	9809883a 	mov	r4,r19
    4a5c:	403ee83a 	callr	r8
    4a60:	00ffffc4 	movi	r3,-1
    4a64:	10c04426 	beq	r2,r3,4b78 <__sflush_r+0x1a0>
    4a68:	88c0030b 	ldhu	r3,12(r17)
    4a6c:	89000417 	ldw	r4,16(r17)
    4a70:	88000115 	stw	zero,4(r17)
    4a74:	197dffcc 	andi	r5,r3,63487
    4a78:	8940030d 	sth	r5,12(r17)
    4a7c:	89000015 	stw	r4,0(r17)
    4a80:	18c4000c 	andi	r3,r3,4096
    4a84:	18002c1e 	bne	r3,zero,4b38 <__sflush_r+0x160>
    4a88:	89400c17 	ldw	r5,48(r17)
    4a8c:	9c000015 	stw	r16,0(r19)
    4a90:	28000526 	beq	r5,zero,4aa8 <__sflush_r+0xd0>
    4a94:	88801004 	addi	r2,r17,64
    4a98:	28800226 	beq	r5,r2,4aa4 <__sflush_r+0xcc>
    4a9c:	9809883a 	mov	r4,r19
    4aa0:	00051440 	call	5144 <_free_r>
    4aa4:	88000c15 	stw	zero,48(r17)
    4aa8:	0005883a 	mov	r2,zero
    4aac:	dfc00417 	ldw	ra,16(sp)
    4ab0:	dcc00317 	ldw	r19,12(sp)
    4ab4:	dc800217 	ldw	r18,8(sp)
    4ab8:	dc400117 	ldw	r17,4(sp)
    4abc:	dc000017 	ldw	r16,0(sp)
    4ac0:	dec00504 	addi	sp,sp,20
    4ac4:	f800283a 	ret
    4ac8:	2c800417 	ldw	r18,16(r5)
    4acc:	903ff626 	beq	r18,zero,4aa8 <__ram_exceptions_end+0xfbfe4854>
    4ad0:	2c000017 	ldw	r16,0(r5)
    4ad4:	108000cc 	andi	r2,r2,3
    4ad8:	2c800015 	stw	r18,0(r5)
    4adc:	84a1c83a 	sub	r16,r16,r18
    4ae0:	1000131e 	bne	r2,zero,4b30 <__sflush_r+0x158>
    4ae4:	28800517 	ldw	r2,20(r5)
    4ae8:	88800215 	stw	r2,8(r17)
    4aec:	04000316 	blt	zero,r16,4afc <__sflush_r+0x124>
    4af0:	003fed06 	br	4aa8 <__ram_exceptions_end+0xfbfe4854>
    4af4:	90a5883a 	add	r18,r18,r2
    4af8:	043feb0e 	bge	zero,r16,4aa8 <__ram_exceptions_end+0xfbfe4854>
    4afc:	88800917 	ldw	r2,36(r17)
    4b00:	89400717 	ldw	r5,28(r17)
    4b04:	800f883a 	mov	r7,r16
    4b08:	900d883a 	mov	r6,r18
    4b0c:	9809883a 	mov	r4,r19
    4b10:	103ee83a 	callr	r2
    4b14:	80a1c83a 	sub	r16,r16,r2
    4b18:	00bff616 	blt	zero,r2,4af4 <__ram_exceptions_end+0xfbfe48a0>
    4b1c:	88c0030b 	ldhu	r3,12(r17)
    4b20:	00bfffc4 	movi	r2,-1
    4b24:	18c01014 	ori	r3,r3,64
    4b28:	88c0030d 	sth	r3,12(r17)
    4b2c:	003fdf06 	br	4aac <__ram_exceptions_end+0xfbfe4858>
    4b30:	0005883a 	mov	r2,zero
    4b34:	003fec06 	br	4ae8 <__ram_exceptions_end+0xfbfe4894>
    4b38:	88801415 	stw	r2,80(r17)
    4b3c:	003fd206 	br	4a88 <__ram_exceptions_end+0xfbfe4834>
    4b40:	28c00f17 	ldw	r3,60(r5)
    4b44:	00ffb316 	blt	zero,r3,4a14 <__ram_exceptions_end+0xfbfe47c0>
    4b48:	003fd706 	br	4aa8 <__ram_exceptions_end+0xfbfe4854>
    4b4c:	89400717 	ldw	r5,28(r17)
    4b50:	000d883a 	mov	r6,zero
    4b54:	01c00044 	movi	r7,1
    4b58:	9809883a 	mov	r4,r19
    4b5c:	403ee83a 	callr	r8
    4b60:	100d883a 	mov	r6,r2
    4b64:	00bfffc4 	movi	r2,-1
    4b68:	30801426 	beq	r6,r2,4bbc <__sflush_r+0x1e4>
    4b6c:	8880030b 	ldhu	r2,12(r17)
    4b70:	8a000a17 	ldw	r8,40(r17)
    4b74:	003fae06 	br	4a30 <__ram_exceptions_end+0xfbfe47dc>
    4b78:	98c00017 	ldw	r3,0(r19)
    4b7c:	183fba26 	beq	r3,zero,4a68 <__ram_exceptions_end+0xfbfe4814>
    4b80:	01000744 	movi	r4,29
    4b84:	19000626 	beq	r3,r4,4ba0 <__sflush_r+0x1c8>
    4b88:	01000584 	movi	r4,22
    4b8c:	19000426 	beq	r3,r4,4ba0 <__sflush_r+0x1c8>
    4b90:	88c0030b 	ldhu	r3,12(r17)
    4b94:	18c01014 	ori	r3,r3,64
    4b98:	88c0030d 	sth	r3,12(r17)
    4b9c:	003fc306 	br	4aac <__ram_exceptions_end+0xfbfe4858>
    4ba0:	8880030b 	ldhu	r2,12(r17)
    4ba4:	88c00417 	ldw	r3,16(r17)
    4ba8:	88000115 	stw	zero,4(r17)
    4bac:	10bdffcc 	andi	r2,r2,63487
    4bb0:	8880030d 	sth	r2,12(r17)
    4bb4:	88c00015 	stw	r3,0(r17)
    4bb8:	003fb306 	br	4a88 <__ram_exceptions_end+0xfbfe4834>
    4bbc:	98800017 	ldw	r2,0(r19)
    4bc0:	103fea26 	beq	r2,zero,4b6c <__ram_exceptions_end+0xfbfe4918>
    4bc4:	00c00744 	movi	r3,29
    4bc8:	10c00226 	beq	r2,r3,4bd4 <__sflush_r+0x1fc>
    4bcc:	00c00584 	movi	r3,22
    4bd0:	10c0031e 	bne	r2,r3,4be0 <__sflush_r+0x208>
    4bd4:	9c000015 	stw	r16,0(r19)
    4bd8:	0005883a 	mov	r2,zero
    4bdc:	003fb306 	br	4aac <__ram_exceptions_end+0xfbfe4858>
    4be0:	88c0030b 	ldhu	r3,12(r17)
    4be4:	3005883a 	mov	r2,r6
    4be8:	18c01014 	ori	r3,r3,64
    4bec:	88c0030d 	sth	r3,12(r17)
    4bf0:	003fae06 	br	4aac <__ram_exceptions_end+0xfbfe4858>

00004bf4 <_fflush_r>:
    4bf4:	defffd04 	addi	sp,sp,-12
    4bf8:	dc000115 	stw	r16,4(sp)
    4bfc:	dfc00215 	stw	ra,8(sp)
    4c00:	2021883a 	mov	r16,r4
    4c04:	20000226 	beq	r4,zero,4c10 <_fflush_r+0x1c>
    4c08:	20800e17 	ldw	r2,56(r4)
    4c0c:	10000c26 	beq	r2,zero,4c40 <_fflush_r+0x4c>
    4c10:	2880030f 	ldh	r2,12(r5)
    4c14:	1000051e 	bne	r2,zero,4c2c <_fflush_r+0x38>
    4c18:	0005883a 	mov	r2,zero
    4c1c:	dfc00217 	ldw	ra,8(sp)
    4c20:	dc000117 	ldw	r16,4(sp)
    4c24:	dec00304 	addi	sp,sp,12
    4c28:	f800283a 	ret
    4c2c:	8009883a 	mov	r4,r16
    4c30:	dfc00217 	ldw	ra,8(sp)
    4c34:	dc000117 	ldw	r16,4(sp)
    4c38:	dec00304 	addi	sp,sp,12
    4c3c:	00049d81 	jmpi	49d8 <__sflush_r>
    4c40:	d9400015 	stw	r5,0(sp)
    4c44:	0004fd00 	call	4fd0 <__sinit>
    4c48:	d9400017 	ldw	r5,0(sp)
    4c4c:	003ff006 	br	4c10 <__ram_exceptions_end+0xfbfe49bc>

00004c50 <fflush>:
    4c50:	20000526 	beq	r4,zero,4c68 <fflush+0x18>
    4c54:	00800074 	movhi	r2,1
    4c58:	1087ab04 	addi	r2,r2,7852
    4c5c:	200b883a 	mov	r5,r4
    4c60:	11000017 	ldw	r4,0(r2)
    4c64:	0004bf41 	jmpi	4bf4 <_fflush_r>
    4c68:	00800074 	movhi	r2,1
    4c6c:	1087aa04 	addi	r2,r2,7848
    4c70:	11000017 	ldw	r4,0(r2)
    4c74:	01400034 	movhi	r5,0
    4c78:	2952fd04 	addi	r5,r5,19444
    4c7c:	00055181 	jmpi	5518 <_fwalk_reent>

00004c80 <__fp_unlock>:
    4c80:	0005883a 	mov	r2,zero
    4c84:	f800283a 	ret

00004c88 <_cleanup_r>:
    4c88:	01400074 	movhi	r5,1
    4c8c:	2963c204 	addi	r5,r5,-28920
    4c90:	00055181 	jmpi	5518 <_fwalk_reent>

00004c94 <__sinit.part.1>:
    4c94:	defff704 	addi	sp,sp,-36
    4c98:	00c00034 	movhi	r3,0
    4c9c:	dfc00815 	stw	ra,32(sp)
    4ca0:	ddc00715 	stw	r23,28(sp)
    4ca4:	dd800615 	stw	r22,24(sp)
    4ca8:	dd400515 	stw	r21,20(sp)
    4cac:	dd000415 	stw	r20,16(sp)
    4cb0:	dcc00315 	stw	r19,12(sp)
    4cb4:	dc800215 	stw	r18,8(sp)
    4cb8:	dc400115 	stw	r17,4(sp)
    4cbc:	dc000015 	stw	r16,0(sp)
    4cc0:	18d32204 	addi	r3,r3,19592
    4cc4:	24000117 	ldw	r16,4(r4)
    4cc8:	20c00f15 	stw	r3,60(r4)
    4ccc:	2080bb04 	addi	r2,r4,748
    4cd0:	00c000c4 	movi	r3,3
    4cd4:	20c0b915 	stw	r3,740(r4)
    4cd8:	2080ba15 	stw	r2,744(r4)
    4cdc:	2000b815 	stw	zero,736(r4)
    4ce0:	05c00204 	movi	r23,8
    4ce4:	00800104 	movi	r2,4
    4ce8:	2025883a 	mov	r18,r4
    4cec:	b80d883a 	mov	r6,r23
    4cf0:	81001704 	addi	r4,r16,92
    4cf4:	000b883a 	mov	r5,zero
    4cf8:	80000015 	stw	zero,0(r16)
    4cfc:	80000115 	stw	zero,4(r16)
    4d00:	80000215 	stw	zero,8(r16)
    4d04:	8080030d 	sth	r2,12(r16)
    4d08:	80001915 	stw	zero,100(r16)
    4d0c:	8000038d 	sth	zero,14(r16)
    4d10:	80000415 	stw	zero,16(r16)
    4d14:	80000515 	stw	zero,20(r16)
    4d18:	80000615 	stw	zero,24(r16)
    4d1c:	00062ac0 	call	62ac <memset>
    4d20:	05800034 	movhi	r22,0
    4d24:	94400217 	ldw	r17,8(r18)
    4d28:	05400034 	movhi	r21,0
    4d2c:	05000034 	movhi	r20,0
    4d30:	04c00034 	movhi	r19,0
    4d34:	b59d2604 	addi	r22,r22,29848
    4d38:	ad5d3d04 	addi	r21,r21,29940
    4d3c:	a51d5c04 	addi	r20,r20,30064
    4d40:	9cdd7304 	addi	r19,r19,30156
    4d44:	85800815 	stw	r22,32(r16)
    4d48:	85400915 	stw	r21,36(r16)
    4d4c:	85000a15 	stw	r20,40(r16)
    4d50:	84c00b15 	stw	r19,44(r16)
    4d54:	84000715 	stw	r16,28(r16)
    4d58:	00800284 	movi	r2,10
    4d5c:	8880030d 	sth	r2,12(r17)
    4d60:	00800044 	movi	r2,1
    4d64:	b80d883a 	mov	r6,r23
    4d68:	89001704 	addi	r4,r17,92
    4d6c:	000b883a 	mov	r5,zero
    4d70:	88000015 	stw	zero,0(r17)
    4d74:	88000115 	stw	zero,4(r17)
    4d78:	88000215 	stw	zero,8(r17)
    4d7c:	88001915 	stw	zero,100(r17)
    4d80:	8880038d 	sth	r2,14(r17)
    4d84:	88000415 	stw	zero,16(r17)
    4d88:	88000515 	stw	zero,20(r17)
    4d8c:	88000615 	stw	zero,24(r17)
    4d90:	00062ac0 	call	62ac <memset>
    4d94:	94000317 	ldw	r16,12(r18)
    4d98:	00800484 	movi	r2,18
    4d9c:	8c400715 	stw	r17,28(r17)
    4da0:	8d800815 	stw	r22,32(r17)
    4da4:	8d400915 	stw	r21,36(r17)
    4da8:	8d000a15 	stw	r20,40(r17)
    4dac:	8cc00b15 	stw	r19,44(r17)
    4db0:	8080030d 	sth	r2,12(r16)
    4db4:	00800084 	movi	r2,2
    4db8:	80000015 	stw	zero,0(r16)
    4dbc:	80000115 	stw	zero,4(r16)
    4dc0:	80000215 	stw	zero,8(r16)
    4dc4:	80001915 	stw	zero,100(r16)
    4dc8:	8080038d 	sth	r2,14(r16)
    4dcc:	80000415 	stw	zero,16(r16)
    4dd0:	80000515 	stw	zero,20(r16)
    4dd4:	80000615 	stw	zero,24(r16)
    4dd8:	b80d883a 	mov	r6,r23
    4ddc:	000b883a 	mov	r5,zero
    4de0:	81001704 	addi	r4,r16,92
    4de4:	00062ac0 	call	62ac <memset>
    4de8:	00800044 	movi	r2,1
    4dec:	84000715 	stw	r16,28(r16)
    4df0:	85800815 	stw	r22,32(r16)
    4df4:	85400915 	stw	r21,36(r16)
    4df8:	85000a15 	stw	r20,40(r16)
    4dfc:	84c00b15 	stw	r19,44(r16)
    4e00:	90800e15 	stw	r2,56(r18)
    4e04:	dfc00817 	ldw	ra,32(sp)
    4e08:	ddc00717 	ldw	r23,28(sp)
    4e0c:	dd800617 	ldw	r22,24(sp)
    4e10:	dd400517 	ldw	r21,20(sp)
    4e14:	dd000417 	ldw	r20,16(sp)
    4e18:	dcc00317 	ldw	r19,12(sp)
    4e1c:	dc800217 	ldw	r18,8(sp)
    4e20:	dc400117 	ldw	r17,4(sp)
    4e24:	dc000017 	ldw	r16,0(sp)
    4e28:	dec00904 	addi	sp,sp,36
    4e2c:	f800283a 	ret

00004e30 <__fp_lock>:
    4e30:	0005883a 	mov	r2,zero
    4e34:	f800283a 	ret

00004e38 <__sfmoreglue>:
    4e38:	defffc04 	addi	sp,sp,-16
    4e3c:	dc400115 	stw	r17,4(sp)
    4e40:	2c7fffc4 	addi	r17,r5,-1
    4e44:	8c401a24 	muli	r17,r17,104
    4e48:	dc800215 	stw	r18,8(sp)
    4e4c:	2825883a 	mov	r18,r5
    4e50:	89401d04 	addi	r5,r17,116
    4e54:	dc000015 	stw	r16,0(sp)
    4e58:	dfc00315 	stw	ra,12(sp)
    4e5c:	00058740 	call	5874 <_malloc_r>
    4e60:	1021883a 	mov	r16,r2
    4e64:	10000726 	beq	r2,zero,4e84 <__sfmoreglue+0x4c>
    4e68:	11000304 	addi	r4,r2,12
    4e6c:	10000015 	stw	zero,0(r2)
    4e70:	14800115 	stw	r18,4(r2)
    4e74:	11000215 	stw	r4,8(r2)
    4e78:	89801a04 	addi	r6,r17,104
    4e7c:	000b883a 	mov	r5,zero
    4e80:	00062ac0 	call	62ac <memset>
    4e84:	8005883a 	mov	r2,r16
    4e88:	dfc00317 	ldw	ra,12(sp)
    4e8c:	dc800217 	ldw	r18,8(sp)
    4e90:	dc400117 	ldw	r17,4(sp)
    4e94:	dc000017 	ldw	r16,0(sp)
    4e98:	dec00404 	addi	sp,sp,16
    4e9c:	f800283a 	ret

00004ea0 <__sfp>:
    4ea0:	defffb04 	addi	sp,sp,-20
    4ea4:	dc000015 	stw	r16,0(sp)
    4ea8:	04000074 	movhi	r16,1
    4eac:	8407aa04 	addi	r16,r16,7848
    4eb0:	dcc00315 	stw	r19,12(sp)
    4eb4:	2027883a 	mov	r19,r4
    4eb8:	81000017 	ldw	r4,0(r16)
    4ebc:	dfc00415 	stw	ra,16(sp)
    4ec0:	dc800215 	stw	r18,8(sp)
    4ec4:	20800e17 	ldw	r2,56(r4)
    4ec8:	dc400115 	stw	r17,4(sp)
    4ecc:	1000021e 	bne	r2,zero,4ed8 <__sfp+0x38>
    4ed0:	0004c940 	call	4c94 <__sinit.part.1>
    4ed4:	81000017 	ldw	r4,0(r16)
    4ed8:	2480b804 	addi	r18,r4,736
    4edc:	047fffc4 	movi	r17,-1
    4ee0:	91000117 	ldw	r4,4(r18)
    4ee4:	94000217 	ldw	r16,8(r18)
    4ee8:	213fffc4 	addi	r4,r4,-1
    4eec:	20000a16 	blt	r4,zero,4f18 <__sfp+0x78>
    4ef0:	8080030f 	ldh	r2,12(r16)
    4ef4:	10000c26 	beq	r2,zero,4f28 <__sfp+0x88>
    4ef8:	80c01d04 	addi	r3,r16,116
    4efc:	00000206 	br	4f08 <__sfp+0x68>
    4f00:	18bfe60f 	ldh	r2,-104(r3)
    4f04:	10000826 	beq	r2,zero,4f28 <__sfp+0x88>
    4f08:	213fffc4 	addi	r4,r4,-1
    4f0c:	1c3ffd04 	addi	r16,r3,-12
    4f10:	18c01a04 	addi	r3,r3,104
    4f14:	247ffa1e 	bne	r4,r17,4f00 <__ram_exceptions_end+0xfbfe4cac>
    4f18:	90800017 	ldw	r2,0(r18)
    4f1c:	10001d26 	beq	r2,zero,4f94 <__sfp+0xf4>
    4f20:	1025883a 	mov	r18,r2
    4f24:	003fee06 	br	4ee0 <__ram_exceptions_end+0xfbfe4c8c>
    4f28:	00bfffc4 	movi	r2,-1
    4f2c:	8080038d 	sth	r2,14(r16)
    4f30:	00800044 	movi	r2,1
    4f34:	8080030d 	sth	r2,12(r16)
    4f38:	80001915 	stw	zero,100(r16)
    4f3c:	80000015 	stw	zero,0(r16)
    4f40:	80000215 	stw	zero,8(r16)
    4f44:	80000115 	stw	zero,4(r16)
    4f48:	80000415 	stw	zero,16(r16)
    4f4c:	80000515 	stw	zero,20(r16)
    4f50:	80000615 	stw	zero,24(r16)
    4f54:	01800204 	movi	r6,8
    4f58:	000b883a 	mov	r5,zero
    4f5c:	81001704 	addi	r4,r16,92
    4f60:	00062ac0 	call	62ac <memset>
    4f64:	8005883a 	mov	r2,r16
    4f68:	80000c15 	stw	zero,48(r16)
    4f6c:	80000d15 	stw	zero,52(r16)
    4f70:	80001115 	stw	zero,68(r16)
    4f74:	80001215 	stw	zero,72(r16)
    4f78:	dfc00417 	ldw	ra,16(sp)
    4f7c:	dcc00317 	ldw	r19,12(sp)
    4f80:	dc800217 	ldw	r18,8(sp)
    4f84:	dc400117 	ldw	r17,4(sp)
    4f88:	dc000017 	ldw	r16,0(sp)
    4f8c:	dec00504 	addi	sp,sp,20
    4f90:	f800283a 	ret
    4f94:	01400104 	movi	r5,4
    4f98:	9809883a 	mov	r4,r19
    4f9c:	0004e380 	call	4e38 <__sfmoreglue>
    4fa0:	90800015 	stw	r2,0(r18)
    4fa4:	103fde1e 	bne	r2,zero,4f20 <__ram_exceptions_end+0xfbfe4ccc>
    4fa8:	00800304 	movi	r2,12
    4fac:	98800015 	stw	r2,0(r19)
    4fb0:	0005883a 	mov	r2,zero
    4fb4:	003ff006 	br	4f78 <__ram_exceptions_end+0xfbfe4d24>

00004fb8 <_cleanup>:
    4fb8:	00800074 	movhi	r2,1
    4fbc:	1087aa04 	addi	r2,r2,7848
    4fc0:	11000017 	ldw	r4,0(r2)
    4fc4:	01400074 	movhi	r5,1
    4fc8:	2963c204 	addi	r5,r5,-28920
    4fcc:	00055181 	jmpi	5518 <_fwalk_reent>

00004fd0 <__sinit>:
    4fd0:	20800e17 	ldw	r2,56(r4)
    4fd4:	10000126 	beq	r2,zero,4fdc <__sinit+0xc>
    4fd8:	f800283a 	ret
    4fdc:	0004c941 	jmpi	4c94 <__sinit.part.1>

00004fe0 <__sfp_lock_acquire>:
    4fe0:	f800283a 	ret

00004fe4 <__sfp_lock_release>:
    4fe4:	f800283a 	ret

00004fe8 <__sinit_lock_acquire>:
    4fe8:	f800283a 	ret

00004fec <__sinit_lock_release>:
    4fec:	f800283a 	ret

00004ff0 <__fp_lock_all>:
    4ff0:	00800074 	movhi	r2,1
    4ff4:	1087ab04 	addi	r2,r2,7852
    4ff8:	11000017 	ldw	r4,0(r2)
    4ffc:	01400034 	movhi	r5,0
    5000:	29538c04 	addi	r5,r5,20016
    5004:	00054541 	jmpi	5454 <_fwalk>

00005008 <__fp_unlock_all>:
    5008:	00800074 	movhi	r2,1
    500c:	1087ab04 	addi	r2,r2,7852
    5010:	11000017 	ldw	r4,0(r2)
    5014:	01400034 	movhi	r5,0
    5018:	29532004 	addi	r5,r5,19584
    501c:	00054541 	jmpi	5454 <_fwalk>

00005020 <_malloc_trim_r>:
    5020:	defffb04 	addi	sp,sp,-20
    5024:	dcc00315 	stw	r19,12(sp)
    5028:	04c00074 	movhi	r19,1
    502c:	dc800215 	stw	r18,8(sp)
    5030:	dc400115 	stw	r17,4(sp)
    5034:	dc000015 	stw	r16,0(sp)
    5038:	dfc00415 	stw	ra,16(sp)
    503c:	2821883a 	mov	r16,r5
    5040:	9cc22604 	addi	r19,r19,2200
    5044:	2025883a 	mov	r18,r4
    5048:	000db740 	call	db74 <__malloc_lock>
    504c:	98800217 	ldw	r2,8(r19)
    5050:	14400117 	ldw	r17,4(r2)
    5054:	00bfff04 	movi	r2,-4
    5058:	88a2703a 	and	r17,r17,r2
    505c:	8c21c83a 	sub	r16,r17,r16
    5060:	8403fbc4 	addi	r16,r16,4079
    5064:	8020d33a 	srli	r16,r16,12
    5068:	0083ffc4 	movi	r2,4095
    506c:	843fffc4 	addi	r16,r16,-1
    5070:	8020933a 	slli	r16,r16,12
    5074:	1400060e 	bge	r2,r16,5090 <_malloc_trim_r+0x70>
    5078:	000b883a 	mov	r5,zero
    507c:	9009883a 	mov	r4,r18
    5080:	00074440 	call	7444 <_sbrk_r>
    5084:	98c00217 	ldw	r3,8(r19)
    5088:	1c47883a 	add	r3,r3,r17
    508c:	10c00a26 	beq	r2,r3,50b8 <_malloc_trim_r+0x98>
    5090:	9009883a 	mov	r4,r18
    5094:	000db980 	call	db98 <__malloc_unlock>
    5098:	0005883a 	mov	r2,zero
    509c:	dfc00417 	ldw	ra,16(sp)
    50a0:	dcc00317 	ldw	r19,12(sp)
    50a4:	dc800217 	ldw	r18,8(sp)
    50a8:	dc400117 	ldw	r17,4(sp)
    50ac:	dc000017 	ldw	r16,0(sp)
    50b0:	dec00504 	addi	sp,sp,20
    50b4:	f800283a 	ret
    50b8:	040bc83a 	sub	r5,zero,r16
    50bc:	9009883a 	mov	r4,r18
    50c0:	00074440 	call	7444 <_sbrk_r>
    50c4:	00ffffc4 	movi	r3,-1
    50c8:	10c00d26 	beq	r2,r3,5100 <_malloc_trim_r+0xe0>
    50cc:	00c00074 	movhi	r3,1
    50d0:	18ce8604 	addi	r3,r3,14872
    50d4:	18800017 	ldw	r2,0(r3)
    50d8:	99000217 	ldw	r4,8(r19)
    50dc:	8c23c83a 	sub	r17,r17,r16
    50e0:	8c400054 	ori	r17,r17,1
    50e4:	1421c83a 	sub	r16,r2,r16
    50e8:	24400115 	stw	r17,4(r4)
    50ec:	9009883a 	mov	r4,r18
    50f0:	1c000015 	stw	r16,0(r3)
    50f4:	000db980 	call	db98 <__malloc_unlock>
    50f8:	00800044 	movi	r2,1
    50fc:	003fe706 	br	509c <__ram_exceptions_end+0xfbfe4e48>
    5100:	000b883a 	mov	r5,zero
    5104:	9009883a 	mov	r4,r18
    5108:	00074440 	call	7444 <_sbrk_r>
    510c:	99000217 	ldw	r4,8(r19)
    5110:	014003c4 	movi	r5,15
    5114:	1107c83a 	sub	r3,r2,r4
    5118:	28ffdd0e 	bge	r5,r3,5090 <__ram_exceptions_end+0xfbfe4e3c>
    511c:	01400074 	movhi	r5,1
    5120:	2947ad04 	addi	r5,r5,7860
    5124:	29400017 	ldw	r5,0(r5)
    5128:	18c00054 	ori	r3,r3,1
    512c:	20c00115 	stw	r3,4(r4)
    5130:	00c00074 	movhi	r3,1
    5134:	1145c83a 	sub	r2,r2,r5
    5138:	18ce8604 	addi	r3,r3,14872
    513c:	18800015 	stw	r2,0(r3)
    5140:	003fd306 	br	5090 <__ram_exceptions_end+0xfbfe4e3c>

00005144 <_free_r>:
    5144:	28004126 	beq	r5,zero,524c <_free_r+0x108>
    5148:	defffd04 	addi	sp,sp,-12
    514c:	dc400115 	stw	r17,4(sp)
    5150:	dc000015 	stw	r16,0(sp)
    5154:	2023883a 	mov	r17,r4
    5158:	2821883a 	mov	r16,r5
    515c:	dfc00215 	stw	ra,8(sp)
    5160:	000db740 	call	db74 <__malloc_lock>
    5164:	81ffff17 	ldw	r7,-4(r16)
    5168:	00bfff84 	movi	r2,-2
    516c:	01000074 	movhi	r4,1
    5170:	81bffe04 	addi	r6,r16,-8
    5174:	3884703a 	and	r2,r7,r2
    5178:	21022604 	addi	r4,r4,2200
    517c:	308b883a 	add	r5,r6,r2
    5180:	2a400117 	ldw	r9,4(r5)
    5184:	22000217 	ldw	r8,8(r4)
    5188:	00ffff04 	movi	r3,-4
    518c:	48c6703a 	and	r3,r9,r3
    5190:	2a005726 	beq	r5,r8,52f0 <_free_r+0x1ac>
    5194:	28c00115 	stw	r3,4(r5)
    5198:	39c0004c 	andi	r7,r7,1
    519c:	3800091e 	bne	r7,zero,51c4 <_free_r+0x80>
    51a0:	823ffe17 	ldw	r8,-8(r16)
    51a4:	22400204 	addi	r9,r4,8
    51a8:	320dc83a 	sub	r6,r6,r8
    51ac:	31c00217 	ldw	r7,8(r6)
    51b0:	1205883a 	add	r2,r2,r8
    51b4:	3a406526 	beq	r7,r9,534c <_free_r+0x208>
    51b8:	32000317 	ldw	r8,12(r6)
    51bc:	3a000315 	stw	r8,12(r7)
    51c0:	41c00215 	stw	r7,8(r8)
    51c4:	28cf883a 	add	r7,r5,r3
    51c8:	39c00117 	ldw	r7,4(r7)
    51cc:	39c0004c 	andi	r7,r7,1
    51d0:	38003a26 	beq	r7,zero,52bc <_free_r+0x178>
    51d4:	10c00054 	ori	r3,r2,1
    51d8:	30c00115 	stw	r3,4(r6)
    51dc:	3087883a 	add	r3,r6,r2
    51e0:	18800015 	stw	r2,0(r3)
    51e4:	00c07fc4 	movi	r3,511
    51e8:	18801936 	bltu	r3,r2,5250 <_free_r+0x10c>
    51ec:	1004d0fa 	srli	r2,r2,3
    51f0:	01c00044 	movi	r7,1
    51f4:	21400117 	ldw	r5,4(r4)
    51f8:	10c00044 	addi	r3,r2,1
    51fc:	18c7883a 	add	r3,r3,r3
    5200:	1005d0ba 	srai	r2,r2,2
    5204:	18c7883a 	add	r3,r3,r3
    5208:	18c7883a 	add	r3,r3,r3
    520c:	1907883a 	add	r3,r3,r4
    5210:	3884983a 	sll	r2,r7,r2
    5214:	19c00017 	ldw	r7,0(r3)
    5218:	1a3ffe04 	addi	r8,r3,-8
    521c:	1144b03a 	or	r2,r2,r5
    5220:	32000315 	stw	r8,12(r6)
    5224:	31c00215 	stw	r7,8(r6)
    5228:	20800115 	stw	r2,4(r4)
    522c:	19800015 	stw	r6,0(r3)
    5230:	39800315 	stw	r6,12(r7)
    5234:	8809883a 	mov	r4,r17
    5238:	dfc00217 	ldw	ra,8(sp)
    523c:	dc400117 	ldw	r17,4(sp)
    5240:	dc000017 	ldw	r16,0(sp)
    5244:	dec00304 	addi	sp,sp,12
    5248:	000db981 	jmpi	db98 <__malloc_unlock>
    524c:	f800283a 	ret
    5250:	100ad27a 	srli	r5,r2,9
    5254:	00c00104 	movi	r3,4
    5258:	19404a36 	bltu	r3,r5,5384 <_free_r+0x240>
    525c:	100ad1ba 	srli	r5,r2,6
    5260:	28c00e44 	addi	r3,r5,57
    5264:	18c7883a 	add	r3,r3,r3
    5268:	29400e04 	addi	r5,r5,56
    526c:	18c7883a 	add	r3,r3,r3
    5270:	18c7883a 	add	r3,r3,r3
    5274:	1909883a 	add	r4,r3,r4
    5278:	20c00017 	ldw	r3,0(r4)
    527c:	01c00074 	movhi	r7,1
    5280:	213ffe04 	addi	r4,r4,-8
    5284:	39c22604 	addi	r7,r7,2200
    5288:	20c04426 	beq	r4,r3,539c <_free_r+0x258>
    528c:	01ffff04 	movi	r7,-4
    5290:	19400117 	ldw	r5,4(r3)
    5294:	29ca703a 	and	r5,r5,r7
    5298:	1140022e 	bgeu	r2,r5,52a4 <_free_r+0x160>
    529c:	18c00217 	ldw	r3,8(r3)
    52a0:	20fffb1e 	bne	r4,r3,5290 <__ram_exceptions_end+0xfbfe503c>
    52a4:	19000317 	ldw	r4,12(r3)
    52a8:	31000315 	stw	r4,12(r6)
    52ac:	30c00215 	stw	r3,8(r6)
    52b0:	21800215 	stw	r6,8(r4)
    52b4:	19800315 	stw	r6,12(r3)
    52b8:	003fde06 	br	5234 <__ram_exceptions_end+0xfbfe4fe0>
    52bc:	29c00217 	ldw	r7,8(r5)
    52c0:	10c5883a 	add	r2,r2,r3
    52c4:	00c00074 	movhi	r3,1
    52c8:	18c22804 	addi	r3,r3,2208
    52cc:	38c03b26 	beq	r7,r3,53bc <_free_r+0x278>
    52d0:	2a000317 	ldw	r8,12(r5)
    52d4:	11400054 	ori	r5,r2,1
    52d8:	3087883a 	add	r3,r6,r2
    52dc:	3a000315 	stw	r8,12(r7)
    52e0:	41c00215 	stw	r7,8(r8)
    52e4:	31400115 	stw	r5,4(r6)
    52e8:	18800015 	stw	r2,0(r3)
    52ec:	003fbd06 	br	51e4 <__ram_exceptions_end+0xfbfe4f90>
    52f0:	39c0004c 	andi	r7,r7,1
    52f4:	10c5883a 	add	r2,r2,r3
    52f8:	3800071e 	bne	r7,zero,5318 <_free_r+0x1d4>
    52fc:	81fffe17 	ldw	r7,-8(r16)
    5300:	31cdc83a 	sub	r6,r6,r7
    5304:	30c00317 	ldw	r3,12(r6)
    5308:	31400217 	ldw	r5,8(r6)
    530c:	11c5883a 	add	r2,r2,r7
    5310:	28c00315 	stw	r3,12(r5)
    5314:	19400215 	stw	r5,8(r3)
    5318:	10c00054 	ori	r3,r2,1
    531c:	30c00115 	stw	r3,4(r6)
    5320:	00c00074 	movhi	r3,1
    5324:	18c7ae04 	addi	r3,r3,7864
    5328:	18c00017 	ldw	r3,0(r3)
    532c:	21800215 	stw	r6,8(r4)
    5330:	10ffc036 	bltu	r2,r3,5234 <__ram_exceptions_end+0xfbfe4fe0>
    5334:	00800074 	movhi	r2,1
    5338:	108e7d04 	addi	r2,r2,14836
    533c:	11400017 	ldw	r5,0(r2)
    5340:	8809883a 	mov	r4,r17
    5344:	00050200 	call	5020 <_malloc_trim_r>
    5348:	003fba06 	br	5234 <__ram_exceptions_end+0xfbfe4fe0>
    534c:	28c9883a 	add	r4,r5,r3
    5350:	21000117 	ldw	r4,4(r4)
    5354:	2100004c 	andi	r4,r4,1
    5358:	2000391e 	bne	r4,zero,5440 <_free_r+0x2fc>
    535c:	29c00217 	ldw	r7,8(r5)
    5360:	29000317 	ldw	r4,12(r5)
    5364:	1885883a 	add	r2,r3,r2
    5368:	10c00054 	ori	r3,r2,1
    536c:	39000315 	stw	r4,12(r7)
    5370:	21c00215 	stw	r7,8(r4)
    5374:	30c00115 	stw	r3,4(r6)
    5378:	308d883a 	add	r6,r6,r2
    537c:	30800015 	stw	r2,0(r6)
    5380:	003fac06 	br	5234 <__ram_exceptions_end+0xfbfe4fe0>
    5384:	00c00504 	movi	r3,20
    5388:	19401536 	bltu	r3,r5,53e0 <_free_r+0x29c>
    538c:	28c01704 	addi	r3,r5,92
    5390:	18c7883a 	add	r3,r3,r3
    5394:	294016c4 	addi	r5,r5,91
    5398:	003fb406 	br	526c <__ram_exceptions_end+0xfbfe5018>
    539c:	280bd0ba 	srai	r5,r5,2
    53a0:	00c00044 	movi	r3,1
    53a4:	38800117 	ldw	r2,4(r7)
    53a8:	194a983a 	sll	r5,r3,r5
    53ac:	2007883a 	mov	r3,r4
    53b0:	2884b03a 	or	r2,r5,r2
    53b4:	38800115 	stw	r2,4(r7)
    53b8:	003fbb06 	br	52a8 <__ram_exceptions_end+0xfbfe5054>
    53bc:	21800515 	stw	r6,20(r4)
    53c0:	21800415 	stw	r6,16(r4)
    53c4:	10c00054 	ori	r3,r2,1
    53c8:	31c00315 	stw	r7,12(r6)
    53cc:	31c00215 	stw	r7,8(r6)
    53d0:	30c00115 	stw	r3,4(r6)
    53d4:	308d883a 	add	r6,r6,r2
    53d8:	30800015 	stw	r2,0(r6)
    53dc:	003f9506 	br	5234 <__ram_exceptions_end+0xfbfe4fe0>
    53e0:	00c01504 	movi	r3,84
    53e4:	19400536 	bltu	r3,r5,53fc <_free_r+0x2b8>
    53e8:	100ad33a 	srli	r5,r2,12
    53ec:	28c01bc4 	addi	r3,r5,111
    53f0:	18c7883a 	add	r3,r3,r3
    53f4:	29401b84 	addi	r5,r5,110
    53f8:	003f9c06 	br	526c <__ram_exceptions_end+0xfbfe5018>
    53fc:	00c05504 	movi	r3,340
    5400:	19400536 	bltu	r3,r5,5418 <_free_r+0x2d4>
    5404:	100ad3fa 	srli	r5,r2,15
    5408:	28c01e04 	addi	r3,r5,120
