
cpu_1_proj.elf:     file format elf32-littlenios2
cpu_1_proj.elf
architecture: nios2:r1, flags 0x00000112:
EXEC_P, HAS_SYMS, D_PAGED
start address 0x04020244

Program Header:
    LOAD off    0x00001000 vaddr 0x04020000 paddr 0x04020000 align 2**12
         filesz 0x00000020 memsz 0x00000020 flags r-x
    LOAD off    0x00001020 vaddr 0x04020020 paddr 0x04020020 align 2**12
         filesz 0x00011494 memsz 0x00011494 flags r-x
    LOAD off    0x000124b4 vaddr 0x040314b4 paddr 0x04033090 align 2**12
         filesz 0x00001bdc memsz 0x00001bdc flags rw-
    LOAD off    0x00014c6c vaddr 0x04034c6c paddr 0x04034c6c align 2**12
         filesz 0x00000000 memsz 0x00000174 flags rw-

Sections:
Idx Name          Size      VMA       LMA       File off  Algn
  0 .entry        00000020  04020000  04020000  00001000  2**5
                  CONTENTS, ALLOC, LOAD, READONLY, CODE
  1 .exceptions   00000224  04020020  04020020  00001020  2**2
                  CONTENTS, ALLOC, LOAD, READONLY, CODE
  2 .text         00010ae8  04020244  04020244  00001244  2**2
                  CONTENTS, ALLOC, LOAD, READONLY, CODE
  3 .rodata       00000788  04030d2c  04030d2c  00011d2c  2**2
                  CONTENTS, ALLOC, LOAD, READONLY, DATA
  4 .rwdata       00001bdc  040314b4  04033090  000124b4  2**2
                  CONTENTS, ALLOC, LOAD, DATA, SMALL_DATA
  5 .bss          00000174  04034c6c  04034c6c  00014c6c  2**2
                  ALLOC, SMALL_DATA
  6 .sdram_controller_2 00000000  00000000  00000000  00014090  2**0
                  CONTENTS
  7 .onchip_memory_1 00000000  04034de0  04034de0  00014090  2**0
                  CONTENTS
  8 .comment      00000023  00000000  00000000  00014090  2**0
                  CONTENTS, READONLY
  9 .debug_aranges 00000f58  00000000  00000000  000140b8  2**3
                  CONTENTS, READONLY, DEBUGGING
 10 .debug_info   0002501f  00000000  00000000  00015010  2**0
                  CONTENTS, READONLY, DEBUGGING
 11 .debug_abbrev 00009706  00000000  00000000  0003a02f  2**0
                  CONTENTS, READONLY, DEBUGGING
 12 .debug_line   0000bc93  00000000  00000000  00043735  2**0
                  CONTENTS, READONLY, DEBUGGING
 13 .debug_frame  00002558  00000000  00000000  0004f3c8  2**2
                  CONTENTS, READONLY, DEBUGGING
 14 .debug_str    00003da0  00000000  00000000  00051920  2**0
                  CONTENTS, READONLY, DEBUGGING
 15 .debug_loc    000179b5  00000000  00000000  000556c0  2**0
                  CONTENTS, READONLY, DEBUGGING
 16 .debug_alt_sim_info 00000030  00000000  00000000  0006d078  2**2
                  CONTENTS, READONLY, DEBUGGING
 17 .debug_ranges 000018d8  00000000  00000000  0006d0a8  2**3
                  CONTENTS, READONLY, DEBUGGING
 18 .thread_model 00000003  00000000  00000000  0007204e  2**0
                  CONTENTS, READONLY
 19 .cpu          00000005  00000000  00000000  00072051  2**0
                  CONTENTS, READONLY
 20 .qsys         00000001  00000000  00000000  00072056  2**0
                  CONTENTS, READONLY
 21 .simulation_enabled 00000001  00000000  00000000  00072057  2**0
                  CONTENTS, READONLY
 22 .stderr_dev   0000000b  00000000  00000000  00072058  2**0
                  CONTENTS, READONLY
 23 .stdin_dev    0000000b  00000000  00000000  00072063  2**0
                  CONTENTS, READONLY
 24 .stdout_dev   0000000b  00000000  00000000  0007206e  2**0
                  CONTENTS, READONLY
 25 .sopc_system_name 0000000a  00000000  00000000  00072079  2**0
                  CONTENTS, READONLY
 26 .quartus_project_dir 00000020  00000000  00000000  00072083  2**0
                  CONTENTS, READONLY
 27 .jdi          0000b01f  00000000  00000000  000720a3  2**0
                  CONTENTS, READONLY
 28 .sopcinfo     000c2789  00000000  00000000  0007d0c2  2**0
                  CONTENTS, READONLY
SYMBOL TABLE:
04020000 l    d  .entry	00000000 .entry
04020020 l    d  .exceptions	00000000 .exceptions
04020244 l    d  .text	00000000 .text
04030d2c l    d  .rodata	00000000 .rodata
040314b4 l    d  .rwdata	00000000 .rwdata
04034c6c l    d  .bss	00000000 .bss
00000000 l    d  .sdram_controller_2	00000000 .sdram_controller_2
04034de0 l    d  .onchip_memory_1	00000000 .onchip_memory_1
00000000 l    d  .comment	00000000 .comment
00000000 l    d  .debug_aranges	00000000 .debug_aranges
00000000 l    d  .debug_info	00000000 .debug_info
00000000 l    d  .debug_abbrev	00000000 .debug_abbrev
00000000 l    d  .debug_line	00000000 .debug_line
00000000 l    d  .debug_frame	00000000 .debug_frame
00000000 l    d  .debug_str	00000000 .debug_str
00000000 l    d  .debug_loc	00000000 .debug_loc
00000000 l    d  .debug_alt_sim_info	00000000 .debug_alt_sim_info
00000000 l    d  .debug_ranges	00000000 .debug_ranges
00000000 l    df *ABS*	00000000 C:/RTES/miniproject_2/sw/nios/cpu_1_proj_bsp//obj/HAL/src/crt0.o
0402028c l       .text	00000000 alt_after_alt_main
00000000 l    df *ABS*	00000000 alt_irq_handler.c
00000000 l    df *ABS*	00000000 alt_instruction_exception_entry.c
00000000 l    df *ABS*	00000000 hello_world.c
00000000 l    df *ABS*	00000000 alt_dcache_flush_all.c
00000000 l    df *ABS*	00000000 alt_iic.c
00000000 l    df *ABS*	00000000 alt_iic_isr_register.c
00000000 l    df *ABS*	00000000 alt_irq_vars.c
00000000 l    df *ABS*	00000000 alt_load.c
04020f2c l     F .text	00000068 alt_load_section
00000000 l    df *ABS*	00000000 alt_main.c
00000000 l    df *ABS*	00000000 alt_printf.c
00000000 l    df *ABS*	00000000 alt_putchar.c
00000000 l    df *ABS*	00000000 alt_sys_init.c
040212fc l     F .text	00000034 alt_dev_reg
040314b4 l     O .rwdata	00001060 jtag_uart_1
04032514 l     O .rwdata	00000048 mailbox_simple_0
0403255c l     O .rwdata	00000048 mailbox_simple_1
040325a4 l     O .rwdata	0000002c parallel_port_1
040325d0 l     O .rwdata	0000002c parallel_port_2
00000000 l    df *ABS*	00000000 altera_avalon_jtag_uart_fd.c
00000000 l    df *ABS*	00000000 altera_avalon_jtag_uart_init.c
04021624 l     F .text	0000020c altera_avalon_jtag_uart_irq
04021830 l     F .text	000000a0 altera_avalon_jtag_uart_timeout
00000000 l    df *ABS*	00000000 altera_avalon_jtag_uart_ioctl.c
00000000 l    df *ABS*	00000000 altera_avalon_jtag_uart_read.c
00000000 l    df *ABS*	00000000 altera_avalon_jtag_uart_write.c
00000000 l    df *ABS*	00000000 altera_avalon_mailbox_simple.c
04021e68 l     F .text	00000090 altera_avalon_mailbox_identify
04021ef8 l     F .text	00000078 altera_avalon_mailbox_post
04021f70 l     F .text	00000138 altera_avalon_mailbox_simple_tx_isr
040220a8 l     F .text	000000a8 altera_avalon_mailbox_simple_rx_isr
00000000 l    df *ABS*	00000000 altera_avalon_performance_counter.c
00000000 l    df *ABS*	00000000 perf_print_formatted_report.c
00000000 l    df *ABS*	00000000 alt_alarm_start.c
00000000 l    df *ABS*	00000000 alt_close.c
04022d00 l     F .text	0000003c alt_get_errno
00000000 l    df *ABS*	00000000 alt_dev.c
04022e0c l     F .text	0000002c alt_dev_null_write
00000000 l    df *ABS*	00000000 alt_dev_llist_insert.c
04022e38 l     F .text	0000003c alt_get_errno
00000000 l    df *ABS*	00000000 alt_do_ctors.c
00000000 l    df *ABS*	00000000 alt_do_dtors.c
00000000 l    df *ABS*	00000000 alt_errno.c
00000000 l    df *ABS*	00000000 alt_find_dev.c
00000000 l    df *ABS*	00000000 alt_icache_flush_all.c
00000000 l    df *ABS*	00000000 alt_io_redirect.c
04023138 l     F .text	000000c4 alt_open_fd
00000000 l    df *ABS*	00000000 alt_open.c
04023278 l     F .text	0000003c alt_get_errno
040232b4 l     F .text	000000c4 alt_file_locked
00000000 l    df *ABS*	00000000 alt_release_fd.c
00000000 l    df *ABS*	00000000 alt_tick.c
00000000 l    df *ABS*	00000000 altera_nios2_gen2_irq.c
00000000 l    df *ABS*	00000000 alt_find_file.c
00000000 l    df *ABS*	00000000 alt_get_fd.c
00000000 l    df *ABS*	00000000 alt_icache_flush.c
00000000 l    df *ABS*	00000000 atexit.c
00000000 l    df *ABS*	00000000 exit.c
00000000 l    df *ABS*	00000000 impure.c
040327a4 l     O .rwdata	00000424 impure_data
00000000 l    df *ABS*	00000000 int_errno.c
00000000 l    df *ABS*	00000000 memcmp.c
00000000 l    df *ABS*	00000000 memcpy.c
00000000 l    df *ABS*	00000000 printf.c
00000000 l    df *ABS*	00000000 putc.c
00000000 l    df *ABS*	00000000 strlen.c
00000000 l    df *ABS*	00000000 vfprintf.c
04031232 l     O .rodata	00000010 zeroes.4404
04025fc4 l     F .text	000000bc __sbprintf
04031242 l     O .rodata	00000010 blanks.4403
00000000 l    df *ABS*	00000000 wbuf.c
00000000 l    df *ABS*	00000000 wsetup.c
00000000 l    df *ABS*	00000000 __atexit.c
00000000 l    df *ABS*	00000000 __call_atexit.c
00000000 l    df *ABS*	00000000 dtoa.c
040265c4 l     F .text	00000200 quorem
00000000 l    df *ABS*	00000000 fflush.c
00000000 l    df *ABS*	00000000 findfp.c
040280f4 l     F .text	00000008 __fp_unlock
04028108 l     F .text	0000019c __sinit.part.1
040282a4 l     F .text	00000008 __fp_lock
00000000 l    df *ABS*	00000000 mallocr.c
00000000 l    df *ABS*	00000000 fwalk.c
00000000 l    df *ABS*	00000000 locale.c
04032be8 l     O .rwdata	00000020 lc_ctype_charset
04032bc8 l     O .rwdata	00000020 lc_message_charset
04032c08 l     O .rwdata	00000038 lconv
00000000 l    df *ABS*	00000000 makebuf.c
00000000 l    df *ABS*	00000000 mallocr.c
00000000 l    df *ABS*	00000000 memchr.c
00000000 l    df *ABS*	00000000 memset.c
00000000 l    df *ABS*	00000000 mprec.c
04031270 l     O .rodata	0000000c p05.2768
00000000 l    df *ABS*	00000000 s_fpclassify.c
00000000 l    df *ABS*	00000000 sbrkr.c
00000000 l    df *ABS*	00000000 stdio.c
00000000 l    df *ABS*	00000000 strcmp.c
00000000 l    df *ABS*	00000000 vfprintf.c
0402a9dc l     F .text	000000fc __sprint_r.part.0
040313a4 l     O .rodata	00000010 blanks.4348
04031394 l     O .rodata	00000010 zeroes.4349
0402bf68 l     F .text	000000bc __sbprintf
00000000 l    df *ABS*	00000000 writer.c
00000000 l    df *ABS*	00000000 closer.c
00000000 l    df *ABS*	00000000 mallocr.c
00000000 l    df *ABS*	00000000 fclose.c
00000000 l    df *ABS*	00000000 fputwc.c
00000000 l    df *ABS*	00000000 fstatr.c
00000000 l    df *ABS*	00000000 fvwrite.c
00000000 l    df *ABS*	00000000 isattyr.c
00000000 l    df *ABS*	00000000 lseekr.c
00000000 l    df *ABS*	00000000 memmove.c
00000000 l    df *ABS*	00000000 readr.c
00000000 l    df *ABS*	00000000 mallocr.c
00000000 l    df *ABS*	00000000 wcrtomb.c
00000000 l    df *ABS*	00000000 wctomb_r.c
00000000 l    df *ABS*	00000000 libgcc2.c
00000000 l    df *ABS*	00000000 libgcc2.c
00000000 l    df *ABS*	00000000 libgcc2.c
00000000 l    df *ABS*	00000000 lib2-divmod.c
00000000 l    df *ABS*	00000000 adddf3.c
00000000 l    df *ABS*	00000000 divdf3.c
00000000 l    df *ABS*	00000000 eqdf2.c
00000000 l    df *ABS*	00000000 gedf2.c
00000000 l    df *ABS*	00000000 ledf2.c
00000000 l    df *ABS*	00000000 muldf3.c
00000000 l    df *ABS*	00000000 subdf3.c
00000000 l    df *ABS*	00000000 fixdfsi.c
00000000 l    df *ABS*	00000000 floatsidf.c
00000000 l    df *ABS*	00000000 floatunsidf.c
00000000 l    df *ABS*	00000000 libgcc2.c
00000000 l    df *ABS*	00000000 libgcc2.c
00000000 l    df *ABS*	00000000 alt_exit.c
00000000 l    df *ABS*	00000000 alt_fstat.c
040306ec l     F .text	0000003c alt_get_errno
00000000 l    df *ABS*	00000000 alt_isatty.c
040307d8 l     F .text	0000003c alt_get_errno
00000000 l    df *ABS*	00000000 alt_lseek.c
040308b8 l     F .text	0000003c alt_get_errno
00000000 l    df *ABS*	00000000 alt_malloc_lock.c
00000000 l    df *ABS*	00000000 alt_read.c
04030a10 l     F .text	0000003c alt_get_errno
00000000 l    df *ABS*	00000000 alt_sbrk.c
0403308c l     O .rwdata	00000004 heap_end
00000000 l    df *ABS*	00000000 alt_write.c
04030bf8 l     F .text	0000003c alt_get_errno
04034c90 g     O .bss	00000004 alt_instruction_exception_handler
0402a584 g     F .text	00000074 _mprec_log10
0402064c g     F .text	0000008c HW_Accelerator_start
0402253c g     F .text	00000150 altera_avalon_mailbox_send
0402a670 g     F .text	0000008c __any_on
0402c9c0 g     F .text	00000054 _isatty_r
0403127c g     O .rodata	00000028 __mprec_tinytens
04021018 g     F .text	0000007c alt_main
04034ce0 g     O .bss	00000100 alt_irq
0402ca14 g     F .text	00000060 _lseek_r
04033090 g       *ABS*	00000000 __flash_rwdata_start
0402f1e4 g     F .text	00000088 .hidden __eqdf2
04034de0 g       *ABS*	00000000 __alt_heap_start
04023b74 g     F .text	0000003c printf
040205f0 g     F .text	0000005c setup_switch_interrupts
0402d194 g     F .text	0000009c _wcrtomb_r
0402a89c g     F .text	0000005c __sseek
04028444 g     F .text	00000010 __sinit
04022930 g     F .text	00000024 alt_get_cpu_freq
04026080 g     F .text	00000140 __swbuf_r
04028a50 g     F .text	0000007c _setlocale_r
040282ac g     F .text	00000068 __sfmoreglue
040309ec g     F .text	00000024 __malloc_unlock
0402ca74 g     F .text	0000015c memmove
04022954 g     F .text	00000280 perf_print_formatted_report
0402842c g     F .text	00000018 _cleanup
04029700 g     F .text	000000a8 _Balloc
0402f26c g     F .text	000000dc .hidden __gtdf2
040236d4 g     F .text	00000024 altera_nios2_gen2_irq_init
04020000 g     F .entry	0000001c __reset
04020020 g       *ABS*	00000000 __flash_exceptions_start
0402c4a8 g     F .text	0000005c _fstat_r
04034c9c g     O .bss	00000004 errno
0402a818 g     F .text	00000008 __seofread
0402036c g     F .text	00000060 receive_callback
04034c88 g     O .bss	00000004 alt_argv
0403b048 g       *ABS*	00000000 _gp
0402268c g     F .text	0000013c altera_avalon_mailbox_retrieve_poll
04032624 g     O .rwdata	00000180 alt_fd_list
04022fd8 g     F .text	00000090 alt_find_dev
040239fc g     F .text	00000148 memcpy
040280fc g     F .text	0000000c _cleanup_r
040304d0 g     F .text	000000dc .hidden __floatsidf
040231fc g     F .text	0000007c alt_io_redirect
0402f348 g     F .text	000000f4 .hidden __ltdf2
04030d2c g       *ABS*	00000000 __DTOR_END__
0402309c g     F .text	0000009c alt_exception_cause_generated_bad_addr
04022150 g     F .text	00000078 altera_avalon_mailbox_simple_init
0402a6fc g     F .text	00000074 __fpclassifyd
0402a4e0 g     F .text	000000a4 __ratio
0402bf4c g     F .text	0000001c __vfiprintf_internal
04021a28 g     F .text	0000021c altera_avalon_jtag_uart_read
04023b44 g     F .text	00000030 _printf_r
0402df94 g     F .text	00000064 .hidden __udivsi3
04030814 g     F .text	000000a4 isatty
040312cc g     O .rodata	000000c8 __mprec_tens
040224c4 g     F .text	00000078 altera_avalon_mailbox_status
040223ac g     F .text	00000118 altera_avalon_mailbox_close
04028acc g     F .text	0000000c __locale_charset
040238a4 g     F .text	00000090 alt_icache_flush
04034cb4 g     O .bss	00000004 __malloc_top_pad
040228d0 g     F .text	00000040 perf_get_num_starts
0403307c g     O .rwdata	00000004 __mb_cur_max
04028afc g     F .text	0000000c _localeconv_r
0402c504 g     F .text	000004bc __sfvwrite_r
04029b0c g     F .text	0000003c __i2b
0402a770 g     F .text	00000054 _sbrk_r
0402cbd0 g     F .text	00000060 _read_r
04033064 g     O .rwdata	00000004 alt_max_fd
0402c19c g     F .text	000000f0 _fclose_r
040280c4 g     F .text	00000030 fflush
04034cb0 g     O .bss	00000004 __malloc_max_sbrked_mem
0402e050 g     F .text	000008ac .hidden __adddf3
04020594 g     F .text	0000005c isr_switches
0402a288 g     F .text	0000010c __b2d
04020b74 g     F .text	0000008c custom_function
0402d964 g     F .text	00000538 .hidden __umoddi3
040308f4 g     F .text	000000d4 lseek
04033074 g     O .rwdata	00000004 _global_impure_ptr
0402cc30 g     F .text	00000564 _realloc_r
04034de0 g       *ABS*	00000000 __bss_end
04020e3c g     F .text	000000f0 alt_iic_isr_register
040235cc g     F .text	00000108 alt_tick
0402d3ec g     F .text	00000578 .hidden __udivdi3
0402c404 g     F .text	00000024 _fputwc_r
040312a4 g     O .rodata	00000028 __mprec_bigtens
040298f0 g     F .text	00000104 __s2b
040305ac g     F .text	000000a8 .hidden __floatunsidf
04029fc8 g     F .text	00000060 __mcmp
04028464 g     F .text	00000018 __fp_lock_all
04020df0 g     F .text	0000004c alt_ic_irq_enabled
04023530 g     F .text	0000009c alt_alarm_stop
04034c80 g     O .bss	00000004 alt_irq_active
040200fc g     F .exceptions	000000d4 alt_irq_handler
040325fc g     O .rwdata	00000028 alt_dev_null
04020c44 g     F .text	00000048 alt_dcache_flush_all
040299f4 g     F .text	00000068 __hi0bits
04030450 g     F .text	00000080 .hidden __fixdfsi
04033090 g       *ABS*	00000000 __ram_rwdata_end
0403305c g     O .rwdata	00000008 alt_dev_list
04030c34 g     F .text	000000f8 write
04023bb0 g     F .text	000000a0 _putc_r
040314b4 g       *ABS*	00000000 __ram_rodata_end
04030728 g     F .text	000000b0 fstat
0402f348 g     F .text	000000f4 .hidden __ledf2
04029d40 g     F .text	00000140 __pow5mult
0402aaf0 g     F .text	0000145c ___vfiprintf_internal_r
04034ca8 g     O .bss	00000004 __nlocale_changed
0402dff8 g     F .text	00000058 .hidden __umodsi3
04034de0 g       *ABS*	00000000 end
04021564 g     F .text	000000c0 altera_avalon_jtag_uart_init
040201d0 g     F .exceptions	00000074 alt_instruction_exception_entry
04030d2c g       *ABS*	00000000 __CTOR_LIST__
04040000 g       *ABS*	00000000 __alt_stack_pointer
04030654 g     F .text	00000064 .hidden __clzsi2
040206d8 g     F .text	00000068 HW_Accelerator_wait_for_ready
04021c44 g     F .text	00000224 altera_avalon_jtag_uart_write
04028454 g     F .text	00000004 __sfp_lock_acquire
040294f4 g     F .text	000000e4 memchr
04023db0 g     F .text	000021f8 ___vfprintf_internal_r
04020420 g     F .text	00000174 choose_task
040285b8 g     F .text	00000310 _free_r
04021094 g     F .text	0000022c alt_printf
04028ad8 g     F .text	00000010 __locale_mb_cur_max
04026444 g     F .text	00000180 __call_exitprocs
04034ca4 g     O .bss	00000004 __mlocale_changed
04020000 g       *ABS*	00000000 __alt_mem_onchip_memory_1
04033080 g     O .rwdata	00000004 __malloc_sbrk_base
04020244 g     F .text	0000004c _start
04034c94 g     O .bss	00000004 _alt_tick_rate
0402d37c g     F .text	00000070 .hidden __floatundidf
04029e80 g     F .text	00000148 __lshift
04034c98 g     O .bss	00000004 _alt_nticks
04030a4c g     F .text	000000fc read
04021368 g     F .text	00000098 alt_sys_init
0402632c g     F .text	00000118 __register_exitproc
040203cc g     F .text	00000054 receive_mail
04029b48 g     F .text	000001f8 __multiply
040218d0 g     F .text	00000068 altera_avalon_jtag_uart_close
040314b4 g       *ABS*	00000000 __ram_rwdata_start
04030d2c g       *ABS*	00000000 __ram_rodata_start
04034cb8 g     O .bss	00000028 __malloc_current_mallinfo
0402a394 g     F .text	0000014c __d2b
04021400 g     F .text	00000060 altera_avalon_jtag_uart_read_fd
04023800 g     F .text	000000a4 alt_get_fd
0402c084 g     F .text	00000054 _close_r
040227c8 g     F .text	000000bc perf_get_section_time
04023980 g     F .text	0000007c memcmp
040214c0 g     F .text	00000050 altera_avalon_jtag_uart_close_fd
04034de0 g       *ABS*	00000000 __alt_stack_base
04021510 g     F .text	00000054 altera_avalon_jtag_uart_ioctl_fd
040261d8 g     F .text	00000154 __swsetup_r
0402e8fc g     F .text	000008e8 .hidden __divdf3
04034c70 g     O .bss	00000008 mail_send
04028314 g     F .text	00000118 __sfp
0402a5f8 g     F .text	00000078 __copybits
04022884 g     F .text	0000004c perf_get_total_time
04032c40 g     O .rwdata	00000408 __malloc_av_
04028460 g     F .text	00000004 __sinit_lock_release
0402f43c g     F .text	00000718 .hidden __muldf3
04020740 g     F .text	00000344 overall_function
0402a7c4 g     F .text	00000054 __sread
040236f8 g     F .text	00000108 alt_find_file
04022e74 g     F .text	000000a4 alt_dev_llist_insert
040309c8 g     F .text	00000024 __malloc_lock
04030b48 g     F .text	000000b0 sbrk
04028068 g     F .text	0000005c _fflush_r
0402c0d8 g     F .text	000000c4 _calloc_r
04034c6c g     O .bss	00000004 choice
04034c6c g       *ABS*	00000000 __bss_start
040295d8 g     F .text	00000128 memset
04020c00 g     F .text	00000044 main
04034c8c g     O .bss	00000004 alt_envp
04034cac g     O .bss	00000004 __malloc_max_total_mem
04021460 g     F .text	00000060 altera_avalon_jtag_uart_write_fd
040261c0 g     F .text	00000018 __swbuf
04020290 g     F .text	00000064 send_callback
0402a8f8 g     F .text	00000008 __sclose
04040000 g       *ABS*	00000000 __alt_heap_limit
0402c28c g     F .text	00000014 fclose
040267c4 g     F .text	00001688 _dtoa_r
04028ce8 g     F .text	0000080c _malloc_r
0402d2f0 g     F .text	00000030 __ascii_wctomb
04033068 g     O .rwdata	00000004 alt_errno
040288c8 g     F .text	000000c4 _fwalk
04023c50 g     F .text	000000c8 putc
0402de9c g     F .text	00000084 .hidden __divsi3
04028494 g     F .text	00000124 _malloc_trim_r
04030d2c g       *ABS*	00000000 __CTOR_END__
0402a900 g     F .text	000000dc strcmp
04030d2c g       *ABS*	00000000 __flash_rodata_start
04030d2c g       *ABS*	00000000 __DTOR_LIST__
0402f1e4 g     F .text	00000088 .hidden __nedf2
04021330 g     F .text	00000038 alt_irq_init
040234cc g     F .text	00000064 alt_release_fd
040313b4 g     O .rodata	00000100 .hidden __clz_tab
04034ca0 g     O .bss	00000004 _PathLocale
04023934 g     F .text	00000014 atexit
0402c024 g     F .text	00000060 _write_r
04028b08 g     F .text	00000018 setlocale
04033078 g     O .rwdata	00000004 _impure_ptr
04034c84 g     O .bss	00000004 alt_argc
04027e4c g     F .text	0000021c __sflush_r
04022f78 g     F .text	00000060 _do_dtors
04028af4 g     F .text	00000008 __locale_cjk_lang
00000000 g       *ABS*	00000000 __alt_mem_sdram_controller_2
04020020 g       .exceptions	00000000 alt_irq_entry
0402a224 g     F .text	00000064 __ulp
0402847c g     F .text	00000018 __fp_unlock_all
04034c78 g     O .bss	00000008 mail_receive
04033054 g     O .rwdata	00000008 alt_fs_list
04020020 g       *ABS*	00000000 __ram_exceptions_start
04028b20 g     F .text	0000000c localeconv
040202f4 g     F .text	00000078 send_mail
04020c8c g     F .text	00000050 alt_ic_isr_register
04033090 g       *ABS*	00000000 _edata
04020a84 g     F .text	000000f0 c_function
04034de0 g       *ABS*	00000000 _end
0402c2a0 g     F .text	00000164 __fputwc
04020244 g       *ABS*	00000000 __ram_exceptions_end
04021938 g     F .text	000000f0 altera_avalon_jtag_uart_ioctl
04020d64 g     F .text	0000008c alt_ic_irq_disable
0403304c g     O .rwdata	00000008 alt_mailbox_simple_list
0402a820 g     F .text	0000007c __swrite
04033084 g     O .rwdata	00000004 __malloc_trim_threshold
04022910 g     F .text	00000020 alt_get_performance_counter_base
04028ae8 g     F .text	0000000c __locale_msgcharset
04023948 g     F .text	00000038 exit
0402898c g     F .text	000000c4 _fwalk_reent
0402a028 g     F .text	000001fc __mdiff
0402df20 g     F .text	00000074 .hidden __modsi3
04040000 g       *ABS*	00000000 __alt_data_end
04020020 g     F .exceptions	00000000 alt_exception
04028458 g     F .text	00000004 __sfp_lock_release
040221c8 g     F .text	000001e4 altera_avalon_mailbox_open
040306b8 g     F .text	00000034 _exit
04022bd4 g     F .text	0000012c alt_alarm_start
04028b2c g     F .text	000001bc __smakebuf_r
04023d18 g     F .text	00000098 strlen
04023378 g     F .text	00000154 open
0402f26c g     F .text	000000dc .hidden __gedf2
040212c0 g     F .text	0000003c alt_putchar
04033088 g     O .rwdata	00000004 __wctomb
0402aad8 g     F .text	00000018 __sprint_r
04023068 g     F .text	00000034 alt_icache_flush_all
04033048 g     O .rwdata	00000004 alt_priority_mask
04020cdc g     F .text	00000088 alt_ic_irq_enable
04025fa8 g     F .text	0000001c __vfprintf_internal
0402d320 g     F .text	0000005c _wctomb_r
0402fb54 g     F .text	000008fc .hidden __subdf3
04029a5c g     F .text	000000b0 __lo0bits
0403306c g     O .rwdata	00000008 alt_alarm_list
04022f18 g     F .text	00000060 _do_ctors
0402d230 g     F .text	000000c0 wcrtomb
04022d3c g     F .text	000000d0 close
04020f94 g     F .text	00000084 alt_load
0402c428 g     F .text	00000080 fputwc
0402845c g     F .text	00000004 __sinit_lock_acquire
040297d0 g     F .text	00000120 __multadd
040297a8 g     F .text	00000028 _Bfree



Disassembly of section .entry:

04020000 <__reset>:
#if NIOS2_ICACHE_SIZE > 0 && defined(ALT_ALLOW_CODE_AT_RESET) && (!defined(ALT_SIM_OPTIMIZE) || defined(NIOS2_ECC_PRESENT))
    /* Assume the instruction cache size is always a power of two. */
#if NIOS2_ICACHE_SIZE > 0x8000
    movhi r2, %hi(NIOS2_ICACHE_SIZE)
#else
    movui r2, NIOS2_ICACHE_SIZE
 4020000:	00840014 	movui	r2,4096
#endif

0:
    initi r2
 4020004:	1001483a 	initi	r2
    addi r2, r2, -NIOS2_ICACHE_LINE_SIZE
 4020008:	10bff804 	addi	r2,r2,-32
    bgt r2, zero, 0b
 402000c:	00bffd16 	blt	zero,r2,4020004 <__alt_data_end+0xfffe0004>
 * Jump to the _start entry point in the .text section if reset code
 * is allowed or if optimizing for RTL simulation.
 */
#if defined(ALT_ALLOW_CODE_AT_RESET) || defined(ALT_SIM_OPTIMIZE)
    /* Jump to the _start entry point in the .text section. */
    movhi r1, %hi(_start)
 4020010:	004100b4 	movhi	at,1026
    ori r1, r1, %lo(_start)
 4020014:	08409114 	ori	at,at,580
    jmp r1
 4020018:	0800683a 	jmp	at
 402001c:	00000000 	call	0 <__alt_mem_sdram_controller_2>

Disassembly of section .exceptions:

04020020 <alt_exception>:

#else /* ALT_EXCEPTION_STACK disabled */
        /* 
         * Reserve space on normal stack for registers about to be pushed.
         */
        addi  sp, sp, -76
 4020020:	deffed04 	addi	sp,sp,-76
         * documentation for details).
         *
         * Leave a gap in the stack frame at 4(sp) for the muldiv handler to
         * store zero into.
         */
        stw   ra,  0(sp)
 4020024:	dfc00015 	stw	ra,0(sp)
        stw   r1,   8(sp)
 4020028:	d8400215 	stw	at,8(sp)
        stw   r2,  12(sp)
 402002c:	d8800315 	stw	r2,12(sp)
        stw   r3,  16(sp)
 4020030:	d8c00415 	stw	r3,16(sp)
        stw   r4,  20(sp)
 4020034:	d9000515 	stw	r4,20(sp)
        stw   r5,  24(sp)
 4020038:	d9400615 	stw	r5,24(sp)
        stw   r6,  28(sp)
 402003c:	d9800715 	stw	r6,28(sp)
        stw   r7,  32(sp)
 4020040:	d9c00815 	stw	r7,32(sp)
        rdctl r5, estatus   /* Read early to avoid usage stall */
 4020044:	000b307a 	rdctl	r5,estatus
        stw   r8,  36(sp)
 4020048:	da000915 	stw	r8,36(sp)
        stw   r9,  40(sp)
 402004c:	da400a15 	stw	r9,40(sp)
        stw   r10, 44(sp)
 4020050:	da800b15 	stw	r10,44(sp)
        stw   r11, 48(sp)
 4020054:	dac00c15 	stw	r11,48(sp)
        stw   r12, 52(sp)
 4020058:	db000d15 	stw	r12,52(sp)
        stw   r13, 56(sp)
 402005c:	db400e15 	stw	r13,56(sp)
        stw   r14, 60(sp)
 4020060:	db800f15 	stw	r14,60(sp)
        stw   r15, 64(sp)
 4020064:	dbc01015 	stw	r15,64(sp)
        /*
         * ea-4 contains the address of the instruction being executed
         * when the exception occured. For interrupt exceptions, we will
         * will be re-issue the isntruction. Store it in 72(sp)
         */
        stw   r5,  68(sp)  /* estatus */
 4020068:	d9401115 	stw	r5,68(sp)
        addi  r15, ea, -4  /* instruction that caused exception */
 402006c:	ebffff04 	addi	r15,ea,-4
        stw   r15,  72(sp)
 4020070:	dbc01215 	stw	r15,72(sp)
#else
        /*
         * Test to see if the exception was a software exception or caused 
         * by an external interrupt, and vector accordingly.
         */
        rdctl r4, ipending
 4020074:	0009313a 	rdctl	r4,ipending
        andi  r2, r5, 1
 4020078:	2880004c 	andi	r2,r5,1
        beq   r2, zero, .Lnot_irq
 402007c:	10000326 	beq	r2,zero,402008c <alt_exception+0x6c>
        beq   r4, zero, .Lnot_irq
 4020080:	20000226 	beq	r4,zero,402008c <alt_exception+0x6c>
        /*
         * Now that all necessary registers have been preserved, call 
         * alt_irq_handler() to process the interrupts.
         */

        call alt_irq_handler
 4020084:	40200fc0 	call	40200fc <alt_irq_handler>

        .section .exceptions.irqreturn, "xa"

        br    .Lexception_exit
 4020088:	00000706 	br	40200a8 <alt_exception+0x88>
         * upon completion, so we write ea (address of instruction *after*
         * the one where the exception occured) into 72(sp). The actual
         * instruction that caused the exception is written in r2, which these
         * handlers will utilize.
         */
        stw ea, 72(sp) /* EA is PC+4 so will skip over instruction causing exception */
 402008c:	df401215 	stw	ea,72(sp)
.Lunknown_16bit:
        addi.n r4, r4, 2 /* Need PC+2 to skip over instruction causing exception */
        stw r4, 72(sp)

#else /* CDX is not Enabled and all instructions are 32bits */
        ldw r2, -4(ea) /* Instruction value that caused exception */
 4020090:	e8bfff17 	ldw	r2,-4(ea)
         * debugger is present) or go into an infinite loop since the
         * handling behavior is undefined; in that case we will not return here.
         */

        /* Load exception-causing address as first argument (r4) */
        addi   r4, ea, -4
 4020094:	e93fff04 	addi	r4,ea,-4

        /* Call the instruction-exception entry */
        call   alt_instruction_exception_entry
 4020098:	40201d00 	call	40201d0 <alt_instruction_exception_entry>
         * instruction
         *
         * Return code was 0: Skip. The instruction after the exception is
         * already stored in 72(sp).
         */
        bne   r2, r0, .Lexception_exit
 402009c:	1000021e 	bne	r2,zero,40200a8 <alt_exception+0x88>

        /*
         * Otherwise, modify 72(sp) to re-issue the instruction that caused the
         * exception.
         */
        addi  r15, ea, -4  /* instruction that caused exception */
 40200a0:	ebffff04 	addi	r15,ea,-4
        stw   r15,  72(sp)
 40200a4:	dbc01215 	stw	r15,72(sp)
        /* 
         * Restore the saved registers, so that all general purpose registers 
         * have been restored to their state at the time the interrupt occured.
         */

        ldw   r5,  68(sp)
 40200a8:	d9401117 	ldw	r5,68(sp)
        ldw   ea,  72(sp)  /* This becomes the PC once eret is executed */
 40200ac:	df401217 	ldw	ea,72(sp)
        ldw   ra,   0(sp)
 40200b0:	dfc00017 	ldw	ra,0(sp)

        wrctl estatus, r5
 40200b4:	2801707a 	wrctl	estatus,r5

        ldw   r1,   8(sp)
 40200b8:	d8400217 	ldw	at,8(sp)
        ldw   r2,  12(sp)
 40200bc:	d8800317 	ldw	r2,12(sp)
        ldw   r3,  16(sp)
 40200c0:	d8c00417 	ldw	r3,16(sp)
        ldw   r4,  20(sp)
 40200c4:	d9000517 	ldw	r4,20(sp)
        ldw   r5,  24(sp)
 40200c8:	d9400617 	ldw	r5,24(sp)
        ldw   r6,  28(sp)
 40200cc:	d9800717 	ldw	r6,28(sp)
        ldw   r7,  32(sp)
 40200d0:	d9c00817 	ldw	r7,32(sp)

#if defined(ALT_EXCEPTION_STACK) && defined(ALT_STACK_CHECK)
        ldw   et, %gprel(alt_exception_old_stack_limit)(gp)
#endif

        ldw   r8,  36(sp)
 40200d4:	da000917 	ldw	r8,36(sp)
        ldw   r9,  40(sp)
 40200d8:	da400a17 	ldw	r9,40(sp)
        ldw   r10, 44(sp)
 40200dc:	da800b17 	ldw	r10,44(sp)
        ldw   r11, 48(sp)
 40200e0:	dac00c17 	ldw	r11,48(sp)
        ldw   r12, 52(sp)
 40200e4:	db000d17 	ldw	r12,52(sp)
        ldw   r13, 56(sp)
 40200e8:	db400e17 	ldw	r13,56(sp)
        ldw   r14, 60(sp)
 40200ec:	db800f17 	ldw	r14,60(sp)
        ldw   r15, 64(sp)
 40200f0:	dbc01017 	ldw	r15,64(sp)
        stw   et, %gprel(alt_stack_limit_value)(gp)
        stw   zero, %gprel(alt_exception_old_stack_limit)(gp)
#endif /* ALT_STACK_CHECK */
        ldw   sp,  76(sp)
#else /* ALT_EXCEPTION_STACK disabled */
        addi  sp, sp, 76
 40200f4:	dec01304 	addi	sp,sp,76

        /*
         * Return to the interrupted instruction.
         */

        eret
 40200f8:	ef80083a 	eret

040200fc <alt_irq_handler>:
 * instruction is present if the macro ALT_CI_INTERRUPT_VECTOR defined.
 */

void alt_irq_handler (void) __attribute__ ((section (".exceptions")));
void alt_irq_handler (void)
{
 40200fc:	defff904 	addi	sp,sp,-28
 4020100:	dfc00615 	stw	ra,24(sp)
 4020104:	df000515 	stw	fp,20(sp)
 4020108:	df000504 	addi	fp,sp,20
  
  /*
   * Notify the operating system that we are at interrupt level.
   */ 
  
  ALT_OS_INT_ENTER();
 402010c:	0001883a 	nop
#ifndef NIOS2_EIC_PRESENT
static ALT_INLINE alt_u32 ALT_ALWAYS_INLINE alt_irq_pending (void)
{
  alt_u32 active;

  NIOS2_READ_IPENDING (active);
 4020110:	0005313a 	rdctl	r2,ipending
 4020114:	e0bffe15 	stw	r2,-8(fp)

  return active;
 4020118:	e0bffe17 	ldw	r2,-8(fp)
   * Consider the case where the high priority interupt is asserted during
   * the interrupt entry sequence for a lower priority interrupt to see why
   * this is the case.
   */

  active = alt_irq_pending ();
 402011c:	e0bffb15 	stw	r2,-20(fp)

  do
  {
    i = 0;
 4020120:	e03ffd15 	stw	zero,-12(fp)
    mask = 1;
 4020124:	00800044 	movi	r2,1
 4020128:	e0bffc15 	stw	r2,-16(fp)
     * called to clear the interrupt condition.
     */

    do
    {
      if (active & mask)
 402012c:	e0fffb17 	ldw	r3,-20(fp)
 4020130:	e0bffc17 	ldw	r2,-16(fp)
 4020134:	1884703a 	and	r2,r3,r2
 4020138:	10001426 	beq	r2,zero,402018c <alt_irq_handler+0x90>
      { 
#ifdef ALT_ENHANCED_INTERRUPT_API_PRESENT
        alt_irq[i].handler(alt_irq[i].context); 
 402013c:	008100f4 	movhi	r2,1027
 4020140:	10933804 	addi	r2,r2,19680
 4020144:	e0fffd17 	ldw	r3,-12(fp)
 4020148:	180690fa 	slli	r3,r3,3
 402014c:	10c5883a 	add	r2,r2,r3
 4020150:	10c00017 	ldw	r3,0(r2)
 4020154:	008100f4 	movhi	r2,1027
 4020158:	10933804 	addi	r2,r2,19680
 402015c:	e13ffd17 	ldw	r4,-12(fp)
 4020160:	200890fa 	slli	r4,r4,3
 4020164:	1105883a 	add	r2,r2,r4
 4020168:	10800104 	addi	r2,r2,4
 402016c:	10800017 	ldw	r2,0(r2)
 4020170:	1009883a 	mov	r4,r2
 4020174:	183ee83a 	callr	r3
#else
        alt_irq[i].handler(alt_irq[i].context, i); 
#endif
        break;
 4020178:	0001883a 	nop
#ifndef NIOS2_EIC_PRESENT
static ALT_INLINE alt_u32 ALT_ALWAYS_INLINE alt_irq_pending (void)
{
  alt_u32 active;

  NIOS2_READ_IPENDING (active);
 402017c:	0005313a 	rdctl	r2,ipending
 4020180:	e0bfff15 	stw	r2,-4(fp)

  return active;
 4020184:	e0bfff17 	ldw	r2,-4(fp)
 4020188:	00000706 	br	40201a8 <alt_irq_handler+0xac>
      }
      mask <<= 1;
 402018c:	e0bffc17 	ldw	r2,-16(fp)
 4020190:	1085883a 	add	r2,r2,r2
 4020194:	e0bffc15 	stw	r2,-16(fp)
      i++;
 4020198:	e0bffd17 	ldw	r2,-12(fp)
 402019c:	10800044 	addi	r2,r2,1
 40201a0:	e0bffd15 	stw	r2,-12(fp)

    } while (1);
 40201a4:	003fe106 	br	402012c <__alt_data_end+0xfffe012c>

    active = alt_irq_pending ();
 40201a8:	e0bffb15 	stw	r2,-20(fp)
    
  } while (active);
 40201ac:	e0bffb17 	ldw	r2,-20(fp)
 40201b0:	103fdb1e 	bne	r2,zero,4020120 <__alt_data_end+0xfffe0120>

  /*
   * Notify the operating system that interrupt processing is complete.
   */ 

  ALT_OS_INT_EXIT();
 40201b4:	0001883a 	nop
}
 40201b8:	0001883a 	nop
 40201bc:	e037883a 	mov	sp,fp
 40201c0:	dfc00117 	ldw	ra,4(sp)
 40201c4:	df000017 	ldw	fp,0(sp)
 40201c8:	dec00204 	addi	sp,sp,8
 40201cc:	f800283a 	ret

040201d0 <alt_instruction_exception_entry>:
 * that handler if it has been registered. Absent a handler, it will
 * break break or hang as discussed below.
 */
int 
alt_instruction_exception_entry (alt_u32 exception_pc)
{
 40201d0:	defffb04 	addi	sp,sp,-20
 40201d4:	dfc00415 	stw	ra,16(sp)
 40201d8:	df000315 	stw	fp,12(sp)
 40201dc:	df000304 	addi	fp,sp,12
 40201e0:	e13fff15 	stw	r4,-4(fp)
 * NIOS2_EXCEPTION_CAUSE_NOT_PRESENT. Your handling routine should
 * check the validity of the cause argument before proceeding.
 */
#ifdef NIOS2_HAS_EXTRA_EXCEPTION_INFO
  /* Get exception cause & "badaddr" */
  NIOS2_READ_EXCEPTION(cause);
 40201e4:	000531fa 	rdctl	r2,exception
 40201e8:	e0bffd15 	stw	r2,-12(fp)
  cause = ( (cause & NIOS2_EXCEPTION_REG_CAUSE_MASK) >>
 40201ec:	e0bffd17 	ldw	r2,-12(fp)
 40201f0:	10801f0c 	andi	r2,r2,124
 40201f4:	1004d0ba 	srli	r2,r2,2
 40201f8:	e0bffd15 	stw	r2,-12(fp)
              NIOS2_EXCEPTION_REG_CAUSE_OFST );

  NIOS2_READ_BADADDR(badaddr);
 40201fc:	0005333a 	rdctl	r2,badaddr
 4020200:	e0bffe15 	stw	r2,-8(fp)
#else
  cause = NIOS2_EXCEPTION_CAUSE_NOT_PRESENT;
  badaddr = 0;
#endif /* NIOS2_HAS_EXTRA_EXCEPTION_INFO */

  if(alt_instruction_exception_handler) {
 4020204:	d0a71217 	ldw	r2,-25528(gp)
 4020208:	10000726 	beq	r2,zero,4020228 <alt_instruction_exception_entry+0x58>
     * Call handler. Its return value indicates whether the exception-causing
     * instruction should be re-issued. The code that called us,
     * alt_eceptions_entry.S, will look at this value and adjust the ea
     * register as necessary
     */
    return alt_instruction_exception_handler(cause, exception_pc, badaddr);
 402020c:	d0a71217 	ldw	r2,-25528(gp)
 4020210:	e0fffd17 	ldw	r3,-12(fp)
 4020214:	e1bffe17 	ldw	r6,-8(fp)
 4020218:	e17fff17 	ldw	r5,-4(fp)
 402021c:	1809883a 	mov	r4,r3
 4020220:	103ee83a 	callr	r2
 4020224:	00000206 	br	4020230 <alt_instruction_exception_entry+0x60>
   *    (a peripheral which negates its interrupt output before its
   *    interrupt handler has been executed will cause spurious interrupts)
   */
  else {
#ifdef NIOS2_HAS_DEBUG_STUB
    NIOS2_BREAK();
 4020228:	003da03a 	break	0
      ;
#endif /* NIOS2_HAS_DEBUG_STUB */
  }

  /* We should not get here. Remove compiler warning. */
  return NIOS2_EXCEPTION_RETURN_REISSUE_INST;
 402022c:	0005883a 	mov	r2,zero
}
 4020230:	e037883a 	mov	sp,fp
 4020234:	dfc00117 	ldw	ra,4(sp)
 4020238:	df000017 	ldw	fp,0(sp)
 402023c:	dec00204 	addi	sp,sp,8
 4020240:	f800283a 	ret

Disassembly of section .text:

04020244 <_start>:

    /* Assume the data cache size is always a power of two. */
#if NIOS2_DCACHE_SIZE > 0x8000
    movhi r2, %hi(NIOS2_DCACHE_SIZE)
#else
    movui r2, NIOS2_DCACHE_SIZE
 4020244:	00820014 	movui	r2,2048
#endif

0:
    initd 0(r2)
 4020248:	10000033 	initd	0(r2)
#ifdef NIOS2_ECC_PRESENT
    addi r2, r2, -4
#else
    addi r2, r2, -NIOS2_DCACHE_LINE_SIZE
 402024c:	10bff804 	addi	r2,r2,-32
#endif
    bgt r2, zero, 0b
 4020250:	00bffd16 	blt	zero,r2,4020248 <__alt_data_end+0xfffe0248>

    /*
     * Now that the caches are initialized, set up the stack pointer and global pointer.
     * The values provided by the linker are assumed to be correctly aligned.
     */
    movhi sp, %hi(__alt_stack_pointer)
 4020254:	06c10134 	movhi	sp,1028
    ori sp, sp, %lo(__alt_stack_pointer)
 4020258:	dec00014 	ori	sp,sp,0
    movhi gp, %hi(_gp)
 402025c:	068100f4 	movhi	gp,1027
    ori gp, gp, %lo(_gp)
 4020260:	d6ac1214 	ori	gp,gp,45128
 */
#ifndef ALT_SIM_OPTIMIZE
    /* Log that the BSS is about to be cleared. */
    ALT_LOG_PUTS(alt_log_msg_bss)

    movhi r2, %hi(__bss_start)
 4020264:	008100f4 	movhi	r2,1027
    ori r2, r2, %lo(__bss_start)
 4020268:	10931b14 	ori	r2,r2,19564

    movhi r3, %hi(__bss_end)
 402026c:	00c100f4 	movhi	r3,1027
    ori r3, r3, %lo(__bss_end)
 4020270:	18d37814 	ori	r3,r3,19936

    beq r2, r3, 1f
 4020274:	10c00326 	beq	r2,r3,4020284 <_start+0x40>

0:
    stw zero, (r2)
 4020278:	10000015 	stw	zero,0(r2)
    addi r2, r2, 4
 402027c:	10800104 	addi	r2,r2,4
    bltu r2, r3, 0b
 4020280:	10fffd36 	bltu	r2,r3,4020278 <__alt_data_end+0xfffe0278>
     * section aren't defined until alt_load() has been called).
     */
    mov   et, zero
#endif

    call alt_load
 4020284:	4020f940 	call	4020f94 <alt_load>

    /* Log that alt_main is about to be called. */
    ALT_LOG_PUTS(alt_log_msg_alt_main)

    /* Call the C entry point. It should never return. */
    call alt_main
 4020288:	40210180 	call	4021018 <alt_main>

0402028c <alt_after_alt_main>:

    /* Wait in infinite loop in case alt_main does return. */
alt_after_alt_main:
    br alt_after_alt_main
 402028c:	003fff06 	br	402028c <__alt_data_end+0xfffe028c>

04020290 <send_callback>:
// ----------------- Function definitions -------------------------------------

// ----------------- Mailbox functions ----------------------------------------

void send_callback(void* report, int status)
{
 4020290:	defffc04 	addi	sp,sp,-16
 4020294:	dfc00315 	stw	ra,12(sp)
 4020298:	df000215 	stw	fp,8(sp)
 402029c:	df000204 	addi	fp,sp,8
 40202a0:	e13ffe15 	stw	r4,-8(fp)
 40202a4:	e17fff15 	stw	r5,-4(fp)
	if(!status)
 40202a8:	e0bfff17 	ldw	r2,-4(fp)
 40202ac:	1000081e 	bne	r2,zero,40202d0 <send_callback+0x40>
	{
		alt_printf("Sending completed, contents are %x and %x \n", mail_send[0], mail_send[1]);
 40202b0:	d0a70a17 	ldw	r2,-25560(gp)
 40202b4:	d0e70b17 	ldw	r3,-25556(gp)
 40202b8:	180d883a 	mov	r6,r3
 40202bc:	100b883a 	mov	r5,r2
 40202c0:	010100f4 	movhi	r4,1027
 40202c4:	21034b04 	addi	r4,r4,3372
 40202c8:	40210940 	call	4021094 <alt_printf>
	}
	else
	{
		alt_printf("Sending error.\n");
	}
}
 40202cc:	00000306 	br	40202dc <send_callback+0x4c>
	{
		alt_printf("Sending completed, contents are %x and %x \n", mail_send[0], mail_send[1]);
	}
	else
	{
		alt_printf("Sending error.\n");
 40202d0:	010100f4 	movhi	r4,1027
 40202d4:	21035604 	addi	r4,r4,3416
 40202d8:	40210940 	call	4021094 <alt_printf>
	}
}
 40202dc:	0001883a 	nop
 40202e0:	e037883a 	mov	sp,fp
 40202e4:	dfc00117 	ldw	ra,4(sp)
 40202e8:	df000017 	ldw	fp,0(sp)
 40202ec:	dec00204 	addi	sp,sp,8
 40202f0:	f800283a 	ret

040202f4 <send_mail>:

void send_mail(alt_u32 start_addr, alt_u32 storage_length)
{
 40202f4:	defff904 	addi	sp,sp,-28
 40202f8:	dfc00615 	stw	ra,24(sp)
 40202fc:	df000515 	stw	fp,20(sp)
 4020300:	df000504 	addi	fp,sp,20
 4020304:	e13ffe15 	stw	r4,-8(fp)
 4020308:	e17fff15 	stw	r5,-4(fp)
	//alt_printf("-------------- send_mail ------------- \n");
	// Load mailbox
	altera_avalon_mailbox_dev* mailbox_SigProcToAudio = altera_avalon_mailbox_open("/dev/mailbox_simple_1", NULL, NULL);
 402030c:	000d883a 	mov	r6,zero
 4020310:	000b883a 	mov	r5,zero
 4020314:	010100f4 	movhi	r4,1027
 4020318:	21035a04 	addi	r4,r4,3432
 402031c:	40221c80 	call	40221c8 <altera_avalon_mailbox_open>
 4020320:	e0bffb15 	stw	r2,-20(fp)
	// Create mail "envelope"
	alt_u32 mail_send[2] = {start_addr, storage_length};
 4020324:	e0bffe17 	ldw	r2,-8(fp)
 4020328:	e0bffc15 	stw	r2,-16(fp)
 402032c:	e0bfff17 	ldw	r2,-4(fp)
 4020330:	e0bffd15 	stw	r2,-12(fp)
	// Send message
	altera_avalon_mailbox_send(mailbox_SigProcToAudio, mail_send, 0, POLL);
 4020334:	e0bffc04 	addi	r2,fp,-16
 4020338:	01c00044 	movi	r7,1
 402033c:	000d883a 	mov	r6,zero
 4020340:	100b883a 	mov	r5,r2
 4020344:	e13ffb17 	ldw	r4,-20(fp)
 4020348:	402253c0 	call	402253c <altera_avalon_mailbox_send>
	// Close mailbox
	altera_avalon_mailbox_close(mailbox_SigProcToAudio);
 402034c:	e13ffb17 	ldw	r4,-20(fp)
 4020350:	40223ac0 	call	40223ac <altera_avalon_mailbox_close>
}
 4020354:	0001883a 	nop
 4020358:	e037883a 	mov	sp,fp
 402035c:	dfc00117 	ldw	ra,4(sp)
 4020360:	df000017 	ldw	fp,0(sp)
 4020364:	dec00204 	addi	sp,sp,8
 4020368:	f800283a 	ret

0402036c <receive_callback>:

void receive_callback(void* message)
{
 402036c:	defffd04 	addi	sp,sp,-12
 4020370:	dfc00215 	stw	ra,8(sp)
 4020374:	df000115 	stw	fp,4(sp)
 4020378:	df000104 	addi	fp,sp,4
 402037c:	e13fff15 	stw	r4,-4(fp)
	if(message != NULL)
 4020380:	e0bfff17 	ldw	r2,-4(fp)
 4020384:	10000826 	beq	r2,zero,40203a8 <receive_callback+0x3c>
	{
		alt_printf("Receiving completed, contents are %x and %x \n", mail_receive[0], mail_receive[1]);
 4020388:	d0a70c17 	ldw	r2,-25552(gp)
 402038c:	d0e70d17 	ldw	r3,-25548(gp)
 4020390:	180d883a 	mov	r6,r3
 4020394:	100b883a 	mov	r5,r2
 4020398:	010100f4 	movhi	r4,1027
 402039c:	21036004 	addi	r4,r4,3456
 40203a0:	40210940 	call	4021094 <alt_printf>
	}
	else
	{
		alt_printf("Receiving error.\n");
	}
}
 40203a4:	00000306 	br	40203b4 <receive_callback+0x48>
	{
		alt_printf("Receiving completed, contents are %x and %x \n", mail_receive[0], mail_receive[1]);
	}
	else
	{
		alt_printf("Receiving error.\n");
 40203a8:	010100f4 	movhi	r4,1027
 40203ac:	21036c04 	addi	r4,r4,3504
 40203b0:	40210940 	call	4021094 <alt_printf>
	}
}
 40203b4:	0001883a 	nop
 40203b8:	e037883a 	mov	sp,fp
 40203bc:	dfc00117 	ldw	ra,4(sp)
 40203c0:	df000017 	ldw	fp,0(sp)
 40203c4:	dec00204 	addi	sp,sp,8
 40203c8:	f800283a 	ret

040203cc <receive_mail>:

void receive_mail()
{
 40203cc:	defffd04 	addi	sp,sp,-12
 40203d0:	dfc00215 	stw	ra,8(sp)
 40203d4:	df000115 	stw	fp,4(sp)
 40203d8:	df000104 	addi	fp,sp,4
	//alt_printf("-------------- receive_mail ------------- \n");
	// Load mailbox
	altera_avalon_mailbox_dev* mailbox_AudioToSigProc = altera_avalon_mailbox_open("/dev/mailbox_simple_0", NULL, NULL);
 40203dc:	000d883a 	mov	r6,zero
 40203e0:	000b883a 	mov	r5,zero
 40203e4:	010100f4 	movhi	r4,1027
 40203e8:	21037104 	addi	r4,r4,3524
 40203ec:	40221c80 	call	40221c8 <altera_avalon_mailbox_open>
 40203f0:	e0bfff15 	stw	r2,-4(fp)
	altera_avalon_mailbox_retrieve_poll(mailbox_AudioToSigProc, mail_receive, 0);
 40203f4:	000d883a 	mov	r6,zero
 40203f8:	d1670c04 	addi	r5,gp,-25552
 40203fc:	e13fff17 	ldw	r4,-4(fp)
 4020400:	402268c0 	call	402268c <altera_avalon_mailbox_retrieve_poll>
	alt_dcache_flush_all();
 4020404:	4020c440 	call	4020c44 <alt_dcache_flush_all>
}
 4020408:	0001883a 	nop
 402040c:	e037883a 	mov	sp,fp
 4020410:	dfc00117 	ldw	ra,4(sp)
 4020414:	df000017 	ldw	fp,0(sp)
 4020418:	dec00204 	addi	sp,sp,8
 402041c:	f800283a 	ret

04020420 <choose_task>:

// ----------------- Interrupt and task choosing functions -------------------------


void choose_task(int task)
{
 4020420:	defffb04 	addi	sp,sp,-20
 4020424:	dfc00415 	stw	ra,16(sp)
 4020428:	df000315 	stw	fp,12(sp)
 402042c:	df000304 	addi	fp,sp,12
 4020430:	e13fff15 	stw	r4,-4(fp)
	//alt_printf("--------------- choose_task ---------------------- \n");
	if(task == 1)
 4020434:	e0bfff17 	ldw	r2,-4(fp)
 4020438:	10800058 	cmpnei	r2,r2,1
 402043c:	1000071e 	bne	r2,zero,402045c <choose_task+0x3c>
	{
		alt_printf("Performing signal processing on the recording... \n");
 4020440:	010100f4 	movhi	r4,1027
 4020444:	21037704 	addi	r4,r4,3548
 4020448:	40210940 	call	4021094 <alt_printf>
		// First switch (SW0)
		overall_function(1, 0);
 402044c:	000b883a 	mov	r5,zero
 4020450:	01000044 	movi	r4,1
 4020454:	40207400 	call	4020740 <overall_function>
 4020458:	00004406 	br	402056c <choose_task+0x14c>
		//printf("Interrupt test on CPU %d\n", NIOS2_CPU_ID_VALUE);
	}
	else if(task == 2)
 402045c:	e0bfff17 	ldw	r2,-4(fp)
 4020460:	10800098 	cmpnei	r2,r2,2
 4020464:	1000041e 	bne	r2,zero,4020478 <choose_task+0x58>
	{
		alt_printf("Playing... \n");
 4020468:	010100f4 	movhi	r4,1027
 402046c:	21038404 	addi	r4,r4,3600
 4020470:	40210940 	call	4021094 <alt_printf>
 4020474:	00003d06 	br	402056c <choose_task+0x14c>
		// Second switch (SW1)
		// Play audio, so do nothing here...
		//alt_printf("This subsystem has nothing to do for this task... \n");
	}
	else if(task == 4)
 4020478:	e0bfff17 	ldw	r2,-4(fp)
 402047c:	10800118 	cmpnei	r2,r2,4
 4020480:	1000341e 	bne	r2,zero,4020554 <choose_task+0x134>
	{
		alt_printf("Running profiling... \n");
 4020484:	010100f4 	movhi	r4,1027
 4020488:	21038804 	addi	r4,r4,3616
 402048c:	40210940 	call	4021094 <alt_printf>
		// Third switch (SW2): run with profiling
		// Start overall performance counter
		PERF_RESET(PERFORMANCE_COUNTER_1_BASE);
 4020490:	00c00044 	movi	r3,1
 4020494:	00810134 	movhi	r2,1028
 4020498:	10840004 	addi	r2,r2,4096
 402049c:	10c00035 	stwio	r3,0(r2)
		PERF_START_MEASURING(PERFORMANCE_COUNTER_1_BASE);
 40204a0:	0007883a 	mov	r3,zero
 40204a4:	00810134 	movhi	r2,1028
 40204a8:	10840104 	addi	r2,r2,4100
 40204ac:	10c00035 	stwio	r3,0(r2)
		alt_printf("Running on HW accelerator \n");
 40204b0:	010100f4 	movhi	r4,1027
 40204b4:	21038e04 	addi	r4,r4,3640
 40204b8:	40210940 	call	4021094 <alt_printf>
		// Run on HW accelerator with profiling
		overall_function(1, 1);
 40204bc:	01400044 	movi	r5,1
 40204c0:	01000044 	movi	r4,1
 40204c4:	40207400 	call	4020740 <overall_function>
		alt_printf("Running on custom instruction \n");
 40204c8:	010100f4 	movhi	r4,1027
 40204cc:	21039504 	addi	r4,r4,3668
 40204d0:	40210940 	call	4021094 <alt_printf>
		// Run on custom instruction with profiling
		overall_function(2, 1);
 40204d4:	01400044 	movi	r5,1
 40204d8:	01000084 	movi	r4,2
 40204dc:	40207400 	call	4020740 <overall_function>
		alt_printf("Running on c code implementation \n");
 40204e0:	010100f4 	movhi	r4,1027
 40204e4:	21039d04 	addi	r4,r4,3700
 40204e8:	40210940 	call	4021094 <alt_printf>
		// Run on c code implementation with profiling
		overall_function(3, 1);
 40204ec:	01400044 	movi	r5,1
 40204f0:	010000c4 	movi	r4,3
 40204f4:	40207400 	call	4020740 <overall_function>
		alt_printf("All profiling runs finished \n");
 40204f8:	010100f4 	movhi	r4,1027
 40204fc:	2103a604 	addi	r4,r4,3736
 4020500:	40210940 	call	4021094 <alt_printf>
		// Stop overall performance counter and print results
		PERF_STOP_MEASURING(PERFORMANCE_COUNTER_1_BASE);
 4020504:	0007883a 	mov	r3,zero
 4020508:	00810134 	movhi	r2,1028
 402050c:	10840004 	addi	r2,r2,4096
 4020510:	10c00035 	stwio	r3,0(r2)
		perf_print_formatted_report(PERFORMANCE_COUNTER_1_BASE, alt_get_cpu_freq(), 3, "Accelerator", "Custom instr.", "C code");
 4020514:	40229300 	call	4022930 <alt_get_cpu_freq>
 4020518:	1007883a 	mov	r3,r2
 402051c:	008100f4 	movhi	r2,1027
 4020520:	1083b104 	addi	r2,r2,3780
 4020524:	d8800115 	stw	r2,4(sp)
 4020528:	008100f4 	movhi	r2,1027
 402052c:	1083b304 	addi	r2,r2,3788
 4020530:	d8800015 	stw	r2,0(sp)
 4020534:	01c100f4 	movhi	r7,1027
 4020538:	39c3ae04 	addi	r7,r7,3768
 402053c:	018000c4 	movi	r6,3
 4020540:	180b883a 	mov	r5,r3
 4020544:	01010134 	movhi	r4,1028
 4020548:	21040004 	addi	r4,r4,4096
 402054c:	40229540 	call	4022954 <perf_print_formatted_report>
 4020550:	00000606 	br	402056c <choose_task+0x14c>
	}
	else if(task == 8)
 4020554:	e0bfff17 	ldw	r2,-4(fp)
 4020558:	10800218 	cmpnei	r2,r2,8
 402055c:	1000031e 	bne	r2,zero,402056c <choose_task+0x14c>
	{
		alt_printf("Testing audio... \n");
 4020560:	010100f4 	movhi	r4,1027
 4020564:	2103b704 	addi	r4,r4,3804
 4020568:	40210940 	call	4021094 <alt_printf>
		// Fourth switch:
		// Audio test, so do nothing here
		//alt_printf("This subsystem has nothing to do for this task... \n");
	}
	alt_printf("Task complete. Ready for new task. \n\n", task);
 402056c:	e17fff17 	ldw	r5,-4(fp)
 4020570:	010100f4 	movhi	r4,1027
 4020574:	2103bc04 	addi	r4,r4,3824
 4020578:	40210940 	call	4021094 <alt_printf>
}
 402057c:	0001883a 	nop
 4020580:	e037883a 	mov	sp,fp
 4020584:	dfc00117 	ldw	ra,4(sp)
 4020588:	df000017 	ldw	fp,0(sp)
 402058c:	dec00204 	addi	sp,sp,8
 4020590:	f800283a 	ret

04020594 <isr_switches>:

void isr_switches(void* context)
{
 4020594:	defffc04 	addi	sp,sp,-16
 4020598:	dfc00315 	stw	ra,12(sp)
 402059c:	df000215 	stw	fp,8(sp)
 40205a0:	df000204 	addi	fp,sp,8
 40205a4:	e13fff15 	stw	r4,-4(fp)
	//alt_printf("----------------- isr_switches ---------------------- \n");
	// Read interrupt source
	uint8_t pinvals = IORD_8DIRECT(PIO_2_BASE, PIO_IntrSwitch_IRQFLAG);
 40205a8:	00810134 	movhi	r2,1028
 40205ac:	10841304 	addi	r2,r2,4172
 40205b0:	10800023 	ldbuio	r2,0(r2)
 40205b4:	10803fcc 	andi	r2,r2,255
 40205b8:	e0bffe05 	stb	r2,-8(fp)
	// Save choice
	choice = (int)pinvals;
 40205bc:	e0bffe03 	ldbu	r2,-8(fp)
 40205c0:	d0a70915 	stw	r2,-25564(gp)
	// Wait for mail from audio subsystem
	//alt_printf("Waiting for flag mail... \n");
	receive_mail();
 40205c4:	40203cc0 	call	40203cc <receive_mail>
	//alt_printf("Flag mail received, choice in mail = %x, own choice = %x \n", mail_receive[0], choice);
	// Clear the interrupt flag
	IOWR_8DIRECT(PIO_2_BASE, PIO_IntrSwitch_IRQFLAG, pinvals);
 40205c8:	e0fffe03 	ldbu	r3,-8(fp)
 40205cc:	00810134 	movhi	r2,1028
 40205d0:	10841304 	addi	r2,r2,4172
 40205d4:	10c00025 	stbio	r3,0(r2)
}
 40205d8:	0001883a 	nop
 40205dc:	e037883a 	mov	sp,fp
 40205e0:	dfc00117 	ldw	ra,4(sp)
 40205e4:	df000017 	ldw	fp,0(sp)
 40205e8:	dec00204 	addi	sp,sp,8
 40205ec:	f800283a 	ret

040205f0 <setup_switch_interrupts>:

void setup_switch_interrupts(uint8_t chosen_switches)
{
 40205f0:	defffc04 	addi	sp,sp,-16
 40205f4:	dfc00315 	stw	ra,12(sp)
 40205f8:	df000215 	stw	fp,8(sp)
 40205fc:	df000204 	addi	fp,sp,8
 4020600:	2005883a 	mov	r2,r4
 4020604:	e0bfff05 	stb	r2,-4(fp)
	// Setup interrupts on the chosen switches
	IOWR_8DIRECT(PIO_2_BASE, PIO_IntrSwitch_IRQEN, chosen_switches);
 4020608:	e0ffff03 	ldbu	r3,-4(fp)
 402060c:	00810134 	movhi	r2,1028
 4020610:	10841204 	addi	r2,r2,4168
 4020614:	10c00025 	stbio	r3,0(r2)
	alt_ic_isr_register(PIO_2_IRQ_INTERRUPT_CONTROLLER_ID, PIO_2_IRQ, isr_switches, NULL, NULL);
 4020618:	d8000015 	stw	zero,0(sp)
 402061c:	000f883a 	mov	r7,zero
 4020620:	018100b4 	movhi	r6,1026
 4020624:	31816504 	addi	r6,r6,1428
 4020628:	01400104 	movi	r5,4
 402062c:	0009883a 	mov	r4,zero
 4020630:	4020c8c0 	call	4020c8c <alt_ic_isr_register>
	return;
 4020634:	0001883a 	nop
}
 4020638:	e037883a 	mov	sp,fp
 402063c:	dfc00117 	ldw	ra,4(sp)
 4020640:	df000017 	ldw	fp,0(sp)
 4020644:	dec00204 	addi	sp,sp,8
 4020648:	f800283a 	ret

0402064c <HW_Accelerator_start>:

// --------------------- Hardware accelerator functions -----------------------

void HW_Accelerator_start(alt_u32 start_addr, alt_u32 store_addr, alt_u32 word_count, int op_type)
{
 402064c:	defffa04 	addi	sp,sp,-24
 4020650:	dfc00515 	stw	ra,20(sp)
 4020654:	df000415 	stw	fp,16(sp)
 4020658:	df000404 	addi	fp,sp,16
 402065c:	e13ffc15 	stw	r4,-16(fp)
 4020660:	e17ffd15 	stw	r5,-12(fp)
 4020664:	e1bffe15 	stw	r6,-8(fp)
 4020668:	e1ffff15 	stw	r7,-4(fp)
	//alt_printf("--------------- HW_Accelerator_start ----------------------- \n");
	// Wait for accelerator to be available
	HW_Accelerator_wait_for_ready();
 402066c:	40206d80 	call	40206d8 <HW_Accelerator_wait_for_ready>
	//alt_printf("Sending arguments to accelerator \n");
	// Send starting address for reading
	IOWR_32DIRECT(HW_ACCELERATOR_0_BASE, HW_ACC_STARTREADADDR, start_addr);
 4020670:	e0fffc17 	ldw	r3,-16(fp)
 4020674:	00810134 	movhi	r2,1028
 4020678:	10842004 	addi	r2,r2,4224
 402067c:	10c00035 	stwio	r3,0(r2)
	// Send starting address for writing
	IOWR_32DIRECT(HW_ACCELERATOR_0_BASE, HW_ACC_STARTWRITEADDR, store_addr);
 4020680:	e0fffd17 	ldw	r3,-12(fp)
 4020684:	00810134 	movhi	r2,1028
 4020688:	10842104 	addi	r2,r2,4228
 402068c:	10c00035 	stwio	r3,0(r2)
	// Send word count
	IOWR_32DIRECT(HW_ACCELERATOR_0_BASE, HW_ACC_WORDCOUNT, word_count);
 4020690:	e0fffe17 	ldw	r3,-8(fp)
 4020694:	00810134 	movhi	r2,1028
 4020698:	10842204 	addi	r2,r2,4232
 402069c:	10c00035 	stwio	r3,0(r2)
	// Send volume mode
	IOWR_32DIRECT(HW_ACCELERATOR_0_BASE, HW_ACC_VOLUMEMODE, (alt_u32)op_type);
 40206a0:	00810134 	movhi	r2,1028
 40206a4:	10842304 	addi	r2,r2,4236
 40206a8:	e0ffff17 	ldw	r3,-4(fp)
 40206ac:	10c00035 	stwio	r3,0(r2)
	// Run Hardware accelerator
	IOWR_32DIRECT(HW_ACCELERATOR_0_BASE, HW_ACC_WORDCOUNT, 0x1);
 40206b0:	00c00044 	movi	r3,1
 40206b4:	00810134 	movhi	r2,1028
 40206b8:	10842204 	addi	r2,r2,4232
 40206bc:	10c00035 	stwio	r3,0(r2)
	//alt_printf("Accelerator has been started \n");
}
 40206c0:	0001883a 	nop
 40206c4:	e037883a 	mov	sp,fp
 40206c8:	dfc00117 	ldw	ra,4(sp)
 40206cc:	df000017 	ldw	fp,0(sp)
 40206d0:	dec00204 	addi	sp,sp,8
 40206d4:	f800283a 	ret

040206d8 <HW_Accelerator_wait_for_ready>:

void HW_Accelerator_wait_for_ready()
{
 40206d8:	defffd04 	addi	sp,sp,-12
 40206dc:	df000215 	stw	fp,8(sp)
 40206e0:	df000204 	addi	fp,sp,8
	//alt_printf("------------------ HW_Accelerator_wait_for_ready -------------- \n");
	// Check if the accelerator is already working, and wait until it's done
	int working = 0;
 40206e4:	e03ffe15 	stw	zero,-8(fp)
	alt_u32 status;
	status = IORD_32DIRECT(HW_ACCELERATOR_0_BASE, HW_ACC_STATUS);
 40206e8:	00810134 	movhi	r2,1028
 40206ec:	10842304 	addi	r2,r2,4236
 40206f0:	10800037 	ldwio	r2,0(r2)
 40206f4:	e0bfff15 	stw	r2,-4(fp)
	// Shift out the 'VolumeMode' bit, leaving only zeros and the 'Working' bit
	working = (int)(status >> 1);
 40206f8:	e0bfff17 	ldw	r2,-4(fp)
 40206fc:	1004d07a 	srli	r2,r2,1
 4020700:	e0bffe15 	stw	r2,-8(fp)
	//alt_printf("Waiting for accelerator to be ready... \n");
	while(working != 0)
 4020704:	00000706 	br	4020724 <HW_Accelerator_wait_for_ready+0x4c>
	{
		// Wait for the accelerator to be available
		status = IORD_32DIRECT(HW_ACCELERATOR_0_BASE, 12);
 4020708:	00810134 	movhi	r2,1028
 402070c:	10842304 	addi	r2,r2,4236
 4020710:	10800037 	ldwio	r2,0(r2)
 4020714:	e0bfff15 	stw	r2,-4(fp)
		// Shift out the 'VolumeMode' bit, leaving only zeros and the 'Working' bit
		working = (int)(status >> 1);
 4020718:	e0bfff17 	ldw	r2,-4(fp)
 402071c:	1004d07a 	srli	r2,r2,1
 4020720:	e0bffe15 	stw	r2,-8(fp)
	alt_u32 status;
	status = IORD_32DIRECT(HW_ACCELERATOR_0_BASE, HW_ACC_STATUS);
	// Shift out the 'VolumeMode' bit, leaving only zeros and the 'Working' bit
	working = (int)(status >> 1);
	//alt_printf("Waiting for accelerator to be ready... \n");
	while(working != 0)
 4020724:	e0bffe17 	ldw	r2,-8(fp)
 4020728:	103ff71e 	bne	r2,zero,4020708 <__alt_data_end+0xfffe0708>
		status = IORD_32DIRECT(HW_ACCELERATOR_0_BASE, 12);
		// Shift out the 'VolumeMode' bit, leaving only zeros and the 'Working' bit
		working = (int)(status >> 1);
	}
	//alt_printf("Accelerator is ready \n");
}
 402072c:	0001883a 	nop
 4020730:	e037883a 	mov	sp,fp
 4020734:	df000017 	ldw	fp,0(sp)
 4020738:	dec00104 	addi	sp,sp,4
 402073c:	f800283a 	ret

04020740 <overall_function>:

// --------------------- Overall subsystem function ----------------------------------------
void overall_function(int choice, int run_profiling)
{
 4020740:	defff304 	addi	sp,sp,-52
 4020744:	dfc00c15 	stw	ra,48(sp)
 4020748:	df000b15 	stw	fp,44(sp)
 402074c:	df000b04 	addi	fp,sp,44
 4020750:	e13ffe15 	stw	r4,-8(fp)
 4020754:	e17fff15 	stw	r5,-4(fp)
	alt_printf("------------- overall_function ---------------------------- \n");
 4020758:	010100f4 	movhi	r4,1027
 402075c:	2103c604 	addi	r4,r4,3864
 4020760:	40210940 	call	4021094 <alt_printf>
	int op_type;
	// Receive initial mail, containing starting address and amount of snippets
	receive_mail();
 4020764:	40203cc0 	call	40203cc <receive_mail>
	int total_snippets = mail_receive[1];
 4020768:	d0a70d17 	ldw	r2,-25548(gp)
 402076c:	e0bff715 	stw	r2,-36(fp)
	alt_printf("Total snippets are %x \n", total_snippets);
 4020770:	e17ff717 	ldw	r5,-36(fp)
 4020774:	010100f4 	movhi	r4,1027
 4020778:	2103d604 	addi	r4,r4,3928
 402077c:	40210940 	call	4021094 <alt_printf>
	// 48 kHz sampling frequency => 12k samples per snippet
	int words_per_snippet = 12000;
 4020780:	008bb804 	movi	r2,12000
 4020784:	e0bff815 	stw	r2,-32(fp)
	int handled_snippets = 0;
 4020788:	e03ff615 	stw	zero,-40(fp)
	int memory_size = total_snippets*words_per_snippet*4;
 402078c:	e0fff717 	ldw	r3,-36(fp)
 4020790:	e0bff817 	ldw	r2,-32(fp)
 4020794:	1885383a 	mul	r2,r3,r2
 4020798:	1085883a 	add	r2,r2,r2
 402079c:	1085883a 	add	r2,r2,r2
 40207a0:	e0bff915 	stw	r2,-28(fp)
	//alt_printf("memory size is %x \n", memory_size);
	int start_storage_address = mail_receive[0] + memory_size;
 40207a4:	d0e70c17 	ldw	r3,-25552(gp)
 40207a8:	e0bff917 	ldw	r2,-28(fp)
 40207ac:	1885883a 	add	r2,r3,r2
 40207b0:	e0bffa15 	stw	r2,-24(fp)
	// Check if the volume shift switch is set to up or down
	if((IORD_32DIRECT(PIO_2_BASE, 0) & 0x80) == 0)
 40207b4:	00810134 	movhi	r2,1028
 40207b8:	10841004 	addi	r2,r2,4160
 40207bc:	10800037 	ldwio	r2,0(r2)
 40207c0:	1080200c 	andi	r2,r2,128
 40207c4:	1000051e 	bne	r2,zero,40207dc <overall_function+0x9c>
	{
		op_type = 0;
 40207c8:	e03ff515 	stw	zero,-44(fp)
		alt_printf("Op type 0 chosen \n");
 40207cc:	010100f4 	movhi	r4,1027
 40207d0:	2103dc04 	addi	r4,r4,3952
 40207d4:	40210940 	call	4021094 <alt_printf>
 40207d8:	00008906 	br	4020a00 <overall_function+0x2c0>
	}
	else
	{
		alt_printf("Op type 1 chosen \n");
 40207dc:	010100f4 	movhi	r4,1027
 40207e0:	2103e104 	addi	r4,r4,3972
 40207e4:	40210940 	call	4021094 <alt_printf>
		op_type = 1;
 40207e8:	00800044 	movi	r2,1
 40207ec:	e0bff515 	stw	r2,-44(fp)
	}
	while(handled_snippets < total_snippets)
 40207f0:	00008306 	br	4020a00 <overall_function+0x2c0>
	{
		receive_mail();
 40207f4:	40203cc0 	call	40203cc <receive_mail>
		alt_printf("Loop mail received \n");
 40207f8:	010100f4 	movhi	r4,1027
 40207fc:	2103e604 	addi	r4,r4,3992
 4020800:	40210940 	call	4021094 <alt_printf>
		// Prepare parameters
		int snippet_starting_address = mail_receive[0];
 4020804:	d0a70c17 	ldw	r2,-25552(gp)
 4020808:	e0bffb15 	stw	r2,-20(fp)
		int snippet_storage_address = start_storage_address + handled_snippets*words_per_snippet*4;
 402080c:	e0fff617 	ldw	r3,-40(fp)
 4020810:	e0bff817 	ldw	r2,-32(fp)
 4020814:	1885383a 	mul	r2,r3,r2
 4020818:	1085883a 	add	r2,r2,r2
 402081c:	1085883a 	add	r2,r2,r2
 4020820:	1007883a 	mov	r3,r2
 4020824:	e0bffa17 	ldw	r2,-24(fp)
 4020828:	1885883a 	add	r2,r3,r2
 402082c:	e0bffc15 	stw	r2,-16(fp)
		int snippet_word_count = mail_receive[1];
 4020830:	d0a70d17 	ldw	r2,-25548(gp)
 4020834:	e0bffd15 	stw	r2,-12(fp)
		//alt_printf("Snippet word count is %x \n", snippet_word_count);
		// Turn on LED 9, signifying that signal processing is in progress
		//IOWR_32DIRECT(PIO_LEDS_SHARED_BASE, 0, 512);
		if(choice == 1)
 4020838:	e0bffe17 	ldw	r2,-8(fp)
 402083c:	10800058 	cmpnei	r2,r2,1
 4020840:	1000241e 	bne	r2,zero,40208d4 <overall_function+0x194>
		{
			//alt_printf("At call accelerator: handled_snippets = %x \n", handled_snippets);
			if(run_profiling == 1)
 4020844:	e0bfff17 	ldw	r2,-4(fp)
 4020848:	10800058 	cmpnei	r2,r2,1
 402084c:	1000091e 	bne	r2,zero,4020874 <overall_function+0x134>
			{
				// Start profiling for the current choice
				PERF_BEGIN(PERFORMANCE_COUNTER_1_BASE, choice);
 4020850:	e0bffe17 	ldw	r2,-8(fp)
 4020854:	1004913a 	slli	r2,r2,4
 4020858:	10800104 	addi	r2,r2,4
 402085c:	1007883a 	mov	r3,r2
 4020860:	00810134 	movhi	r2,1028
 4020864:	10840004 	addi	r2,r2,4096
 4020868:	1885883a 	add	r2,r3,r2
 402086c:	0007883a 	mov	r3,zero
 4020870:	10c00035 	stwio	r3,0(r2)
			}
			HW_Accelerator_start(snippet_starting_address, snippet_storage_address, snippet_word_count, op_type);
 4020874:	e0bffb17 	ldw	r2,-20(fp)
 4020878:	e0fffc17 	ldw	r3,-16(fp)
 402087c:	e13ffd17 	ldw	r4,-12(fp)
 4020880:	e1fff517 	ldw	r7,-44(fp)
 4020884:	200d883a 	mov	r6,r4
 4020888:	180b883a 	mov	r5,r3
 402088c:	1009883a 	mov	r4,r2
 4020890:	402064c0 	call	402064c <HW_Accelerator_start>
			if(run_profiling == 1)
 4020894:	e0bfff17 	ldw	r2,-4(fp)
 4020898:	10800058 	cmpnei	r2,r2,1
 402089c:	1000091e 	bne	r2,zero,40208c4 <overall_function+0x184>
			{
				// Wait for the accelerator to finish
				HW_Accelerator_wait_for_ready();
 40208a0:	40206d80 	call	40206d8 <HW_Accelerator_wait_for_ready>
				// Stop profiling for the current choice
				PERF_END(PERFORMANCE_COUNTER_1_BASE, choice);
 40208a4:	e0bffe17 	ldw	r2,-8(fp)
 40208a8:	1004913a 	slli	r2,r2,4
 40208ac:	1007883a 	mov	r3,r2
 40208b0:	00810134 	movhi	r2,1028
 40208b4:	10840004 	addi	r2,r2,4096
 40208b8:	1885883a 	add	r2,r3,r2
 40208bc:	0007883a 	mov	r3,zero
 40208c0:	10c00035 	stwio	r3,0(r2)
			}
			handled_snippets = handled_snippets + 1;
 40208c4:	e0bff617 	ldw	r2,-40(fp)
 40208c8:	10800044 	addi	r2,r2,1
 40208cc:	e0bff615 	stw	r2,-40(fp)
 40208d0:	00004b06 	br	4020a00 <overall_function+0x2c0>
		}
		else if(choice == 2)
 40208d4:	e0bffe17 	ldw	r2,-8(fp)
 40208d8:	10800098 	cmpnei	r2,r2,2
 40208dc:	1000231e 	bne	r2,zero,402096c <overall_function+0x22c>
		{
			//alt_printf("At call custom instruction: handled_snippets = %x \n", handled_snippets);
			// call comparison function for custom instruction
			if(run_profiling == 1)
 40208e0:	e0bfff17 	ldw	r2,-4(fp)
 40208e4:	10800058 	cmpnei	r2,r2,1
 40208e8:	1000091e 	bne	r2,zero,4020910 <overall_function+0x1d0>
			{
				// Start profiling for the current choice
				PERF_BEGIN(PERFORMANCE_COUNTER_1_BASE, choice);
 40208ec:	e0bffe17 	ldw	r2,-8(fp)
 40208f0:	1004913a 	slli	r2,r2,4
 40208f4:	10800104 	addi	r2,r2,4
 40208f8:	1007883a 	mov	r3,r2
 40208fc:	00810134 	movhi	r2,1028
 4020900:	10840004 	addi	r2,r2,4096
 4020904:	1885883a 	add	r2,r3,r2
 4020908:	0007883a 	mov	r3,zero
 402090c:	10c00035 	stwio	r3,0(r2)
			}
			custom_function(snippet_starting_address, snippet_storage_address, snippet_word_count, op_type);
 4020910:	e0bffb17 	ldw	r2,-20(fp)
 4020914:	e0fffc17 	ldw	r3,-16(fp)
 4020918:	e13ffd17 	ldw	r4,-12(fp)
 402091c:	e1fff517 	ldw	r7,-44(fp)
 4020920:	200d883a 	mov	r6,r4
 4020924:	180b883a 	mov	r5,r3
 4020928:	1009883a 	mov	r4,r2
 402092c:	4020b740 	call	4020b74 <custom_function>
			if(run_profiling == 1)
 4020930:	e0bfff17 	ldw	r2,-4(fp)
 4020934:	10800058 	cmpnei	r2,r2,1
 4020938:	1000081e 	bne	r2,zero,402095c <overall_function+0x21c>
			{
				// Stop profiling for the current choice
				PERF_END(PERFORMANCE_COUNTER_1_BASE, choice);
 402093c:	e0bffe17 	ldw	r2,-8(fp)
 4020940:	1004913a 	slli	r2,r2,4
 4020944:	1007883a 	mov	r3,r2
 4020948:	00810134 	movhi	r2,1028
 402094c:	10840004 	addi	r2,r2,4096
 4020950:	1885883a 	add	r2,r3,r2
 4020954:	0007883a 	mov	r3,zero
 4020958:	10c00035 	stwio	r3,0(r2)
			}
			handled_snippets = handled_snippets + 1;
 402095c:	e0bff617 	ldw	r2,-40(fp)
 4020960:	10800044 	addi	r2,r2,1
 4020964:	e0bff615 	stw	r2,-40(fp)
 4020968:	00002506 	br	4020a00 <overall_function+0x2c0>
		}
		else if(choice == 3)
 402096c:	e0bffe17 	ldw	r2,-8(fp)
 4020970:	108000d8 	cmpnei	r2,r2,3
 4020974:	1000221e 	bne	r2,zero,4020a00 <overall_function+0x2c0>
		{
			//alt_printf("At call c comp function: handled_snippets = %x \n", handled_snippets);
			// call comparison function for C code implementation
			if(run_profiling == 1)
 4020978:	e0bfff17 	ldw	r2,-4(fp)
 402097c:	10800058 	cmpnei	r2,r2,1
 4020980:	1000091e 	bne	r2,zero,40209a8 <overall_function+0x268>
			{
				// Start profiling for the current choice
				PERF_BEGIN(PERFORMANCE_COUNTER_1_BASE, choice);
 4020984:	e0bffe17 	ldw	r2,-8(fp)
 4020988:	1004913a 	slli	r2,r2,4
 402098c:	10800104 	addi	r2,r2,4
 4020990:	1007883a 	mov	r3,r2
 4020994:	00810134 	movhi	r2,1028
 4020998:	10840004 	addi	r2,r2,4096
 402099c:	1885883a 	add	r2,r3,r2
 40209a0:	0007883a 	mov	r3,zero
 40209a4:	10c00035 	stwio	r3,0(r2)
			}
			c_function(snippet_starting_address, snippet_storage_address, snippet_word_count, op_type);
 40209a8:	e0bffb17 	ldw	r2,-20(fp)
 40209ac:	e0fffc17 	ldw	r3,-16(fp)
 40209b0:	e13ffd17 	ldw	r4,-12(fp)
 40209b4:	e1fff517 	ldw	r7,-44(fp)
 40209b8:	200d883a 	mov	r6,r4
 40209bc:	180b883a 	mov	r5,r3
 40209c0:	1009883a 	mov	r4,r2
 40209c4:	4020a840 	call	4020a84 <c_function>
			if(run_profiling == 1)
 40209c8:	e0bfff17 	ldw	r2,-4(fp)
 40209cc:	10800058 	cmpnei	r2,r2,1
 40209d0:	1000081e 	bne	r2,zero,40209f4 <overall_function+0x2b4>
			{
				// Stop profiling for the current choice
				PERF_END(PERFORMANCE_COUNTER_1_BASE, choice);
 40209d4:	e0bffe17 	ldw	r2,-8(fp)
 40209d8:	1004913a 	slli	r2,r2,4
 40209dc:	1007883a 	mov	r3,r2
 40209e0:	00810134 	movhi	r2,1028
 40209e4:	10840004 	addi	r2,r2,4096
 40209e8:	1885883a 	add	r2,r3,r2
 40209ec:	0007883a 	mov	r3,zero
 40209f0:	10c00035 	stwio	r3,0(r2)
			}
			handled_snippets = handled_snippets + 1;
 40209f4:	e0bff617 	ldw	r2,-40(fp)
 40209f8:	10800044 	addi	r2,r2,1
 40209fc:	e0bff615 	stw	r2,-40(fp)
	else
	{
		alt_printf("Op type 1 chosen \n");
		op_type = 1;
	}
	while(handled_snippets < total_snippets)
 4020a00:	e0fff617 	ldw	r3,-40(fp)
 4020a04:	e0bff717 	ldw	r2,-36(fp)
 4020a08:	18bf7a16 	blt	r3,r2,40207f4 <__alt_data_end+0xfffe07f4>
			handled_snippets = handled_snippets + 1;
		}
		// Turn off LED 9, signifying that signal processing is done
		//IOWR_32DIRECT(PIO_LEDS_SHARED_BASE, 0, 0);
	}
	alt_printf("All snippets handled. Sending mail with start_storage_address = %x and memory_size = %x \n", start_storage_address, memory_size);
 4020a0c:	e1bff917 	ldw	r6,-28(fp)
 4020a10:	e17ffa17 	ldw	r5,-24(fp)
 4020a14:	010100f4 	movhi	r4,1027
 4020a18:	2103ec04 	addi	r4,r4,4016
 4020a1c:	40210940 	call	4021094 <alt_printf>
	send_mail(start_storage_address, memory_size);
 4020a20:	e0bffa17 	ldw	r2,-24(fp)
 4020a24:	e0fff917 	ldw	r3,-28(fp)
 4020a28:	180b883a 	mov	r5,r3
 4020a2c:	1009883a 	mov	r4,r2
 4020a30:	40202f40 	call	40202f4 <send_mail>
	//send_mail((alt_u32)start_storage_address, (alt_u32)memory_size);
	alt_printf("Mail sent, done on this side. \n");
 4020a34:	010100f4 	movhi	r4,1027
 4020a38:	21040304 	addi	r4,r4,4108
 4020a3c:	40210940 	call	4021094 <alt_printf>
	if(run_profiling == 1)
 4020a40:	e0bfff17 	ldw	r2,-4(fp)
 4020a44:	10800058 	cmpnei	r2,r2,1
 4020a48:	1000081e 	bne	r2,zero,4020a6c <overall_function+0x32c>
	{
		// Stop profiling for the current choice
		PERF_END(PERFORMANCE_COUNTER_1_BASE, choice);
 4020a4c:	e0bffe17 	ldw	r2,-8(fp)
 4020a50:	1004913a 	slli	r2,r2,4
 4020a54:	1007883a 	mov	r3,r2
 4020a58:	00810134 	movhi	r2,1028
 4020a5c:	10840004 	addi	r2,r2,4096
 4020a60:	1885883a 	add	r2,r3,r2
 4020a64:	0007883a 	mov	r3,zero
 4020a68:	10c00035 	stwio	r3,0(r2)
	}
}
 4020a6c:	0001883a 	nop
 4020a70:	e037883a 	mov	sp,fp
 4020a74:	dfc00117 	ldw	ra,4(sp)
 4020a78:	df000017 	ldw	fp,0(sp)
 4020a7c:	dec00204 	addi	sp,sp,8
 4020a80:	f800283a 	ret

04020a84 <c_function>:

// ------------------ Comparison methods for profiling purposes ----------------------------------

void c_function(alt_u32 start_addr, alt_u32 store_addr, alt_u32 word_count, int op_type)
{
 4020a84:	defffa04 	addi	sp,sp,-24
 4020a88:	df000515 	stw	fp,20(sp)
 4020a8c:	df000504 	addi	fp,sp,20
 4020a90:	e13ffc15 	stw	r4,-16(fp)
 4020a94:	e17ffd15 	stw	r5,-12(fp)
 4020a98:	e1bffe15 	stw	r6,-8(fp)
 4020a9c:	e1ffff15 	stw	r7,-4(fp)
	//alt_printf("------------- c_function ------------------ \n");
	alt_u32 data = 0;
 4020aa0:	e03ffb15 	stw	zero,-20(fp)
	if(op_type == 0)
 4020aa4:	e0bfff17 	ldw	r2,-4(fp)
 4020aa8:	10002b1e 	bne	r2,zero,4020b58 <c_function+0xd4>
	{
		while(word_count > 0)
 4020aac:	00001506 	br	4020b04 <c_function+0x80>
		{
			// Load data
			data = IORD_32DIRECT(start_addr, 0);
 4020ab0:	e0bffc17 	ldw	r2,-16(fp)
 4020ab4:	10800037 	ldwio	r2,0(r2)
 4020ab8:	e0bffb15 	stw	r2,-20(fp)
			// Perform operation
			data = (signed)data;
			// Shift right
			data = (data & 0x80000000)+((data & 0xfffffffe)>>1);
 4020abc:	e0bffb17 	ldw	r2,-20(fp)
 4020ac0:	10e0002c 	andhi	r3,r2,32768
 4020ac4:	e0bffb17 	ldw	r2,-20(fp)
 4020ac8:	1004d07a 	srli	r2,r2,1
 4020acc:	1885883a 	add	r2,r3,r2
 4020ad0:	e0bffb15 	stw	r2,-20(fp)
			// Store data
			IOWR_32DIRECT(SDRAM_CONTROLLER_2_BASE, (alt_u32)store_addr, (alt_u32)data);
 4020ad4:	e0bffd17 	ldw	r2,-12(fp)
 4020ad8:	e0fffb17 	ldw	r3,-20(fp)
 4020adc:	10c00035 	stwio	r3,0(r2)
			// Update variables
			start_addr += 4;
 4020ae0:	e0bffc17 	ldw	r2,-16(fp)
 4020ae4:	10800104 	addi	r2,r2,4
 4020ae8:	e0bffc15 	stw	r2,-16(fp)
			store_addr += 4;
 4020aec:	e0bffd17 	ldw	r2,-12(fp)
 4020af0:	10800104 	addi	r2,r2,4
 4020af4:	e0bffd15 	stw	r2,-12(fp)
			word_count --;
 4020af8:	e0bffe17 	ldw	r2,-8(fp)
 4020afc:	10bfffc4 	addi	r2,r2,-1
 4020b00:	e0bffe15 	stw	r2,-8(fp)
{
	//alt_printf("------------- c_function ------------------ \n");
	alt_u32 data = 0;
	if(op_type == 0)
	{
		while(word_count > 0)
 4020b04:	e0bffe17 	ldw	r2,-8(fp)
 4020b08:	103fe91e 	bne	r2,zero,4020ab0 <__alt_data_end+0xfffe0ab0>
			start_addr += 4;
			store_addr += 4;
			word_count --;
		}
	}
}
 4020b0c:	00001406 	br	4020b60 <c_function+0xdc>
	else
	{
		while(word_count > 0)
		{
			// Load data
			data = IORD_32DIRECT(start_addr, 0);
 4020b10:	e0bffc17 	ldw	r2,-16(fp)
 4020b14:	10800037 	ldwio	r2,0(r2)
 4020b18:	e0bffb15 	stw	r2,-20(fp)
			// Perform operation
			data = (signed)data;
			// Shift left
			data = (data << 1);
 4020b1c:	e0bffb17 	ldw	r2,-20(fp)
 4020b20:	1085883a 	add	r2,r2,r2
 4020b24:	e0bffb15 	stw	r2,-20(fp)
			// Store data
			IOWR_32DIRECT(SDRAM_CONTROLLER_2_BASE, (alt_u32)store_addr, (alt_u32)data);
 4020b28:	e0bffd17 	ldw	r2,-12(fp)
 4020b2c:	e0fffb17 	ldw	r3,-20(fp)
 4020b30:	10c00035 	stwio	r3,0(r2)
			// Update variables
			start_addr += 4;
 4020b34:	e0bffc17 	ldw	r2,-16(fp)
 4020b38:	10800104 	addi	r2,r2,4
 4020b3c:	e0bffc15 	stw	r2,-16(fp)
			store_addr += 4;
 4020b40:	e0bffd17 	ldw	r2,-12(fp)
 4020b44:	10800104 	addi	r2,r2,4
 4020b48:	e0bffd15 	stw	r2,-12(fp)
			word_count --;
 4020b4c:	e0bffe17 	ldw	r2,-8(fp)
 4020b50:	10bfffc4 	addi	r2,r2,-1
 4020b54:	e0bffe15 	stw	r2,-8(fp)
			word_count --;
		}
	}
	else
	{
		while(word_count > 0)
 4020b58:	e0bffe17 	ldw	r2,-8(fp)
 4020b5c:	103fec1e 	bne	r2,zero,4020b10 <__alt_data_end+0xfffe0b10>
			start_addr += 4;
			store_addr += 4;
			word_count --;
		}
	}
}
 4020b60:	0001883a 	nop
 4020b64:	e037883a 	mov	sp,fp
 4020b68:	df000017 	ldw	fp,0(sp)
 4020b6c:	dec00104 	addi	sp,sp,4
 4020b70:	f800283a 	ret

04020b74 <custom_function>:

void custom_function(alt_u32 start_addr, alt_u32 store_addr, alt_u32 word_count, int op_type)
{
 4020b74:	defffa04 	addi	sp,sp,-24
 4020b78:	df000515 	stw	fp,20(sp)
 4020b7c:	df000504 	addi	fp,sp,20
 4020b80:	e13ffc15 	stw	r4,-16(fp)
 4020b84:	e17ffd15 	stw	r5,-12(fp)
 4020b88:	e1bffe15 	stw	r6,-8(fp)
 4020b8c:	e1ffff15 	stw	r7,-4(fp)
	//alt_printf("------------- custom_function ------------------ \n");
	alt_u32 data = 0;
 4020b90:	e03ffb15 	stw	zero,-20(fp)
	while(word_count > 0)
 4020b94:	00001306 	br	4020be4 <custom_function+0x70>
	{
		// Load data
		data = IORD_32DIRECT(start_addr, 0);
 4020b98:	e0bffc17 	ldw	r2,-16(fp)
 4020b9c:	10800037 	ldwio	r2,0(r2)
 4020ba0:	e0bffb15 	stw	r2,-20(fp)
		// Perform operation
		data = (signed)data;
		// Use custom instruction
		data = ALT_CI_SIGPROCOPERATION_0(data, op_type);
 4020ba4:	e0bffb17 	ldw	r2,-20(fp)
 4020ba8:	e0ffff17 	ldw	r3,-4(fp)
 4020bac:	10c5c032 	custom	0,r2,r2,r3
 4020bb0:	e0bffb15 	stw	r2,-20(fp)
		// Store data
		IOWR_32DIRECT(SDRAM_CONTROLLER_2_BASE, (alt_u32)store_addr, (alt_u32)data);
 4020bb4:	e0bffd17 	ldw	r2,-12(fp)
 4020bb8:	e0fffb17 	ldw	r3,-20(fp)
 4020bbc:	10c00035 	stwio	r3,0(r2)
		// Update variables
		start_addr += 4;
 4020bc0:	e0bffc17 	ldw	r2,-16(fp)
 4020bc4:	10800104 	addi	r2,r2,4
 4020bc8:	e0bffc15 	stw	r2,-16(fp)
		store_addr += 4;
 4020bcc:	e0bffd17 	ldw	r2,-12(fp)
 4020bd0:	10800104 	addi	r2,r2,4
 4020bd4:	e0bffd15 	stw	r2,-12(fp)
		word_count --;
 4020bd8:	e0bffe17 	ldw	r2,-8(fp)
 4020bdc:	10bfffc4 	addi	r2,r2,-1
 4020be0:	e0bffe15 	stw	r2,-8(fp)

void custom_function(alt_u32 start_addr, alt_u32 store_addr, alt_u32 word_count, int op_type)
{
	//alt_printf("------------- custom_function ------------------ \n");
	alt_u32 data = 0;
	while(word_count > 0)
 4020be4:	e0bffe17 	ldw	r2,-8(fp)
 4020be8:	103feb1e 	bne	r2,zero,4020b98 <__alt_data_end+0xfffe0b98>
		// Update variables
		start_addr += 4;
		store_addr += 4;
		word_count --;
	}
}
 4020bec:	0001883a 	nop
 4020bf0:	e037883a 	mov	sp,fp
 4020bf4:	df000017 	ldw	fp,0(sp)
 4020bf8:	dec00104 	addi	sp,sp,4
 4020bfc:	f800283a 	ret

04020c00 <main>:

// ----------------------- Main function ----------------------------------

int main()
{
 4020c00:	defffe04 	addi	sp,sp,-8
 4020c04:	dfc00115 	stw	ra,4(sp)
 4020c08:	df000015 	stw	fp,0(sp)
 4020c0c:	d839883a 	mov	fp,sp
	// Setup interrupts on the first 4 switches
	//setup_switch_interrupts(0xf);
	alt_printf("\n \n \n \n ---------- main --------------- \n");
 4020c10:	010100f4 	movhi	r4,1027
 4020c14:	21040b04 	addi	r4,r4,4140
 4020c18:	40210940 	call	4021094 <alt_printf>
	// Wait for switches
	while(1)
	{
		// Use mailbox to start tasks on this subsystem
		//alt_printf("Waiting for choice mail... \n");
		receive_mail();
 4020c1c:	40203cc0 	call	40203cc <receive_mail>
		//alt_printf("Choice mail received, choice in mail = %x \n", mail_receive[0], choice);
		choice = (int)mail_receive[0];
 4020c20:	d0a70c17 	ldw	r2,-25552(gp)
 4020c24:	d0a70915 	stw	r2,-25564(gp)

		// Poll choice once every millisecond
		//usleep(1000);
		if(choice != 0)
 4020c28:	d0a70917 	ldw	r2,-25564(gp)
 4020c2c:	103ffb26 	beq	r2,zero,4020c1c <__alt_data_end+0xfffe0c1c>
		{
			choose_task(choice);
 4020c30:	d0a70917 	ldw	r2,-25564(gp)
 4020c34:	1009883a 	mov	r4,r2
 4020c38:	40204200 	call	4020420 <choose_task>
			choice = 0x0;
 4020c3c:	d0270915 	stw	zero,-25564(gp)
		}
	};
 4020c40:	003ff606 	br	4020c1c <__alt_data_end+0xfffe0c1c>

04020c44 <alt_dcache_flush_all>:
/*
 * alt_dcache_flush_all() is called to flush the entire data cache.
 */

void alt_dcache_flush_all (void)
{
 4020c44:	defffe04 	addi	sp,sp,-8
 4020c48:	df000115 	stw	fp,4(sp)
 4020c4c:	df000104 	addi	fp,sp,4
#if NIOS2_DCACHE_SIZE > 0
  char* i;
  
  for (i = (char*) 0; i < (char*) NIOS2_DCACHE_SIZE; i+= NIOS2_DCACHE_LINE_SIZE)
 4020c50:	e03fff15 	stw	zero,-4(fp)
 4020c54:	00000506 	br	4020c6c <alt_dcache_flush_all+0x28>
  { 
    __asm__ volatile ("flushd (%0)" :: "r" (i));
 4020c58:	e0bfff17 	ldw	r2,-4(fp)
 4020c5c:	1000003b 	flushd	0(r2)
void alt_dcache_flush_all (void)
{
#if NIOS2_DCACHE_SIZE > 0
  char* i;
  
  for (i = (char*) 0; i < (char*) NIOS2_DCACHE_SIZE; i+= NIOS2_DCACHE_LINE_SIZE)
 4020c60:	e0bfff17 	ldw	r2,-4(fp)
 4020c64:	10800804 	addi	r2,r2,32
 4020c68:	e0bfff15 	stw	r2,-4(fp)
 4020c6c:	e0bfff17 	ldw	r2,-4(fp)
 4020c70:	10820030 	cmpltui	r2,r2,2048
 4020c74:	103ff81e 	bne	r2,zero,4020c58 <__alt_data_end+0xfffe0c58>
  { 
    __asm__ volatile ("flushd (%0)" :: "r" (i));
  }
#endif /* NIOS2_DCACHE_SIZE > 0 */
}
 4020c78:	0001883a 	nop
 4020c7c:	e037883a 	mov	sp,fp
 4020c80:	df000017 	ldw	fp,0(sp)
 4020c84:	dec00104 	addi	sp,sp,4
 4020c88:	f800283a 	ret

04020c8c <alt_ic_isr_register>:
  * @param irq              IRQ number
  * @return                 0 if successful, else error (-1)
  */
int alt_ic_isr_register(alt_u32 ic_id, alt_u32 irq, alt_isr_func isr, 
  void *isr_context, void *flags)
{
 4020c8c:	defff904 	addi	sp,sp,-28
 4020c90:	dfc00615 	stw	ra,24(sp)
 4020c94:	df000515 	stw	fp,20(sp)
 4020c98:	df000504 	addi	fp,sp,20
 4020c9c:	e13ffc15 	stw	r4,-16(fp)
 4020ca0:	e17ffd15 	stw	r5,-12(fp)
 4020ca4:	e1bffe15 	stw	r6,-8(fp)
 4020ca8:	e1ffff15 	stw	r7,-4(fp)
    return alt_iic_isr_register(ic_id, irq, isr, isr_context, flags);
 4020cac:	e0800217 	ldw	r2,8(fp)
 4020cb0:	d8800015 	stw	r2,0(sp)
 4020cb4:	e1ffff17 	ldw	r7,-4(fp)
 4020cb8:	e1bffe17 	ldw	r6,-8(fp)
 4020cbc:	e17ffd17 	ldw	r5,-12(fp)
 4020cc0:	e13ffc17 	ldw	r4,-16(fp)
 4020cc4:	4020e3c0 	call	4020e3c <alt_iic_isr_register>
}  
 4020cc8:	e037883a 	mov	sp,fp
 4020ccc:	dfc00117 	ldw	ra,4(sp)
 4020cd0:	df000017 	ldw	fp,0(sp)
 4020cd4:	dec00204 	addi	sp,sp,8
 4020cd8:	f800283a 	ret

04020cdc <alt_ic_irq_enable>:
  * @param ic_id            Ignored.
  * @param irq              IRQ number
  * @return                 0 if successful, else error (-1)
  */
int alt_ic_irq_enable (alt_u32 ic_id, alt_u32 irq)
{
 4020cdc:	defff904 	addi	sp,sp,-28
 4020ce0:	df000615 	stw	fp,24(sp)
 4020ce4:	df000604 	addi	fp,sp,24
 4020ce8:	e13ffe15 	stw	r4,-8(fp)
 4020cec:	e17fff15 	stw	r5,-4(fp)
 4020cf0:	e0bfff17 	ldw	r2,-4(fp)
 4020cf4:	e0bffa15 	stw	r2,-24(fp)
static ALT_INLINE alt_irq_context ALT_ALWAYS_INLINE 
       alt_irq_disable_all (void)
{
  alt_irq_context context;

  NIOS2_READ_STATUS (context);
 4020cf8:	0005303a 	rdctl	r2,status
 4020cfc:	e0bffb15 	stw	r2,-20(fp)

  NIOS2_WRITE_STATUS (context & ~NIOS2_STATUS_PIE_MSK);
 4020d00:	e0fffb17 	ldw	r3,-20(fp)
 4020d04:	00bfff84 	movi	r2,-2
 4020d08:	1884703a 	and	r2,r3,r2
 4020d0c:	1001703a 	wrctl	status,r2
  
  return context;
 4020d10:	e0bffb17 	ldw	r2,-20(fp)
static ALT_INLINE int ALT_ALWAYS_INLINE alt_irq_enable (alt_u32 id)
{
  alt_irq_context  status;
  extern volatile alt_u32 alt_irq_active;

  status = alt_irq_disable_all ();
 4020d14:	e0bffc15 	stw	r2,-16(fp)

  alt_irq_active |= (1 << id);
 4020d18:	00c00044 	movi	r3,1
 4020d1c:	e0bffa17 	ldw	r2,-24(fp)
 4020d20:	1884983a 	sll	r2,r3,r2
 4020d24:	1007883a 	mov	r3,r2
 4020d28:	d0a70e17 	ldw	r2,-25544(gp)
 4020d2c:	1884b03a 	or	r2,r3,r2
 4020d30:	d0a70e15 	stw	r2,-25544(gp)
  NIOS2_WRITE_IENABLE (alt_irq_active);
 4020d34:	d0a70e17 	ldw	r2,-25544(gp)
 4020d38:	100170fa 	wrctl	ienable,r2
 4020d3c:	e0bffc17 	ldw	r2,-16(fp)
 4020d40:	e0bffd15 	stw	r2,-12(fp)
  status &= ~NIOS2_STATUS_PIE_MSK;
  status |= (context & NIOS2_STATUS_PIE_MSK);
  
  NIOS2_WRITE_STATUS (status);
#else
  NIOS2_WRITE_STATUS (context);
 4020d44:	e0bffd17 	ldw	r2,-12(fp)
 4020d48:	1001703a 	wrctl	status,r2

  alt_irq_enable_all(status);

  return 0;
 4020d4c:	0005883a 	mov	r2,zero
    return alt_irq_enable(irq);
 4020d50:	0001883a 	nop
}
 4020d54:	e037883a 	mov	sp,fp
 4020d58:	df000017 	ldw	fp,0(sp)
 4020d5c:	dec00104 	addi	sp,sp,4
 4020d60:	f800283a 	ret

04020d64 <alt_ic_irq_disable>:
  * @param ic_id            Ignored.
  * @param irq              IRQ number
  * @return                 0 if successful, else error (-1)
  */
int alt_ic_irq_disable(alt_u32 ic_id, alt_u32 irq)
{
 4020d64:	defff904 	addi	sp,sp,-28
 4020d68:	df000615 	stw	fp,24(sp)
 4020d6c:	df000604 	addi	fp,sp,24
 4020d70:	e13ffe15 	stw	r4,-8(fp)
 4020d74:	e17fff15 	stw	r5,-4(fp)
 4020d78:	e0bfff17 	ldw	r2,-4(fp)
 4020d7c:	e0bffa15 	stw	r2,-24(fp)
static ALT_INLINE alt_irq_context ALT_ALWAYS_INLINE 
       alt_irq_disable_all (void)
{
  alt_irq_context context;

  NIOS2_READ_STATUS (context);
 4020d80:	0005303a 	rdctl	r2,status
 4020d84:	e0bffb15 	stw	r2,-20(fp)

  NIOS2_WRITE_STATUS (context & ~NIOS2_STATUS_PIE_MSK);
 4020d88:	e0fffb17 	ldw	r3,-20(fp)
 4020d8c:	00bfff84 	movi	r2,-2
 4020d90:	1884703a 	and	r2,r3,r2
 4020d94:	1001703a 	wrctl	status,r2
  
  return context;
 4020d98:	e0bffb17 	ldw	r2,-20(fp)
static ALT_INLINE int ALT_ALWAYS_INLINE alt_irq_disable (alt_u32 id)
{
  alt_irq_context  status;
  extern volatile alt_u32 alt_irq_active;

  status = alt_irq_disable_all ();
 4020d9c:	e0bffc15 	stw	r2,-16(fp)

  alt_irq_active &= ~(1 << id);
 4020da0:	00c00044 	movi	r3,1
 4020da4:	e0bffa17 	ldw	r2,-24(fp)
 4020da8:	1884983a 	sll	r2,r3,r2
 4020dac:	0084303a 	nor	r2,zero,r2
 4020db0:	1007883a 	mov	r3,r2
 4020db4:	d0a70e17 	ldw	r2,-25544(gp)
 4020db8:	1884703a 	and	r2,r3,r2
 4020dbc:	d0a70e15 	stw	r2,-25544(gp)
  NIOS2_WRITE_IENABLE (alt_irq_active);
 4020dc0:	d0a70e17 	ldw	r2,-25544(gp)
 4020dc4:	100170fa 	wrctl	ienable,r2
 4020dc8:	e0bffc17 	ldw	r2,-16(fp)
 4020dcc:	e0bffd15 	stw	r2,-12(fp)
  status &= ~NIOS2_STATUS_PIE_MSK;
  status |= (context & NIOS2_STATUS_PIE_MSK);
  
  NIOS2_WRITE_STATUS (status);
#else
  NIOS2_WRITE_STATUS (context);
 4020dd0:	e0bffd17 	ldw	r2,-12(fp)
 4020dd4:	1001703a 	wrctl	status,r2

  alt_irq_enable_all(status);

  return 0;
 4020dd8:	0005883a 	mov	r2,zero
    return alt_irq_disable(irq);
 4020ddc:	0001883a 	nop
}
 4020de0:	e037883a 	mov	sp,fp
 4020de4:	df000017 	ldw	fp,0(sp)
 4020de8:	dec00104 	addi	sp,sp,4
 4020dec:	f800283a 	ret

04020df0 <alt_ic_irq_enabled>:
  * @param irq              IRQ number
  * @return                 Zero if corresponding interrupt is disabled and
  *                         non-zero otherwise.
  */
alt_u32 alt_ic_irq_enabled(alt_u32 ic_id, alt_u32 irq)
{
 4020df0:	defffc04 	addi	sp,sp,-16
 4020df4:	df000315 	stw	fp,12(sp)
 4020df8:	df000304 	addi	fp,sp,12
 4020dfc:	e13ffe15 	stw	r4,-8(fp)
 4020e00:	e17fff15 	stw	r5,-4(fp)
    alt_u32 irq_enabled;

    NIOS2_READ_IENABLE(irq_enabled);
 4020e04:	000530fa 	rdctl	r2,ienable
 4020e08:	e0bffd15 	stw	r2,-12(fp)

    return (irq_enabled & (1 << irq)) ? 1: 0;
 4020e0c:	00c00044 	movi	r3,1
 4020e10:	e0bfff17 	ldw	r2,-4(fp)
 4020e14:	1884983a 	sll	r2,r3,r2
 4020e18:	1007883a 	mov	r3,r2
 4020e1c:	e0bffd17 	ldw	r2,-12(fp)
 4020e20:	1884703a 	and	r2,r3,r2
 4020e24:	1004c03a 	cmpne	r2,r2,zero
 4020e28:	10803fcc 	andi	r2,r2,255
}
 4020e2c:	e037883a 	mov	sp,fp
 4020e30:	df000017 	ldw	fp,0(sp)
 4020e34:	dec00104 	addi	sp,sp,4
 4020e38:	f800283a 	ret

04020e3c <alt_iic_isr_register>:
  * @param flags            
  * @return                 0 if successful, else error (-1)
  */
int alt_iic_isr_register(alt_u32 ic_id, alt_u32 irq, alt_isr_func isr, 
  void *isr_context, void *flags)
{
 4020e3c:	defff504 	addi	sp,sp,-44
 4020e40:	dfc00a15 	stw	ra,40(sp)
 4020e44:	df000915 	stw	fp,36(sp)
 4020e48:	df000904 	addi	fp,sp,36
 4020e4c:	e13ffc15 	stw	r4,-16(fp)
 4020e50:	e17ffd15 	stw	r5,-12(fp)
 4020e54:	e1bffe15 	stw	r6,-8(fp)
 4020e58:	e1ffff15 	stw	r7,-4(fp)
  int rc = -EINVAL;  
 4020e5c:	00bffa84 	movi	r2,-22
 4020e60:	e0bff715 	stw	r2,-36(fp)
  int id = irq;             /* IRQ interpreted as the interrupt ID. */
 4020e64:	e0bffd17 	ldw	r2,-12(fp)
 4020e68:	e0bff815 	stw	r2,-32(fp)
  alt_irq_context status;

  if (id < ALT_NIRQ)
 4020e6c:	e0bff817 	ldw	r2,-32(fp)
 4020e70:	10800808 	cmpgei	r2,r2,32
 4020e74:	1000271e 	bne	r2,zero,4020f14 <alt_iic_isr_register+0xd8>
static ALT_INLINE alt_irq_context ALT_ALWAYS_INLINE 
       alt_irq_disable_all (void)
{
  alt_irq_context context;

  NIOS2_READ_STATUS (context);
 4020e78:	0005303a 	rdctl	r2,status
 4020e7c:	e0bffb15 	stw	r2,-20(fp)

  NIOS2_WRITE_STATUS (context & ~NIOS2_STATUS_PIE_MSK);
 4020e80:	e0fffb17 	ldw	r3,-20(fp)
 4020e84:	00bfff84 	movi	r2,-2
 4020e88:	1884703a 	and	r2,r3,r2
 4020e8c:	1001703a 	wrctl	status,r2
  
  return context;
 4020e90:	e0bffb17 	ldw	r2,-20(fp)
     * interrupts are disabled while the handler tables are updated to ensure
     * that an interrupt doesn't occur while the tables are in an inconsistant
     * state.
     */

    status = alt_irq_disable_all();
 4020e94:	e0bffa15 	stw	r2,-24(fp)

    alt_irq[id].handler = isr;
 4020e98:	008100f4 	movhi	r2,1027
 4020e9c:	10933804 	addi	r2,r2,19680
 4020ea0:	e0fff817 	ldw	r3,-32(fp)
 4020ea4:	180690fa 	slli	r3,r3,3
 4020ea8:	10c5883a 	add	r2,r2,r3
 4020eac:	e0fffe17 	ldw	r3,-8(fp)
 4020eb0:	10c00015 	stw	r3,0(r2)
    alt_irq[id].context = isr_context;
 4020eb4:	008100f4 	movhi	r2,1027
 4020eb8:	10933804 	addi	r2,r2,19680
 4020ebc:	e0fff817 	ldw	r3,-32(fp)
 4020ec0:	180690fa 	slli	r3,r3,3
 4020ec4:	10c5883a 	add	r2,r2,r3
 4020ec8:	10800104 	addi	r2,r2,4
 4020ecc:	e0ffff17 	ldw	r3,-4(fp)
 4020ed0:	10c00015 	stw	r3,0(r2)

    rc = (isr) ? alt_ic_irq_enable(ic_id, id) : alt_ic_irq_disable(ic_id, id);
 4020ed4:	e0bffe17 	ldw	r2,-8(fp)
 4020ed8:	10000526 	beq	r2,zero,4020ef0 <alt_iic_isr_register+0xb4>
 4020edc:	e0bff817 	ldw	r2,-32(fp)
 4020ee0:	100b883a 	mov	r5,r2
 4020ee4:	e13ffc17 	ldw	r4,-16(fp)
 4020ee8:	4020cdc0 	call	4020cdc <alt_ic_irq_enable>
 4020eec:	00000406 	br	4020f00 <alt_iic_isr_register+0xc4>
 4020ef0:	e0bff817 	ldw	r2,-32(fp)
 4020ef4:	100b883a 	mov	r5,r2
 4020ef8:	e13ffc17 	ldw	r4,-16(fp)
 4020efc:	4020d640 	call	4020d64 <alt_ic_irq_disable>
 4020f00:	e0bff715 	stw	r2,-36(fp)
 4020f04:	e0bffa17 	ldw	r2,-24(fp)
 4020f08:	e0bff915 	stw	r2,-28(fp)
  status &= ~NIOS2_STATUS_PIE_MSK;
  status |= (context & NIOS2_STATUS_PIE_MSK);
  
  NIOS2_WRITE_STATUS (status);
#else
  NIOS2_WRITE_STATUS (context);
 4020f0c:	e0bff917 	ldw	r2,-28(fp)
 4020f10:	1001703a 	wrctl	status,r2

    alt_irq_enable_all(status);
  }

  return rc; 
 4020f14:	e0bff717 	ldw	r2,-36(fp)
}
 4020f18:	e037883a 	mov	sp,fp
 4020f1c:	dfc00117 	ldw	ra,4(sp)
 4020f20:	df000017 	ldw	fp,0(sp)
 4020f24:	dec00204 	addi	sp,sp,8
 4020f28:	f800283a 	ret

04020f2c <alt_load_section>:
 */

static void ALT_INLINE alt_load_section (alt_u32* from, 
                                         alt_u32* to, 
                                         alt_u32* end)
{
 4020f2c:	defffc04 	addi	sp,sp,-16
 4020f30:	df000315 	stw	fp,12(sp)
 4020f34:	df000304 	addi	fp,sp,12
 4020f38:	e13ffd15 	stw	r4,-12(fp)
 4020f3c:	e17ffe15 	stw	r5,-8(fp)
 4020f40:	e1bfff15 	stw	r6,-4(fp)
  if (to != from)
 4020f44:	e0fffe17 	ldw	r3,-8(fp)
 4020f48:	e0bffd17 	ldw	r2,-12(fp)
 4020f4c:	18800c26 	beq	r3,r2,4020f80 <alt_load_section+0x54>
  {
    while( to != end )
 4020f50:	00000806 	br	4020f74 <alt_load_section+0x48>
    {
      *to++ = *from++;
 4020f54:	e0bffe17 	ldw	r2,-8(fp)
 4020f58:	10c00104 	addi	r3,r2,4
 4020f5c:	e0fffe15 	stw	r3,-8(fp)
 4020f60:	e0fffd17 	ldw	r3,-12(fp)
 4020f64:	19000104 	addi	r4,r3,4
 4020f68:	e13ffd15 	stw	r4,-12(fp)
 4020f6c:	18c00017 	ldw	r3,0(r3)
 4020f70:	10c00015 	stw	r3,0(r2)
                                         alt_u32* to, 
                                         alt_u32* end)
{
  if (to != from)
  {
    while( to != end )
 4020f74:	e0fffe17 	ldw	r3,-8(fp)
 4020f78:	e0bfff17 	ldw	r2,-4(fp)
 4020f7c:	18bff51e 	bne	r3,r2,4020f54 <__alt_data_end+0xfffe0f54>
    {
      *to++ = *from++;
    }
  }
}
 4020f80:	0001883a 	nop
 4020f84:	e037883a 	mov	sp,fp
 4020f88:	df000017 	ldw	fp,0(sp)
 4020f8c:	dec00104 	addi	sp,sp,4
 4020f90:	f800283a 	ret

04020f94 <alt_load>:
 * there is no bootloader, so this application is responsible for loading to
 * RAM any sections that are required.
 */  

void alt_load (void)
{
 4020f94:	defffe04 	addi	sp,sp,-8
 4020f98:	dfc00115 	stw	ra,4(sp)
 4020f9c:	df000015 	stw	fp,0(sp)
 4020fa0:	d839883a 	mov	fp,sp
  /* 
   * Copy the .rwdata section. 
   */

  alt_load_section (&__flash_rwdata_start, 
 4020fa4:	018100f4 	movhi	r6,1027
 4020fa8:	318c2404 	addi	r6,r6,12432
 4020fac:	014100f4 	movhi	r5,1027
 4020fb0:	29452d04 	addi	r5,r5,5300
 4020fb4:	010100f4 	movhi	r4,1027
 4020fb8:	210c2404 	addi	r4,r4,12432
 4020fbc:	4020f2c0 	call	4020f2c <alt_load_section>

  /*
   * Copy the exception handler.
   */

  alt_load_section (&__flash_exceptions_start, 
 4020fc0:	018100b4 	movhi	r6,1026
 4020fc4:	31809104 	addi	r6,r6,580
 4020fc8:	014100b4 	movhi	r5,1026
 4020fcc:	29400804 	addi	r5,r5,32
 4020fd0:	010100b4 	movhi	r4,1026
 4020fd4:	21000804 	addi	r4,r4,32
 4020fd8:	4020f2c0 	call	4020f2c <alt_load_section>

  /*
   * Copy the .rodata section.
   */

  alt_load_section (&__flash_rodata_start, 
 4020fdc:	018100f4 	movhi	r6,1027
 4020fe0:	31852d04 	addi	r6,r6,5300
 4020fe4:	014100f4 	movhi	r5,1027
 4020fe8:	29434b04 	addi	r5,r5,3372
 4020fec:	010100f4 	movhi	r4,1027
 4020ff0:	21034b04 	addi	r4,r4,3372
 4020ff4:	4020f2c0 	call	4020f2c <alt_load_section>
  
  /*
   * Now ensure that the caches are in synch.
   */
  
  alt_dcache_flush_all();
 4020ff8:	4020c440 	call	4020c44 <alt_dcache_flush_all>
  alt_icache_flush_all();
 4020ffc:	40230680 	call	4023068 <alt_icache_flush_all>
}
 4021000:	0001883a 	nop
 4021004:	e037883a 	mov	sp,fp
 4021008:	dfc00117 	ldw	ra,4(sp)
 402100c:	df000017 	ldw	fp,0(sp)
 4021010:	dec00204 	addi	sp,sp,8
 4021014:	f800283a 	ret

04021018 <alt_main>:
 * devices/filesystems/components in the system; and call the entry point for
 * the users application, i.e. main().
 */

void alt_main (void)
{
 4021018:	defffd04 	addi	sp,sp,-12
 402101c:	dfc00215 	stw	ra,8(sp)
 4021020:	df000115 	stw	fp,4(sp)
 4021024:	df000104 	addi	fp,sp,4
#endif

  /* ALT LOG - please see HAL/sys/alt_log_printf.h for details */
  ALT_LOG_PRINT_BOOT("[alt_main.c] Entering alt_main, calling alt_irq_init.\r\n");
  /* Initialize the interrupt controller. */
  alt_irq_init (NULL);
 4021028:	0009883a 	mov	r4,zero
 402102c:	40213300 	call	4021330 <alt_irq_init>

  /* Initialize the operating system */
  ALT_LOG_PRINT_BOOT("[alt_main.c] Done alt_irq_init, calling alt_os_init.\r\n");
  ALT_OS_INIT();
 4021030:	0001883a 	nop
  ALT_LOG_PRINT_BOOT("[alt_main.c] Done OS Init, calling alt_sem_create.\r\n");
  ALT_SEM_CREATE (&alt_fd_list_lock, 1);

  /* Initialize the device drivers/software components. */
  ALT_LOG_PRINT_BOOT("[alt_main.c] Calling alt_sys_init.\r\n");
  alt_sys_init();
 4021034:	40213680 	call	4021368 <alt_sys_init>
   * devices be present (not equal to /dev/null) and if direct drivers
   * aren't being used.
   */

    ALT_LOG_PRINT_BOOT("[alt_main.c] Redirecting IO.\r\n");
    alt_io_redirect(ALT_STDOUT, ALT_STDIN, ALT_STDERR);
 4021038:	018100f4 	movhi	r6,1027
 402103c:	31841604 	addi	r6,r6,4184
 4021040:	014100f4 	movhi	r5,1027
 4021044:	29441604 	addi	r5,r5,4184
 4021048:	010100f4 	movhi	r4,1027
 402104c:	21041604 	addi	r4,r4,4184
 4021050:	40231fc0 	call	40231fc <alt_io_redirect>
  /* 
   * Call the C++ constructors 
   */

  ALT_LOG_PRINT_BOOT("[alt_main.c] Calling C++ constructors.\r\n");
  _do_ctors ();
 4021054:	4022f180 	call	4022f18 <_do_ctors>
   * redefined as _exit()). This is in the interest of reducing code footprint,
   * in that the atexit() overhead is removed when it's not needed.
   */

  ALT_LOG_PRINT_BOOT("[alt_main.c] Calling atexit.\r\n");
  atexit (_do_dtors);
 4021058:	010100b4 	movhi	r4,1026
 402105c:	210bde04 	addi	r4,r4,12152
 4021060:	40239340 	call	4023934 <atexit>
  ALT_LOG_PRINT_BOOT("[alt_main.c] Calling main.\r\n");

#ifdef ALT_NO_EXIT
  main (alt_argc, alt_argv, alt_envp);
#else
  result = main (alt_argc, alt_argv, alt_envp);
 4021064:	d0a70f17 	ldw	r2,-25540(gp)
 4021068:	d0e71017 	ldw	r3,-25536(gp)
 402106c:	d1271117 	ldw	r4,-25532(gp)
 4021070:	200d883a 	mov	r6,r4
 4021074:	180b883a 	mov	r5,r3
 4021078:	1009883a 	mov	r4,r2
 402107c:	4020c000 	call	4020c00 <main>
 4021080:	e0bfff15 	stw	r2,-4(fp)
  close(STDOUT_FILENO);
 4021084:	01000044 	movi	r4,1
 4021088:	4022d3c0 	call	4022d3c <close>
  exit (result);
 402108c:	e13fff17 	ldw	r4,-4(fp)
 4021090:	40239480 	call	4023948 <exit>

04021094 <alt_printf>:
/* 
 * ALT printf function 
 */
void 
alt_printf(const char* fmt, ... )
{
 4021094:	defff204 	addi	sp,sp,-56
 4021098:	dfc00a15 	stw	ra,40(sp)
 402109c:	df000915 	stw	fp,36(sp)
 40210a0:	df000904 	addi	fp,sp,36
 40210a4:	e13fff15 	stw	r4,-4(fp)
 40210a8:	e1400215 	stw	r5,8(fp)
 40210ac:	e1800315 	stw	r6,12(fp)
 40210b0:	e1c00415 	stw	r7,16(fp)
	va_list args;
	va_start(args, fmt);
 40210b4:	e0800204 	addi	r2,fp,8
 40210b8:	e0bffe15 	stw	r2,-8(fp)
    const char *w;
    char c;

    /* Process format string. */
    w = fmt;
 40210bc:	e0bfff17 	ldw	r2,-4(fp)
 40210c0:	e0bff715 	stw	r2,-36(fp)
    while ((c = *w++) != 0)
 40210c4:	00006f06 	br	4021284 <alt_printf+0x1f0>
    {
        /* If not a format escape character, just print  */
        /* character.  Otherwise, process format string. */
        if (c != '%')
 40210c8:	e0bff807 	ldb	r2,-32(fp)
 40210cc:	10800960 	cmpeqi	r2,r2,37
 40210d0:	1000041e 	bne	r2,zero,40210e4 <alt_printf+0x50>
        {
            alt_putchar(c);
 40210d4:	e0bff807 	ldb	r2,-32(fp)
 40210d8:	1009883a 	mov	r4,r2
 40210dc:	40212c00 	call	40212c0 <alt_putchar>
 40210e0:	00006806 	br	4021284 <alt_printf+0x1f0>
        }
        else
        {
            /* Get format character.  If none     */
            /* available, processing is complete. */
            if ((c = *w++) != 0)
 40210e4:	e0bff717 	ldw	r2,-36(fp)
 40210e8:	10c00044 	addi	r3,r2,1
 40210ec:	e0fff715 	stw	r3,-36(fp)
 40210f0:	10800003 	ldbu	r2,0(r2)
 40210f4:	e0bff805 	stb	r2,-32(fp)
 40210f8:	e0bff807 	ldb	r2,-32(fp)
 40210fc:	10006926 	beq	r2,zero,40212a4 <alt_printf+0x210>
            {
                if (c == '%')
 4021100:	e0bff807 	ldb	r2,-32(fp)
 4021104:	10800958 	cmpnei	r2,r2,37
 4021108:	1000041e 	bne	r2,zero,402111c <alt_printf+0x88>
                {
                    /* Process "%" escape sequence. */
                    alt_putchar(c);
 402110c:	e0bff807 	ldb	r2,-32(fp)
 4021110:	1009883a 	mov	r4,r2
 4021114:	40212c00 	call	40212c0 <alt_putchar>
 4021118:	00005a06 	br	4021284 <alt_printf+0x1f0>
                } 
                else if (c == 'c')
 402111c:	e0bff807 	ldb	r2,-32(fp)
 4021120:	108018d8 	cmpnei	r2,r2,99
 4021124:	1000081e 	bne	r2,zero,4021148 <alt_printf+0xb4>
                {
                    int v = va_arg(args, int);
 4021128:	e0bffe17 	ldw	r2,-8(fp)
 402112c:	10c00104 	addi	r3,r2,4
 4021130:	e0fffe15 	stw	r3,-8(fp)
 4021134:	10800017 	ldw	r2,0(r2)
 4021138:	e0bffd15 	stw	r2,-12(fp)
                    alt_putchar(v);
 402113c:	e13ffd17 	ldw	r4,-12(fp)
 4021140:	40212c00 	call	40212c0 <alt_putchar>
 4021144:	00004f06 	br	4021284 <alt_printf+0x1f0>
                }
                else if (c == 'x')
 4021148:	e0bff807 	ldb	r2,-32(fp)
 402114c:	10801e18 	cmpnei	r2,r2,120
 4021150:	1000341e 	bne	r2,zero,4021224 <alt_printf+0x190>
                {
                    /* Process hexadecimal number format. */
                    unsigned long v = va_arg(args, unsigned long);
 4021154:	e0bffe17 	ldw	r2,-8(fp)
 4021158:	10c00104 	addi	r3,r2,4
 402115c:	e0fffe15 	stw	r3,-8(fp)
 4021160:	10800017 	ldw	r2,0(r2)
 4021164:	e0bffb15 	stw	r2,-20(fp)
                    unsigned long digit;
                    int digit_shift;

                    /* If the number value is zero, just print and continue. */
                    if (v == 0)
 4021168:	e0bffb17 	ldw	r2,-20(fp)
 402116c:	1000031e 	bne	r2,zero,402117c <alt_printf+0xe8>
                    {
                        alt_putchar('0');
 4021170:	01000c04 	movi	r4,48
 4021174:	40212c00 	call	40212c0 <alt_putchar>
                        continue;
 4021178:	00004206 	br	4021284 <alt_printf+0x1f0>
                    }

                    /* Find first non-zero digit. */
                    digit_shift = 28;
 402117c:	00800704 	movi	r2,28
 4021180:	e0bff915 	stw	r2,-28(fp)
                    while (!(v & (0xF << digit_shift)))
 4021184:	00000306 	br	4021194 <alt_printf+0x100>
                        digit_shift -= 4;
 4021188:	e0bff917 	ldw	r2,-28(fp)
 402118c:	10bfff04 	addi	r2,r2,-4
 4021190:	e0bff915 	stw	r2,-28(fp)
                        continue;
                    }

                    /* Find first non-zero digit. */
                    digit_shift = 28;
                    while (!(v & (0xF << digit_shift)))
 4021194:	00c003c4 	movi	r3,15
 4021198:	e0bff917 	ldw	r2,-28(fp)
 402119c:	1884983a 	sll	r2,r3,r2
 40211a0:	1007883a 	mov	r3,r2
 40211a4:	e0bffb17 	ldw	r2,-20(fp)
 40211a8:	1884703a 	and	r2,r3,r2
 40211ac:	103ff626 	beq	r2,zero,4021188 <__alt_data_end+0xfffe1188>
                        digit_shift -= 4;

                    /* Print digits. */
                    for (; digit_shift >= 0; digit_shift -= 4)
 40211b0:	00001906 	br	4021218 <alt_printf+0x184>
                    {
                        digit = (v & (0xF << digit_shift)) >> digit_shift;
 40211b4:	00c003c4 	movi	r3,15
 40211b8:	e0bff917 	ldw	r2,-28(fp)
 40211bc:	1884983a 	sll	r2,r3,r2
 40211c0:	1007883a 	mov	r3,r2
 40211c4:	e0bffb17 	ldw	r2,-20(fp)
 40211c8:	1886703a 	and	r3,r3,r2
 40211cc:	e0bff917 	ldw	r2,-28(fp)
 40211d0:	1884d83a 	srl	r2,r3,r2
 40211d4:	e0bffc15 	stw	r2,-16(fp)
                        if (digit <= 9)
 40211d8:	e0bffc17 	ldw	r2,-16(fp)
 40211dc:	108002a8 	cmpgeui	r2,r2,10
 40211e0:	1000041e 	bne	r2,zero,40211f4 <alt_printf+0x160>
                            c = '0' + digit;
 40211e4:	e0bffc17 	ldw	r2,-16(fp)
 40211e8:	10800c04 	addi	r2,r2,48
 40211ec:	e0bff805 	stb	r2,-32(fp)
 40211f0:	00000306 	br	4021200 <alt_printf+0x16c>
                        else
                            c = 'a' + digit - 10;
 40211f4:	e0bffc17 	ldw	r2,-16(fp)
 40211f8:	108015c4 	addi	r2,r2,87
 40211fc:	e0bff805 	stb	r2,-32(fp)
                        alt_putchar(c);
 4021200:	e0bff807 	ldb	r2,-32(fp)
 4021204:	1009883a 	mov	r4,r2
 4021208:	40212c00 	call	40212c0 <alt_putchar>
                    digit_shift = 28;
                    while (!(v & (0xF << digit_shift)))
                        digit_shift -= 4;

                    /* Print digits. */
                    for (; digit_shift >= 0; digit_shift -= 4)
 402120c:	e0bff917 	ldw	r2,-28(fp)
 4021210:	10bfff04 	addi	r2,r2,-4
 4021214:	e0bff915 	stw	r2,-28(fp)
 4021218:	e0bff917 	ldw	r2,-28(fp)
 402121c:	103fe50e 	bge	r2,zero,40211b4 <__alt_data_end+0xfffe11b4>
 4021220:	00001806 	br	4021284 <alt_printf+0x1f0>
                        else
                            c = 'a' + digit - 10;
                        alt_putchar(c);
                    }
                }
                else if (c == 's')
 4021224:	e0bff807 	ldb	r2,-32(fp)
 4021228:	10801cd8 	cmpnei	r2,r2,115
 402122c:	1000151e 	bne	r2,zero,4021284 <alt_printf+0x1f0>
                {
                    /* Process string format. */
                    char *s = va_arg(args, char *);
 4021230:	e0bffe17 	ldw	r2,-8(fp)
 4021234:	10c00104 	addi	r3,r2,4
 4021238:	e0fffe15 	stw	r3,-8(fp)
 402123c:	10800017 	ldw	r2,0(r2)
 4021240:	e0bffa15 	stw	r2,-24(fp)

                    while(*s)
 4021244:	00000906 	br	402126c <alt_printf+0x1d8>
                      alt_putchar(*s++);
 4021248:	e0bffa17 	ldw	r2,-24(fp)
 402124c:	10c00044 	addi	r3,r2,1
 4021250:	e0fffa15 	stw	r3,-24(fp)
 4021254:	10800003 	ldbu	r2,0(r2)
 4021258:	10803fcc 	andi	r2,r2,255
 402125c:	1080201c 	xori	r2,r2,128
 4021260:	10bfe004 	addi	r2,r2,-128
 4021264:	1009883a 	mov	r4,r2
 4021268:	40212c00 	call	40212c0 <alt_putchar>
                else if (c == 's')
                {
                    /* Process string format. */
                    char *s = va_arg(args, char *);

                    while(*s)
 402126c:	e0bffa17 	ldw	r2,-24(fp)
 4021270:	10800003 	ldbu	r2,0(r2)
 4021274:	10803fcc 	andi	r2,r2,255
 4021278:	1080201c 	xori	r2,r2,128
 402127c:	10bfe004 	addi	r2,r2,-128
 4021280:	103ff11e 	bne	r2,zero,4021248 <__alt_data_end+0xfffe1248>
    const char *w;
    char c;

    /* Process format string. */
    w = fmt;
    while ((c = *w++) != 0)
 4021284:	e0bff717 	ldw	r2,-36(fp)
 4021288:	10c00044 	addi	r3,r2,1
 402128c:	e0fff715 	stw	r3,-36(fp)
 4021290:	10800003 	ldbu	r2,0(r2)
 4021294:	e0bff805 	stb	r2,-32(fp)
 4021298:	e0bff807 	ldb	r2,-32(fp)
 402129c:	103f8a1e 	bne	r2,zero,40210c8 <__alt_data_end+0xfffe10c8>
        }
    }
#ifdef ALT_SEMIHOSTING
    alt_putbufflush();
#endif
}
 40212a0:	00000106 	br	40212a8 <alt_printf+0x214>
                      alt_putchar(*s++);
                }
            }
            else
            {
                break;
 40212a4:	0001883a 	nop
        }
    }
#ifdef ALT_SEMIHOSTING
    alt_putbufflush();
#endif
}
 40212a8:	0001883a 	nop
 40212ac:	e037883a 	mov	sp,fp
 40212b0:	dfc00117 	ldw	ra,4(sp)
 40212b4:	df000017 	ldw	fp,0(sp)
 40212b8:	dec00504 	addi	sp,sp,20
 40212bc:	f800283a 	ret

040212c0 <alt_putchar>:
 * Uses the ALT_DRIVER_WRITE() macro to call directly to driver if available.
 * Otherwise, uses newlib provided putchar() routine.
 */
int 
alt_putchar(int c)
{
 40212c0:	defffd04 	addi	sp,sp,-12
 40212c4:	dfc00215 	stw	ra,8(sp)
 40212c8:	df000115 	stw	fp,4(sp)
 40212cc:	df000104 	addi	fp,sp,4
 40212d0:	e13fff15 	stw	r4,-4(fp)
    if (ALT_DRIVER_WRITE(ALT_STDOUT_DEV, &c1, 1, 0) == -1) {
        return -1;
    }
    return c;
#else
    return putchar(c);
 40212d4:	d0a00c17 	ldw	r2,-32720(gp)
 40212d8:	10800217 	ldw	r2,8(r2)
 40212dc:	100b883a 	mov	r5,r2
 40212e0:	e13fff17 	ldw	r4,-4(fp)
 40212e4:	4023c500 	call	4023c50 <putc>
#endif
#endif
}
 40212e8:	e037883a 	mov	sp,fp
 40212ec:	dfc00117 	ldw	ra,4(sp)
 40212f0:	df000017 	ldw	fp,0(sp)
 40212f4:	dec00204 	addi	sp,sp,8
 40212f8:	f800283a 	ret

040212fc <alt_dev_reg>:
 */

extern int alt_fs_reg  (alt_dev* dev); 

static ALT_INLINE int alt_dev_reg (alt_dev* dev)
{
 40212fc:	defffd04 	addi	sp,sp,-12
 4021300:	dfc00215 	stw	ra,8(sp)
 4021304:	df000115 	stw	fp,4(sp)
 4021308:	df000104 	addi	fp,sp,4
 402130c:	e13fff15 	stw	r4,-4(fp)
  extern alt_llist alt_dev_list;

  return alt_dev_llist_insert ((alt_dev_llist*) dev, &alt_dev_list);
 4021310:	d1600504 	addi	r5,gp,-32748
 4021314:	e13fff17 	ldw	r4,-4(fp)
 4021318:	4022e740 	call	4022e74 <alt_dev_llist_insert>
}
 402131c:	e037883a 	mov	sp,fp
 4021320:	dfc00117 	ldw	ra,4(sp)
 4021324:	df000017 	ldw	fp,0(sp)
 4021328:	dec00204 	addi	sp,sp,8
 402132c:	f800283a 	ret

04021330 <alt_irq_init>:
 * The "base" parameter is ignored and only
 * present for backwards-compatibility.
 */

void alt_irq_init ( const void* base )
{
 4021330:	defffd04 	addi	sp,sp,-12
 4021334:	dfc00215 	stw	ra,8(sp)
 4021338:	df000115 	stw	fp,4(sp)
 402133c:	df000104 	addi	fp,sp,4
 4021340:	e13fff15 	stw	r4,-4(fp)
    ALTERA_NIOS2_GEN2_IRQ_INIT ( CPU_1, cpu_1);
 4021344:	40236d40 	call	40236d4 <altera_nios2_gen2_irq_init>
 * alt_irq_cpu_enable_interrupts() enables the CPU to start taking interrupts.
 */
static ALT_INLINE void ALT_ALWAYS_INLINE 
       alt_irq_cpu_enable_interrupts (void)
{
    NIOS2_WRITE_STATUS(NIOS2_STATUS_PIE_MSK
 4021348:	00800044 	movi	r2,1
 402134c:	1001703a 	wrctl	status,r2
    alt_irq_cpu_enable_interrupts();
}
 4021350:	0001883a 	nop
 4021354:	e037883a 	mov	sp,fp
 4021358:	dfc00117 	ldw	ra,4(sp)
 402135c:	df000017 	ldw	fp,0(sp)
 4021360:	dec00204 	addi	sp,sp,8
 4021364:	f800283a 	ret

04021368 <alt_sys_init>:
 * Initialize the non-interrupt controller devices.
 * Called after alt_irq_init().
 */

void alt_sys_init( void )
{
 4021368:	defffe04 	addi	sp,sp,-8
 402136c:	dfc00115 	stw	ra,4(sp)
 4021370:	df000015 	stw	fp,0(sp)
 4021374:	d839883a 	mov	fp,sp
    ALTERA_AVALON_JTAG_UART_INIT ( JTAG_UART_1, jtag_uart_1);
 4021378:	01800084 	movi	r6,2
 402137c:	000b883a 	mov	r5,zero
 4021380:	010100f4 	movhi	r4,1027
 4021384:	21053704 	addi	r4,r4,5340
 4021388:	40215640 	call	4021564 <altera_avalon_jtag_uart_init>
 402138c:	010100f4 	movhi	r4,1027
 4021390:	21052d04 	addi	r4,r4,5300
 4021394:	40212fc0 	call	40212fc <alt_dev_reg>
    ALTERA_AVALON_MAILBOX_SIMPLE_INIT ( MAILBOX_SIMPLE_0, mailbox_simple_0);
 4021398:	000d883a 	mov	r6,zero
 402139c:	000b883a 	mov	r5,zero
 40213a0:	010100f4 	movhi	r4,1027
 40213a4:	21094504 	addi	r4,r4,9492
 40213a8:	40221500 	call	4022150 <altera_avalon_mailbox_simple_init>
    ALTERA_AVALON_MAILBOX_SIMPLE_INIT ( MAILBOX_SIMPLE_1, mailbox_simple_1);
 40213ac:	01bfffc4 	movi	r6,-1
 40213b0:	000b883a 	mov	r5,zero
 40213b4:	010100f4 	movhi	r4,1027
 40213b8:	21095704 	addi	r4,r4,9564
 40213bc:	40221500 	call	4022150 <altera_avalon_mailbox_simple_init>
    ALTERA_AVALON_PERFORMANCE_COUNTER_INIT ( PERFORMANCE_COUNTER_1, performance_counter_1);
 40213c0:	00c00044 	movi	r3,1
 40213c4:	00810134 	movhi	r2,1028
 40213c8:	10840004 	addi	r2,r2,4096
 40213cc:	10c00035 	stwio	r3,0(r2)
    ALTERA_UP_AVALON_PARALLEL_PORT_INIT ( PARALLEL_PORT_1, parallel_port_1);
 40213d0:	010100f4 	movhi	r4,1027
 40213d4:	21096904 	addi	r4,r4,9636
 40213d8:	40212fc0 	call	40212fc <alt_dev_reg>
    ALTERA_UP_AVALON_PARALLEL_PORT_INIT ( PARALLEL_PORT_2, parallel_port_2);
 40213dc:	010100f4 	movhi	r4,1027
 40213e0:	21097404 	addi	r4,r4,9680
 40213e4:	40212fc0 	call	40212fc <alt_dev_reg>
}
 40213e8:	0001883a 	nop
 40213ec:	e037883a 	mov	sp,fp
 40213f0:	dfc00117 	ldw	ra,4(sp)
 40213f4:	df000017 	ldw	fp,0(sp)
 40213f8:	dec00204 	addi	sp,sp,8
 40213fc:	f800283a 	ret

04021400 <altera_avalon_jtag_uart_read_fd>:
 *
 */

int 
altera_avalon_jtag_uart_read_fd(alt_fd* fd, char* buffer, int space)
{
 4021400:	defffa04 	addi	sp,sp,-24
 4021404:	dfc00515 	stw	ra,20(sp)
 4021408:	df000415 	stw	fp,16(sp)
 402140c:	df000404 	addi	fp,sp,16
 4021410:	e13ffd15 	stw	r4,-12(fp)
 4021414:	e17ffe15 	stw	r5,-8(fp)
 4021418:	e1bfff15 	stw	r6,-4(fp)
    altera_avalon_jtag_uart_dev* dev = (altera_avalon_jtag_uart_dev*) fd->dev; 
 402141c:	e0bffd17 	ldw	r2,-12(fp)
 4021420:	10800017 	ldw	r2,0(r2)
 4021424:	e0bffc15 	stw	r2,-16(fp)

    return altera_avalon_jtag_uart_read(&dev->state, buffer, space,
 4021428:	e0bffc17 	ldw	r2,-16(fp)
 402142c:	10c00a04 	addi	r3,r2,40
 4021430:	e0bffd17 	ldw	r2,-12(fp)
 4021434:	10800217 	ldw	r2,8(r2)
 4021438:	100f883a 	mov	r7,r2
 402143c:	e1bfff17 	ldw	r6,-4(fp)
 4021440:	e17ffe17 	ldw	r5,-8(fp)
 4021444:	1809883a 	mov	r4,r3
 4021448:	4021a280 	call	4021a28 <altera_avalon_jtag_uart_read>
      fd->fd_flags);
}
 402144c:	e037883a 	mov	sp,fp
 4021450:	dfc00117 	ldw	ra,4(sp)
 4021454:	df000017 	ldw	fp,0(sp)
 4021458:	dec00204 	addi	sp,sp,8
 402145c:	f800283a 	ret

04021460 <altera_avalon_jtag_uart_write_fd>:

int 
altera_avalon_jtag_uart_write_fd(alt_fd* fd, const char* buffer, int space)
{
 4021460:	defffa04 	addi	sp,sp,-24
 4021464:	dfc00515 	stw	ra,20(sp)
 4021468:	df000415 	stw	fp,16(sp)
 402146c:	df000404 	addi	fp,sp,16
 4021470:	e13ffd15 	stw	r4,-12(fp)
 4021474:	e17ffe15 	stw	r5,-8(fp)
 4021478:	e1bfff15 	stw	r6,-4(fp)
    altera_avalon_jtag_uart_dev* dev = (altera_avalon_jtag_uart_dev*) fd->dev; 
 402147c:	e0bffd17 	ldw	r2,-12(fp)
 4021480:	10800017 	ldw	r2,0(r2)
 4021484:	e0bffc15 	stw	r2,-16(fp)

    return altera_avalon_jtag_uart_write(&dev->state, buffer, space,
 4021488:	e0bffc17 	ldw	r2,-16(fp)
 402148c:	10c00a04 	addi	r3,r2,40
 4021490:	e0bffd17 	ldw	r2,-12(fp)
 4021494:	10800217 	ldw	r2,8(r2)
 4021498:	100f883a 	mov	r7,r2
 402149c:	e1bfff17 	ldw	r6,-4(fp)
 40214a0:	e17ffe17 	ldw	r5,-8(fp)
 40214a4:	1809883a 	mov	r4,r3
 40214a8:	4021c440 	call	4021c44 <altera_avalon_jtag_uart_write>
      fd->fd_flags);
}
 40214ac:	e037883a 	mov	sp,fp
 40214b0:	dfc00117 	ldw	ra,4(sp)
 40214b4:	df000017 	ldw	fp,0(sp)
 40214b8:	dec00204 	addi	sp,sp,8
 40214bc:	f800283a 	ret

040214c0 <altera_avalon_jtag_uart_close_fd>:

#ifndef ALTERA_AVALON_JTAG_UART_SMALL

int 
altera_avalon_jtag_uart_close_fd(alt_fd* fd)
{
 40214c0:	defffc04 	addi	sp,sp,-16
 40214c4:	dfc00315 	stw	ra,12(sp)
 40214c8:	df000215 	stw	fp,8(sp)
 40214cc:	df000204 	addi	fp,sp,8
 40214d0:	e13fff15 	stw	r4,-4(fp)
    altera_avalon_jtag_uart_dev* dev = (altera_avalon_jtag_uart_dev*) fd->dev; 
 40214d4:	e0bfff17 	ldw	r2,-4(fp)
 40214d8:	10800017 	ldw	r2,0(r2)
 40214dc:	e0bffe15 	stw	r2,-8(fp)

    return altera_avalon_jtag_uart_close(&dev->state, fd->fd_flags);
 40214e0:	e0bffe17 	ldw	r2,-8(fp)
 40214e4:	10c00a04 	addi	r3,r2,40
 40214e8:	e0bfff17 	ldw	r2,-4(fp)
 40214ec:	10800217 	ldw	r2,8(r2)
 40214f0:	100b883a 	mov	r5,r2
 40214f4:	1809883a 	mov	r4,r3
 40214f8:	40218d00 	call	40218d0 <altera_avalon_jtag_uart_close>
}
 40214fc:	e037883a 	mov	sp,fp
 4021500:	dfc00117 	ldw	ra,4(sp)
 4021504:	df000017 	ldw	fp,0(sp)
 4021508:	dec00204 	addi	sp,sp,8
 402150c:	f800283a 	ret

04021510 <altera_avalon_jtag_uart_ioctl_fd>:

int 
altera_avalon_jtag_uart_ioctl_fd(alt_fd* fd, int req, void* arg)
{
 4021510:	defffa04 	addi	sp,sp,-24
 4021514:	dfc00515 	stw	ra,20(sp)
 4021518:	df000415 	stw	fp,16(sp)
 402151c:	df000404 	addi	fp,sp,16
 4021520:	e13ffd15 	stw	r4,-12(fp)
 4021524:	e17ffe15 	stw	r5,-8(fp)
 4021528:	e1bfff15 	stw	r6,-4(fp)
    altera_avalon_jtag_uart_dev* dev = (altera_avalon_jtag_uart_dev*) fd->dev;
 402152c:	e0bffd17 	ldw	r2,-12(fp)
 4021530:	10800017 	ldw	r2,0(r2)
 4021534:	e0bffc15 	stw	r2,-16(fp)

    return altera_avalon_jtag_uart_ioctl(&dev->state, req, arg);
 4021538:	e0bffc17 	ldw	r2,-16(fp)
 402153c:	10800a04 	addi	r2,r2,40
 4021540:	e1bfff17 	ldw	r6,-4(fp)
 4021544:	e17ffe17 	ldw	r5,-8(fp)
 4021548:	1009883a 	mov	r4,r2
 402154c:	40219380 	call	4021938 <altera_avalon_jtag_uart_ioctl>
}
 4021550:	e037883a 	mov	sp,fp
 4021554:	dfc00117 	ldw	ra,4(sp)
 4021558:	df000017 	ldw	fp,0(sp)
 402155c:	dec00204 	addi	sp,sp,8
 4021560:	f800283a 	ret

04021564 <altera_avalon_jtag_uart_init>:
 * Return 1 on sucessful IRQ register and 0 on failure.
 */

void altera_avalon_jtag_uart_init(altera_avalon_jtag_uart_state* sp, 
                                  int irq_controller_id, int irq)
{
 4021564:	defffa04 	addi	sp,sp,-24
 4021568:	dfc00515 	stw	ra,20(sp)
 402156c:	df000415 	stw	fp,16(sp)
 4021570:	df000404 	addi	fp,sp,16
 4021574:	e13ffd15 	stw	r4,-12(fp)
 4021578:	e17ffe15 	stw	r5,-8(fp)
 402157c:	e1bfff15 	stw	r6,-4(fp)
  ALT_FLAG_CREATE(&sp->events, 0);
  ALT_SEM_CREATE(&sp->read_lock, 1);
  ALT_SEM_CREATE(&sp->write_lock, 1);

  /* enable read interrupts at the device */
  sp->irq_enable = ALTERA_AVALON_JTAG_UART_CONTROL_RE_MSK;
 4021580:	e0bffd17 	ldw	r2,-12(fp)
 4021584:	00c00044 	movi	r3,1
 4021588:	10c00815 	stw	r3,32(r2)

  IOWR_ALTERA_AVALON_JTAG_UART_CONTROL(sp->base, sp->irq_enable); 
 402158c:	e0bffd17 	ldw	r2,-12(fp)
 4021590:	10800017 	ldw	r2,0(r2)
 4021594:	10800104 	addi	r2,r2,4
 4021598:	1007883a 	mov	r3,r2
 402159c:	e0bffd17 	ldw	r2,-12(fp)
 40215a0:	10800817 	ldw	r2,32(r2)
 40215a4:	18800035 	stwio	r2,0(r3)
  
  /* register the interrupt handler */
#ifdef ALT_ENHANCED_INTERRUPT_API_PRESENT
  alt_ic_isr_register(irq_controller_id, irq, altera_avalon_jtag_uart_irq, 
 40215a8:	e0bffe17 	ldw	r2,-8(fp)
 40215ac:	e0ffff17 	ldw	r3,-4(fp)
 40215b0:	d8000015 	stw	zero,0(sp)
 40215b4:	e1fffd17 	ldw	r7,-12(fp)
 40215b8:	018100b4 	movhi	r6,1026
 40215bc:	31858904 	addi	r6,r6,5668
 40215c0:	180b883a 	mov	r5,r3
 40215c4:	1009883a 	mov	r4,r2
 40215c8:	4020c8c0 	call	4020c8c <alt_ic_isr_register>
#else
  alt_irq_register(irq, sp, altera_avalon_jtag_uart_irq);
#endif  

  /* Register an alarm to go off every second to check for presence of host */
  sp->host_inactive = 0;
 40215cc:	e0bffd17 	ldw	r2,-12(fp)
 40215d0:	10000915 	stw	zero,36(r2)

  if (alt_alarm_start(&sp->alarm, alt_ticks_per_second(), 
 40215d4:	e0bffd17 	ldw	r2,-12(fp)
 40215d8:	10800204 	addi	r2,r2,8
 * Obtain the system clock rate in ticks/s. 
 */

static ALT_INLINE alt_u32 ALT_ALWAYS_INLINE alt_ticks_per_second (void)
{
  return _alt_tick_rate;
 40215dc:	d0e71317 	ldw	r3,-25524(gp)
 40215e0:	e1fffd17 	ldw	r7,-12(fp)
 40215e4:	018100b4 	movhi	r6,1026
 40215e8:	31860c04 	addi	r6,r6,6192
 40215ec:	180b883a 	mov	r5,r3
 40215f0:	1009883a 	mov	r4,r2
 40215f4:	4022bd40 	call	4022bd4 <alt_alarm_start>
 40215f8:	1000040e 	bge	r2,zero,402160c <altera_avalon_jtag_uart_init+0xa8>
    &altera_avalon_jtag_uart_timeout, sp) < 0)
  {
    /* If we can't set the alarm then record "don't know if host present" 
     * and behave as though the host is present.
     */
    sp->timeout = INT_MAX;
 40215fc:	e0fffd17 	ldw	r3,-12(fp)
 4021600:	00a00034 	movhi	r2,32768
 4021604:	10bfffc4 	addi	r2,r2,-1
 4021608:	18800115 	stw	r2,4(r3)
  }

  /* ALT_LOG - see altera_hal/HAL/inc/sys/alt_log_printf.h */ 
  ALT_LOG_JTAG_UART_ALARM_REGISTER(sp, sp->base);
}
 402160c:	0001883a 	nop
 4021610:	e037883a 	mov	sp,fp
 4021614:	dfc00117 	ldw	ra,4(sp)
 4021618:	df000017 	ldw	fp,0(sp)
 402161c:	dec00204 	addi	sp,sp,8
 4021620:	f800283a 	ret

04021624 <altera_avalon_jtag_uart_irq>:
#ifdef ALT_ENHANCED_INTERRUPT_API_PRESENT
static void altera_avalon_jtag_uart_irq(void* context)
#else
static void altera_avalon_jtag_uart_irq(void* context, alt_u32 id)
#endif
{
 4021624:	defff804 	addi	sp,sp,-32
 4021628:	df000715 	stw	fp,28(sp)
 402162c:	df000704 	addi	fp,sp,28
 4021630:	e13fff15 	stw	r4,-4(fp)
  altera_avalon_jtag_uart_state* sp = (altera_avalon_jtag_uart_state*) context;
 4021634:	e0bfff17 	ldw	r2,-4(fp)
 4021638:	e0bffb15 	stw	r2,-20(fp)
  unsigned int base = sp->base;
 402163c:	e0bffb17 	ldw	r2,-20(fp)
 4021640:	10800017 	ldw	r2,0(r2)
 4021644:	e0bffc15 	stw	r2,-16(fp)
  /* ALT_LOG - see altera_hal/HAL/inc/sys/alt_log_printf.h */ 
  ALT_LOG_JTAG_UART_ISR_FUNCTION(base, sp);

  for ( ; ; )
  {
    unsigned int control = IORD_ALTERA_AVALON_JTAG_UART_CONTROL(base);
 4021648:	e0bffc17 	ldw	r2,-16(fp)
 402164c:	10800104 	addi	r2,r2,4
 4021650:	10800037 	ldwio	r2,0(r2)
 4021654:	e0bffd15 	stw	r2,-12(fp)

    /* Return once nothing more to do */
    if ((control & (ALTERA_AVALON_JTAG_UART_CONTROL_RI_MSK | ALTERA_AVALON_JTAG_UART_CONTROL_WI_MSK)) == 0)
 4021658:	e0bffd17 	ldw	r2,-12(fp)
 402165c:	1080c00c 	andi	r2,r2,768
 4021660:	10006d26 	beq	r2,zero,4021818 <altera_avalon_jtag_uart_irq+0x1f4>
      break;

    if (control & ALTERA_AVALON_JTAG_UART_CONTROL_RI_MSK)
 4021664:	e0bffd17 	ldw	r2,-12(fp)
 4021668:	1080400c 	andi	r2,r2,256
 402166c:	10003526 	beq	r2,zero,4021744 <altera_avalon_jtag_uart_irq+0x120>
    {
      /* process a read irq.  Start by assuming that there is data in the
       * receive FIFO (otherwise why would we have been interrupted?)
       */
      unsigned int data = 1 << ALTERA_AVALON_JTAG_UART_DATA_RAVAIL_OFST;
 4021670:	00800074 	movhi	r2,1
 4021674:	e0bff915 	stw	r2,-28(fp)
      for ( ; ; )
      {
        /* Check whether there is space in the buffer.  If not then we must not
         * read any characters from the buffer as they will be lost.
         */
        unsigned int next = (sp->rx_in + 1) % ALTERA_AVALON_JTAG_UART_BUF_LEN;
 4021678:	e0bffb17 	ldw	r2,-20(fp)
 402167c:	10800a17 	ldw	r2,40(r2)
 4021680:	10800044 	addi	r2,r2,1
 4021684:	1081ffcc 	andi	r2,r2,2047
 4021688:	e0bffe15 	stw	r2,-8(fp)
        if (next == sp->rx_out)
 402168c:	e0bffb17 	ldw	r2,-20(fp)
 4021690:	10c00b17 	ldw	r3,44(r2)
 4021694:	e0bffe17 	ldw	r2,-8(fp)
 4021698:	18801526 	beq	r3,r2,40216f0 <altera_avalon_jtag_uart_irq+0xcc>
          break;

        /* Try to remove a character from the FIFO and find out whether there
         * are any more characters remaining.
         */
        data = IORD_ALTERA_AVALON_JTAG_UART_DATA(base);
 402169c:	e0bffc17 	ldw	r2,-16(fp)
 40216a0:	10800037 	ldwio	r2,0(r2)
 40216a4:	e0bff915 	stw	r2,-28(fp)
        
        if ((data & ALTERA_AVALON_JTAG_UART_DATA_RVALID_MSK) == 0)
 40216a8:	e0bff917 	ldw	r2,-28(fp)
 40216ac:	10a0000c 	andi	r2,r2,32768
 40216b0:	10001126 	beq	r2,zero,40216f8 <altera_avalon_jtag_uart_irq+0xd4>
          break;

        sp->rx_buf[sp->rx_in] = (data & ALTERA_AVALON_JTAG_UART_DATA_DATA_MSK) >> ALTERA_AVALON_JTAG_UART_DATA_DATA_OFST;
 40216b4:	e0bffb17 	ldw	r2,-20(fp)
 40216b8:	10800a17 	ldw	r2,40(r2)
 40216bc:	e0fff917 	ldw	r3,-28(fp)
 40216c0:	1809883a 	mov	r4,r3
 40216c4:	e0fffb17 	ldw	r3,-20(fp)
 40216c8:	1885883a 	add	r2,r3,r2
 40216cc:	10800e04 	addi	r2,r2,56
 40216d0:	11000005 	stb	r4,0(r2)
        sp->rx_in = (sp->rx_in + 1) % ALTERA_AVALON_JTAG_UART_BUF_LEN;
 40216d4:	e0bffb17 	ldw	r2,-20(fp)
 40216d8:	10800a17 	ldw	r2,40(r2)
 40216dc:	10800044 	addi	r2,r2,1
 40216e0:	10c1ffcc 	andi	r3,r2,2047
 40216e4:	e0bffb17 	ldw	r2,-20(fp)
 40216e8:	10c00a15 	stw	r3,40(r2)

        /* Post an event to notify jtag_uart_read that a character has been read */
        ALT_FLAG_POST (sp->events, ALT_JTAG_UART_READ_RDY, OS_FLAG_SET);
      }
 40216ec:	003fe206 	br	4021678 <__alt_data_end+0xfffe1678>
        /* Check whether there is space in the buffer.  If not then we must not
         * read any characters from the buffer as they will be lost.
         */
        unsigned int next = (sp->rx_in + 1) % ALTERA_AVALON_JTAG_UART_BUF_LEN;
        if (next == sp->rx_out)
          break;
 40216f0:	0001883a 	nop
 40216f4:	00000106 	br	40216fc <altera_avalon_jtag_uart_irq+0xd8>
         * are any more characters remaining.
         */
        data = IORD_ALTERA_AVALON_JTAG_UART_DATA(base);
        
        if ((data & ALTERA_AVALON_JTAG_UART_DATA_RVALID_MSK) == 0)
          break;
 40216f8:	0001883a 	nop

        /* Post an event to notify jtag_uart_read that a character has been read */
        ALT_FLAG_POST (sp->events, ALT_JTAG_UART_READ_RDY, OS_FLAG_SET);
      }

      if (data & ALTERA_AVALON_JTAG_UART_DATA_RAVAIL_MSK)
 40216fc:	e0bff917 	ldw	r2,-28(fp)
 4021700:	10bfffec 	andhi	r2,r2,65535
 4021704:	10000f26 	beq	r2,zero,4021744 <altera_avalon_jtag_uart_irq+0x120>
      {
        /* If there is still data available here then the buffer is full 
         * so turn off receive interrupts until some space becomes available.
         */
        sp->irq_enable &= ~ALTERA_AVALON_JTAG_UART_CONTROL_RE_MSK;
 4021708:	e0bffb17 	ldw	r2,-20(fp)
 402170c:	10c00817 	ldw	r3,32(r2)
 4021710:	00bfff84 	movi	r2,-2
 4021714:	1886703a 	and	r3,r3,r2
 4021718:	e0bffb17 	ldw	r2,-20(fp)
 402171c:	10c00815 	stw	r3,32(r2)
        IOWR_ALTERA_AVALON_JTAG_UART_CONTROL(base, sp->irq_enable);
 4021720:	e0bffc17 	ldw	r2,-16(fp)
 4021724:	10800104 	addi	r2,r2,4
 4021728:	1007883a 	mov	r3,r2
 402172c:	e0bffb17 	ldw	r2,-20(fp)
 4021730:	10800817 	ldw	r2,32(r2)
 4021734:	18800035 	stwio	r2,0(r3)
        
        /* Dummy read to ensure IRQ is cleared prior to ISR completion */
        IORD_ALTERA_AVALON_JTAG_UART_CONTROL(base);
 4021738:	e0bffc17 	ldw	r2,-16(fp)
 402173c:	10800104 	addi	r2,r2,4
 4021740:	10800037 	ldwio	r2,0(r2)
      }
    }

    if (control & ALTERA_AVALON_JTAG_UART_CONTROL_WI_MSK)
 4021744:	e0bffd17 	ldw	r2,-12(fp)
 4021748:	1080800c 	andi	r2,r2,512
 402174c:	103fbe26 	beq	r2,zero,4021648 <__alt_data_end+0xfffe1648>
    {
      /* process a write irq */
      unsigned int space = (control & ALTERA_AVALON_JTAG_UART_CONTROL_WSPACE_MSK) >> ALTERA_AVALON_JTAG_UART_CONTROL_WSPACE_OFST;
 4021750:	e0bffd17 	ldw	r2,-12(fp)
 4021754:	1004d43a 	srli	r2,r2,16
 4021758:	e0bffa15 	stw	r2,-24(fp)

      while (space > 0 && sp->tx_out != sp->tx_in)
 402175c:	00001406 	br	40217b0 <altera_avalon_jtag_uart_irq+0x18c>
      {
        IOWR_ALTERA_AVALON_JTAG_UART_DATA(base, sp->tx_buf[sp->tx_out]);
 4021760:	e0bffc17 	ldw	r2,-16(fp)
 4021764:	e0fffb17 	ldw	r3,-20(fp)
 4021768:	18c00d17 	ldw	r3,52(r3)
 402176c:	e13ffb17 	ldw	r4,-20(fp)
 4021770:	20c7883a 	add	r3,r4,r3
 4021774:	18c20e04 	addi	r3,r3,2104
 4021778:	18c00003 	ldbu	r3,0(r3)
 402177c:	18c03fcc 	andi	r3,r3,255
 4021780:	18c0201c 	xori	r3,r3,128
 4021784:	18ffe004 	addi	r3,r3,-128
 4021788:	10c00035 	stwio	r3,0(r2)

        sp->tx_out = (sp->tx_out + 1) % ALTERA_AVALON_JTAG_UART_BUF_LEN;
 402178c:	e0bffb17 	ldw	r2,-20(fp)
 4021790:	10800d17 	ldw	r2,52(r2)
 4021794:	10800044 	addi	r2,r2,1
 4021798:	10c1ffcc 	andi	r3,r2,2047
 402179c:	e0bffb17 	ldw	r2,-20(fp)
 40217a0:	10c00d15 	stw	r3,52(r2)

        /* Post an event to notify jtag_uart_write that a character has been written */
        ALT_FLAG_POST (sp->events, ALT_JTAG_UART_WRITE_RDY, OS_FLAG_SET);

        space--;
 40217a4:	e0bffa17 	ldw	r2,-24(fp)
 40217a8:	10bfffc4 	addi	r2,r2,-1
 40217ac:	e0bffa15 	stw	r2,-24(fp)
    if (control & ALTERA_AVALON_JTAG_UART_CONTROL_WI_MSK)
    {
      /* process a write irq */
      unsigned int space = (control & ALTERA_AVALON_JTAG_UART_CONTROL_WSPACE_MSK) >> ALTERA_AVALON_JTAG_UART_CONTROL_WSPACE_OFST;

      while (space > 0 && sp->tx_out != sp->tx_in)
 40217b0:	e0bffa17 	ldw	r2,-24(fp)
 40217b4:	10000526 	beq	r2,zero,40217cc <altera_avalon_jtag_uart_irq+0x1a8>
 40217b8:	e0bffb17 	ldw	r2,-20(fp)
 40217bc:	10c00d17 	ldw	r3,52(r2)
 40217c0:	e0bffb17 	ldw	r2,-20(fp)
 40217c4:	10800c17 	ldw	r2,48(r2)
 40217c8:	18bfe51e 	bne	r3,r2,4021760 <__alt_data_end+0xfffe1760>
        ALT_FLAG_POST (sp->events, ALT_JTAG_UART_WRITE_RDY, OS_FLAG_SET);

        space--;
      }

      if (space > 0)
 40217cc:	e0bffa17 	ldw	r2,-24(fp)
 40217d0:	103f9d26 	beq	r2,zero,4021648 <__alt_data_end+0xfffe1648>
      {
        /* If we don't have any more data available then turn off the TX interrupt */
        sp->irq_enable &= ~ALTERA_AVALON_JTAG_UART_CONTROL_WE_MSK;
 40217d4:	e0bffb17 	ldw	r2,-20(fp)
 40217d8:	10c00817 	ldw	r3,32(r2)
 40217dc:	00bfff44 	movi	r2,-3
 40217e0:	1886703a 	and	r3,r3,r2
 40217e4:	e0bffb17 	ldw	r2,-20(fp)
 40217e8:	10c00815 	stw	r3,32(r2)
        IOWR_ALTERA_AVALON_JTAG_UART_CONTROL(sp->base, sp->irq_enable);
 40217ec:	e0bffb17 	ldw	r2,-20(fp)
 40217f0:	10800017 	ldw	r2,0(r2)
 40217f4:	10800104 	addi	r2,r2,4
 40217f8:	1007883a 	mov	r3,r2
 40217fc:	e0bffb17 	ldw	r2,-20(fp)
 4021800:	10800817 	ldw	r2,32(r2)
 4021804:	18800035 	stwio	r2,0(r3)
        
        /* Dummy read to ensure IRQ is cleared prior to ISR completion */
        IORD_ALTERA_AVALON_JTAG_UART_CONTROL(base);
 4021808:	e0bffc17 	ldw	r2,-16(fp)
 402180c:	10800104 	addi	r2,r2,4
 4021810:	10800037 	ldwio	r2,0(r2)
      }
    }
  }
 4021814:	003f8c06 	br	4021648 <__alt_data_end+0xfffe1648>
  {
    unsigned int control = IORD_ALTERA_AVALON_JTAG_UART_CONTROL(base);

    /* Return once nothing more to do */
    if ((control & (ALTERA_AVALON_JTAG_UART_CONTROL_RI_MSK | ALTERA_AVALON_JTAG_UART_CONTROL_WI_MSK)) == 0)
      break;
 4021818:	0001883a 	nop
        /* Dummy read to ensure IRQ is cleared prior to ISR completion */
        IORD_ALTERA_AVALON_JTAG_UART_CONTROL(base);
      }
    }
  }
}
 402181c:	0001883a 	nop
 4021820:	e037883a 	mov	sp,fp
 4021824:	df000017 	ldw	fp,0(sp)
 4021828:	dec00104 	addi	sp,sp,4
 402182c:	f800283a 	ret

04021830 <altera_avalon_jtag_uart_timeout>:
 * Timeout routine is called every second
 */

static alt_u32 
altera_avalon_jtag_uart_timeout(void* context) 
{
 4021830:	defff804 	addi	sp,sp,-32
 4021834:	df000715 	stw	fp,28(sp)
 4021838:	df000704 	addi	fp,sp,28
 402183c:	e13ffb15 	stw	r4,-20(fp)
  altera_avalon_jtag_uart_state* sp = (altera_avalon_jtag_uart_state *) context;
 4021840:	e0bffb17 	ldw	r2,-20(fp)
 4021844:	e0bff915 	stw	r2,-28(fp)

  unsigned int control = IORD_ALTERA_AVALON_JTAG_UART_CONTROL(sp->base);
 4021848:	e0bff917 	ldw	r2,-28(fp)
 402184c:	10800017 	ldw	r2,0(r2)
 4021850:	10800104 	addi	r2,r2,4
 4021854:	10800037 	ldwio	r2,0(r2)
 4021858:	e0bffa15 	stw	r2,-24(fp)

  if (control & ALTERA_AVALON_JTAG_UART_CONTROL_AC_MSK)
 402185c:	e0bffa17 	ldw	r2,-24(fp)
 4021860:	1081000c 	andi	r2,r2,1024
 4021864:	10000b26 	beq	r2,zero,4021894 <altera_avalon_jtag_uart_timeout+0x64>
  {
    IOWR_ALTERA_AVALON_JTAG_UART_CONTROL(sp->base, sp->irq_enable | ALTERA_AVALON_JTAG_UART_CONTROL_AC_MSK);
 4021868:	e0bff917 	ldw	r2,-28(fp)
 402186c:	10800017 	ldw	r2,0(r2)
 4021870:	10800104 	addi	r2,r2,4
 4021874:	1007883a 	mov	r3,r2
 4021878:	e0bff917 	ldw	r2,-28(fp)
 402187c:	10800817 	ldw	r2,32(r2)
 4021880:	10810014 	ori	r2,r2,1024
 4021884:	18800035 	stwio	r2,0(r3)
    sp->host_inactive = 0;
 4021888:	e0bff917 	ldw	r2,-28(fp)
 402188c:	10000915 	stw	zero,36(r2)
 4021890:	00000a06 	br	40218bc <altera_avalon_jtag_uart_timeout+0x8c>
  }
  else if (sp->host_inactive < INT_MAX - 2) {
 4021894:	e0bff917 	ldw	r2,-28(fp)
 4021898:	10c00917 	ldw	r3,36(r2)
 402189c:	00a00034 	movhi	r2,32768
 40218a0:	10bfff04 	addi	r2,r2,-4
 40218a4:	10c00536 	bltu	r2,r3,40218bc <altera_avalon_jtag_uart_timeout+0x8c>
    sp->host_inactive++;
 40218a8:	e0bff917 	ldw	r2,-28(fp)
 40218ac:	10800917 	ldw	r2,36(r2)
 40218b0:	10c00044 	addi	r3,r2,1
 40218b4:	e0bff917 	ldw	r2,-28(fp)
 40218b8:	10c00915 	stw	r3,36(r2)
 40218bc:	d0a71317 	ldw	r2,-25524(gp)
      ALT_FLAG_POST (sp->events, ALT_JTAG_UART_TIMEOUT, OS_FLAG_SET);
    }
  }

  return alt_ticks_per_second();
}
 40218c0:	e037883a 	mov	sp,fp
 40218c4:	df000017 	ldw	fp,0(sp)
 40218c8:	dec00104 	addi	sp,sp,4
 40218cc:	f800283a 	ret

040218d0 <altera_avalon_jtag_uart_close>:
 * The close routine is not implemented for the small driver; instead it will
 * map to null. This is because the small driver simply waits while characters
 * are transmitted; there is no interrupt-serviced buffer to empty 
 */
int altera_avalon_jtag_uart_close(altera_avalon_jtag_uart_state* sp, int flags)
{
 40218d0:	defffd04 	addi	sp,sp,-12
 40218d4:	df000215 	stw	fp,8(sp)
 40218d8:	df000204 	addi	fp,sp,8
 40218dc:	e13ffe15 	stw	r4,-8(fp)
 40218e0:	e17fff15 	stw	r5,-4(fp)
  /* 
   * Wait for all transmit data to be emptied by the JTAG UART ISR, or
   * for a host-inactivity timeout, in which case transmit data will be lost
   */
  while ( (sp->tx_out != sp->tx_in) && (sp->host_inactive < sp->timeout) ) {
 40218e4:	00000506 	br	40218fc <altera_avalon_jtag_uart_close+0x2c>
    if (flags & O_NONBLOCK) {
 40218e8:	e0bfff17 	ldw	r2,-4(fp)
 40218ec:	1090000c 	andi	r2,r2,16384
 40218f0:	10000226 	beq	r2,zero,40218fc <altera_avalon_jtag_uart_close+0x2c>
      return -EWOULDBLOCK; 
 40218f4:	00bffd44 	movi	r2,-11
 40218f8:	00000b06 	br	4021928 <altera_avalon_jtag_uart_close+0x58>
{
  /* 
   * Wait for all transmit data to be emptied by the JTAG UART ISR, or
   * for a host-inactivity timeout, in which case transmit data will be lost
   */
  while ( (sp->tx_out != sp->tx_in) && (sp->host_inactive < sp->timeout) ) {
 40218fc:	e0bffe17 	ldw	r2,-8(fp)
 4021900:	10c00d17 	ldw	r3,52(r2)
 4021904:	e0bffe17 	ldw	r2,-8(fp)
 4021908:	10800c17 	ldw	r2,48(r2)
 402190c:	18800526 	beq	r3,r2,4021924 <altera_avalon_jtag_uart_close+0x54>
 4021910:	e0bffe17 	ldw	r2,-8(fp)
 4021914:	10c00917 	ldw	r3,36(r2)
 4021918:	e0bffe17 	ldw	r2,-8(fp)
 402191c:	10800117 	ldw	r2,4(r2)
 4021920:	18bff136 	bltu	r3,r2,40218e8 <__alt_data_end+0xfffe18e8>
    if (flags & O_NONBLOCK) {
      return -EWOULDBLOCK; 
    }
  }

  return 0;
 4021924:	0005883a 	mov	r2,zero
}
 4021928:	e037883a 	mov	sp,fp
 402192c:	df000017 	ldw	fp,0(sp)
 4021930:	dec00104 	addi	sp,sp,4
 4021934:	f800283a 	ret

04021938 <altera_avalon_jtag_uart_ioctl>:
/* ----------------------------------------------------------- */

int 
altera_avalon_jtag_uart_ioctl(altera_avalon_jtag_uart_state* sp, int req,
  void* arg)
{
 4021938:	defffa04 	addi	sp,sp,-24
 402193c:	df000515 	stw	fp,20(sp)
 4021940:	df000504 	addi	fp,sp,20
 4021944:	e13ffd15 	stw	r4,-12(fp)
 4021948:	e17ffe15 	stw	r5,-8(fp)
 402194c:	e1bfff15 	stw	r6,-4(fp)
  int rc = -ENOTTY;
 4021950:	00bff9c4 	movi	r2,-25
 4021954:	e0bffb15 	stw	r2,-20(fp)

  switch (req)
 4021958:	e0bffe17 	ldw	r2,-8(fp)
 402195c:	10da8060 	cmpeqi	r3,r2,27137
 4021960:	1800031e 	bne	r3,zero,4021970 <altera_avalon_jtag_uart_ioctl+0x38>
 4021964:	109a80a0 	cmpeqi	r2,r2,27138
 4021968:	1000181e 	bne	r2,zero,40219cc <altera_avalon_jtag_uart_ioctl+0x94>
      rc = 0;
    }
    break;

  default:
    break;
 402196c:	00002906 	br	4021a14 <altera_avalon_jtag_uart_ioctl+0xdc>

  switch (req)
  {
  case TIOCSTIMEOUT:
    /* Set the time to wait until assuming host is not connected */
    if (sp->timeout != INT_MAX)
 4021970:	e0bffd17 	ldw	r2,-12(fp)
 4021974:	10c00117 	ldw	r3,4(r2)
 4021978:	00a00034 	movhi	r2,32768
 402197c:	10bfffc4 	addi	r2,r2,-1
 4021980:	18802126 	beq	r3,r2,4021a08 <altera_avalon_jtag_uart_ioctl+0xd0>
    {
      int timeout = *((int *)arg);
 4021984:	e0bfff17 	ldw	r2,-4(fp)
 4021988:	10800017 	ldw	r2,0(r2)
 402198c:	e0bffc15 	stw	r2,-16(fp)
      sp->timeout = (timeout >= 2 && timeout < INT_MAX) ? timeout : INT_MAX - 1;
 4021990:	e0bffc17 	ldw	r2,-16(fp)
 4021994:	10800090 	cmplti	r2,r2,2
 4021998:	1000061e 	bne	r2,zero,40219b4 <altera_avalon_jtag_uart_ioctl+0x7c>
 402199c:	e0fffc17 	ldw	r3,-16(fp)
 40219a0:	00a00034 	movhi	r2,32768
 40219a4:	10bfffc4 	addi	r2,r2,-1
 40219a8:	18800226 	beq	r3,r2,40219b4 <altera_avalon_jtag_uart_ioctl+0x7c>
 40219ac:	e0bffc17 	ldw	r2,-16(fp)
 40219b0:	00000206 	br	40219bc <altera_avalon_jtag_uart_ioctl+0x84>
 40219b4:	00a00034 	movhi	r2,32768
 40219b8:	10bfff84 	addi	r2,r2,-2
 40219bc:	e0fffd17 	ldw	r3,-12(fp)
 40219c0:	18800115 	stw	r2,4(r3)
      rc = 0;
 40219c4:	e03ffb15 	stw	zero,-20(fp)
    }
    break;
 40219c8:	00000f06 	br	4021a08 <altera_avalon_jtag_uart_ioctl+0xd0>

  case TIOCGCONNECTED:
    /* Find out whether host is connected */
    if (sp->timeout != INT_MAX)
 40219cc:	e0bffd17 	ldw	r2,-12(fp)
 40219d0:	10c00117 	ldw	r3,4(r2)
 40219d4:	00a00034 	movhi	r2,32768
 40219d8:	10bfffc4 	addi	r2,r2,-1
 40219dc:	18800c26 	beq	r3,r2,4021a10 <altera_avalon_jtag_uart_ioctl+0xd8>
    {
      *((int *)arg) = (sp->host_inactive < sp->timeout) ? 1 : 0;
 40219e0:	e0bffd17 	ldw	r2,-12(fp)
 40219e4:	10c00917 	ldw	r3,36(r2)
 40219e8:	e0bffd17 	ldw	r2,-12(fp)
 40219ec:	10800117 	ldw	r2,4(r2)
 40219f0:	1885803a 	cmpltu	r2,r3,r2
 40219f4:	10c03fcc 	andi	r3,r2,255
 40219f8:	e0bfff17 	ldw	r2,-4(fp)
 40219fc:	10c00015 	stw	r3,0(r2)
      rc = 0;
 4021a00:	e03ffb15 	stw	zero,-20(fp)
    }
    break;
 4021a04:	00000206 	br	4021a10 <altera_avalon_jtag_uart_ioctl+0xd8>
    {
      int timeout = *((int *)arg);
      sp->timeout = (timeout >= 2 && timeout < INT_MAX) ? timeout : INT_MAX - 1;
      rc = 0;
    }
    break;
 4021a08:	0001883a 	nop
 4021a0c:	00000106 	br	4021a14 <altera_avalon_jtag_uart_ioctl+0xdc>
    if (sp->timeout != INT_MAX)
    {
      *((int *)arg) = (sp->host_inactive < sp->timeout) ? 1 : 0;
      rc = 0;
    }
    break;
 4021a10:	0001883a 	nop

  default:
    break;
  }

  return rc;
 4021a14:	e0bffb17 	ldw	r2,-20(fp)
}
 4021a18:	e037883a 	mov	sp,fp
 4021a1c:	df000017 	ldw	fp,0(sp)
 4021a20:	dec00104 	addi	sp,sp,4
 4021a24:	f800283a 	ret

04021a28 <altera_avalon_jtag_uart_read>:
/* ----------------------------------------------------------- */

int 
altera_avalon_jtag_uart_read(altera_avalon_jtag_uart_state* sp, 
  char * buffer, int space, int flags)
{
 4021a28:	defff304 	addi	sp,sp,-52
 4021a2c:	dfc00c15 	stw	ra,48(sp)
 4021a30:	df000b15 	stw	fp,44(sp)
 4021a34:	df000b04 	addi	fp,sp,44
 4021a38:	e13ffc15 	stw	r4,-16(fp)
 4021a3c:	e17ffd15 	stw	r5,-12(fp)
 4021a40:	e1bffe15 	stw	r6,-8(fp)
 4021a44:	e1ffff15 	stw	r7,-4(fp)
  char * ptr = buffer;
 4021a48:	e0bffd17 	ldw	r2,-12(fp)
 4021a4c:	e0bff515 	stw	r2,-44(fp)
   * When running in a multi threaded environment, obtain the "read_lock"
   * semaphore. This ensures that reading from the device is thread-safe.
   */
  ALT_SEM_PEND (sp->read_lock, 0);

  while (space > 0)
 4021a50:	00004706 	br	4021b70 <altera_avalon_jtag_uart_read+0x148>
    unsigned int in, out;

    /* Read as much data as possible */
    do
    {
      in  = sp->rx_in;
 4021a54:	e0bffc17 	ldw	r2,-16(fp)
 4021a58:	10800a17 	ldw	r2,40(r2)
 4021a5c:	e0bff715 	stw	r2,-36(fp)
      out = sp->rx_out;
 4021a60:	e0bffc17 	ldw	r2,-16(fp)
 4021a64:	10800b17 	ldw	r2,44(r2)
 4021a68:	e0bff815 	stw	r2,-32(fp)

      if (in >= out)
 4021a6c:	e0fff717 	ldw	r3,-36(fp)
 4021a70:	e0bff817 	ldw	r2,-32(fp)
 4021a74:	18800536 	bltu	r3,r2,4021a8c <altera_avalon_jtag_uart_read+0x64>
        n = in - out;
 4021a78:	e0fff717 	ldw	r3,-36(fp)
 4021a7c:	e0bff817 	ldw	r2,-32(fp)
 4021a80:	1885c83a 	sub	r2,r3,r2
 4021a84:	e0bff615 	stw	r2,-40(fp)
 4021a88:	00000406 	br	4021a9c <altera_avalon_jtag_uart_read+0x74>
      else
        n = ALTERA_AVALON_JTAG_UART_BUF_LEN - out;
 4021a8c:	00c20004 	movi	r3,2048
 4021a90:	e0bff817 	ldw	r2,-32(fp)
 4021a94:	1885c83a 	sub	r2,r3,r2
 4021a98:	e0bff615 	stw	r2,-40(fp)

      if (n == 0)
 4021a9c:	e0bff617 	ldw	r2,-40(fp)
 4021aa0:	10001e26 	beq	r2,zero,4021b1c <altera_avalon_jtag_uart_read+0xf4>
        break; /* No more data available */

      if (n > space)
 4021aa4:	e0fffe17 	ldw	r3,-8(fp)
 4021aa8:	e0bff617 	ldw	r2,-40(fp)
 4021aac:	1880022e 	bgeu	r3,r2,4021ab8 <altera_avalon_jtag_uart_read+0x90>
        n = space;
 4021ab0:	e0bffe17 	ldw	r2,-8(fp)
 4021ab4:	e0bff615 	stw	r2,-40(fp)

      memcpy(ptr, sp->rx_buf + out, n);
 4021ab8:	e0bffc17 	ldw	r2,-16(fp)
 4021abc:	10c00e04 	addi	r3,r2,56
 4021ac0:	e0bff817 	ldw	r2,-32(fp)
 4021ac4:	1885883a 	add	r2,r3,r2
 4021ac8:	e1bff617 	ldw	r6,-40(fp)
 4021acc:	100b883a 	mov	r5,r2
 4021ad0:	e13ff517 	ldw	r4,-44(fp)
 4021ad4:	40239fc0 	call	40239fc <memcpy>
      ptr   += n;
 4021ad8:	e0fff517 	ldw	r3,-44(fp)
 4021adc:	e0bff617 	ldw	r2,-40(fp)
 4021ae0:	1885883a 	add	r2,r3,r2
 4021ae4:	e0bff515 	stw	r2,-44(fp)
      space -= n;
 4021ae8:	e0fffe17 	ldw	r3,-8(fp)
 4021aec:	e0bff617 	ldw	r2,-40(fp)
 4021af0:	1885c83a 	sub	r2,r3,r2
 4021af4:	e0bffe15 	stw	r2,-8(fp)

      sp->rx_out = (out + n) % ALTERA_AVALON_JTAG_UART_BUF_LEN;
 4021af8:	e0fff817 	ldw	r3,-32(fp)
 4021afc:	e0bff617 	ldw	r2,-40(fp)
 4021b00:	1885883a 	add	r2,r3,r2
 4021b04:	10c1ffcc 	andi	r3,r2,2047
 4021b08:	e0bffc17 	ldw	r2,-16(fp)
 4021b0c:	10c00b15 	stw	r3,44(r2)
    }
    while (space > 0);
 4021b10:	e0bffe17 	ldw	r2,-8(fp)
 4021b14:	00bfcf16 	blt	zero,r2,4021a54 <__alt_data_end+0xfffe1a54>
 4021b18:	00000106 	br	4021b20 <altera_avalon_jtag_uart_read+0xf8>
        n = in - out;
      else
        n = ALTERA_AVALON_JTAG_UART_BUF_LEN - out;

      if (n == 0)
        break; /* No more data available */
 4021b1c:	0001883a 	nop
      sp->rx_out = (out + n) % ALTERA_AVALON_JTAG_UART_BUF_LEN;
    }
    while (space > 0);

    /* If we read any data then return it */
    if (ptr != buffer)
 4021b20:	e0fff517 	ldw	r3,-44(fp)
 4021b24:	e0bffd17 	ldw	r2,-12(fp)
 4021b28:	1880141e 	bne	r3,r2,4021b7c <altera_avalon_jtag_uart_read+0x154>
      break;

    /* If in non-blocking mode then return error */
    if (flags & O_NONBLOCK)
 4021b2c:	e0bfff17 	ldw	r2,-4(fp)
 4021b30:	1090000c 	andi	r2,r2,16384
 4021b34:	1000131e 	bne	r2,zero,4021b84 <altera_avalon_jtag_uart_read+0x15c>
      while (in == sp->rx_in && sp->host_inactive < sp->timeout)
        ;
    }
#else
    /* No OS: Always spin */
    while (in == sp->rx_in && sp->host_inactive < sp->timeout)
 4021b38:	0001883a 	nop
 4021b3c:	e0bffc17 	ldw	r2,-16(fp)
 4021b40:	10c00a17 	ldw	r3,40(r2)
 4021b44:	e0bff717 	ldw	r2,-36(fp)
 4021b48:	1880051e 	bne	r3,r2,4021b60 <altera_avalon_jtag_uart_read+0x138>
 4021b4c:	e0bffc17 	ldw	r2,-16(fp)
 4021b50:	10c00917 	ldw	r3,36(r2)
 4021b54:	e0bffc17 	ldw	r2,-16(fp)
 4021b58:	10800117 	ldw	r2,4(r2)
 4021b5c:	18bff736 	bltu	r3,r2,4021b3c <__alt_data_end+0xfffe1b3c>
      ;
#endif /* __ucosii__ */

    if (in == sp->rx_in)
 4021b60:	e0bffc17 	ldw	r2,-16(fp)
 4021b64:	10c00a17 	ldw	r3,40(r2)
 4021b68:	e0bff717 	ldw	r2,-36(fp)
 4021b6c:	18800726 	beq	r3,r2,4021b8c <altera_avalon_jtag_uart_read+0x164>
   * When running in a multi threaded environment, obtain the "read_lock"
   * semaphore. This ensures that reading from the device is thread-safe.
   */
  ALT_SEM_PEND (sp->read_lock, 0);

  while (space > 0)
 4021b70:	e0bffe17 	ldw	r2,-8(fp)
 4021b74:	00bfb716 	blt	zero,r2,4021a54 <__alt_data_end+0xfffe1a54>
 4021b78:	00000506 	br	4021b90 <altera_avalon_jtag_uart_read+0x168>
    }
    while (space > 0);

    /* If we read any data then return it */
    if (ptr != buffer)
      break;
 4021b7c:	0001883a 	nop
 4021b80:	00000306 	br	4021b90 <altera_avalon_jtag_uart_read+0x168>

    /* If in non-blocking mode then return error */
    if (flags & O_NONBLOCK)
      break;
 4021b84:	0001883a 	nop
 4021b88:	00000106 	br	4021b90 <altera_avalon_jtag_uart_read+0x168>
    while (in == sp->rx_in && sp->host_inactive < sp->timeout)
      ;
#endif /* __ucosii__ */

    if (in == sp->rx_in)
      break;
 4021b8c:	0001883a 	nop
   * semaphore so that other threads can access the buffer.
   */

  ALT_SEM_POST (sp->read_lock);

  if (ptr != buffer)
 4021b90:	e0fff517 	ldw	r3,-44(fp)
 4021b94:	e0bffd17 	ldw	r2,-12(fp)
 4021b98:	18801826 	beq	r3,r2,4021bfc <altera_avalon_jtag_uart_read+0x1d4>
static ALT_INLINE alt_irq_context ALT_ALWAYS_INLINE 
       alt_irq_disable_all (void)
{
  alt_irq_context context;

  NIOS2_READ_STATUS (context);
 4021b9c:	0005303a 	rdctl	r2,status
 4021ba0:	e0bffb15 	stw	r2,-20(fp)

  NIOS2_WRITE_STATUS (context & ~NIOS2_STATUS_PIE_MSK);
 4021ba4:	e0fffb17 	ldw	r3,-20(fp)
 4021ba8:	00bfff84 	movi	r2,-2
 4021bac:	1884703a 	and	r2,r3,r2
 4021bb0:	1001703a 	wrctl	status,r2
  
  return context;
 4021bb4:	e0bffb17 	ldw	r2,-20(fp)
  {
    /* If we read any data then there is space in the buffer so enable interrupts */
    context = alt_irq_disable_all();
 4021bb8:	e0bffa15 	stw	r2,-24(fp)
    sp->irq_enable |= ALTERA_AVALON_JTAG_UART_CONTROL_RE_MSK;
 4021bbc:	e0bffc17 	ldw	r2,-16(fp)
 4021bc0:	10800817 	ldw	r2,32(r2)
 4021bc4:	10c00054 	ori	r3,r2,1
 4021bc8:	e0bffc17 	ldw	r2,-16(fp)
 4021bcc:	10c00815 	stw	r3,32(r2)
    IOWR_ALTERA_AVALON_JTAG_UART_CONTROL(sp->base, sp->irq_enable);
 4021bd0:	e0bffc17 	ldw	r2,-16(fp)
 4021bd4:	10800017 	ldw	r2,0(r2)
 4021bd8:	10800104 	addi	r2,r2,4
 4021bdc:	1007883a 	mov	r3,r2
 4021be0:	e0bffc17 	ldw	r2,-16(fp)
 4021be4:	10800817 	ldw	r2,32(r2)
 4021be8:	18800035 	stwio	r2,0(r3)
 4021bec:	e0bffa17 	ldw	r2,-24(fp)
 4021bf0:	e0bff915 	stw	r2,-28(fp)
  status &= ~NIOS2_STATUS_PIE_MSK;
  status |= (context & NIOS2_STATUS_PIE_MSK);
  
  NIOS2_WRITE_STATUS (status);
#else
  NIOS2_WRITE_STATUS (context);
 4021bf4:	e0bff917 	ldw	r2,-28(fp)
 4021bf8:	1001703a 	wrctl	status,r2
    alt_irq_enable_all(context);
  }

  if (ptr != buffer)
 4021bfc:	e0fff517 	ldw	r3,-44(fp)
 4021c00:	e0bffd17 	ldw	r2,-12(fp)
 4021c04:	18800426 	beq	r3,r2,4021c18 <altera_avalon_jtag_uart_read+0x1f0>
    return ptr - buffer;
 4021c08:	e0fff517 	ldw	r3,-44(fp)
 4021c0c:	e0bffd17 	ldw	r2,-12(fp)
 4021c10:	1885c83a 	sub	r2,r3,r2
 4021c14:	00000606 	br	4021c30 <altera_avalon_jtag_uart_read+0x208>
  else if (flags & O_NONBLOCK)
 4021c18:	e0bfff17 	ldw	r2,-4(fp)
 4021c1c:	1090000c 	andi	r2,r2,16384
 4021c20:	10000226 	beq	r2,zero,4021c2c <altera_avalon_jtag_uart_read+0x204>
    return -EWOULDBLOCK;
 4021c24:	00bffd44 	movi	r2,-11
 4021c28:	00000106 	br	4021c30 <altera_avalon_jtag_uart_read+0x208>
  else
    return -EIO;
 4021c2c:	00bffec4 	movi	r2,-5
}
 4021c30:	e037883a 	mov	sp,fp
 4021c34:	dfc00117 	ldw	ra,4(sp)
 4021c38:	df000017 	ldw	fp,0(sp)
 4021c3c:	dec00204 	addi	sp,sp,8
 4021c40:	f800283a 	ret

04021c44 <altera_avalon_jtag_uart_write>:
/* ----------------------------------------------------------- */

int 
altera_avalon_jtag_uart_write(altera_avalon_jtag_uart_state* sp, 
  const char * ptr, int count, int flags)
{
 4021c44:	defff304 	addi	sp,sp,-52
 4021c48:	dfc00c15 	stw	ra,48(sp)
 4021c4c:	df000b15 	stw	fp,44(sp)
 4021c50:	df000b04 	addi	fp,sp,44
 4021c54:	e13ffc15 	stw	r4,-16(fp)
 4021c58:	e17ffd15 	stw	r5,-12(fp)
 4021c5c:	e1bffe15 	stw	r6,-8(fp)
 4021c60:	e1ffff15 	stw	r7,-4(fp)
  /* Remove warning at optimisation level 03 by seting out to 0 */
  unsigned int in, out=0;
 4021c64:	e03ff515 	stw	zero,-44(fp)
  unsigned int n;
  alt_irq_context context;

  const char * start = ptr;
 4021c68:	e0bffd17 	ldw	r2,-12(fp)
 4021c6c:	e0bff715 	stw	r2,-36(fp)
  ALT_SEM_PEND (sp->write_lock, 0);

  do
  {
    /* Copy as much as we can into the transmit buffer */
    while (count > 0)
 4021c70:	00003706 	br	4021d50 <altera_avalon_jtag_uart_write+0x10c>
    {
      /* We need a stable value of the out pointer to calculate the space available */
      in  = sp->tx_in;
 4021c74:	e0bffc17 	ldw	r2,-16(fp)
 4021c78:	10800c17 	ldw	r2,48(r2)
 4021c7c:	e0bff915 	stw	r2,-28(fp)
      out = sp->tx_out;
 4021c80:	e0bffc17 	ldw	r2,-16(fp)
 4021c84:	10800d17 	ldw	r2,52(r2)
 4021c88:	e0bff515 	stw	r2,-44(fp)

      if (in < out)
 4021c8c:	e0fff917 	ldw	r3,-28(fp)
 4021c90:	e0bff517 	ldw	r2,-44(fp)
 4021c94:	1880062e 	bgeu	r3,r2,4021cb0 <altera_avalon_jtag_uart_write+0x6c>
        n = out - 1 - in;
 4021c98:	e0fff517 	ldw	r3,-44(fp)
 4021c9c:	e0bff917 	ldw	r2,-28(fp)
 4021ca0:	1885c83a 	sub	r2,r3,r2
 4021ca4:	10bfffc4 	addi	r2,r2,-1
 4021ca8:	e0bff615 	stw	r2,-40(fp)
 4021cac:	00000b06 	br	4021cdc <altera_avalon_jtag_uart_write+0x98>
      else if (out > 0)
 4021cb0:	e0bff517 	ldw	r2,-44(fp)
 4021cb4:	10000526 	beq	r2,zero,4021ccc <altera_avalon_jtag_uart_write+0x88>
        n = ALTERA_AVALON_JTAG_UART_BUF_LEN - in;
 4021cb8:	00c20004 	movi	r3,2048
 4021cbc:	e0bff917 	ldw	r2,-28(fp)
 4021cc0:	1885c83a 	sub	r2,r3,r2
 4021cc4:	e0bff615 	stw	r2,-40(fp)
 4021cc8:	00000406 	br	4021cdc <altera_avalon_jtag_uart_write+0x98>
      else
        n = ALTERA_AVALON_JTAG_UART_BUF_LEN - 1 - in;
 4021ccc:	00c1ffc4 	movi	r3,2047
 4021cd0:	e0bff917 	ldw	r2,-28(fp)
 4021cd4:	1885c83a 	sub	r2,r3,r2
 4021cd8:	e0bff615 	stw	r2,-40(fp)

      if (n == 0)
 4021cdc:	e0bff617 	ldw	r2,-40(fp)
 4021ce0:	10001e26 	beq	r2,zero,4021d5c <altera_avalon_jtag_uart_write+0x118>
        break;

      if (n > count)
 4021ce4:	e0fffe17 	ldw	r3,-8(fp)
 4021ce8:	e0bff617 	ldw	r2,-40(fp)
 4021cec:	1880022e 	bgeu	r3,r2,4021cf8 <altera_avalon_jtag_uart_write+0xb4>
        n = count;
 4021cf0:	e0bffe17 	ldw	r2,-8(fp)
 4021cf4:	e0bff615 	stw	r2,-40(fp)

      memcpy(sp->tx_buf + in, ptr, n);
 4021cf8:	e0bffc17 	ldw	r2,-16(fp)
 4021cfc:	10c20e04 	addi	r3,r2,2104
 4021d00:	e0bff917 	ldw	r2,-28(fp)
 4021d04:	1885883a 	add	r2,r3,r2
 4021d08:	e1bff617 	ldw	r6,-40(fp)
 4021d0c:	e17ffd17 	ldw	r5,-12(fp)
 4021d10:	1009883a 	mov	r4,r2
 4021d14:	40239fc0 	call	40239fc <memcpy>
      ptr   += n;
 4021d18:	e0fffd17 	ldw	r3,-12(fp)
 4021d1c:	e0bff617 	ldw	r2,-40(fp)
 4021d20:	1885883a 	add	r2,r3,r2
 4021d24:	e0bffd15 	stw	r2,-12(fp)
      count -= n;
 4021d28:	e0fffe17 	ldw	r3,-8(fp)
 4021d2c:	e0bff617 	ldw	r2,-40(fp)
 4021d30:	1885c83a 	sub	r2,r3,r2
 4021d34:	e0bffe15 	stw	r2,-8(fp)

      sp->tx_in = (in + n) % ALTERA_AVALON_JTAG_UART_BUF_LEN;
 4021d38:	e0fff917 	ldw	r3,-28(fp)
 4021d3c:	e0bff617 	ldw	r2,-40(fp)
 4021d40:	1885883a 	add	r2,r3,r2
 4021d44:	10c1ffcc 	andi	r3,r2,2047
 4021d48:	e0bffc17 	ldw	r2,-16(fp)
 4021d4c:	10c00c15 	stw	r3,48(r2)
  ALT_SEM_PEND (sp->write_lock, 0);

  do
  {
    /* Copy as much as we can into the transmit buffer */
    while (count > 0)
 4021d50:	e0bffe17 	ldw	r2,-8(fp)
 4021d54:	00bfc716 	blt	zero,r2,4021c74 <__alt_data_end+0xfffe1c74>
 4021d58:	00000106 	br	4021d60 <altera_avalon_jtag_uart_write+0x11c>
        n = ALTERA_AVALON_JTAG_UART_BUF_LEN - in;
      else
        n = ALTERA_AVALON_JTAG_UART_BUF_LEN - 1 - in;

      if (n == 0)
        break;
 4021d5c:	0001883a 	nop
static ALT_INLINE alt_irq_context ALT_ALWAYS_INLINE 
       alt_irq_disable_all (void)
{
  alt_irq_context context;

  NIOS2_READ_STATUS (context);
 4021d60:	0005303a 	rdctl	r2,status
 4021d64:	e0bffb15 	stw	r2,-20(fp)

  NIOS2_WRITE_STATUS (context & ~NIOS2_STATUS_PIE_MSK);
 4021d68:	e0fffb17 	ldw	r3,-20(fp)
 4021d6c:	00bfff84 	movi	r2,-2
 4021d70:	1884703a 	and	r2,r3,r2
 4021d74:	1001703a 	wrctl	status,r2
  
  return context;
 4021d78:	e0bffb17 	ldw	r2,-20(fp)
     * to enable interrupts if there is no space left in the FIFO
     *
     * For now kick the interrupt routine every time to make it transmit 
     * the data 
     */
    context = alt_irq_disable_all();
 4021d7c:	e0bffa15 	stw	r2,-24(fp)
    sp->irq_enable |= ALTERA_AVALON_JTAG_UART_CONTROL_WE_MSK;
 4021d80:	e0bffc17 	ldw	r2,-16(fp)
 4021d84:	10800817 	ldw	r2,32(r2)
 4021d88:	10c00094 	ori	r3,r2,2
 4021d8c:	e0bffc17 	ldw	r2,-16(fp)
 4021d90:	10c00815 	stw	r3,32(r2)
    IOWR_ALTERA_AVALON_JTAG_UART_CONTROL(sp->base, sp->irq_enable);
 4021d94:	e0bffc17 	ldw	r2,-16(fp)
 4021d98:	10800017 	ldw	r2,0(r2)
 4021d9c:	10800104 	addi	r2,r2,4
 4021da0:	1007883a 	mov	r3,r2
 4021da4:	e0bffc17 	ldw	r2,-16(fp)
 4021da8:	10800817 	ldw	r2,32(r2)
 4021dac:	18800035 	stwio	r2,0(r3)
 4021db0:	e0bffa17 	ldw	r2,-24(fp)
 4021db4:	e0bff815 	stw	r2,-32(fp)
  status &= ~NIOS2_STATUS_PIE_MSK;
  status |= (context & NIOS2_STATUS_PIE_MSK);
  
  NIOS2_WRITE_STATUS (status);
#else
  NIOS2_WRITE_STATUS (context);
 4021db8:	e0bff817 	ldw	r2,-32(fp)
 4021dbc:	1001703a 	wrctl	status,r2
    /* 
     * If there is any data left then either return now or block until 
     * some has been sent 
     */
    /* consider: test whether there is anything there while doing this and delay for at most 2s. */
    if (count > 0)
 4021dc0:	e0bffe17 	ldw	r2,-8(fp)
 4021dc4:	0080100e 	bge	zero,r2,4021e08 <altera_avalon_jtag_uart_write+0x1c4>
    {
      if (flags & O_NONBLOCK)
 4021dc8:	e0bfff17 	ldw	r2,-4(fp)
 4021dcc:	1090000c 	andi	r2,r2,16384
 4021dd0:	1000101e 	bne	r2,zero,4021e14 <altera_avalon_jtag_uart_write+0x1d0>
      /*
       * No OS present: Always wait for data to be removed from buffer.  Once
       * the interrupt routine has removed some data then we will be able to
       * insert some more.
       */
      while (out == sp->tx_out && sp->host_inactive < sp->timeout)
 4021dd4:	0001883a 	nop
 4021dd8:	e0bffc17 	ldw	r2,-16(fp)
 4021ddc:	10c00d17 	ldw	r3,52(r2)
 4021de0:	e0bff517 	ldw	r2,-44(fp)
 4021de4:	1880051e 	bne	r3,r2,4021dfc <altera_avalon_jtag_uart_write+0x1b8>
 4021de8:	e0bffc17 	ldw	r2,-16(fp)
 4021dec:	10c00917 	ldw	r3,36(r2)
 4021df0:	e0bffc17 	ldw	r2,-16(fp)
 4021df4:	10800117 	ldw	r2,4(r2)
 4021df8:	18bff736 	bltu	r3,r2,4021dd8 <__alt_data_end+0xfffe1dd8>
        ;
#endif /* __ucosii__ */

      if  (sp->host_inactive)
 4021dfc:	e0bffc17 	ldw	r2,-16(fp)
 4021e00:	10800917 	ldw	r2,36(r2)
 4021e04:	1000051e 	bne	r2,zero,4021e1c <altera_avalon_jtag_uart_write+0x1d8>
         break;
    }
  }
  while (count > 0);
 4021e08:	e0bffe17 	ldw	r2,-8(fp)
 4021e0c:	00bfd016 	blt	zero,r2,4021d50 <__alt_data_end+0xfffe1d50>
 4021e10:	00000306 	br	4021e20 <altera_avalon_jtag_uart_write+0x1dc>
     */
    /* consider: test whether there is anything there while doing this and delay for at most 2s. */
    if (count > 0)
    {
      if (flags & O_NONBLOCK)
        break;
 4021e14:	0001883a 	nop
 4021e18:	00000106 	br	4021e20 <altera_avalon_jtag_uart_write+0x1dc>
      while (out == sp->tx_out && sp->host_inactive < sp->timeout)
        ;
#endif /* __ucosii__ */

      if  (sp->host_inactive)
         break;
 4021e1c:	0001883a 	nop
   * Now that access to the circular buffer is complete, release the write
   * semaphore so that other threads can access the buffer.
   */
  ALT_SEM_POST (sp->write_lock);

  if (ptr != start)
 4021e20:	e0fffd17 	ldw	r3,-12(fp)
 4021e24:	e0bff717 	ldw	r2,-36(fp)
 4021e28:	18800426 	beq	r3,r2,4021e3c <altera_avalon_jtag_uart_write+0x1f8>
    return ptr - start;
 4021e2c:	e0fffd17 	ldw	r3,-12(fp)
 4021e30:	e0bff717 	ldw	r2,-36(fp)
 4021e34:	1885c83a 	sub	r2,r3,r2
 4021e38:	00000606 	br	4021e54 <altera_avalon_jtag_uart_write+0x210>
  else if (flags & O_NONBLOCK)
 4021e3c:	e0bfff17 	ldw	r2,-4(fp)
 4021e40:	1090000c 	andi	r2,r2,16384
 4021e44:	10000226 	beq	r2,zero,4021e50 <altera_avalon_jtag_uart_write+0x20c>
    return -EWOULDBLOCK;
 4021e48:	00bffd44 	movi	r2,-11
 4021e4c:	00000106 	br	4021e54 <altera_avalon_jtag_uart_write+0x210>
    sp->tx_out = sp->tx_in = 0;
    return ptr - start + count;
  }
#endif
  else
    return -EIO; /* Host not connected */
 4021e50:	00bffec4 	movi	r2,-5
}
 4021e54:	e037883a 	mov	sp,fp
 4021e58:	dfc00117 	ldw	ra,4(sp)
 4021e5c:	df000017 	ldw	fp,0(sp)
 4021e60:	dec00204 	addi	sp,sp,8
 4021e64:	f800283a 	ret

04021e68 <altera_avalon_mailbox_identify>:
 * Check an instance open match
 * with the callback register
 */

static void altera_avalon_mailbox_identify (altera_avalon_mailbox_dev *dev)
{
 4021e68:	defffd04 	addi	sp,sp,-12
 4021e6c:	df000215 	stw	fp,8(sp)
 4021e70:	df000204 	addi	fp,sp,8
 4021e74:	e13fff15 	stw	r4,-4(fp)
    /* Random signature to test mailbox ownership */
    alt_u32 magic_num = 0x3A11B045;
 4021e78:	008e84b4 	movhi	r2,14866
 4021e7c:	10ac1144 	addi	r2,r2,-20411
 4021e80:	e0bffe15 	stw	r2,-8(fp)

    IOWR(dev->base, ALTERA_AVALON_MAILBOX_SIMPLE_PTR_OFST, magic_num);
 4021e84:	e0bfff17 	ldw	r2,-4(fp)
 4021e88:	10800a17 	ldw	r2,40(r2)
 4021e8c:	10800104 	addi	r2,r2,4
 4021e90:	1007883a 	mov	r3,r2
 4021e94:	e0bffe17 	ldw	r2,-8(fp)
 4021e98:	18800035 	stwio	r2,0(r3)
    if((IORD(dev->base, ALTERA_AVALON_MAILBOX_SIMPLE_PTR_OFST)) == magic_num)
 4021e9c:	e0bfff17 	ldw	r2,-4(fp)
 4021ea0:	10800a17 	ldw	r2,40(r2)
 4021ea4:	10800104 	addi	r2,r2,4
 4021ea8:	10800037 	ldwio	r2,0(r2)
 4021eac:	1007883a 	mov	r3,r2
 4021eb0:	e0bffe17 	ldw	r2,-8(fp)
 4021eb4:	1880081e 	bne	r3,r2,4021ed8 <altera_avalon_mailbox_identify+0x70>
    {
        dev-> mbox_type = MBOX_TX;
 4021eb8:	e0bfff17 	ldw	r2,-4(fp)
 4021ebc:	10000f15 	stw	zero,60(r2)
        /* Clear message_ptr to default */
        IOWR(dev->base, ALTERA_AVALON_MAILBOX_SIMPLE_PTR_OFST, 0x0);
 4021ec0:	e0bfff17 	ldw	r2,-4(fp)
 4021ec4:	10800a17 	ldw	r2,40(r2)
 4021ec8:	10800104 	addi	r2,r2,4
 4021ecc:	0007883a 	mov	r3,zero
 4021ed0:	10c00035 	stwio	r3,0(r2)
    } else
    {
	    dev->mbox_type = MBOX_RX;
    }
}
 4021ed4:	00000306 	br	4021ee4 <altera_avalon_mailbox_identify+0x7c>
        dev-> mbox_type = MBOX_TX;
        /* Clear message_ptr to default */
        IOWR(dev->base, ALTERA_AVALON_MAILBOX_SIMPLE_PTR_OFST, 0x0);
    } else
    {
	    dev->mbox_type = MBOX_RX;
 4021ed8:	e0bfff17 	ldw	r2,-4(fp)
 4021edc:	00c00044 	movi	r3,1
 4021ee0:	10c00f15 	stw	r3,60(r2)
    }
}
 4021ee4:	0001883a 	nop
 4021ee8:	e037883a 	mov	sp,fp
 4021eec:	df000017 	ldw	fp,0(sp)
 4021ef0:	dec00104 	addi	sp,sp,4
 4021ef4:	f800283a 	ret

04021ef8 <altera_avalon_mailbox_post>:
/*
 *   altera_avalon_mailbox_post
 *   This function post message out through sender mailbox
 */
static alt_32 altera_avalon_mailbox_post (altera_avalon_mailbox_dev *dev,  void *message)
{
 4021ef8:	defffc04 	addi	sp,sp,-16
 4021efc:	df000315 	stw	fp,12(sp)
 4021f00:	df000304 	addi	fp,sp,12
 4021f04:	e13ffe15 	stw	r4,-8(fp)
 4021f08:	e17fff15 	stw	r5,-4(fp)
    alt_u32 *mbox_msg = (alt_u32*) message ;
 4021f0c:	e0bfff17 	ldw	r2,-4(fp)
 4021f10:	e0bffd15 	stw	r2,-12(fp)

    if (mbox_msg != NULL) {
 4021f14:	e0bffd17 	ldw	r2,-12(fp)
 4021f18:	10001026 	beq	r2,zero,4021f5c <altera_avalon_mailbox_post+0x64>
        /* When message space available, post the message out */
        IOWR(dev->base, ALTERA_AVALON_MAILBOX_SIMPLE_PTR_OFST, mbox_msg[1]);
 4021f1c:	e0bffe17 	ldw	r2,-8(fp)
 4021f20:	10800a17 	ldw	r2,40(r2)
 4021f24:	10800104 	addi	r2,r2,4
 4021f28:	1007883a 	mov	r3,r2
 4021f2c:	e0bffd17 	ldw	r2,-12(fp)
 4021f30:	10800104 	addi	r2,r2,4
 4021f34:	10800017 	ldw	r2,0(r2)
 4021f38:	18800035 	stwio	r2,0(r3)
        IOWR(dev->base, ALTERA_AVALON_MAILBOX_SIMPLE_CMD_OFST, mbox_msg[0]);
 4021f3c:	e0bffe17 	ldw	r2,-8(fp)
 4021f40:	10800a17 	ldw	r2,40(r2)
 4021f44:	1007883a 	mov	r3,r2
 4021f48:	e0bffd17 	ldw	r2,-12(fp)
 4021f4c:	10800017 	ldw	r2,0(r2)
 4021f50:	18800035 	stwio	r2,0(r3)
        return 0;
 4021f54:	0005883a 	mov	r2,zero
 4021f58:	00000106 	br	4021f60 <altera_avalon_mailbox_post+0x68>
    }
    /* Invalid NULL message received */
    return -EINVAL;
 4021f5c:	00bffa84 	movi	r2,-22
}
 4021f60:	e037883a 	mov	sp,fp
 4021f64:	df000017 	ldw	fp,0(sp)
 4021f68:	dec00104 	addi	sp,sp,4
 4021f6c:	f800283a 	ret

04021f70 <altera_avalon_mailbox_simple_tx_isr>:
#ifdef ALT_ENHANCED_INTERRUPT_API_PRESENT
static void altera_avalon_mailbox_simple_tx_isr(void *context)
#else
static void altera_avalon_mailbox_simple_tx_isr(void *context, alt_u32 id)
#endif
{
 4021f70:	defff604 	addi	sp,sp,-40
 4021f74:	dfc00915 	stw	ra,36(sp)
 4021f78:	df000815 	stw	fp,32(sp)
 4021f7c:	df000804 	addi	fp,sp,32
 4021f80:	e13fff15 	stw	r4,-4(fp)
    altera_avalon_mailbox_dev *dev = (altera_avalon_mailbox_dev*) context;
 4021f84:	e0bfff17 	ldw	r2,-4(fp)
 4021f88:	e0bff815 	stw	r2,-32(fp)
    int status = 0;
 4021f8c:	e03ff915 	stw	zero,-28(fp)
    alt_u32 data;
    alt_irq_context cpu_sr;
    alt_u32 *message = dev->mbox_msg;
 4021f90:	e0bff817 	ldw	r2,-32(fp)
 4021f94:	10801017 	ldw	r2,64(r2)
 4021f98:	e0bffa15 	stw	r2,-24(fp)

    /* Mask mailbox interrupt */
    data = IORD(dev->base, ALTERA_AVALON_MAILBOX_SIMPLE_INTR_OFST) &
 4021f9c:	e0bff817 	ldw	r2,-32(fp)
 4021fa0:	10800a17 	ldw	r2,40(r2)
 4021fa4:	10800304 	addi	r2,r2,12
 4021fa8:	10800037 	ldwio	r2,0(r2)
 4021fac:	1007883a 	mov	r3,r2
 4021fb0:	00bfff44 	movi	r2,-3
 4021fb4:	1884703a 	and	r2,r3,r2
 4021fb8:	e0bffb15 	stw	r2,-20(fp)
               (~ALTERA_AVALON_MAILBOX_SIMPLE_INTR_SPACE_MSK);
    IOWR(dev->base, ALTERA_AVALON_MAILBOX_SIMPLE_INTR_OFST, data);
 4021fbc:	e0bff817 	ldw	r2,-32(fp)
 4021fc0:	10800a17 	ldw	r2,40(r2)
 4021fc4:	10800304 	addi	r2,r2,12
 4021fc8:	1007883a 	mov	r3,r2
 4021fcc:	e0bffb17 	ldw	r2,-20(fp)
 4021fd0:	18800035 	stwio	r2,0(r3)

    if (message != NULL)
 4021fd4:	e0bffa17 	ldw	r2,-24(fp)
 4021fd8:	10002d26 	beq	r2,zero,4022090 <altera_avalon_mailbox_simple_tx_isr+0x120>
    {
        /* Post out message requested */
        IOWR(dev->base, ALTERA_AVALON_MAILBOX_SIMPLE_PTR_OFST, message[1]);
 4021fdc:	e0bff817 	ldw	r2,-32(fp)
 4021fe0:	10800a17 	ldw	r2,40(r2)
 4021fe4:	10800104 	addi	r2,r2,4
 4021fe8:	1007883a 	mov	r3,r2
 4021fec:	e0bffa17 	ldw	r2,-24(fp)
 4021ff0:	10800104 	addi	r2,r2,4
 4021ff4:	10800017 	ldw	r2,0(r2)
 4021ff8:	18800035 	stwio	r2,0(r3)
        IOWR(dev->base, ALTERA_AVALON_MAILBOX_SIMPLE_CMD_OFST, message[0]);
 4021ffc:	e0bff817 	ldw	r2,-32(fp)
 4022000:	10800a17 	ldw	r2,40(r2)
 4022004:	1007883a 	mov	r3,r2
 4022008:	e0bffa17 	ldw	r2,-24(fp)
 402200c:	10800017 	ldw	r2,0(r2)
 4022010:	18800035 	stwio	r2,0(r3)
    /*
     * Other interrupts are explicitly disabled if callbacks are registered
     * because there is no guarantee that they are preemption-safe.
     */
        status = (IORD_ALTERA_AVALON_MAILBOX_STS(dev->base)
 4022014:	e0bff817 	ldw	r2,-32(fp)
 4022018:	10800a17 	ldw	r2,40(r2)
 402201c:	10800204 	addi	r2,r2,8
 4022020:	10800037 	ldwio	r2,0(r2)
        		  & ALTERA_AVALON_MAILBOX_SIMPLE_STS_FULL_MSK) >> 1;
 4022024:	1080008c 	andi	r2,r2,2
        IOWR(dev->base, ALTERA_AVALON_MAILBOX_SIMPLE_CMD_OFST, message[0]);
    /*
     * Other interrupts are explicitly disabled if callbacks are registered
     * because there is no guarantee that they are preemption-safe.
     */
        status = (IORD_ALTERA_AVALON_MAILBOX_STS(dev->base)
 4022028:	1005d07a 	srai	r2,r2,1
 402202c:	e0bff915 	stw	r2,-28(fp)
        		  & ALTERA_AVALON_MAILBOX_SIMPLE_STS_FULL_MSK) >> 1;
        if (dev->tx_cb)
 4022030:	e0bff817 	ldw	r2,-32(fp)
 4022034:	10800d17 	ldw	r2,52(r2)
 4022038:	10001126 	beq	r2,zero,4022080 <altera_avalon_mailbox_simple_tx_isr+0x110>
static ALT_INLINE alt_irq_context ALT_ALWAYS_INLINE 
       alt_irq_disable_all (void)
{
  alt_irq_context context;

  NIOS2_READ_STATUS (context);
 402203c:	0005303a 	rdctl	r2,status
 4022040:	e0bffd15 	stw	r2,-12(fp)

  NIOS2_WRITE_STATUS (context & ~NIOS2_STATUS_PIE_MSK);
 4022044:	e0fffd17 	ldw	r3,-12(fp)
 4022048:	00bfff84 	movi	r2,-2
 402204c:	1884703a 	and	r2,r3,r2
 4022050:	1001703a 	wrctl	status,r2
  
  return context;
 4022054:	e0bffd17 	ldw	r2,-12(fp)
        {
            cpu_sr = alt_irq_disable_all();
 4022058:	e0bffc15 	stw	r2,-16(fp)
  	        (dev->tx_cb)(message, status);
 402205c:	e0bff817 	ldw	r2,-32(fp)
 4022060:	10800d17 	ldw	r2,52(r2)
 4022064:	e17ff917 	ldw	r5,-28(fp)
 4022068:	e13ffa17 	ldw	r4,-24(fp)
 402206c:	103ee83a 	callr	r2
 4022070:	e0bffc17 	ldw	r2,-16(fp)
 4022074:	e0bffe15 	stw	r2,-8(fp)
  status &= ~NIOS2_STATUS_PIE_MSK;
  status |= (context & NIOS2_STATUS_PIE_MSK);
  
  NIOS2_WRITE_STATUS (status);
#else
  NIOS2_WRITE_STATUS (context);
 4022078:	e0bffe17 	ldw	r2,-8(fp)
 402207c:	1001703a 	wrctl	status,r2
            alt_irq_enable_all(cpu_sr);
        }
        /* Clear mailbox message to NULL after message being posted */
        dev->mbox_msg = NULL;
 4022080:	e0bff817 	ldw	r2,-32(fp)
 4022084:	10001015 	stw	zero,64(r2)
        dev->lock = 0;
 4022088:	e0bff817 	ldw	r2,-32(fp)
 402208c:	10001105 	stb	zero,68(r2)
    }
}
 4022090:	0001883a 	nop
 4022094:	e037883a 	mov	sp,fp
 4022098:	dfc00117 	ldw	ra,4(sp)
 402209c:	df000017 	ldw	fp,0(sp)
 40220a0:	dec00204 	addi	sp,sp,8
 40220a4:	f800283a 	ret

040220a8 <altera_avalon_mailbox_simple_rx_isr>:
#ifdef ALT_ENHANCED_INTERRUPT_API_PRESENT
static void altera_avalon_mailbox_simple_rx_isr(void *context)
#else
static void altera_avalon_mailbox_simple_rx_isr(void *context, alt_u32 id)
#endif
{
 40220a8:	defff704 	addi	sp,sp,-36
 40220ac:	dfc00815 	stw	ra,32(sp)
 40220b0:	df000715 	stw	fp,28(sp)
 40220b4:	df000704 	addi	fp,sp,28
 40220b8:	e13fff15 	stw	r4,-4(fp)
    altera_avalon_mailbox_dev *dev = (altera_avalon_mailbox_dev*) context;
 40220bc:	e0bfff17 	ldw	r2,-4(fp)
 40220c0:	e0bff915 	stw	r2,-28(fp)
    alt_irq_context cpu_sr;
    alt_u32 inbox[2];

    inbox[1] = (IORD(dev->base, ALTERA_AVALON_MAILBOX_SIMPLE_PTR_OFST));
 40220c4:	e0bff917 	ldw	r2,-28(fp)
 40220c8:	10800a17 	ldw	r2,40(r2)
 40220cc:	10800104 	addi	r2,r2,4
 40220d0:	10800037 	ldwio	r2,0(r2)
 40220d4:	e0bffe15 	stw	r2,-8(fp)
    inbox[0] = (IORD(dev->base, ALTERA_AVALON_MAILBOX_SIMPLE_CMD_OFST));
 40220d8:	e0bff917 	ldw	r2,-28(fp)
 40220dc:	10800a17 	ldw	r2,40(r2)
 40220e0:	10800037 	ldwio	r2,0(r2)
 40220e4:	e0bffd15 	stw	r2,-12(fp)

    /*
     * Other interrupts are explicitly disabled if callbacks are registered
     * because there is no guarantee that they are preemption-safe.
     */
    if (dev->rx_cb)
 40220e8:	e0bff917 	ldw	r2,-28(fp)
 40220ec:	10800e17 	ldw	r2,56(r2)
 40220f0:	10001126 	beq	r2,zero,4022138 <altera_avalon_mailbox_simple_rx_isr+0x90>
static ALT_INLINE alt_irq_context ALT_ALWAYS_INLINE 
       alt_irq_disable_all (void)
{
  alt_irq_context context;

  NIOS2_READ_STATUS (context);
 40220f4:	0005303a 	rdctl	r2,status
 40220f8:	e0bffb15 	stw	r2,-20(fp)

  NIOS2_WRITE_STATUS (context & ~NIOS2_STATUS_PIE_MSK);
 40220fc:	e0fffb17 	ldw	r3,-20(fp)
 4022100:	00bfff84 	movi	r2,-2
 4022104:	1884703a 	and	r2,r3,r2
 4022108:	1001703a 	wrctl	status,r2
  
  return context;
 402210c:	e0bffb17 	ldw	r2,-20(fp)
    {
        cpu_sr = alt_irq_disable_all();
 4022110:	e0bffa15 	stw	r2,-24(fp)
        (dev->rx_cb)(inbox);
 4022114:	e0bff917 	ldw	r2,-28(fp)
 4022118:	10800e17 	ldw	r2,56(r2)
 402211c:	e0fffd04 	addi	r3,fp,-12
 4022120:	1809883a 	mov	r4,r3
 4022124:	103ee83a 	callr	r2
 4022128:	e0bffa17 	ldw	r2,-24(fp)
 402212c:	e0bffc15 	stw	r2,-16(fp)
  status &= ~NIOS2_STATUS_PIE_MSK;
  status |= (context & NIOS2_STATUS_PIE_MSK);
  
  NIOS2_WRITE_STATUS (status);
#else
  NIOS2_WRITE_STATUS (context);
 4022130:	e0bffc17 	ldw	r2,-16(fp)
 4022134:	1001703a 	wrctl	status,r2
        alt_irq_enable_all(cpu_sr);
    }
}
 4022138:	0001883a 	nop
 402213c:	e037883a 	mov	sp,fp
 4022140:	dfc00117 	ldw	ra,4(sp)
 4022144:	df000017 	ldw	fp,0(sp)
 4022148:	dec00204 	addi	sp,sp,8
 402214c:	f800283a 	ret

04022150 <altera_avalon_mailbox_simple_init>:
 * Altera avalon mailbox init
 * Initialize mailbox device and identify sender/receiver mailbox
 */
void altera_avalon_mailbox_simple_init (altera_avalon_mailbox_dev *dev,
		                               int intr_id, int irq)
{
 4022150:	defffb04 	addi	sp,sp,-20
 4022154:	dfc00415 	stw	ra,16(sp)
 4022158:	df000315 	stw	fp,12(sp)
 402215c:	df000304 	addi	fp,sp,12
 4022160:	e13ffd15 	stw	r4,-12(fp)
 4022164:	e17ffe15 	stw	r5,-8(fp)
 4022168:	e1bfff15 	stw	r6,-4(fp)
    alt_dev_llist_insert((alt_dev_llist*) dev, &alt_mailbox_simple_list);
 402216c:	d1600104 	addi	r5,gp,-32764
 4022170:	e13ffd17 	ldw	r4,-12(fp)
 4022174:	4022e740 	call	4022e74 <alt_dev_llist_insert>
    
    dev->mailbox_irq    = irq;
 4022178:	e0ffff17 	ldw	r3,-4(fp)
 402217c:	e0bffd17 	ldw	r2,-12(fp)
 4022180:	10c00b15 	stw	r3,44(r2)
    dev->mailbox_intr_ctrl_id = intr_id;
 4022184:	e0fffe17 	ldw	r3,-8(fp)
 4022188:	e0bffd17 	ldw	r2,-12(fp)
 402218c:	10c00c15 	stw	r3,48(r2)
    dev->rx_cb = NULL;
 4022190:	e0bffd17 	ldw	r2,-12(fp)
 4022194:	10000e15 	stw	zero,56(r2)
    dev->tx_cb = NULL;
 4022198:	e0bffd17 	ldw	r2,-12(fp)
 402219c:	10000d15 	stw	zero,52(r2)
    dev->mbox_msg = NULL;
 40221a0:	e0bffd17 	ldw	r2,-12(fp)
 40221a4:	10001015 	stw	zero,64(r2)
    
    ALT_SEM_CREATE (&dev->write_lock, 1);

    altera_avalon_mailbox_identify(dev);
 40221a8:	e13ffd17 	ldw	r4,-12(fp)
 40221ac:	4021e680 	call	4021e68 <altera_avalon_mailbox_identify>
}
 40221b0:	0001883a 	nop
 40221b4:	e037883a 	mov	sp,fp
 40221b8:	dfc00117 	ldw	ra,4(sp)
 40221bc:	df000017 	ldw	fp,0(sp)
 40221c0:	dec00204 	addi	sp,sp,8
 40221c4:	f800283a 	ret

040221c8 <altera_avalon_mailbox_open>:
 * Search the list of registered mailboxes for one with the supplied name.
 * The return value will be NULL on failure, and non-NULL otherwise.
 */
altera_avalon_mailbox_dev* altera_avalon_mailbox_open (const char *name,
		altera_mailbox_tx_cb tx_callback, altera_mailbox_rx_cb rx_callback)
{
 40221c8:	defff804 	addi	sp,sp,-32
 40221cc:	dfc00715 	stw	ra,28(sp)
 40221d0:	df000615 	stw	fp,24(sp)
 40221d4:	df000604 	addi	fp,sp,24
 40221d8:	e13ffd15 	stw	r4,-12(fp)
 40221dc:	e17ffe15 	stw	r5,-8(fp)
 40221e0:	e1bfff15 	stw	r6,-4(fp)
    altera_avalon_mailbox_dev *dev;
    alt_u32 data;

    /* Find requested device */
    dev = (altera_avalon_mailbox_dev*) alt_find_dev (name, &alt_mailbox_simple_list);
 40221e4:	d1600104 	addi	r5,gp,-32764
 40221e8:	e13ffd17 	ldw	r4,-12(fp)
 40221ec:	4022fd80 	call	4022fd8 <alt_find_dev>
 40221f0:	e0bffb15 	stw	r2,-20(fp)
    if (dev == NULL)
 40221f4:	e0bffb17 	ldw	r2,-20(fp)
 40221f8:	1000021e 	bne	r2,zero,4022204 <altera_avalon_mailbox_open+0x3c>
    {
        return NULL;
 40221fc:	0005883a 	mov	r2,zero
 4022200:	00006506 	br	4022398 <altera_avalon_mailbox_open+0x1d0>
    }

    /* Mask mailbox interrupt before ISR is being registered. */
    data = IORD(dev->base, ALTERA_AVALON_MAILBOX_SIMPLE_INTR_OFST);
 4022204:	e0bffb17 	ldw	r2,-20(fp)
 4022208:	10800a17 	ldw	r2,40(r2)
 402220c:	10800304 	addi	r2,r2,12
 4022210:	10800037 	ldwio	r2,0(r2)
 4022214:	e0bffc15 	stw	r2,-16(fp)
    if (dev->mbox_type == MBOX_TX) {
 4022218:	e0bffb17 	ldw	r2,-20(fp)
 402221c:	10800f17 	ldw	r2,60(r2)
 4022220:	1000081e 	bne	r2,zero,4022244 <altera_avalon_mailbox_open+0x7c>
        IOWR(dev->base, ALTERA_AVALON_MAILBOX_SIMPLE_INTR_OFST, \
 4022224:	e0bffb17 	ldw	r2,-20(fp)
 4022228:	10800a17 	ldw	r2,40(r2)
 402222c:	10800304 	addi	r2,r2,12
 4022230:	1009883a 	mov	r4,r2
 4022234:	e0fffc17 	ldw	r3,-16(fp)
 4022238:	00bfff44 	movi	r2,-3
 402223c:	1884703a 	and	r2,r3,r2
 4022240:	20800035 	stwio	r2,0(r4)
            (data & ~(ALTERA_AVALON_MAILBOX_SIMPLE_INTR_SPACE_MSK)));
    }
    if (dev->mbox_type == MBOX_RX) {
 4022244:	e0bffb17 	ldw	r2,-20(fp)
 4022248:	10800f17 	ldw	r2,60(r2)
 402224c:	10800058 	cmpnei	r2,r2,1
 4022250:	1000081e 	bne	r2,zero,4022274 <altera_avalon_mailbox_open+0xac>
        IOWR(dev->base, ALTERA_AVALON_MAILBOX_SIMPLE_INTR_OFST, \
 4022254:	e0bffb17 	ldw	r2,-20(fp)
 4022258:	10800a17 	ldw	r2,40(r2)
 402225c:	10800304 	addi	r2,r2,12
 4022260:	1009883a 	mov	r4,r2
 4022264:	e0fffc17 	ldw	r3,-16(fp)
 4022268:	00bfff84 	movi	r2,-2
 402226c:	1884703a 	and	r2,r3,r2
 4022270:	20800035 	stwio	r2,0(r4)
    }

    /* If IRQ not connected, return device pointer without ISR register,
     * in polling mode.
     */
    if (dev->mailbox_irq == ALT_IRQ_NOT_CONNECTED)
 4022274:	e0bffb17 	ldw	r2,-20(fp)
 4022278:	10800b17 	ldw	r2,44(r2)
 402227c:	10bfffd8 	cmpnei	r2,r2,-1
 4022280:	1000021e 	bne	r2,zero,402228c <altera_avalon_mailbox_open+0xc4>
        return dev;
 4022284:	e0bffb17 	ldw	r2,-20(fp)
 4022288:	00004306 	br	4022398 <altera_avalon_mailbox_open+0x1d0>

    /* For IRQ connected case */

    if ((tx_callback == NULL) && (rx_callback == NULL))
 402228c:	e0bffe17 	ldw	r2,-8(fp)
 4022290:	1000041e 	bne	r2,zero,40222a4 <altera_avalon_mailbox_open+0xdc>
 4022294:	e0bfff17 	ldw	r2,-4(fp)
 4022298:	1000021e 	bne	r2,zero,40222a4 <altera_avalon_mailbox_open+0xdc>
    {
    /* No callback, polling mode */
        return dev;
 402229c:	e0bffb17 	ldw	r2,-20(fp)
 40222a0:	00003d06 	br	4022398 <altera_avalon_mailbox_open+0x1d0>
    }

    /* Ensure user correctly use the mailbox
     * Return - Null if wrong direction set
     */
    if (((dev->mbox_type == MBOX_TX) && (rx_callback != NULL)) ||
 40222a4:	e0bffb17 	ldw	r2,-20(fp)
 40222a8:	10800f17 	ldw	r2,60(r2)
 40222ac:	1000021e 	bne	r2,zero,40222b8 <altera_avalon_mailbox_open+0xf0>
 40222b0:	e0bfff17 	ldw	r2,-4(fp)
 40222b4:	1000061e 	bne	r2,zero,40222d0 <altera_avalon_mailbox_open+0x108>
	    ((dev->mbox_type == MBOX_RX) && (tx_callback != NULL)))
 40222b8:	e0bffb17 	ldw	r2,-20(fp)
 40222bc:	10800f17 	ldw	r2,60(r2)
    }

    /* Ensure user correctly use the mailbox
     * Return - Null if wrong direction set
     */
    if (((dev->mbox_type == MBOX_TX) && (rx_callback != NULL)) ||
 40222c0:	10800058 	cmpnei	r2,r2,1
 40222c4:	1000041e 	bne	r2,zero,40222d8 <altera_avalon_mailbox_open+0x110>
	    ((dev->mbox_type == MBOX_RX) && (tx_callback != NULL)))
 40222c8:	e0bffe17 	ldw	r2,-8(fp)
 40222cc:	10000226 	beq	r2,zero,40222d8 <altera_avalon_mailbox_open+0x110>
  	  /* Invalid callback  */
        return NULL;
 40222d0:	0005883a 	mov	r2,zero
 40222d4:	00003006 	br	4022398 <altera_avalon_mailbox_open+0x1d0>

    /* IRQ is valid register callback
     * to current mailbox device
     */
    dev->tx_cb  = tx_callback;
 40222d8:	e0bffb17 	ldw	r2,-20(fp)
 40222dc:	e0fffe17 	ldw	r3,-8(fp)
 40222e0:	10c00d15 	stw	r3,52(r2)
    dev->rx_cb  = rx_callback;
 40222e4:	e0bffb17 	ldw	r2,-20(fp)
 40222e8:	e0ffff17 	ldw	r3,-4(fp)
 40222ec:	10c00e15 	stw	r3,56(r2)

    /* Register Mailbox's ISR */
    if (dev->mbox_type == MBOX_TX)
 40222f0:	e0bffb17 	ldw	r2,-20(fp)
 40222f4:	10800f17 	ldw	r2,60(r2)
 40222f8:	10000b1e 	bne	r2,zero,4022328 <altera_avalon_mailbox_open+0x160>
    {
    #ifdef ALT_ENHANCED_INTERRUPT_API_PRESENT
        alt_ic_isr_register(dev->mailbox_intr_ctrl_id, dev->mailbox_irq, altera_avalon_mailbox_simple_tx_isr,
 40222fc:	e0bffb17 	ldw	r2,-20(fp)
 4022300:	10c00c17 	ldw	r3,48(r2)
 4022304:	e0bffb17 	ldw	r2,-20(fp)
 4022308:	10800b17 	ldw	r2,44(r2)
 402230c:	d8000015 	stw	zero,0(sp)
 4022310:	e1fffb17 	ldw	r7,-20(fp)
 4022314:	018100b4 	movhi	r6,1026
 4022318:	3187dc04 	addi	r6,r6,8048
 402231c:	100b883a 	mov	r5,r2
 4022320:	1809883a 	mov	r4,r3
 4022324:	4020c8c0 	call	4020c8c <alt_ic_isr_register>
    #else
        alt_irq_register(dev->mailbox_irq, dev, altera_avalon_mailbox_simple_tx_isr);
    #endif
    }
  
    if (dev->mbox_type == MBOX_RX)
 4022328:	e0bffb17 	ldw	r2,-20(fp)
 402232c:	10800f17 	ldw	r2,60(r2)
 4022330:	10800058 	cmpnei	r2,r2,1
 4022334:	1000171e 	bne	r2,zero,4022394 <altera_avalon_mailbox_open+0x1cc>
    {
    #ifdef ALT_ENHANCED_INTERRUPT_API_PRESENT
        alt_ic_isr_register(dev->mailbox_intr_ctrl_id, dev->mailbox_irq, altera_avalon_mailbox_simple_rx_isr,
 4022338:	e0bffb17 	ldw	r2,-20(fp)
 402233c:	10c00c17 	ldw	r3,48(r2)
 4022340:	e0bffb17 	ldw	r2,-20(fp)
 4022344:	10800b17 	ldw	r2,44(r2)
 4022348:	d8000015 	stw	zero,0(sp)
 402234c:	e1fffb17 	ldw	r7,-20(fp)
 4022350:	018100b4 	movhi	r6,1026
 4022354:	31882a04 	addi	r6,r6,8360
 4022358:	100b883a 	mov	r5,r2
 402235c:	1809883a 	mov	r4,r3
 4022360:	4020c8c0 	call	4020c8c <alt_ic_isr_register>
                            dev, NULL);
    #else
        alt_irq_register(dev->mailbox_irq, dev, altera_avalon_mailbox_simple_rx_isr);
    #endif
        /* Enable Receiver interrupt to listen mode */
        data = IORD(dev->base, ALTERA_AVALON_MAILBOX_SIMPLE_INTR_OFST) |
 4022364:	e0bffb17 	ldw	r2,-20(fp)
 4022368:	10800a17 	ldw	r2,40(r2)
 402236c:	10800304 	addi	r2,r2,12
 4022370:	10800037 	ldwio	r2,0(r2)
 4022374:	10800054 	ori	r2,r2,1
 4022378:	e0bffc15 	stw	r2,-16(fp)
  	             (ALTERA_AVALON_MAILBOX_SIMPLE_INTR_PEN_MSK);
        IOWR(dev->base, ALTERA_AVALON_MAILBOX_SIMPLE_INTR_OFST, data);
 402237c:	e0bffb17 	ldw	r2,-20(fp)
 4022380:	10800a17 	ldw	r2,40(r2)
 4022384:	10800304 	addi	r2,r2,12
 4022388:	1007883a 	mov	r3,r2
 402238c:	e0bffc17 	ldw	r2,-16(fp)
 4022390:	18800035 	stwio	r2,0(r3)
    }
    return dev;
 4022394:	e0bffb17 	ldw	r2,-20(fp)
}
 4022398:	e037883a 	mov	sp,fp
 402239c:	dfc00117 	ldw	ra,4(sp)
 40223a0:	df000017 	ldw	fp,0(sp)
 40223a4:	dec00204 	addi	sp,sp,8
 40223a8:	f800283a 	ret

040223ac <altera_avalon_mailbox_close>:
/*
 * altera_avalon_mailbox_close
 * Disable mailbox interrupt and irq
 */
void altera_avalon_mailbox_close (altera_avalon_mailbox_dev *dev)
{
 40223ac:	defffb04 	addi	sp,sp,-20
 40223b0:	dfc00415 	stw	ra,16(sp)
 40223b4:	df000315 	stw	fp,12(sp)
 40223b8:	df000304 	addi	fp,sp,12
 40223bc:	e13fff15 	stw	r4,-4(fp)
    alt_u32 data;
    if ((dev != NULL) && (dev->mailbox_irq != ALT_IRQ_NOT_CONNECTED))
 40223c0:	e0bfff17 	ldw	r2,-4(fp)
 40223c4:	10003926 	beq	r2,zero,40224ac <altera_avalon_mailbox_close+0x100>
 40223c8:	e0bfff17 	ldw	r2,-4(fp)
 40223cc:	10800b17 	ldw	r2,44(r2)
 40223d0:	10bfffe0 	cmpeqi	r2,r2,-1
 40223d4:	1000351e 	bne	r2,zero,40224ac <altera_avalon_mailbox_close+0x100>
    {
        /* Mask interrupt */
        if (dev->mbox_type == MBOX_TX)
 40223d8:	e0bfff17 	ldw	r2,-4(fp)
 40223dc:	10800f17 	ldw	r2,60(r2)
 40223e0:	10000e1e 	bne	r2,zero,402241c <altera_avalon_mailbox_close+0x70>
        {
            data = IORD(dev->base, ALTERA_AVALON_MAILBOX_SIMPLE_INTR_OFST) &
 40223e4:	e0bfff17 	ldw	r2,-4(fp)
 40223e8:	10800a17 	ldw	r2,40(r2)
 40223ec:	10800304 	addi	r2,r2,12
 40223f0:	10800037 	ldwio	r2,0(r2)
 40223f4:	1007883a 	mov	r3,r2
 40223f8:	00bfff44 	movi	r2,-3
 40223fc:	1884703a 	and	r2,r3,r2
 4022400:	e0bffe15 	stw	r2,-8(fp)
                       (~ALTERA_AVALON_MAILBOX_SIMPLE_INTR_SPACE_MSK);
            IOWR(dev->base, ALTERA_AVALON_MAILBOX_SIMPLE_INTR_OFST, data);
 4022404:	e0bfff17 	ldw	r2,-4(fp)
 4022408:	10800a17 	ldw	r2,40(r2)
 402240c:	10800304 	addi	r2,r2,12
 4022410:	1007883a 	mov	r3,r2
 4022414:	e0bffe17 	ldw	r2,-8(fp)
 4022418:	18800035 	stwio	r2,0(r3)
        }
        if (dev->mbox_type == MBOX_RX)
 402241c:	e0bfff17 	ldw	r2,-4(fp)
 4022420:	10800f17 	ldw	r2,60(r2)
 4022424:	10800058 	cmpnei	r2,r2,1
 4022428:	10000e1e 	bne	r2,zero,4022464 <altera_avalon_mailbox_close+0xb8>
        {
            data = IORD(dev->base, ALTERA_AVALON_MAILBOX_SIMPLE_INTR_OFST) &
 402242c:	e0bfff17 	ldw	r2,-4(fp)
 4022430:	10800a17 	ldw	r2,40(r2)
 4022434:	10800304 	addi	r2,r2,12
 4022438:	10800037 	ldwio	r2,0(r2)
 402243c:	1007883a 	mov	r3,r2
 4022440:	00bfff84 	movi	r2,-2
 4022444:	1884703a 	and	r2,r3,r2
 4022448:	e0bffe15 	stw	r2,-8(fp)
                       (~ALTERA_AVALON_MAILBOX_SIMPLE_INTR_PEN_MSK);
            IOWR(dev->base, ALTERA_AVALON_MAILBOX_SIMPLE_INTR_OFST, data);
 402244c:	e0bfff17 	ldw	r2,-4(fp)
 4022450:	10800a17 	ldw	r2,40(r2)
 4022454:	10800304 	addi	r2,r2,12
 4022458:	1007883a 	mov	r3,r2
 402245c:	e0bffe17 	ldw	r2,-8(fp)
 4022460:	18800035 	stwio	r2,0(r3)
        }
  
        /* De-register mailbox irq) */
        if (dev->mailbox_irq != ALT_IRQ_NOT_CONNECTED)
 4022464:	e0bfff17 	ldw	r2,-4(fp)
 4022468:	10800b17 	ldw	r2,44(r2)
 402246c:	10bfffe0 	cmpeqi	r2,r2,-1
 4022470:	10000a1e 	bne	r2,zero,402249c <altera_avalon_mailbox_close+0xf0>
        {
        #ifdef ALT_ENHANCED_INTERRUPT_API_PRESENT
            alt_ic_isr_register(dev->mailbox_intr_ctrl_id, dev->mailbox_irq, NULL,
 4022474:	e0bfff17 	ldw	r2,-4(fp)
 4022478:	10c00c17 	ldw	r3,48(r2)
 402247c:	e0bfff17 	ldw	r2,-4(fp)
 4022480:	10800b17 	ldw	r2,44(r2)
 4022484:	d8000015 	stw	zero,0(sp)
 4022488:	e1ffff17 	ldw	r7,-4(fp)
 402248c:	000d883a 	mov	r6,zero
 4022490:	100b883a 	mov	r5,r2
 4022494:	1809883a 	mov	r4,r3
 4022498:	4020c8c0 	call	4020c8c <alt_ic_isr_register>
        #else
            alt_irq_register(dev->mailbox_irq, dev, NULL);
        #endif
        }
        /* De-registering callback to mailbox */
        dev->tx_cb  = NULL;
 402249c:	e0bfff17 	ldw	r2,-4(fp)
 40224a0:	10000d15 	stw	zero,52(r2)
        dev->rx_cb  = NULL;
 40224a4:	e0bfff17 	ldw	r2,-4(fp)
 40224a8:	10000e15 	stw	zero,56(r2)
    }
}
 40224ac:	0001883a 	nop
 40224b0:	e037883a 	mov	sp,fp
 40224b4:	dfc00117 	ldw	ra,4(sp)
 40224b8:	df000017 	ldw	fp,0(sp)
 40224bc:	dec00204 	addi	sp,sp,8
 40224c0:	f800283a 	ret

040224c4 <altera_avalon_mailbox_status>:
 *   Return 0 when mailbox is empty or no pending message
 *   Return 1 when mailbox space is full or there is a message pending
 */

alt_u32 altera_avalon_mailbox_status (altera_avalon_mailbox_dev *dev)
{
 40224c4:	defffd04 	addi	sp,sp,-12
 40224c8:	df000215 	stw	fp,8(sp)
 40224cc:	df000204 	addi	fp,sp,8
 40224d0:	e13fff15 	stw	r4,-4(fp)
    alt_u32 mailbox_sts = 0;
 40224d4:	e03ffe15 	stw	zero,-8(fp)

    mailbox_sts = (IORD(dev->base, ALTERA_AVALON_MAILBOX_SIMPLE_STS_OFST) & ALTERA_AVALON_MAILBOX_SIMPLE_STS_MSK);
 40224d8:	e0bfff17 	ldw	r2,-4(fp)
 40224dc:	10800a17 	ldw	r2,40(r2)
 40224e0:	10800204 	addi	r2,r2,8
 40224e4:	10800037 	ldwio	r2,0(r2)
 40224e8:	108000cc 	andi	r2,r2,3
 40224ec:	e0bffe15 	stw	r2,-8(fp)

    if (dev->mbox_type == MBOX_TX)
 40224f0:	e0bfff17 	ldw	r2,-4(fp)
 40224f4:	10800f17 	ldw	r2,60(r2)
 40224f8:	1000041e 	bne	r2,zero,402250c <altera_avalon_mailbox_status+0x48>
        mailbox_sts = (mailbox_sts & ALTERA_AVALON_MAILBOX_SIMPLE_STS_FULL_MSK) >> 1;
 40224fc:	e0bffe17 	ldw	r2,-8(fp)
 4022500:	1080008c 	andi	r2,r2,2
 4022504:	1004d07a 	srli	r2,r2,1
 4022508:	e0bffe15 	stw	r2,-8(fp)

    if (dev->mbox_type == MBOX_RX)
 402250c:	e0bfff17 	ldw	r2,-4(fp)
 4022510:	10800f17 	ldw	r2,60(r2)
 4022514:	10800058 	cmpnei	r2,r2,1
 4022518:	1000031e 	bne	r2,zero,4022528 <altera_avalon_mailbox_status+0x64>
        mailbox_sts = mailbox_sts & ALTERA_AVALON_MAILBOX_SIMPLE_STS_PENDING_MSK;
 402251c:	e0bffe17 	ldw	r2,-8(fp)
 4022520:	1080004c 	andi	r2,r2,1
 4022524:	e0bffe15 	stw	r2,-8(fp)

    return mailbox_sts;
 4022528:	e0bffe17 	ldw	r2,-8(fp)
}
 402252c:	e037883a 	mov	sp,fp
 4022530:	df000017 	ldw	fp,0(sp)
 4022534:	dec00104 	addi	sp,sp,4
 4022538:	f800283a 	ret

0402253c <altera_avalon_mailbox_send>:
 * For polling mode, '0' timeout value for infinite polling
 * otherwise timeout when expired
 */
int altera_avalon_mailbox_send
(altera_avalon_mailbox_dev *dev, void *message, int timeout, EventType event)
{
 402253c:	defff704 	addi	sp,sp,-36
 4022540:	dfc00815 	stw	ra,32(sp)
 4022544:	df000715 	stw	fp,28(sp)
 4022548:	df000704 	addi	fp,sp,28
 402254c:	e13ffc15 	stw	r4,-16(fp)
 4022550:	e17ffd15 	stw	r5,-12(fp)
 4022554:	e1bffe15 	stw	r6,-8(fp)
 4022558:	e1ffff15 	stw	r7,-4(fp)
    int status = 0;
 402255c:	e03ff915 	stw	zero,-28(fp)
     * Obtain the "write_lock"semaphore to ensures 
     * that writing to the device is thread-safe in multi-thread enviroment
     */
    ALT_SEM_PEND (dev->write_lock, 0);

    if (dev->lock || (IORD_ALTERA_AVALON_MAILBOX_STS(dev->base)
 4022560:	e0bffc17 	ldw	r2,-16(fp)
 4022564:	10801103 	ldbu	r2,68(r2)
 4022568:	10803fcc 	andi	r2,r2,255
 402256c:	1000061e 	bne	r2,zero,4022588 <altera_avalon_mailbox_send+0x4c>
 4022570:	e0bffc17 	ldw	r2,-16(fp)
 4022574:	10800a17 	ldw	r2,40(r2)
 4022578:	10800204 	addi	r2,r2,8
 402257c:	10800037 	ldwio	r2,0(r2)
    		          & ALTERA_AVALON_MAILBOX_SIMPLE_STS_FULL_MSK))
 4022580:	1080008c 	andi	r2,r2,2
     * Obtain the "write_lock"semaphore to ensures 
     * that writing to the device is thread-safe in multi-thread enviroment
     */
    ALT_SEM_PEND (dev->write_lock, 0);

    if (dev->lock || (IORD_ALTERA_AVALON_MAILBOX_STS(dev->base)
 4022584:	10000226 	beq	r2,zero,4022590 <altera_avalon_mailbox_send+0x54>
    		          & ALTERA_AVALON_MAILBOX_SIMPLE_STS_FULL_MSK))
    {
    	/* dev is lock or no free space to send */
    	return -1;
 4022588:	00bfffc4 	movi	r2,-1
 402258c:	00003a06 	br	4022678 <altera_avalon_mailbox_send+0x13c>
    }
    else
    {
        dev->mbox_msg = message;
 4022590:	e0bffc17 	ldw	r2,-16(fp)
 4022594:	e0fffd17 	ldw	r3,-12(fp)
 4022598:	10c01015 	stw	r3,64(r2)
        dev->lock = 1;
 402259c:	e0bffc17 	ldw	r2,-16(fp)
 40225a0:	00c00044 	movi	r3,1
 40225a4:	10c01105 	stb	r3,68(r2)
     */
    ALT_SEM_POST (dev->write_lock);



    if ((dev->mailbox_irq == ALT_IRQ_NOT_CONNECTED) || (event==POLL))
 40225a8:	e0bffc17 	ldw	r2,-16(fp)
 40225ac:	10800b17 	ldw	r2,44(r2)
 40225b0:	10bfffe0 	cmpeqi	r2,r2,-1
 40225b4:	1000031e 	bne	r2,zero,40225c4 <altera_avalon_mailbox_send+0x88>
 40225b8:	e0bfff17 	ldw	r2,-4(fp)
 40225bc:	10800058 	cmpnei	r2,r2,1
 40225c0:	1000201e 	bne	r2,zero,4022644 <altera_avalon_mailbox_send+0x108>
    {
        /* Polling mode */
        if (timeout ==0)
 40225c4:	e0bffe17 	ldw	r2,-8(fp)
 40225c8:	1000061e 	bne	r2,zero,40225e4 <altera_avalon_mailbox_send+0xa8>
        {
            do
            {
                mbox_status = altera_avalon_mailbox_status(dev);
 40225cc:	e13ffc17 	ldw	r4,-16(fp)
 40225d0:	40224c40 	call	40224c4 <altera_avalon_mailbox_status>
 40225d4:	e0bffb15 	stw	r2,-20(fp)
            } while (mbox_status);
 40225d8:	e0bffb17 	ldw	r2,-20(fp)
 40225dc:	103ffb1e 	bne	r2,zero,40225cc <__alt_data_end+0xfffe25cc>
 40225e0:	00000e06 	br	402261c <altera_avalon_mailbox_send+0xe0>
        } else
        {
            do
            {
                mbox_status = altera_avalon_mailbox_status(dev);
 40225e4:	e13ffc17 	ldw	r4,-16(fp)
 40225e8:	40224c40 	call	40224c4 <altera_avalon_mailbox_status>
 40225ec:	e0bffb15 	stw	r2,-20(fp)
                timeout--;
 40225f0:	e0bffe17 	ldw	r2,-8(fp)
 40225f4:	10bfffc4 	addi	r2,r2,-1
 40225f8:	e0bffe15 	stw	r2,-8(fp)
            } while (mbox_status && (timeout != 0));
 40225fc:	e0bffb17 	ldw	r2,-20(fp)
 4022600:	10000226 	beq	r2,zero,402260c <altera_avalon_mailbox_send+0xd0>
 4022604:	e0bffe17 	ldw	r2,-8(fp)
 4022608:	103ff61e 	bne	r2,zero,40225e4 <__alt_data_end+0xfffe25e4>
            if (timeout == 0)
 402260c:	e0bffe17 	ldw	r2,-8(fp)
 4022610:	1000021e 	bne	r2,zero,402261c <altera_avalon_mailbox_send+0xe0>
            {    /* Timeout occur or fail sending */
                return -ETIME;
 4022614:	00bff084 	movi	r2,-62
 4022618:	00001706 	br	4022678 <altera_avalon_mailbox_send+0x13c>
            }
        }
        status = altera_avalon_mailbox_post (dev, message);
 402261c:	e17ffd17 	ldw	r5,-12(fp)
 4022620:	e13ffc17 	ldw	r4,-16(fp)
 4022624:	4021ef80 	call	4021ef8 <altera_avalon_mailbox_post>
 4022628:	e0bff915 	stw	r2,-28(fp)
        /* Clear mailbox message to NULL after message being posted */
        dev->mbox_msg = NULL;
 402262c:	e0bffc17 	ldw	r2,-16(fp)
 4022630:	10001015 	stw	zero,64(r2)
        /* Release lock when message posted */
        dev->lock =0;
 4022634:	e0bffc17 	ldw	r2,-16(fp)
 4022638:	10001105 	stb	zero,68(r2)
        return status;
 402263c:	e0bff917 	ldw	r2,-28(fp)
 4022640:	00000d06 	br	4022678 <altera_avalon_mailbox_send+0x13c>
    } else
    {
        /* Enable Sender interrupt */
        data = IORD(dev->base, ALTERA_AVALON_MAILBOX_SIMPLE_INTR_OFST) |
 4022644:	e0bffc17 	ldw	r2,-16(fp)
 4022648:	10800a17 	ldw	r2,40(r2)
 402264c:	10800304 	addi	r2,r2,12
 4022650:	10800037 	ldwio	r2,0(r2)
 4022654:	10800094 	ori	r2,r2,2
 4022658:	e0bffa15 	stw	r2,-24(fp)
                   (ALTERA_AVALON_MAILBOX_SIMPLE_INTR_SPACE_MSK);
        IOWR(dev->base, ALTERA_AVALON_MAILBOX_SIMPLE_INTR_OFST, data);
 402265c:	e0bffc17 	ldw	r2,-16(fp)
 4022660:	10800a17 	ldw	r2,40(r2)
 4022664:	10800304 	addi	r2,r2,12
 4022668:	1007883a 	mov	r3,r2
 402266c:	e0bffa17 	ldw	r2,-24(fp)
 4022670:	18800035 	stwio	r2,0(r3)
    }
  return 0;
 4022674:	0005883a 	mov	r2,zero
}
 4022678:	e037883a 	mov	sp,fp
 402267c:	dfc00117 	ldw	ra,4(sp)
 4022680:	df000017 	ldw	fp,0(sp)
 4022684:	dec00204 	addi	sp,sp,8
 4022688:	f800283a 	ret

0402268c <altera_avalon_mailbox_retrieve_poll>:
 * If a message is available in the mailbox return it otherwise return NULL
 * This function is blocking
 *
 */
int altera_avalon_mailbox_retrieve_poll (altera_avalon_mailbox_dev *dev, alt_u32 *message, alt_u32 timeout)
{
 402268c:	defff904 	addi	sp,sp,-28
 4022690:	dfc00615 	stw	ra,24(sp)
 4022694:	df000515 	stw	fp,20(sp)
 4022698:	df000504 	addi	fp,sp,20
 402269c:	e13ffd15 	stw	r4,-12(fp)
 40226a0:	e17ffe15 	stw	r5,-8(fp)
 40226a4:	e1bfff15 	stw	r6,-4(fp)
    alt_u32 status = 0;
 40226a8:	e03ffb15 	stw	zero,-20(fp)
    alt_u32 data;

    if (dev != NULL && message != NULL)
 40226ac:	e0bffd17 	ldw	r2,-12(fp)
 40226b0:	10003a26 	beq	r2,zero,402279c <altera_avalon_mailbox_retrieve_poll+0x110>
 40226b4:	e0bffe17 	ldw	r2,-8(fp)
 40226b8:	10003826 	beq	r2,zero,402279c <altera_avalon_mailbox_retrieve_poll+0x110>
    {
        /* Mask receiver mailbox interrupt when in polling mode */
        data = IORD(dev->base, ALTERA_AVALON_MAILBOX_SIMPLE_INTR_OFST);
 40226bc:	e0bffd17 	ldw	r2,-12(fp)
 40226c0:	10800a17 	ldw	r2,40(r2)
 40226c4:	10800304 	addi	r2,r2,12
 40226c8:	10800037 	ldwio	r2,0(r2)
 40226cc:	e0bffc15 	stw	r2,-16(fp)
        IOWR(dev->base, ALTERA_AVALON_MAILBOX_SIMPLE_INTR_OFST,
 40226d0:	e0bffd17 	ldw	r2,-12(fp)
 40226d4:	10800a17 	ldw	r2,40(r2)
 40226d8:	10800304 	addi	r2,r2,12
 40226dc:	1009883a 	mov	r4,r2
 40226e0:	e0fffc17 	ldw	r3,-16(fp)
 40226e4:	00bfff84 	movi	r2,-2
 40226e8:	1884703a 	and	r2,r3,r2
 40226ec:	20800035 	stwio	r2,0(r4)
            (data & (~ALTERA_AVALON_MAILBOX_SIMPLE_INTR_PEN_MSK)));


        /* If timeout is '0', poll till message availabe in mailbox */
        if (timeout == 0)
 40226f0:	e0bfff17 	ldw	r2,-4(fp)
 40226f4:	1000061e 	bne	r2,zero,4022710 <altera_avalon_mailbox_retrieve_poll+0x84>
        {
            do
            {
                status = altera_avalon_mailbox_status (dev);
 40226f8:	e13ffd17 	ldw	r4,-12(fp)
 40226fc:	40224c40 	call	40224c4 <altera_avalon_mailbox_status>
 4022700:	e0bffb15 	stw	r2,-20(fp)
            } while (status == 0);
 4022704:	e0bffb17 	ldw	r2,-20(fp)
 4022708:	103ffb26 	beq	r2,zero,40226f8 <__alt_data_end+0xfffe26f8>
 402270c:	00000a06 	br	4022738 <altera_avalon_mailbox_retrieve_poll+0xac>
        } else
        {
            do
            {
                 status = altera_avalon_mailbox_status (dev);
 4022710:	e13ffd17 	ldw	r4,-12(fp)
 4022714:	40224c40 	call	40224c4 <altera_avalon_mailbox_status>
 4022718:	e0bffb15 	stw	r2,-20(fp)
                 timeout-- ;
 402271c:	e0bfff17 	ldw	r2,-4(fp)
 4022720:	10bfffc4 	addi	r2,r2,-1
 4022724:	e0bfff15 	stw	r2,-4(fp)
            } while ((status == 0) && timeout);
 4022728:	e0bffb17 	ldw	r2,-20(fp)
 402272c:	1000021e 	bne	r2,zero,4022738 <altera_avalon_mailbox_retrieve_poll+0xac>
 4022730:	e0bfff17 	ldw	r2,-4(fp)
 4022734:	103ff61e 	bne	r2,zero,4022710 <__alt_data_end+0xfffe2710>
        }

        /* if timeout, status remain 0 */
        if (status)
 4022738:	e0bffb17 	ldw	r2,-20(fp)
 402273c:	10000d26 	beq	r2,zero,4022774 <altera_avalon_mailbox_retrieve_poll+0xe8>
        {
            message[1] = (IORD(dev->base, ALTERA_AVALON_MAILBOX_SIMPLE_PTR_OFST));
 4022740:	e0bffe17 	ldw	r2,-8(fp)
 4022744:	10800104 	addi	r2,r2,4
 4022748:	e0fffd17 	ldw	r3,-12(fp)
 402274c:	18c00a17 	ldw	r3,40(r3)
 4022750:	18c00104 	addi	r3,r3,4
 4022754:	18c00037 	ldwio	r3,0(r3)
 4022758:	10c00015 	stw	r3,0(r2)
            message[0] = (IORD(dev->base, ALTERA_AVALON_MAILBOX_SIMPLE_CMD_OFST));
 402275c:	e0bffd17 	ldw	r2,-12(fp)
 4022760:	10800a17 	ldw	r2,40(r2)
 4022764:	10800037 	ldwio	r2,0(r2)
 4022768:	1007883a 	mov	r3,r2
 402276c:	e0bffe17 	ldw	r2,-8(fp)
 4022770:	10c00015 	stw	r3,0(r2)
        }
        /* Restore original state of interrupt mask */
        IOWR(dev->base, ALTERA_AVALON_MAILBOX_SIMPLE_INTR_OFST, data);
 4022774:	e0bffd17 	ldw	r2,-12(fp)
 4022778:	10800a17 	ldw	r2,40(r2)
 402277c:	10800304 	addi	r2,r2,12
 4022780:	1007883a 	mov	r3,r2
 4022784:	e0bffc17 	ldw	r2,-16(fp)
 4022788:	18800035 	stwio	r2,0(r3)

        /* Return success on complete retrieve message
         * otherwise timeout and exit with error
         */
        if (status)
 402278c:	e0bffb17 	ldw	r2,-20(fp)
 4022790:	10000226 	beq	r2,zero,402279c <altera_avalon_mailbox_retrieve_poll+0x110>
          return 0;
 4022794:	0005883a 	mov	r2,zero
 4022798:	00000606 	br	40227b4 <altera_avalon_mailbox_retrieve_poll+0x128>
      }
      /* Invalid Null dev and message */
      message[1] = 0;
 402279c:	e0bffe17 	ldw	r2,-8(fp)
 40227a0:	10800104 	addi	r2,r2,4
 40227a4:	10000015 	stw	zero,0(r2)
      message[0] = 0;
 40227a8:	e0bffe17 	ldw	r2,-8(fp)
 40227ac:	10000015 	stw	zero,0(r2)
      return -EINVAL;
 40227b0:	00bffa84 	movi	r2,-22
}
 40227b4:	e037883a 	mov	sp,fp
 40227b8:	dfc00117 	ldw	ra,4(sp)
 40227bc:	df000017 	ldw	fp,0(sp)
 40227c0:	dec00204 	addi	sp,sp,8
 40227c4:	f800283a 	ret

040227c8 <perf_get_section_time>:

#include "altera_avalon_performance_counter.h"
#include "system.h"

alt_u64 perf_get_section_time (void* hw_base_address, int which_section)
{
 40227c8:	defff904 	addi	sp,sp,-28
 40227cc:	df000615 	stw	fp,24(sp)
 40227d0:	df000604 	addi	fp,sp,24
 40227d4:	e13ffe15 	stw	r4,-8(fp)
 40227d8:	e17fff15 	stw	r5,-4(fp)
  alt_u32 lo;
  alt_u32 hi;
  alt_u64 result = 0;
 40227dc:	e03ffa15 	stw	zero,-24(fp)
 40227e0:	e03ffb15 	stw	zero,-20(fp)

  PERF_STOP_MEASURING(hw_base_address);
 40227e4:	000b883a 	mov	r5,zero
 40227e8:	e13ffe17 	ldw	r4,-8(fp)
 40227ec:	21400035 	stwio	r5,0(r4)
  lo = IORD(hw_base_address, ( which_section*4   ));
 40227f0:	e13fff17 	ldw	r4,-4(fp)
 40227f4:	2008913a 	slli	r4,r4,4
 40227f8:	200b883a 	mov	r5,r4
 40227fc:	e13ffe17 	ldw	r4,-8(fp)
 4022800:	2149883a 	add	r4,r4,r5
 4022804:	21000037 	ldwio	r4,0(r4)
 4022808:	e13ffc15 	stw	r4,-16(fp)
  hi = IORD(hw_base_address, ((which_section*4)+1));
 402280c:	e13fff17 	ldw	r4,-4(fp)
 4022810:	2008913a 	slli	r4,r4,4
 4022814:	21000104 	addi	r4,r4,4
 4022818:	200b883a 	mov	r5,r4
 402281c:	e13ffe17 	ldw	r4,-8(fp)
 4022820:	2149883a 	add	r4,r4,r5
 4022824:	21000037 	ldwio	r4,0(r4)
 4022828:	e13ffd15 	stw	r4,-12(fp)

  result = ((alt_u64)(((alt_u64) hi) << ((alt_u64)32))) | 
 402282c:	e13ffd17 	ldw	r4,-12(fp)
 4022830:	2011883a 	mov	r8,r4
 4022834:	0013883a 	mov	r9,zero
 4022838:	4006983a 	sll	r3,r8,zero
 402283c:	0005883a 	mov	r2,zero
           ((alt_u64)(((alt_u64) lo)                 ))  ;
 4022840:	e13ffc17 	ldw	r4,-16(fp)
 4022844:	200d883a 	mov	r6,r4
 4022848:	000f883a 	mov	r7,zero

  PERF_STOP_MEASURING(hw_base_address);
  lo = IORD(hw_base_address, ( which_section*4   ));
  hi = IORD(hw_base_address, ((which_section*4)+1));

  result = ((alt_u64)(((alt_u64) hi) << ((alt_u64)32))) | 
 402284c:	1188b03a 	or	r4,r2,r6
 4022850:	e13ffa15 	stw	r4,-24(fp)
 4022854:	19c4b03a 	or	r2,r3,r7
 4022858:	e0bffb15 	stw	r2,-20(fp)
           ((alt_u64)(((alt_u64) lo)                 ))  ;
  return result;
 402285c:	e0bffa17 	ldw	r2,-24(fp)
 4022860:	e0fffb17 	ldw	r3,-20(fp)
 4022864:	1009883a 	mov	r4,r2
 4022868:	180b883a 	mov	r5,r3
}
 402286c:	2005883a 	mov	r2,r4
 4022870:	2807883a 	mov	r3,r5
 4022874:	e037883a 	mov	sp,fp
 4022878:	df000017 	ldw	fp,0(sp)
 402287c:	dec00104 	addi	sp,sp,4
 4022880:	f800283a 	ret

04022884 <perf_get_total_time>:

alt_u64 perf_get_total_time   (void* hw_base_address)
{
 4022884:	defffd04 	addi	sp,sp,-12
 4022888:	dfc00215 	stw	ra,8(sp)
 402288c:	df000115 	stw	fp,4(sp)
 4022890:	df000104 	addi	fp,sp,4
 4022894:	e13fff15 	stw	r4,-4(fp)
  return perf_get_section_time (hw_base_address, 0);
 4022898:	000b883a 	mov	r5,zero
 402289c:	e13fff17 	ldw	r4,-4(fp)
 40228a0:	40227c80 	call	40227c8 <perf_get_section_time>
 40228a4:	100b883a 	mov	r5,r2
 40228a8:	180d883a 	mov	r6,r3
 40228ac:	2807883a 	mov	r3,r5
 40228b0:	3009883a 	mov	r4,r6
}
 40228b4:	1805883a 	mov	r2,r3
 40228b8:	2007883a 	mov	r3,r4
 40228bc:	e037883a 	mov	sp,fp
 40228c0:	dfc00117 	ldw	ra,4(sp)
 40228c4:	df000017 	ldw	fp,0(sp)
 40228c8:	dec00204 	addi	sp,sp,8
 40228cc:	f800283a 	ret

040228d0 <perf_get_num_starts>:

alt_u32 perf_get_num_starts   (void* hw_base_address, int which_section)
{
 40228d0:	defffd04 	addi	sp,sp,-12
 40228d4:	df000215 	stw	fp,8(sp)
 40228d8:	df000204 	addi	fp,sp,8
 40228dc:	e13ffe15 	stw	r4,-8(fp)
 40228e0:	e17fff15 	stw	r5,-4(fp)
  return IORD(hw_base_address, ((which_section*4)+2));
 40228e4:	e0bfff17 	ldw	r2,-4(fp)
 40228e8:	1004913a 	slli	r2,r2,4
 40228ec:	10800204 	addi	r2,r2,8
 40228f0:	1007883a 	mov	r3,r2
 40228f4:	e0bffe17 	ldw	r2,-8(fp)
 40228f8:	10c5883a 	add	r2,r2,r3
 40228fc:	10800037 	ldwio	r2,0(r2)
}
 4022900:	e037883a 	mov	sp,fp
 4022904:	df000017 	ldw	fp,0(sp)
 4022908:	dec00104 	addi	sp,sp,4
 402290c:	f800283a 	ret

04022910 <alt_get_performance_counter_base>:
 * in Nios II IDE just like is done for the system clock timer and
 * timestamp timer.
 */
void* 
alt_get_performance_counter_base()
{
 4022910:	deffff04 	addi	sp,sp,-4
 4022914:	df000015 	stw	fp,0(sp)
 4022918:	d839883a 	mov	fp,sp
#ifdef PERFORMANCE_COUNTER_0_BASE
    return (void*)PERFORMANCE_COUNTER_0_BASE;
#else
    return (void*)0;
 402291c:	0005883a 	mov	r2,zero
#endif
}
 4022920:	e037883a 	mov	sp,fp
 4022924:	df000017 	ldw	fp,0(sp)
 4022928:	dec00104 	addi	sp,sp,4
 402292c:	f800283a 	ret

04022930 <alt_get_cpu_freq>:
 * If the performance counter peripheral is in a different time domain,
 * this won't necessarily be the same frequency of the CPU.
 */
alt_u32 
alt_get_cpu_freq()
{
 4022930:	deffff04 	addi	sp,sp,-4
 4022934:	df000015 	stw	fp,0(sp)
 4022938:	d839883a 	mov	fp,sp
    return ALT_CPU_FREQ;
 402293c:	0080bef4 	movhi	r2,763
 4022940:	10bc2004 	addi	r2,r2,-3968
}
 4022944:	e037883a 	mov	sp,fp
 4022948:	df000017 	ldw	fp,0(sp)
 402294c:	dec00104 	addi	sp,sp,4
 4022950:	f800283a 	ret

04022954 <perf_print_formatted_report>:

#ifndef SMALL_C_LIB 
int perf_print_formatted_report (void* perf_base, 
                                 alt_u32 clock_freq_hertz,
                                 int num_sections, ...)
{
 4022954:	deffe504 	addi	sp,sp,-108
 4022958:	dfc01915 	stw	ra,100(sp)
 402295c:	df001815 	stw	fp,96(sp)
 4022960:	dcc01715 	stw	r19,92(sp)
 4022964:	dc801615 	stw	r18,88(sp)
 4022968:	dc401515 	stw	r17,84(sp)
 402296c:	dc001415 	stw	r16,80(sp)
 4022970:	df001804 	addi	fp,sp,96
 4022974:	e13ff915 	stw	r4,-28(fp)
 4022978:	e17ffa15 	stw	r5,-24(fp)
 402297c:	e1bffb15 	stw	r6,-20(fp)
 4022980:	e1c00215 	stw	r7,8(fp)
  va_list name_args;
  double total_sec;
  alt_u64 total_clocks;
  alt_u64 section_clocks;
  char* section_name;
  int section_num = 1;
 4022984:	00800044 	movi	r2,1
 4022988:	e0bfef15 	stw	r2,-68(fp)

  const char* separator = 
 402298c:	008100f4 	movhi	r2,1027
 4022990:	10843804 	addi	r2,r2,4320
 4022994:	e0bff015 	stw	r2,-64(fp)
    "+---------------+-----+-----------+---------------+-----------+\n";
  const char* column_header = 
 4022998:	008100f4 	movhi	r2,1027
 402299c:	10844904 	addi	r2,r2,4388
 40229a0:	e0bff115 	stw	r2,-60(fp)
    "| Section       |  %  | Time (sec)|  Time (clocks)|Occurrences|\n";

  PERF_STOP_MEASURING (perf_base);
 40229a4:	0007883a 	mov	r3,zero
 40229a8:	e0bff917 	ldw	r2,-28(fp)
 40229ac:	10c00035 	stwio	r3,0(r2)

  va_start (name_args, num_sections);
 40229b0:	e0800204 	addi	r2,fp,8
 40229b4:	e0bff815 	stw	r2,-32(fp)

  total_clocks = perf_get_total_time (perf_base);
 40229b8:	e13ff917 	ldw	r4,-28(fp)
 40229bc:	40228840 	call	4022884 <perf_get_total_time>
 40229c0:	e0bff215 	stw	r2,-56(fp)
 40229c4:	e0fff315 	stw	r3,-52(fp)
  total_sec    = ((double)total_clocks) / clock_freq_hertz;
 40229c8:	e13ff217 	ldw	r4,-56(fp)
 40229cc:	e17ff317 	ldw	r5,-52(fp)
 40229d0:	402d37c0 	call	402d37c <__floatundidf>
 40229d4:	1021883a 	mov	r16,r2
 40229d8:	1823883a 	mov	r17,r3
 40229dc:	e13ffa17 	ldw	r4,-24(fp)
 40229e0:	40305ac0 	call	40305ac <__floatunsidf>
 40229e4:	1009883a 	mov	r4,r2
 40229e8:	180b883a 	mov	r5,r3
 40229ec:	200d883a 	mov	r6,r4
 40229f0:	280f883a 	mov	r7,r5
 40229f4:	8009883a 	mov	r4,r16
 40229f8:	880b883a 	mov	r5,r17
 40229fc:	402e8fc0 	call	402e8fc <__divdf3>
 4022a00:	1009883a 	mov	r4,r2
 4022a04:	180b883a 	mov	r5,r3
 4022a08:	e13ff415 	stw	r4,-48(fp)
 4022a0c:	e17ff515 	stw	r5,-44(fp)

  // Print the total at the top:
  printf ("--Performance Counter Report--\nTotal Time: %3G seconds  (%lld clock-cycles)\n%s%s%s",
 4022a10:	e0bff017 	ldw	r2,-64(fp)
 4022a14:	d8800315 	stw	r2,12(sp)
 4022a18:	e0bff117 	ldw	r2,-60(fp)
 4022a1c:	d8800215 	stw	r2,8(sp)
 4022a20:	e0bff017 	ldw	r2,-64(fp)
 4022a24:	d8800115 	stw	r2,4(sp)
 4022a28:	e0bff317 	ldw	r2,-52(fp)
 4022a2c:	d8800015 	stw	r2,0(sp)
 4022a30:	e1fff217 	ldw	r7,-56(fp)
 4022a34:	e17ff417 	ldw	r5,-48(fp)
 4022a38:	e1bff517 	ldw	r6,-44(fp)
 4022a3c:	010100f4 	movhi	r4,1027
 4022a40:	21045a04 	addi	r4,r4,4456
 4022a44:	4023b740 	call	4023b74 <printf>
          total_sec, total_clocks, separator, column_header, separator);

  section_name = va_arg(name_args, char*);
 4022a48:	e0bff817 	ldw	r2,-32(fp)
 4022a4c:	10c00104 	addi	r3,r2,4
 4022a50:	e0fff815 	stw	r3,-32(fp)
 4022a54:	10800017 	ldw	r2,0(r2)
 4022a58:	e0bfee15 	stw	r2,-72(fp)

  for (section_num = 1; section_num <= num_sections; section_num++)
 4022a5c:	00800044 	movi	r2,1
 4022a60:	e0bfef15 	stw	r2,-68(fp)
 4022a64:	00004e06 	br	4022ba0 <perf_print_formatted_report+0x24c>
    {
      section_clocks = perf_get_section_time (perf_base, section_num);
 4022a68:	e17fef17 	ldw	r5,-68(fp)
 4022a6c:	e13ff917 	ldw	r4,-28(fp)
 4022a70:	40227c80 	call	40227c8 <perf_get_section_time>
 4022a74:	e0bff615 	stw	r2,-40(fp)
 4022a78:	e0fff715 	stw	r3,-36(fp)

      printf ("|%-15s|%5.3g|%11.5f|%15lld|%11u|\n%s",
              section_name,
              ((((double) section_clocks)) * 100) / total_clocks,
 4022a7c:	e13ff617 	ldw	r4,-40(fp)
 4022a80:	e17ff717 	ldw	r5,-36(fp)
 4022a84:	402d37c0 	call	402d37c <__floatundidf>
 4022a88:	1011883a 	mov	r8,r2
 4022a8c:	1813883a 	mov	r9,r3
 4022a90:	000d883a 	mov	r6,zero
 4022a94:	01d01674 	movhi	r7,16473
 4022a98:	4009883a 	mov	r4,r8
 4022a9c:	480b883a 	mov	r5,r9
 4022aa0:	402f43c0 	call	402f43c <__muldf3>
 4022aa4:	1009883a 	mov	r4,r2
 4022aa8:	180b883a 	mov	r5,r3
 4022aac:	2021883a 	mov	r16,r4
 4022ab0:	2823883a 	mov	r17,r5

  for (section_num = 1; section_num <= num_sections; section_num++)
    {
      section_clocks = perf_get_section_time (perf_base, section_num);

      printf ("|%-15s|%5.3g|%11.5f|%15lld|%11u|\n%s",
 4022ab4:	e13ff217 	ldw	r4,-56(fp)
 4022ab8:	e17ff317 	ldw	r5,-52(fp)
 4022abc:	402d37c0 	call	402d37c <__floatundidf>
 4022ac0:	1009883a 	mov	r4,r2
 4022ac4:	180b883a 	mov	r5,r3
 4022ac8:	200d883a 	mov	r6,r4
 4022acc:	280f883a 	mov	r7,r5
 4022ad0:	8009883a 	mov	r4,r16
 4022ad4:	880b883a 	mov	r5,r17
 4022ad8:	402e8fc0 	call	402e8fc <__divdf3>
 4022adc:	1009883a 	mov	r4,r2
 4022ae0:	180b883a 	mov	r5,r3
 4022ae4:	2025883a 	mov	r18,r4
 4022ae8:	2827883a 	mov	r19,r5
              section_name,
              ((((double) section_clocks)) * 100) / total_clocks,
              (((double) section_clocks)) / clock_freq_hertz,
 4022aec:	e13ff617 	ldw	r4,-40(fp)
 4022af0:	e17ff717 	ldw	r5,-36(fp)
 4022af4:	402d37c0 	call	402d37c <__floatundidf>
 4022af8:	1021883a 	mov	r16,r2
 4022afc:	1823883a 	mov	r17,r3

  for (section_num = 1; section_num <= num_sections; section_num++)
    {
      section_clocks = perf_get_section_time (perf_base, section_num);

      printf ("|%-15s|%5.3g|%11.5f|%15lld|%11u|\n%s",
 4022b00:	e13ffa17 	ldw	r4,-24(fp)
 4022b04:	40305ac0 	call	40305ac <__floatunsidf>
 4022b08:	1009883a 	mov	r4,r2
 4022b0c:	180b883a 	mov	r5,r3
 4022b10:	200d883a 	mov	r6,r4
 4022b14:	280f883a 	mov	r7,r5
 4022b18:	8009883a 	mov	r4,r16
 4022b1c:	880b883a 	mov	r5,r17
 4022b20:	402e8fc0 	call	402e8fc <__divdf3>
 4022b24:	1009883a 	mov	r4,r2
 4022b28:	180b883a 	mov	r5,r3
 4022b2c:	2021883a 	mov	r16,r4
 4022b30:	2823883a 	mov	r17,r5
              section_name,
              ((((double) section_clocks)) * 100) / total_clocks,
              (((double) section_clocks)) / clock_freq_hertz,
              section_clocks,
              (unsigned int) perf_get_num_starts (perf_base, section_num),
 4022b34:	e17fef17 	ldw	r5,-68(fp)
 4022b38:	e13ff917 	ldw	r4,-28(fp)
 4022b3c:	40228d00 	call	40228d0 <perf_get_num_starts>
 4022b40:	1007883a 	mov	r3,r2

  for (section_num = 1; section_num <= num_sections; section_num++)
    {
      section_clocks = perf_get_section_time (perf_base, section_num);

      printf ("|%-15s|%5.3g|%11.5f|%15lld|%11u|\n%s",
 4022b44:	e0bff017 	ldw	r2,-64(fp)
 4022b48:	d8800515 	stw	r2,20(sp)
 4022b4c:	d8c00415 	stw	r3,16(sp)
 4022b50:	e0bff617 	ldw	r2,-40(fp)
 4022b54:	d8800215 	stw	r2,8(sp)
 4022b58:	e0bff717 	ldw	r2,-36(fp)
 4022b5c:	d8800315 	stw	r2,12(sp)
 4022b60:	dc000015 	stw	r16,0(sp)
 4022b64:	dc400115 	stw	r17,4(sp)
 4022b68:	900d883a 	mov	r6,r18
 4022b6c:	980f883a 	mov	r7,r19
 4022b70:	e17fee17 	ldw	r5,-72(fp)
 4022b74:	010100f4 	movhi	r4,1027
 4022b78:	21046f04 	addi	r4,r4,4540
 4022b7c:	4023b740 	call	4023b74 <printf>
              section_clocks,
              (unsigned int) perf_get_num_starts (perf_base, section_num),
              separator
              );

      section_name = va_arg(name_args, char*);
 4022b80:	e0bff817 	ldw	r2,-32(fp)
 4022b84:	10c00104 	addi	r3,r2,4
 4022b88:	e0fff815 	stw	r3,-32(fp)
 4022b8c:	10800017 	ldw	r2,0(r2)
 4022b90:	e0bfee15 	stw	r2,-72(fp)
  printf ("--Performance Counter Report--\nTotal Time: %3G seconds  (%lld clock-cycles)\n%s%s%s",
          total_sec, total_clocks, separator, column_header, separator);

  section_name = va_arg(name_args, char*);

  for (section_num = 1; section_num <= num_sections; section_num++)
 4022b94:	e0bfef17 	ldw	r2,-68(fp)
 4022b98:	10800044 	addi	r2,r2,1
 4022b9c:	e0bfef15 	stw	r2,-68(fp)
 4022ba0:	e0bfef17 	ldw	r2,-68(fp)
 4022ba4:	e0fffb17 	ldw	r3,-20(fp)
 4022ba8:	18bfaf0e 	bge	r3,r2,4022a68 <__alt_data_end+0xfffe2a68>
      section_name = va_arg(name_args, char*);
    }

  va_end (name_args);

  return 0;
 4022bac:	0005883a 	mov	r2,zero
}
 4022bb0:	e6fffc04 	addi	sp,fp,-16
 4022bb4:	dfc00517 	ldw	ra,20(sp)
 4022bb8:	df000417 	ldw	fp,16(sp)
 4022bbc:	dcc00317 	ldw	r19,12(sp)
 4022bc0:	dc800217 	ldw	r18,8(sp)
 4022bc4:	dc400117 	ldw	r17,4(sp)
 4022bc8:	dc000017 	ldw	r16,0(sp)
 4022bcc:	dec00704 	addi	sp,sp,28
 4022bd0:	f800283a 	ret

04022bd4 <alt_alarm_start>:
 */ 

int alt_alarm_start (alt_alarm* alarm, alt_u32 nticks,
                     alt_u32 (*callback) (void* context),
                     void* context)
{
 4022bd4:	defff504 	addi	sp,sp,-44
 4022bd8:	df000a15 	stw	fp,40(sp)
 4022bdc:	df000a04 	addi	fp,sp,40
 4022be0:	e13ffc15 	stw	r4,-16(fp)
 4022be4:	e17ffd15 	stw	r5,-12(fp)
 4022be8:	e1bffe15 	stw	r6,-8(fp)
 4022bec:	e1ffff15 	stw	r7,-4(fp)
  alt_irq_context irq_context;
  alt_u32 current_nticks = 0;
 4022bf0:	e03ff615 	stw	zero,-40(fp)
 4022bf4:	d0a71317 	ldw	r2,-25524(gp)
  
  if (alt_ticks_per_second ())
 4022bf8:	10003c26 	beq	r2,zero,4022cec <alt_alarm_start+0x118>
  {
    if (alarm)
 4022bfc:	e0bffc17 	ldw	r2,-16(fp)
 4022c00:	10003826 	beq	r2,zero,4022ce4 <alt_alarm_start+0x110>
    {
      alarm->callback = callback;
 4022c04:	e0bffc17 	ldw	r2,-16(fp)
 4022c08:	e0fffe17 	ldw	r3,-8(fp)
 4022c0c:	10c00315 	stw	r3,12(r2)
      alarm->context  = context;
 4022c10:	e0bffc17 	ldw	r2,-16(fp)
 4022c14:	e0ffff17 	ldw	r3,-4(fp)
 4022c18:	10c00515 	stw	r3,20(r2)
static ALT_INLINE alt_irq_context ALT_ALWAYS_INLINE 
       alt_irq_disable_all (void)
{
  alt_irq_context context;

  NIOS2_READ_STATUS (context);
 4022c1c:	0005303a 	rdctl	r2,status
 4022c20:	e0bff915 	stw	r2,-28(fp)

  NIOS2_WRITE_STATUS (context & ~NIOS2_STATUS_PIE_MSK);
 4022c24:	e0fff917 	ldw	r3,-28(fp)
 4022c28:	00bfff84 	movi	r2,-2
 4022c2c:	1884703a 	and	r2,r3,r2
 4022c30:	1001703a 	wrctl	status,r2
  
  return context;
 4022c34:	e0bff917 	ldw	r2,-28(fp)
 
      irq_context = alt_irq_disable_all ();
 4022c38:	e0bff815 	stw	r2,-32(fp)
 * alt_nticks() returns the elapsed number of system clock ticks since reset.
 */

static ALT_INLINE alt_u32 ALT_ALWAYS_INLINE alt_nticks (void)
{
  return _alt_nticks;
 4022c3c:	d0a71417 	ldw	r2,-25520(gp)
      
      current_nticks = alt_nticks();
 4022c40:	e0bff615 	stw	r2,-40(fp)
      
      alarm->time = nticks + current_nticks + 1; 
 4022c44:	e0fffd17 	ldw	r3,-12(fp)
 4022c48:	e0bff617 	ldw	r2,-40(fp)
 4022c4c:	1885883a 	add	r2,r3,r2
 4022c50:	10c00044 	addi	r3,r2,1
 4022c54:	e0bffc17 	ldw	r2,-16(fp)
 4022c58:	10c00215 	stw	r3,8(r2)
      /* 
       * If the desired alarm time causes a roll-over, set the rollover
       * flag. This will prevent the subsequent tick event from causing
       * an alarm too early.
       */
      if(alarm->time < current_nticks)
 4022c5c:	e0bffc17 	ldw	r2,-16(fp)
 4022c60:	10c00217 	ldw	r3,8(r2)
 4022c64:	e0bff617 	ldw	r2,-40(fp)
 4022c68:	1880042e 	bgeu	r3,r2,4022c7c <alt_alarm_start+0xa8>
      {
        alarm->rollover = 1;
 4022c6c:	e0bffc17 	ldw	r2,-16(fp)
 4022c70:	00c00044 	movi	r3,1
 4022c74:	10c00405 	stb	r3,16(r2)
 4022c78:	00000206 	br	4022c84 <alt_alarm_start+0xb0>
      }
      else
      {
        alarm->rollover = 0;
 4022c7c:	e0bffc17 	ldw	r2,-16(fp)
 4022c80:	10000405 	stb	zero,16(r2)
      }
    
      alt_llist_insert (&alt_alarm_list, &alarm->llist);
 4022c84:	e0bffc17 	ldw	r2,-16(fp)
 4022c88:	d0e00904 	addi	r3,gp,-32732
 4022c8c:	e0fffa15 	stw	r3,-24(fp)
 4022c90:	e0bffb15 	stw	r2,-20(fp)
 */

static ALT_INLINE void ALT_ALWAYS_INLINE alt_llist_insert(alt_llist* list, 
                alt_llist* entry)
{
  entry->previous = list;
 4022c94:	e0bffb17 	ldw	r2,-20(fp)
 4022c98:	e0fffa17 	ldw	r3,-24(fp)
 4022c9c:	10c00115 	stw	r3,4(r2)
  entry->next     = list->next;
 4022ca0:	e0bffa17 	ldw	r2,-24(fp)
 4022ca4:	10c00017 	ldw	r3,0(r2)
 4022ca8:	e0bffb17 	ldw	r2,-20(fp)
 4022cac:	10c00015 	stw	r3,0(r2)

  list->next->previous = entry;
 4022cb0:	e0bffa17 	ldw	r2,-24(fp)
 4022cb4:	10800017 	ldw	r2,0(r2)
 4022cb8:	e0fffb17 	ldw	r3,-20(fp)
 4022cbc:	10c00115 	stw	r3,4(r2)
  list->next           = entry;
 4022cc0:	e0bffa17 	ldw	r2,-24(fp)
 4022cc4:	e0fffb17 	ldw	r3,-20(fp)
 4022cc8:	10c00015 	stw	r3,0(r2)
 4022ccc:	e0bff817 	ldw	r2,-32(fp)
 4022cd0:	e0bff715 	stw	r2,-36(fp)
  status &= ~NIOS2_STATUS_PIE_MSK;
  status |= (context & NIOS2_STATUS_PIE_MSK);
  
  NIOS2_WRITE_STATUS (status);
#else
  NIOS2_WRITE_STATUS (context);
 4022cd4:	e0bff717 	ldw	r2,-36(fp)
 4022cd8:	1001703a 	wrctl	status,r2
      alt_irq_enable_all (irq_context);

      return 0;
 4022cdc:	0005883a 	mov	r2,zero
 4022ce0:	00000306 	br	4022cf0 <alt_alarm_start+0x11c>
    }
    else
    {
      return -EINVAL;
 4022ce4:	00bffa84 	movi	r2,-22
 4022ce8:	00000106 	br	4022cf0 <alt_alarm_start+0x11c>
    }
  }
  else
  {
    return -ENOTSUP;
 4022cec:	00bfde84 	movi	r2,-134
  }
}
 4022cf0:	e037883a 	mov	sp,fp
 4022cf4:	df000017 	ldw	fp,0(sp)
 4022cf8:	dec00104 	addi	sp,sp,4
 4022cfc:	f800283a 	ret

04022d00 <alt_get_errno>:
#undef errno

extern int errno;

static ALT_INLINE int* alt_get_errno(void)
{
 4022d00:	defffe04 	addi	sp,sp,-8
 4022d04:	dfc00115 	stw	ra,4(sp)
 4022d08:	df000015 	stw	fp,0(sp)
 4022d0c:	d839883a 	mov	fp,sp
  return ((alt_errno) ? alt_errno() : &errno);
 4022d10:	d0a00817 	ldw	r2,-32736(gp)
 4022d14:	10000326 	beq	r2,zero,4022d24 <alt_get_errno+0x24>
 4022d18:	d0a00817 	ldw	r2,-32736(gp)
 4022d1c:	103ee83a 	callr	r2
 4022d20:	00000106 	br	4022d28 <alt_get_errno+0x28>
 4022d24:	d0a71504 	addi	r2,gp,-25516
}
 4022d28:	e037883a 	mov	sp,fp
 4022d2c:	dfc00117 	ldw	ra,4(sp)
 4022d30:	df000017 	ldw	fp,0(sp)
 4022d34:	dec00204 	addi	sp,sp,8
 4022d38:	f800283a 	ret

04022d3c <close>:
 *
 * ALT_CLOSE is mapped onto the close() system call in alt_syscall.h
 */
 
int ALT_CLOSE (int fildes)
{
 4022d3c:	defffb04 	addi	sp,sp,-20
 4022d40:	dfc00415 	stw	ra,16(sp)
 4022d44:	df000315 	stw	fp,12(sp)
 4022d48:	df000304 	addi	fp,sp,12
 4022d4c:	e13fff15 	stw	r4,-4(fp)
   * A common error case is that when the file descriptor was created, the call
   * to open() failed resulting in a negative file descriptor. This is trapped
   * below so that we don't try and process an invalid file descriptor.
   */

  fd = (fildes < 0) ? NULL : &alt_fd_list[fildes];
 4022d50:	e0bfff17 	ldw	r2,-4(fp)
 4022d54:	10000616 	blt	r2,zero,4022d70 <close+0x34>
 4022d58:	e0bfff17 	ldw	r2,-4(fp)
 4022d5c:	10c00324 	muli	r3,r2,12
 4022d60:	008100f4 	movhi	r2,1027
 4022d64:	10898904 	addi	r2,r2,9764
 4022d68:	1885883a 	add	r2,r3,r2
 4022d6c:	00000106 	br	4022d74 <close+0x38>
 4022d70:	0005883a 	mov	r2,zero
 4022d74:	e0bffd15 	stw	r2,-12(fp)

  if (fd)
 4022d78:	e0bffd17 	ldw	r2,-12(fp)
 4022d7c:	10001926 	beq	r2,zero,4022de4 <close+0xa8>
    /*
     * If the associated file system/device has a close function, call it so 
     * that any necessary cleanup code can run.
     */

    rval = (fd->dev->close) ? fd->dev->close(fd) : 0;
 4022d80:	e0bffd17 	ldw	r2,-12(fp)
 4022d84:	10800017 	ldw	r2,0(r2)
 4022d88:	10800417 	ldw	r2,16(r2)
 4022d8c:	10000626 	beq	r2,zero,4022da8 <close+0x6c>
 4022d90:	e0bffd17 	ldw	r2,-12(fp)
 4022d94:	10800017 	ldw	r2,0(r2)
 4022d98:	10800417 	ldw	r2,16(r2)
 4022d9c:	e13ffd17 	ldw	r4,-12(fp)
 4022da0:	103ee83a 	callr	r2
 4022da4:	00000106 	br	4022dac <close+0x70>
 4022da8:	0005883a 	mov	r2,zero
 4022dac:	e0bffe15 	stw	r2,-8(fp)

    /* Free the file descriptor structure and return. */

    alt_release_fd (fildes);
 4022db0:	e13fff17 	ldw	r4,-4(fp)
 4022db4:	40234cc0 	call	40234cc <alt_release_fd>
    if (rval < 0)
 4022db8:	e0bffe17 	ldw	r2,-8(fp)
 4022dbc:	1000070e 	bge	r2,zero,4022ddc <close+0xa0>
    {
      ALT_ERRNO = -rval;
 4022dc0:	4022d000 	call	4022d00 <alt_get_errno>
 4022dc4:	1007883a 	mov	r3,r2
 4022dc8:	e0bffe17 	ldw	r2,-8(fp)
 4022dcc:	0085c83a 	sub	r2,zero,r2
 4022dd0:	18800015 	stw	r2,0(r3)
      return -1;
 4022dd4:	00bfffc4 	movi	r2,-1
 4022dd8:	00000706 	br	4022df8 <close+0xbc>
    }
    return 0;
 4022ddc:	0005883a 	mov	r2,zero
 4022de0:	00000506 	br	4022df8 <close+0xbc>
  }
  else
  {
    ALT_ERRNO = EBADFD;
 4022de4:	4022d000 	call	4022d00 <alt_get_errno>
 4022de8:	1007883a 	mov	r3,r2
 4022dec:	00801444 	movi	r2,81
 4022df0:	18800015 	stw	r2,0(r3)
    return -1;
 4022df4:	00bfffc4 	movi	r2,-1
  }
}
 4022df8:	e037883a 	mov	sp,fp
 4022dfc:	dfc00117 	ldw	ra,4(sp)
 4022e00:	df000017 	ldw	fp,0(sp)
 4022e04:	dec00204 	addi	sp,sp,8
 4022e08:	f800283a 	ret

04022e0c <alt_dev_null_write>:
 * by the alt_dev_null device. It simple discards all data passed to it, and
 * indicates that the data has been successfully transmitted.
 */

static int alt_dev_null_write (alt_fd* fd, const char* ptr, int len)
{
 4022e0c:	defffc04 	addi	sp,sp,-16
 4022e10:	df000315 	stw	fp,12(sp)
 4022e14:	df000304 	addi	fp,sp,12
 4022e18:	e13ffd15 	stw	r4,-12(fp)
 4022e1c:	e17ffe15 	stw	r5,-8(fp)
 4022e20:	e1bfff15 	stw	r6,-4(fp)
  return len;
 4022e24:	e0bfff17 	ldw	r2,-4(fp)
}
 4022e28:	e037883a 	mov	sp,fp
 4022e2c:	df000017 	ldw	fp,0(sp)
 4022e30:	dec00104 	addi	sp,sp,4
 4022e34:	f800283a 	ret

04022e38 <alt_get_errno>:
#undef errno

extern int errno;

static ALT_INLINE int* alt_get_errno(void)
{
 4022e38:	defffe04 	addi	sp,sp,-8
 4022e3c:	dfc00115 	stw	ra,4(sp)
 4022e40:	df000015 	stw	fp,0(sp)
 4022e44:	d839883a 	mov	fp,sp
  return ((alt_errno) ? alt_errno() : &errno);
 4022e48:	d0a00817 	ldw	r2,-32736(gp)
 4022e4c:	10000326 	beq	r2,zero,4022e5c <alt_get_errno+0x24>
 4022e50:	d0a00817 	ldw	r2,-32736(gp)
 4022e54:	103ee83a 	callr	r2
 4022e58:	00000106 	br	4022e60 <alt_get_errno+0x28>
 4022e5c:	d0a71504 	addi	r2,gp,-25516
}
 4022e60:	e037883a 	mov	sp,fp
 4022e64:	dfc00117 	ldw	ra,4(sp)
 4022e68:	df000017 	ldw	fp,0(sp)
 4022e6c:	dec00204 	addi	sp,sp,8
 4022e70:	f800283a 	ret

04022e74 <alt_dev_llist_insert>:
/*
 *
 */

int alt_dev_llist_insert (alt_dev_llist* dev, alt_llist* list)
{
 4022e74:	defffa04 	addi	sp,sp,-24
 4022e78:	dfc00515 	stw	ra,20(sp)
 4022e7c:	df000415 	stw	fp,16(sp)
 4022e80:	df000404 	addi	fp,sp,16
 4022e84:	e13ffe15 	stw	r4,-8(fp)
 4022e88:	e17fff15 	stw	r5,-4(fp)
  /*
   * check that the device exists, and that it has a valid name.
   */

  if (!dev || !dev->name)
 4022e8c:	e0bffe17 	ldw	r2,-8(fp)
 4022e90:	10000326 	beq	r2,zero,4022ea0 <alt_dev_llist_insert+0x2c>
 4022e94:	e0bffe17 	ldw	r2,-8(fp)
 4022e98:	10800217 	ldw	r2,8(r2)
 4022e9c:	1000061e 	bne	r2,zero,4022eb8 <alt_dev_llist_insert+0x44>
  {
    ALT_ERRNO = EINVAL;
 4022ea0:	4022e380 	call	4022e38 <alt_get_errno>
 4022ea4:	1007883a 	mov	r3,r2
 4022ea8:	00800584 	movi	r2,22
 4022eac:	18800015 	stw	r2,0(r3)
    return -EINVAL;
 4022eb0:	00bffa84 	movi	r2,-22
 4022eb4:	00001306 	br	4022f04 <alt_dev_llist_insert+0x90>
  
  /*
   * register the device.
   */
  
  alt_llist_insert(list, &dev->llist);
 4022eb8:	e0bffe17 	ldw	r2,-8(fp)
 4022ebc:	e0ffff17 	ldw	r3,-4(fp)
 4022ec0:	e0fffc15 	stw	r3,-16(fp)
 4022ec4:	e0bffd15 	stw	r2,-12(fp)
 */

static ALT_INLINE void ALT_ALWAYS_INLINE alt_llist_insert(alt_llist* list, 
                alt_llist* entry)
{
  entry->previous = list;
 4022ec8:	e0bffd17 	ldw	r2,-12(fp)
 4022ecc:	e0fffc17 	ldw	r3,-16(fp)
 4022ed0:	10c00115 	stw	r3,4(r2)
  entry->next     = list->next;
 4022ed4:	e0bffc17 	ldw	r2,-16(fp)
 4022ed8:	10c00017 	ldw	r3,0(r2)
 4022edc:	e0bffd17 	ldw	r2,-12(fp)
 4022ee0:	10c00015 	stw	r3,0(r2)

  list->next->previous = entry;
 4022ee4:	e0bffc17 	ldw	r2,-16(fp)
 4022ee8:	10800017 	ldw	r2,0(r2)
 4022eec:	e0fffd17 	ldw	r3,-12(fp)
 4022ef0:	10c00115 	stw	r3,4(r2)
  list->next           = entry;
 4022ef4:	e0bffc17 	ldw	r2,-16(fp)
 4022ef8:	e0fffd17 	ldw	r3,-12(fp)
 4022efc:	10c00015 	stw	r3,0(r2)

  return 0;  
 4022f00:	0005883a 	mov	r2,zero
}
 4022f04:	e037883a 	mov	sp,fp
 4022f08:	dfc00117 	ldw	ra,4(sp)
 4022f0c:	df000017 	ldw	fp,0(sp)
 4022f10:	dec00204 	addi	sp,sp,8
 4022f14:	f800283a 	ret

04022f18 <_do_ctors>:
/*
 * Run the C++ static constructors.
 */

void _do_ctors(void)
{
 4022f18:	defffd04 	addi	sp,sp,-12
 4022f1c:	dfc00215 	stw	ra,8(sp)
 4022f20:	df000115 	stw	fp,4(sp)
 4022f24:	df000104 	addi	fp,sp,4
  constructor* ctor;

  for (ctor = &__CTOR_END__[-1]; ctor >= __CTOR_LIST__; ctor--)
 4022f28:	008100f4 	movhi	r2,1027
 4022f2c:	10834a04 	addi	r2,r2,3368
 4022f30:	e0bfff15 	stw	r2,-4(fp)
 4022f34:	00000606 	br	4022f50 <_do_ctors+0x38>
        (*ctor) (); 
 4022f38:	e0bfff17 	ldw	r2,-4(fp)
 4022f3c:	10800017 	ldw	r2,0(r2)
 4022f40:	103ee83a 	callr	r2

void _do_ctors(void)
{
  constructor* ctor;

  for (ctor = &__CTOR_END__[-1]; ctor >= __CTOR_LIST__; ctor--)
 4022f44:	e0bfff17 	ldw	r2,-4(fp)
 4022f48:	10bfff04 	addi	r2,r2,-4
 4022f4c:	e0bfff15 	stw	r2,-4(fp)
 4022f50:	e0ffff17 	ldw	r3,-4(fp)
 4022f54:	008100f4 	movhi	r2,1027
 4022f58:	10834b04 	addi	r2,r2,3372
 4022f5c:	18bff62e 	bgeu	r3,r2,4022f38 <__alt_data_end+0xfffe2f38>
        (*ctor) (); 
}
 4022f60:	0001883a 	nop
 4022f64:	e037883a 	mov	sp,fp
 4022f68:	dfc00117 	ldw	ra,4(sp)
 4022f6c:	df000017 	ldw	fp,0(sp)
 4022f70:	dec00204 	addi	sp,sp,8
 4022f74:	f800283a 	ret

04022f78 <_do_dtors>:
/*
 * Run the C++ static destructors.
 */

void _do_dtors(void)
{
 4022f78:	defffd04 	addi	sp,sp,-12
 4022f7c:	dfc00215 	stw	ra,8(sp)
 4022f80:	df000115 	stw	fp,4(sp)
 4022f84:	df000104 	addi	fp,sp,4
  destructor* dtor;

  for (dtor = &__DTOR_END__[-1]; dtor >= __DTOR_LIST__; dtor--)
 4022f88:	008100f4 	movhi	r2,1027
 4022f8c:	10834a04 	addi	r2,r2,3368
 4022f90:	e0bfff15 	stw	r2,-4(fp)
 4022f94:	00000606 	br	4022fb0 <_do_dtors+0x38>
        (*dtor) (); 
 4022f98:	e0bfff17 	ldw	r2,-4(fp)
 4022f9c:	10800017 	ldw	r2,0(r2)
 4022fa0:	103ee83a 	callr	r2

void _do_dtors(void)
{
  destructor* dtor;

  for (dtor = &__DTOR_END__[-1]; dtor >= __DTOR_LIST__; dtor--)
 4022fa4:	e0bfff17 	ldw	r2,-4(fp)
 4022fa8:	10bfff04 	addi	r2,r2,-4
 4022fac:	e0bfff15 	stw	r2,-4(fp)
 4022fb0:	e0ffff17 	ldw	r3,-4(fp)
 4022fb4:	008100f4 	movhi	r2,1027
 4022fb8:	10834b04 	addi	r2,r2,3372
 4022fbc:	18bff62e 	bgeu	r3,r2,4022f98 <__alt_data_end+0xfffe2f98>
        (*dtor) (); 
}
 4022fc0:	0001883a 	nop
 4022fc4:	e037883a 	mov	sp,fp
 4022fc8:	dfc00117 	ldw	ra,4(sp)
 4022fcc:	df000017 	ldw	fp,0(sp)
 4022fd0:	dec00204 	addi	sp,sp,8
 4022fd4:	f800283a 	ret

04022fd8 <alt_find_dev>:
 * "name" must be an exact match for the devices registered name for a match to
 * be found.
 */
 
alt_dev* alt_find_dev(const char* name, alt_llist* llist)
{
 4022fd8:	defffa04 	addi	sp,sp,-24
 4022fdc:	dfc00515 	stw	ra,20(sp)
 4022fe0:	df000415 	stw	fp,16(sp)
 4022fe4:	df000404 	addi	fp,sp,16
 4022fe8:	e13ffe15 	stw	r4,-8(fp)
 4022fec:	e17fff15 	stw	r5,-4(fp)
  alt_dev* next = (alt_dev*) llist->next;
 4022ff0:	e0bfff17 	ldw	r2,-4(fp)
 4022ff4:	10800017 	ldw	r2,0(r2)
 4022ff8:	e0bffc15 	stw	r2,-16(fp)
  alt_32 len;

  len  = strlen(name) + 1;
 4022ffc:	e13ffe17 	ldw	r4,-8(fp)
 4023000:	4023d180 	call	4023d18 <strlen>
 4023004:	10800044 	addi	r2,r2,1
 4023008:	e0bffd15 	stw	r2,-12(fp)
  /*
   * Check each list entry in turn, until a match is found, or we reach the
   * end of the list (i.e. next winds up pointing back to the list head).
   */ 

  while (next != (alt_dev*) llist)
 402300c:	00000d06 	br	4023044 <alt_find_dev+0x6c>
    /* 
     * memcmp() is used here rather than strcmp() in order to reduce the size
     * of the executable.
     */

    if (!memcmp (next->name, name, len))
 4023010:	e0bffc17 	ldw	r2,-16(fp)
 4023014:	10800217 	ldw	r2,8(r2)
 4023018:	e0fffd17 	ldw	r3,-12(fp)
 402301c:	180d883a 	mov	r6,r3
 4023020:	e17ffe17 	ldw	r5,-8(fp)
 4023024:	1009883a 	mov	r4,r2
 4023028:	40239800 	call	4023980 <memcmp>
 402302c:	1000021e 	bne	r2,zero,4023038 <alt_find_dev+0x60>
    {
      /* match found */

      return next;
 4023030:	e0bffc17 	ldw	r2,-16(fp)
 4023034:	00000706 	br	4023054 <alt_find_dev+0x7c>
    }
    next = (alt_dev*) next->llist.next;
 4023038:	e0bffc17 	ldw	r2,-16(fp)
 402303c:	10800017 	ldw	r2,0(r2)
 4023040:	e0bffc15 	stw	r2,-16(fp)
  /*
   * Check each list entry in turn, until a match is found, or we reach the
   * end of the list (i.e. next winds up pointing back to the list head).
   */ 

  while (next != (alt_dev*) llist)
 4023044:	e0fffc17 	ldw	r3,-16(fp)
 4023048:	e0bfff17 	ldw	r2,-4(fp)
 402304c:	18bff01e 	bne	r3,r2,4023010 <__alt_data_end+0xfffe3010>
    next = (alt_dev*) next->llist.next;
  }
  
  /* No match found */
  
  return NULL;
 4023050:	0005883a 	mov	r2,zero
}
 4023054:	e037883a 	mov	sp,fp
 4023058:	dfc00117 	ldw	ra,4(sp)
 402305c:	df000017 	ldw	fp,0(sp)
 4023060:	dec00204 	addi	sp,sp,8
 4023064:	f800283a 	ret

04023068 <alt_icache_flush_all>:
/*
 * alt_icache_flush_all() is called to flush the entire instruction cache.
 */

void alt_icache_flush_all (void)
{
 4023068:	defffe04 	addi	sp,sp,-8
 402306c:	dfc00115 	stw	ra,4(sp)
 4023070:	df000015 	stw	fp,0(sp)
 4023074:	d839883a 	mov	fp,sp
#if NIOS2_ICACHE_SIZE > 0
  alt_icache_flush (0, NIOS2_ICACHE_SIZE);
 4023078:	01440004 	movi	r5,4096
 402307c:	0009883a 	mov	r4,zero
 4023080:	40238a40 	call	40238a4 <alt_icache_flush>
#endif
}
 4023084:	0001883a 	nop
 4023088:	e037883a 	mov	sp,fp
 402308c:	dfc00117 	ldw	ra,4(sp)
 4023090:	df000017 	ldw	fp,0(sp)
 4023094:	dec00204 	addi	sp,sp,8
 4023098:	f800283a 	ret

0402309c <alt_exception_cause_generated_bad_addr>:
 * Return: 1: BADADDR (bad_addr argument to handler) is valid
 *         0: BADADDR is not valid
 */
int 
alt_exception_cause_generated_bad_addr(alt_exception_cause cause)
{
 402309c:	defffe04 	addi	sp,sp,-8
 40230a0:	df000115 	stw	fp,4(sp)
 40230a4:	df000104 	addi	fp,sp,4
 40230a8:	e13fff15 	stw	r4,-4(fp)
  switch (cause) {
 40230ac:	e0bfff17 	ldw	r2,-4(fp)
 40230b0:	10bffe84 	addi	r2,r2,-6
 40230b4:	10c00428 	cmpgeui	r3,r2,16
 40230b8:	18001a1e 	bne	r3,zero,4023124 <alt_exception_cause_generated_bad_addr+0x88>
 40230bc:	100690ba 	slli	r3,r2,2
 40230c0:	008100b4 	movhi	r2,1026
 40230c4:	108c3504 	addi	r2,r2,12500
 40230c8:	1885883a 	add	r2,r3,r2
 40230cc:	10800017 	ldw	r2,0(r2)
 40230d0:	1000683a 	jmp	r2
 40230d4:	04023114 	movui	r16,2244
 40230d8:	04023114 	movui	r16,2244
 40230dc:	04023124 	muli	r16,zero,2244
 40230e0:	04023124 	muli	r16,zero,2244
 40230e4:	04023124 	muli	r16,zero,2244
 40230e8:	04023114 	movui	r16,2244
 40230ec:	0402311c 	xori	r16,zero,2244
 40230f0:	04023124 	muli	r16,zero,2244
 40230f4:	04023114 	movui	r16,2244
 40230f8:	04023114 	movui	r16,2244
 40230fc:	04023124 	muli	r16,zero,2244
 4023100:	04023114 	movui	r16,2244
 4023104:	0402311c 	xori	r16,zero,2244
 4023108:	04023124 	muli	r16,zero,2244
 402310c:	04023124 	muli	r16,zero,2244
 4023110:	04023114 	movui	r16,2244
  case NIOS2_EXCEPTION_MISALIGNED_TARGET_PC:
  case NIOS2_EXCEPTION_TLB_READ_PERM_VIOLATION:
  case NIOS2_EXCEPTION_TLB_WRITE_PERM_VIOLATION:
  case NIOS2_EXCEPTION_MPU_DATA_REGION_VIOLATION:
  case NIOS2_EXCEPTION_ECC_DATA_ERR:
    return 1;
 4023114:	00800044 	movi	r2,1
 4023118:	00000306 	br	4023128 <alt_exception_cause_generated_bad_addr+0x8c>

  case NIOS2_EXCEPTION_TLB_MISS:
  case NIOS2_EXCEPTION_ECC_TLB_ERR:
    return 0;
 402311c:	0005883a 	mov	r2,zero
 4023120:	00000106 	br	4023128 <alt_exception_cause_generated_bad_addr+0x8c>

  default:
    return 0;
 4023124:	0005883a 	mov	r2,zero
  }
}
 4023128:	e037883a 	mov	sp,fp
 402312c:	df000017 	ldw	fp,0(sp)
 4023130:	dec00104 	addi	sp,sp,4
 4023134:	f800283a 	ret

04023138 <alt_open_fd>:
 * If the device can not be succesfully opened, then the input file descriptor
 * remains unchanged.
 */

static void alt_open_fd(alt_fd* fd, const char* name, int flags, int mode)
{
 4023138:	defff904 	addi	sp,sp,-28
 402313c:	dfc00615 	stw	ra,24(sp)
 4023140:	df000515 	stw	fp,20(sp)
 4023144:	df000504 	addi	fp,sp,20
 4023148:	e13ffc15 	stw	r4,-16(fp)
 402314c:	e17ffd15 	stw	r5,-12(fp)
 4023150:	e1bffe15 	stw	r6,-8(fp)
 4023154:	e1ffff15 	stw	r7,-4(fp)
  int old;

  old = open (name, flags, mode);
 4023158:	e1bfff17 	ldw	r6,-4(fp)
 402315c:	e17ffe17 	ldw	r5,-8(fp)
 4023160:	e13ffd17 	ldw	r4,-12(fp)
 4023164:	40233780 	call	4023378 <open>
 4023168:	e0bffb15 	stw	r2,-20(fp)

  if (old >= 0)
 402316c:	e0bffb17 	ldw	r2,-20(fp)
 4023170:	10001c16 	blt	r2,zero,40231e4 <alt_open_fd+0xac>
  {
    fd->dev      = alt_fd_list[old].dev;
 4023174:	008100f4 	movhi	r2,1027
 4023178:	10898904 	addi	r2,r2,9764
 402317c:	e0fffb17 	ldw	r3,-20(fp)
 4023180:	18c00324 	muli	r3,r3,12
 4023184:	10c5883a 	add	r2,r2,r3
 4023188:	10c00017 	ldw	r3,0(r2)
 402318c:	e0bffc17 	ldw	r2,-16(fp)
 4023190:	10c00015 	stw	r3,0(r2)
    fd->priv     = alt_fd_list[old].priv;
 4023194:	008100f4 	movhi	r2,1027
 4023198:	10898904 	addi	r2,r2,9764
 402319c:	e0fffb17 	ldw	r3,-20(fp)
 40231a0:	18c00324 	muli	r3,r3,12
 40231a4:	10c5883a 	add	r2,r2,r3
 40231a8:	10800104 	addi	r2,r2,4
 40231ac:	10c00017 	ldw	r3,0(r2)
 40231b0:	e0bffc17 	ldw	r2,-16(fp)
 40231b4:	10c00115 	stw	r3,4(r2)
    fd->fd_flags = alt_fd_list[old].fd_flags;
 40231b8:	008100f4 	movhi	r2,1027
 40231bc:	10898904 	addi	r2,r2,9764
 40231c0:	e0fffb17 	ldw	r3,-20(fp)
 40231c4:	18c00324 	muli	r3,r3,12
 40231c8:	10c5883a 	add	r2,r2,r3
 40231cc:	10800204 	addi	r2,r2,8
 40231d0:	10c00017 	ldw	r3,0(r2)
 40231d4:	e0bffc17 	ldw	r2,-16(fp)
 40231d8:	10c00215 	stw	r3,8(r2)

    alt_release_fd (old);
 40231dc:	e13ffb17 	ldw	r4,-20(fp)
 40231e0:	40234cc0 	call	40234cc <alt_release_fd>
  }
} 
 40231e4:	0001883a 	nop
 40231e8:	e037883a 	mov	sp,fp
 40231ec:	dfc00117 	ldw	ra,4(sp)
 40231f0:	df000017 	ldw	fp,0(sp)
 40231f4:	dec00204 	addi	sp,sp,8
 40231f8:	f800283a 	ret

040231fc <alt_io_redirect>:
 */
 
void alt_io_redirect(const char* stdout_dev, 
                     const char* stdin_dev, 
                     const char* stderr_dev)
{
 40231fc:	defffb04 	addi	sp,sp,-20
 4023200:	dfc00415 	stw	ra,16(sp)
 4023204:	df000315 	stw	fp,12(sp)
 4023208:	df000304 	addi	fp,sp,12
 402320c:	e13ffd15 	stw	r4,-12(fp)
 4023210:	e17ffe15 	stw	r5,-8(fp)
 4023214:	e1bfff15 	stw	r6,-4(fp)
  /* Redirect the channels */

  alt_open_fd (&alt_fd_list[STDOUT_FILENO], stdout_dev, O_WRONLY, 0777);
 4023218:	01c07fc4 	movi	r7,511
 402321c:	01800044 	movi	r6,1
 4023220:	e17ffd17 	ldw	r5,-12(fp)
 4023224:	010100f4 	movhi	r4,1027
 4023228:	21098c04 	addi	r4,r4,9776
 402322c:	40231380 	call	4023138 <alt_open_fd>
  alt_open_fd (&alt_fd_list[STDIN_FILENO], stdin_dev, O_RDONLY, 0777);
 4023230:	01c07fc4 	movi	r7,511
 4023234:	000d883a 	mov	r6,zero
 4023238:	e17ffe17 	ldw	r5,-8(fp)
 402323c:	010100f4 	movhi	r4,1027
 4023240:	21098904 	addi	r4,r4,9764
 4023244:	40231380 	call	4023138 <alt_open_fd>
  alt_open_fd (&alt_fd_list[STDERR_FILENO], stderr_dev, O_WRONLY, 0777);
 4023248:	01c07fc4 	movi	r7,511
 402324c:	01800044 	movi	r6,1
 4023250:	e17fff17 	ldw	r5,-4(fp)
 4023254:	010100f4 	movhi	r4,1027
 4023258:	21098f04 	addi	r4,r4,9788
 402325c:	40231380 	call	4023138 <alt_open_fd>
}  
 4023260:	0001883a 	nop
 4023264:	e037883a 	mov	sp,fp
 4023268:	dfc00117 	ldw	ra,4(sp)
 402326c:	df000017 	ldw	fp,0(sp)
 4023270:	dec00204 	addi	sp,sp,8
 4023274:	f800283a 	ret

04023278 <alt_get_errno>:
#undef errno

extern int errno;

static ALT_INLINE int* alt_get_errno(void)
{
 4023278:	defffe04 	addi	sp,sp,-8
 402327c:	dfc00115 	stw	ra,4(sp)
 4023280:	df000015 	stw	fp,0(sp)
 4023284:	d839883a 	mov	fp,sp
  return ((alt_errno) ? alt_errno() : &errno);
 4023288:	d0a00817 	ldw	r2,-32736(gp)
 402328c:	10000326 	beq	r2,zero,402329c <alt_get_errno+0x24>
 4023290:	d0a00817 	ldw	r2,-32736(gp)
 4023294:	103ee83a 	callr	r2
 4023298:	00000106 	br	40232a0 <alt_get_errno+0x28>
 402329c:	d0a71504 	addi	r2,gp,-25516
}
 40232a0:	e037883a 	mov	sp,fp
 40232a4:	dfc00117 	ldw	ra,4(sp)
 40232a8:	df000017 	ldw	fp,0(sp)
 40232ac:	dec00204 	addi	sp,sp,8
 40232b0:	f800283a 	ret

040232b4 <alt_file_locked>:
 * performed for devices. Filesystems are required to handle the ioctl() call
 * themselves, and report the error from the filesystems open() function. 
 */ 

static int alt_file_locked (alt_fd* fd)
{
 40232b4:	defffd04 	addi	sp,sp,-12
 40232b8:	df000215 	stw	fp,8(sp)
 40232bc:	df000204 	addi	fp,sp,8
 40232c0:	e13fff15 	stw	r4,-4(fp)

  /*
   * Mark the file descriptor as belonging to a device.
   */

  fd->fd_flags |= ALT_FD_DEV;
 40232c4:	e0bfff17 	ldw	r2,-4(fp)
 40232c8:	10800217 	ldw	r2,8(r2)
 40232cc:	10d00034 	orhi	r3,r2,16384
 40232d0:	e0bfff17 	ldw	r2,-4(fp)
 40232d4:	10c00215 	stw	r3,8(r2)
  /*
   * Loop through all current file descriptors searching for one that's locked
   * for exclusive access. If a match is found, generate an error.
   */

  for (i = 0; i <= alt_max_fd; i++)
 40232d8:	e03ffe15 	stw	zero,-8(fp)
 40232dc:	00001d06 	br	4023354 <alt_file_locked+0xa0>
  {
    if ((alt_fd_list[i].dev == fd->dev) &&
 40232e0:	008100f4 	movhi	r2,1027
 40232e4:	10898904 	addi	r2,r2,9764
 40232e8:	e0fffe17 	ldw	r3,-8(fp)
 40232ec:	18c00324 	muli	r3,r3,12
 40232f0:	10c5883a 	add	r2,r2,r3
 40232f4:	10c00017 	ldw	r3,0(r2)
 40232f8:	e0bfff17 	ldw	r2,-4(fp)
 40232fc:	10800017 	ldw	r2,0(r2)
 4023300:	1880111e 	bne	r3,r2,4023348 <alt_file_locked+0x94>
        (alt_fd_list[i].fd_flags & ALT_FD_EXCL) &&
 4023304:	008100f4 	movhi	r2,1027
 4023308:	10898904 	addi	r2,r2,9764
 402330c:	e0fffe17 	ldw	r3,-8(fp)
 4023310:	18c00324 	muli	r3,r3,12
 4023314:	10c5883a 	add	r2,r2,r3
 4023318:	10800204 	addi	r2,r2,8
 402331c:	10800017 	ldw	r2,0(r2)
   * for exclusive access. If a match is found, generate an error.
   */

  for (i = 0; i <= alt_max_fd; i++)
  {
    if ((alt_fd_list[i].dev == fd->dev) &&
 4023320:	1000090e 	bge	r2,zero,4023348 <alt_file_locked+0x94>
        (alt_fd_list[i].fd_flags & ALT_FD_EXCL) &&
        (&alt_fd_list[i] != fd))
 4023324:	e0bffe17 	ldw	r2,-8(fp)
 4023328:	10c00324 	muli	r3,r2,12
 402332c:	008100f4 	movhi	r2,1027
 4023330:	10898904 	addi	r2,r2,9764
 4023334:	1887883a 	add	r3,r3,r2
   */

  for (i = 0; i <= alt_max_fd; i++)
  {
    if ((alt_fd_list[i].dev == fd->dev) &&
        (alt_fd_list[i].fd_flags & ALT_FD_EXCL) &&
 4023338:	e0bfff17 	ldw	r2,-4(fp)
 402333c:	18800226 	beq	r3,r2,4023348 <alt_file_locked+0x94>
        (&alt_fd_list[i] != fd))
    {
      return -EACCES;
 4023340:	00bffcc4 	movi	r2,-13
 4023344:	00000806 	br	4023368 <alt_file_locked+0xb4>
  /*
   * Loop through all current file descriptors searching for one that's locked
   * for exclusive access. If a match is found, generate an error.
   */

  for (i = 0; i <= alt_max_fd; i++)
 4023348:	e0bffe17 	ldw	r2,-8(fp)
 402334c:	10800044 	addi	r2,r2,1
 4023350:	e0bffe15 	stw	r2,-8(fp)
 4023354:	d0a00717 	ldw	r2,-32740(gp)
 4023358:	1007883a 	mov	r3,r2
 402335c:	e0bffe17 	ldw	r2,-8(fp)
 4023360:	18bfdf2e 	bgeu	r3,r2,40232e0 <__alt_data_end+0xfffe32e0>
    }
  }
  
  /* The device is not locked */
 
  return 0;
 4023364:	0005883a 	mov	r2,zero
}
 4023368:	e037883a 	mov	sp,fp
 402336c:	df000017 	ldw	fp,0(sp)
 4023370:	dec00104 	addi	sp,sp,4
 4023374:	f800283a 	ret

04023378 <open>:
 *
 * ALT_OPEN is mapped onto the open() system call in alt_syscall.h
 */
 
int ALT_OPEN (const char* file, int flags, int mode)
{ 
 4023378:	defff604 	addi	sp,sp,-40
 402337c:	dfc00915 	stw	ra,36(sp)
 4023380:	df000815 	stw	fp,32(sp)
 4023384:	df000804 	addi	fp,sp,32
 4023388:	e13ffd15 	stw	r4,-12(fp)
 402338c:	e17ffe15 	stw	r5,-8(fp)
 4023390:	e1bfff15 	stw	r6,-4(fp)
  alt_dev* dev;
  alt_fd*  fd;
  int index  = -1;
 4023394:	00bfffc4 	movi	r2,-1
 4023398:	e0bff915 	stw	r2,-28(fp)
  int status = -ENODEV;
 402339c:	00bffb44 	movi	r2,-19
 40233a0:	e0bffa15 	stw	r2,-24(fp)
  int isafs = 0;
 40233a4:	e03ffb15 	stw	zero,-20(fp)
  /* 
   * Check the device list, to see if a device with a matching name is 
   * registered.
   */
  
  if (!(dev = alt_find_dev (file, &alt_dev_list)))
 40233a8:	d1600504 	addi	r5,gp,-32748
 40233ac:	e13ffd17 	ldw	r4,-12(fp)
 40233b0:	4022fd80 	call	4022fd8 <alt_find_dev>
 40233b4:	e0bff815 	stw	r2,-32(fp)
 40233b8:	e0bff817 	ldw	r2,-32(fp)
 40233bc:	1000051e 	bne	r2,zero,40233d4 <open+0x5c>
  {
    /* No matching device, so try the filesystem list */

    dev   = alt_find_file (file);
 40233c0:	e13ffd17 	ldw	r4,-12(fp)
 40233c4:	40236f80 	call	40236f8 <alt_find_file>
 40233c8:	e0bff815 	stw	r2,-32(fp)
    isafs = 1;
 40233cc:	00800044 	movi	r2,1
 40233d0:	e0bffb15 	stw	r2,-20(fp)

  /* 
   * If a matching device or filesystem is found, allocate a file descriptor. 
   */

  if (dev)
 40233d4:	e0bff817 	ldw	r2,-32(fp)
 40233d8:	10002926 	beq	r2,zero,4023480 <open+0x108>
  {
    if ((index = alt_get_fd (dev)) < 0)
 40233dc:	e13ff817 	ldw	r4,-32(fp)
 40233e0:	40238000 	call	4023800 <alt_get_fd>
 40233e4:	e0bff915 	stw	r2,-28(fp)
 40233e8:	e0bff917 	ldw	r2,-28(fp)
 40233ec:	1000030e 	bge	r2,zero,40233fc <open+0x84>
    {
      status = index;
 40233f0:	e0bff917 	ldw	r2,-28(fp)
 40233f4:	e0bffa15 	stw	r2,-24(fp)
 40233f8:	00002306 	br	4023488 <open+0x110>
    }
    else
    {
      fd = &alt_fd_list[index];
 40233fc:	e0bff917 	ldw	r2,-28(fp)
 4023400:	10c00324 	muli	r3,r2,12
 4023404:	008100f4 	movhi	r2,1027
 4023408:	10898904 	addi	r2,r2,9764
 402340c:	1885883a 	add	r2,r3,r2
 4023410:	e0bffc15 	stw	r2,-16(fp)
      fd->fd_flags = (flags & ~ALT_FD_FLAGS_MASK);
 4023414:	e0fffe17 	ldw	r3,-8(fp)
 4023418:	00900034 	movhi	r2,16384
 402341c:	10bfffc4 	addi	r2,r2,-1
 4023420:	1886703a 	and	r3,r3,r2
 4023424:	e0bffc17 	ldw	r2,-16(fp)
 4023428:	10c00215 	stw	r3,8(r2)
      
      /* If this is a device, ensure it isn't already locked */

      if (isafs || ((status = alt_file_locked (fd)) >= 0))
 402342c:	e0bffb17 	ldw	r2,-20(fp)
 4023430:	1000051e 	bne	r2,zero,4023448 <open+0xd0>
 4023434:	e13ffc17 	ldw	r4,-16(fp)
 4023438:	40232b40 	call	40232b4 <alt_file_locked>
 402343c:	e0bffa15 	stw	r2,-24(fp)
 4023440:	e0bffa17 	ldw	r2,-24(fp)
 4023444:	10001016 	blt	r2,zero,4023488 <open+0x110>
        /* 
         * If the device or filesystem provides an open() callback function,
         * call it now to perform any device/filesystem specific operations.
         */
    
        status = (dev->open) ? dev->open(fd, file, flags, mode): 0;
 4023448:	e0bff817 	ldw	r2,-32(fp)
 402344c:	10800317 	ldw	r2,12(r2)
 4023450:	10000826 	beq	r2,zero,4023474 <open+0xfc>
 4023454:	e0bff817 	ldw	r2,-32(fp)
 4023458:	10800317 	ldw	r2,12(r2)
 402345c:	e1ffff17 	ldw	r7,-4(fp)
 4023460:	e1bffe17 	ldw	r6,-8(fp)
 4023464:	e17ffd17 	ldw	r5,-12(fp)
 4023468:	e13ffc17 	ldw	r4,-16(fp)
 402346c:	103ee83a 	callr	r2
 4023470:	00000106 	br	4023478 <open+0x100>
 4023474:	0005883a 	mov	r2,zero
 4023478:	e0bffa15 	stw	r2,-24(fp)
 402347c:	00000206 	br	4023488 <open+0x110>
      }
    }
  }
  else
  {
    status = -ENODEV;
 4023480:	00bffb44 	movi	r2,-19
 4023484:	e0bffa15 	stw	r2,-24(fp)
  }

  /* Allocation failed, so clean up and return an error */ 

  if (status < 0)
 4023488:	e0bffa17 	ldw	r2,-24(fp)
 402348c:	1000090e 	bge	r2,zero,40234b4 <open+0x13c>
  {
    alt_release_fd (index);  
 4023490:	e13ff917 	ldw	r4,-28(fp)
 4023494:	40234cc0 	call	40234cc <alt_release_fd>
    ALT_ERRNO = -status;
 4023498:	40232780 	call	4023278 <alt_get_errno>
 402349c:	1007883a 	mov	r3,r2
 40234a0:	e0bffa17 	ldw	r2,-24(fp)
 40234a4:	0085c83a 	sub	r2,zero,r2
 40234a8:	18800015 	stw	r2,0(r3)
    return -1;
 40234ac:	00bfffc4 	movi	r2,-1
 40234b0:	00000106 	br	40234b8 <open+0x140>
  }
  
  /* return the reference upon success */

  return index;
 40234b4:	e0bff917 	ldw	r2,-28(fp)
}
 40234b8:	e037883a 	mov	sp,fp
 40234bc:	dfc00117 	ldw	ra,4(sp)
 40234c0:	df000017 	ldw	fp,0(sp)
 40234c4:	dec00204 	addi	sp,sp,8
 40234c8:	f800283a 	ret

040234cc <alt_release_fd>:
 * File descriptors correcponding to standard in, standard out and standard 
 * error cannont be released backed to the pool. They are always reserved.
 */

void alt_release_fd (int fd)
{
 40234cc:	defffe04 	addi	sp,sp,-8
 40234d0:	df000115 	stw	fp,4(sp)
 40234d4:	df000104 	addi	fp,sp,4
 40234d8:	e13fff15 	stw	r4,-4(fp)
  if (fd > 2)
 40234dc:	e0bfff17 	ldw	r2,-4(fp)
 40234e0:	108000d0 	cmplti	r2,r2,3
 40234e4:	10000d1e 	bne	r2,zero,402351c <alt_release_fd+0x50>
  {
    alt_fd_list[fd].fd_flags = 0;
 40234e8:	008100f4 	movhi	r2,1027
 40234ec:	10898904 	addi	r2,r2,9764
 40234f0:	e0ffff17 	ldw	r3,-4(fp)
 40234f4:	18c00324 	muli	r3,r3,12
 40234f8:	10c5883a 	add	r2,r2,r3
 40234fc:	10800204 	addi	r2,r2,8
 4023500:	10000015 	stw	zero,0(r2)
    alt_fd_list[fd].dev      = 0;
 4023504:	008100f4 	movhi	r2,1027
 4023508:	10898904 	addi	r2,r2,9764
 402350c:	e0ffff17 	ldw	r3,-4(fp)
 4023510:	18c00324 	muli	r3,r3,12
 4023514:	10c5883a 	add	r2,r2,r3
 4023518:	10000015 	stw	zero,0(r2)
  }
}
 402351c:	0001883a 	nop
 4023520:	e037883a 	mov	sp,fp
 4023524:	df000017 	ldw	fp,0(sp)
 4023528:	dec00104 	addi	sp,sp,4
 402352c:	f800283a 	ret

04023530 <alt_alarm_stop>:
 * alarms. Alternatively an alarm can unregister itself by returning zero when 
 * the alarm executes.
 */

void alt_alarm_stop (alt_alarm* alarm)
{
 4023530:	defffa04 	addi	sp,sp,-24
 4023534:	df000515 	stw	fp,20(sp)
 4023538:	df000504 	addi	fp,sp,20
 402353c:	e13fff15 	stw	r4,-4(fp)
static ALT_INLINE alt_irq_context ALT_ALWAYS_INLINE 
       alt_irq_disable_all (void)
{
  alt_irq_context context;

  NIOS2_READ_STATUS (context);
 4023540:	0005303a 	rdctl	r2,status
 4023544:	e0bffc15 	stw	r2,-16(fp)

  NIOS2_WRITE_STATUS (context & ~NIOS2_STATUS_PIE_MSK);
 4023548:	e0fffc17 	ldw	r3,-16(fp)
 402354c:	00bfff84 	movi	r2,-2
 4023550:	1884703a 	and	r2,r3,r2
 4023554:	1001703a 	wrctl	status,r2
  
  return context;
 4023558:	e0bffc17 	ldw	r2,-16(fp)
  alt_irq_context irq_context;

  irq_context = alt_irq_disable_all();
 402355c:	e0bffb15 	stw	r2,-20(fp)
  alt_llist_remove (&alarm->llist);
 4023560:	e0bfff17 	ldw	r2,-4(fp)
 4023564:	e0bffd15 	stw	r2,-12(fp)
 * input argument is the element to remove.
 */
     
static ALT_INLINE void ALT_ALWAYS_INLINE alt_llist_remove(alt_llist* entry)
{
  entry->next->previous = entry->previous;
 4023568:	e0bffd17 	ldw	r2,-12(fp)
 402356c:	10800017 	ldw	r2,0(r2)
 4023570:	e0fffd17 	ldw	r3,-12(fp)
 4023574:	18c00117 	ldw	r3,4(r3)
 4023578:	10c00115 	stw	r3,4(r2)
  entry->previous->next = entry->next;
 402357c:	e0bffd17 	ldw	r2,-12(fp)
 4023580:	10800117 	ldw	r2,4(r2)
 4023584:	e0fffd17 	ldw	r3,-12(fp)
 4023588:	18c00017 	ldw	r3,0(r3)
 402358c:	10c00015 	stw	r3,0(r2)
  /* 
   * Set the entry to point to itself, so that any further calls to
   * alt_llist_remove() are harmless.
   */

  entry->previous = entry;
 4023590:	e0bffd17 	ldw	r2,-12(fp)
 4023594:	e0fffd17 	ldw	r3,-12(fp)
 4023598:	10c00115 	stw	r3,4(r2)
  entry->next     = entry;
 402359c:	e0bffd17 	ldw	r2,-12(fp)
 40235a0:	e0fffd17 	ldw	r3,-12(fp)
 40235a4:	10c00015 	stw	r3,0(r2)
 40235a8:	e0bffb17 	ldw	r2,-20(fp)
 40235ac:	e0bffe15 	stw	r2,-8(fp)
  status &= ~NIOS2_STATUS_PIE_MSK;
  status |= (context & NIOS2_STATUS_PIE_MSK);
  
  NIOS2_WRITE_STATUS (status);
#else
  NIOS2_WRITE_STATUS (context);
 40235b0:	e0bffe17 	ldw	r2,-8(fp)
 40235b4:	1001703a 	wrctl	status,r2
  alt_irq_enable_all (irq_context);
}
 40235b8:	0001883a 	nop
 40235bc:	e037883a 	mov	sp,fp
 40235c0:	df000017 	ldw	fp,0(sp)
 40235c4:	dec00104 	addi	sp,sp,4
 40235c8:	f800283a 	ret

040235cc <alt_tick>:
 * 
 * alt_tick() is expected to run at interrupt level.
 */

void alt_tick (void)
{
 40235cc:	defffb04 	addi	sp,sp,-20
 40235d0:	dfc00415 	stw	ra,16(sp)
 40235d4:	df000315 	stw	fp,12(sp)
 40235d8:	df000304 	addi	fp,sp,12
  alt_alarm* next;
  alt_alarm* alarm = (alt_alarm*) alt_alarm_list.next;
 40235dc:	d0a00917 	ldw	r2,-32732(gp)
 40235e0:	e0bffd15 	stw	r2,-12(fp)

  alt_u32    next_callback;

  /* update the tick counter */

  _alt_nticks++;
 40235e4:	d0a71417 	ldw	r2,-25520(gp)
 40235e8:	10800044 	addi	r2,r2,1
 40235ec:	d0a71415 	stw	r2,-25520(gp)

  /* process the registered callbacks */

  while (alarm != (alt_alarm*) &alt_alarm_list)
 40235f0:	00002e06 	br	40236ac <alt_tick+0xe0>
  {
    next = (alt_alarm*) alarm->llist.next;
 40235f4:	e0bffd17 	ldw	r2,-12(fp)
 40235f8:	10800017 	ldw	r2,0(r2)
 40235fc:	e0bffe15 	stw	r2,-8(fp)
    /* 
     * Upon the tick-counter rolling over it is safe to clear the 
     * roll-over flag; once the flag is cleared this (or subsequnt)
     * tick events are enabled to generate an alarm event. 
     */
    if ((alarm->rollover) && (_alt_nticks == 0))
 4023600:	e0bffd17 	ldw	r2,-12(fp)
 4023604:	10800403 	ldbu	r2,16(r2)
 4023608:	10803fcc 	andi	r2,r2,255
 402360c:	10000426 	beq	r2,zero,4023620 <alt_tick+0x54>
 4023610:	d0a71417 	ldw	r2,-25520(gp)
 4023614:	1000021e 	bne	r2,zero,4023620 <alt_tick+0x54>
    {
      alarm->rollover = 0;
 4023618:	e0bffd17 	ldw	r2,-12(fp)
 402361c:	10000405 	stb	zero,16(r2)
    }
    
    /* if the alarm period has expired, make the callback */    
    if ((alarm->time <= _alt_nticks) && (alarm->rollover == 0))
 4023620:	e0bffd17 	ldw	r2,-12(fp)
 4023624:	10800217 	ldw	r2,8(r2)
 4023628:	d0e71417 	ldw	r3,-25520(gp)
 402362c:	18801d36 	bltu	r3,r2,40236a4 <alt_tick+0xd8>
 4023630:	e0bffd17 	ldw	r2,-12(fp)
 4023634:	10800403 	ldbu	r2,16(r2)
 4023638:	10803fcc 	andi	r2,r2,255
 402363c:	1000191e 	bne	r2,zero,40236a4 <alt_tick+0xd8>
    {
      next_callback = alarm->callback (alarm->context);
 4023640:	e0bffd17 	ldw	r2,-12(fp)
 4023644:	10800317 	ldw	r2,12(r2)
 4023648:	e0fffd17 	ldw	r3,-12(fp)
 402364c:	18c00517 	ldw	r3,20(r3)
 4023650:	1809883a 	mov	r4,r3
 4023654:	103ee83a 	callr	r2
 4023658:	e0bfff15 	stw	r2,-4(fp)

      /* deactivate the alarm if the return value is zero */

      if (next_callback == 0)
 402365c:	e0bfff17 	ldw	r2,-4(fp)
 4023660:	1000031e 	bne	r2,zero,4023670 <alt_tick+0xa4>
      {
        alt_alarm_stop (alarm);
 4023664:	e13ffd17 	ldw	r4,-12(fp)
 4023668:	40235300 	call	4023530 <alt_alarm_stop>
 402366c:	00000d06 	br	40236a4 <alt_tick+0xd8>
      }
      else
      {
        alarm->time += next_callback;
 4023670:	e0bffd17 	ldw	r2,-12(fp)
 4023674:	10c00217 	ldw	r3,8(r2)
 4023678:	e0bfff17 	ldw	r2,-4(fp)
 402367c:	1887883a 	add	r3,r3,r2
 4023680:	e0bffd17 	ldw	r2,-12(fp)
 4023684:	10c00215 	stw	r3,8(r2)
        /* 
         * If the desired alarm time causes a roll-over, set the rollover
         * flag. This will prevent the subsequent tick event from causing
         * an alarm too early.
         */
        if(alarm->time < _alt_nticks)
 4023688:	e0bffd17 	ldw	r2,-12(fp)
 402368c:	10c00217 	ldw	r3,8(r2)
 4023690:	d0a71417 	ldw	r2,-25520(gp)
 4023694:	1880032e 	bgeu	r3,r2,40236a4 <alt_tick+0xd8>
        {
          alarm->rollover = 1;
 4023698:	e0bffd17 	ldw	r2,-12(fp)
 402369c:	00c00044 	movi	r3,1
 40236a0:	10c00405 	stb	r3,16(r2)
        }
      }
    }
    alarm = next;
 40236a4:	e0bffe17 	ldw	r2,-8(fp)
 40236a8:	e0bffd15 	stw	r2,-12(fp)

  _alt_nticks++;

  /* process the registered callbacks */

  while (alarm != (alt_alarm*) &alt_alarm_list)
 40236ac:	e0fffd17 	ldw	r3,-12(fp)
 40236b0:	d0a00904 	addi	r2,gp,-32732
 40236b4:	18bfcf1e 	bne	r3,r2,40235f4 <__alt_data_end+0xfffe35f4>

  /* 
   * Update the operating system specific timer facilities.
   */

  ALT_OS_TIME_TICK();
 40236b8:	0001883a 	nop
}
 40236bc:	0001883a 	nop
 40236c0:	e037883a 	mov	sp,fp
 40236c4:	dfc00117 	ldw	ra,4(sp)
 40236c8:	df000017 	ldw	fp,0(sp)
 40236cc:	dec00204 	addi	sp,sp,8
 40236d0:	f800283a 	ret

040236d4 <altera_nios2_gen2_irq_init>:
/*
 * To initialize the internal interrupt controller, just clear the IENABLE
 * register so that all possible IRQs are disabled.
 */
void altera_nios2_gen2_irq_init(void) 
{
 40236d4:	deffff04 	addi	sp,sp,-4
 40236d8:	df000015 	stw	fp,0(sp)
 40236dc:	d839883a 	mov	fp,sp
    NIOS2_WRITE_IENABLE(0);
 40236e0:	000170fa 	wrctl	ienable,zero
}
 40236e4:	0001883a 	nop
 40236e8:	e037883a 	mov	sp,fp
 40236ec:	df000017 	ldw	fp,0(sp)
 40236f0:	dec00104 	addi	sp,sp,4
 40236f4:	f800283a 	ret

040236f8 <alt_find_file>:
 * either '/' or '\0' is the prefix of the filename. For example the filename:
 * "/myfilesystem/junk.txt" would match: "/myfilesystem", but not: "/myfile". 
 */
 
alt_dev* alt_find_file (const char* name)
{
 40236f8:	defffb04 	addi	sp,sp,-20
 40236fc:	dfc00415 	stw	ra,16(sp)
 4023700:	df000315 	stw	fp,12(sp)
 4023704:	df000304 	addi	fp,sp,12
 4023708:	e13fff15 	stw	r4,-4(fp)
  alt_dev* next = (alt_dev*) alt_fs_list.next;   
 402370c:	d0a00317 	ldw	r2,-32756(gp)
 4023710:	e0bffd15 	stw	r2,-12(fp)
  /*
   * Check each list entry in turn, until a match is found, or we reach the
   * end of the list (i.e. next winds up pointing back to the list head).
   */ 
 
  while (next != (alt_dev*) &alt_fs_list)
 4023714:	00003106 	br	40237dc <alt_find_file+0xe4>
  {
    len = strlen(next->name);
 4023718:	e0bffd17 	ldw	r2,-12(fp)
 402371c:	10800217 	ldw	r2,8(r2)
 4023720:	1009883a 	mov	r4,r2
 4023724:	4023d180 	call	4023d18 <strlen>
 4023728:	e0bffe15 	stw	r2,-8(fp)
    
    if (next->name[len-1] == '/')
 402372c:	e0bffd17 	ldw	r2,-12(fp)
 4023730:	10c00217 	ldw	r3,8(r2)
 4023734:	e0bffe17 	ldw	r2,-8(fp)
 4023738:	10bfffc4 	addi	r2,r2,-1
 402373c:	1885883a 	add	r2,r3,r2
 4023740:	10800003 	ldbu	r2,0(r2)
 4023744:	10803fcc 	andi	r2,r2,255
 4023748:	1080201c 	xori	r2,r2,128
 402374c:	10bfe004 	addi	r2,r2,-128
 4023750:	10800bd8 	cmpnei	r2,r2,47
 4023754:	1000031e 	bne	r2,zero,4023764 <alt_find_file+0x6c>
    {
      len -= 1;
 4023758:	e0bffe17 	ldw	r2,-8(fp)
 402375c:	10bfffc4 	addi	r2,r2,-1
 4023760:	e0bffe15 	stw	r2,-8(fp)
    }

    if (((name[len] == '/') || (name[len] == '\0')) && 
 4023764:	e0bffe17 	ldw	r2,-8(fp)
 4023768:	e0ffff17 	ldw	r3,-4(fp)
 402376c:	1885883a 	add	r2,r3,r2
 4023770:	10800003 	ldbu	r2,0(r2)
 4023774:	10803fcc 	andi	r2,r2,255
 4023778:	1080201c 	xori	r2,r2,128
 402377c:	10bfe004 	addi	r2,r2,-128
 4023780:	10800be0 	cmpeqi	r2,r2,47
 4023784:	1000081e 	bne	r2,zero,40237a8 <alt_find_file+0xb0>
 4023788:	e0bffe17 	ldw	r2,-8(fp)
 402378c:	e0ffff17 	ldw	r3,-4(fp)
 4023790:	1885883a 	add	r2,r3,r2
 4023794:	10800003 	ldbu	r2,0(r2)
 4023798:	10803fcc 	andi	r2,r2,255
 402379c:	1080201c 	xori	r2,r2,128
 40237a0:	10bfe004 	addi	r2,r2,-128
 40237a4:	10000a1e 	bne	r2,zero,40237d0 <alt_find_file+0xd8>
        !memcmp (next->name, name, len))
 40237a8:	e0bffd17 	ldw	r2,-12(fp)
 40237ac:	10800217 	ldw	r2,8(r2)
 40237b0:	e0fffe17 	ldw	r3,-8(fp)
 40237b4:	180d883a 	mov	r6,r3
 40237b8:	e17fff17 	ldw	r5,-4(fp)
 40237bc:	1009883a 	mov	r4,r2
 40237c0:	40239800 	call	4023980 <memcmp>
    if (next->name[len-1] == '/')
    {
      len -= 1;
    }

    if (((name[len] == '/') || (name[len] == '\0')) && 
 40237c4:	1000021e 	bne	r2,zero,40237d0 <alt_find_file+0xd8>
        !memcmp (next->name, name, len))
    {
      /* match found */

      return next;
 40237c8:	e0bffd17 	ldw	r2,-12(fp)
 40237cc:	00000706 	br	40237ec <alt_find_file+0xf4>
    }
    next = (alt_dev*) next->llist.next;
 40237d0:	e0bffd17 	ldw	r2,-12(fp)
 40237d4:	10800017 	ldw	r2,0(r2)
 40237d8:	e0bffd15 	stw	r2,-12(fp)
  /*
   * Check each list entry in turn, until a match is found, or we reach the
   * end of the list (i.e. next winds up pointing back to the list head).
   */ 
 
  while (next != (alt_dev*) &alt_fs_list)
 40237dc:	e0fffd17 	ldw	r3,-12(fp)
 40237e0:	d0a00304 	addi	r2,gp,-32756
 40237e4:	18bfcc1e 	bne	r3,r2,4023718 <__alt_data_end+0xfffe3718>
    next = (alt_dev*) next->llist.next;
  }
  
  /* No match found */
  
  return NULL;     
 40237e8:	0005883a 	mov	r2,zero
}
 40237ec:	e037883a 	mov	sp,fp
 40237f0:	dfc00117 	ldw	ra,4(sp)
 40237f4:	df000017 	ldw	fp,0(sp)
 40237f8:	dec00204 	addi	sp,sp,8
 40237fc:	f800283a 	ret

04023800 <alt_get_fd>:
 * the offset of the file descriptor within the file descriptor array). A
 * negative value indicates failure.
 */

int alt_get_fd (alt_dev* dev)
{
 4023800:	defffc04 	addi	sp,sp,-16
 4023804:	df000315 	stw	fp,12(sp)
 4023808:	df000304 	addi	fp,sp,12
 402380c:	e13fff15 	stw	r4,-4(fp)
  alt_32 i;
  int rc = -EMFILE;
 4023810:	00bffa04 	movi	r2,-24
 4023814:	e0bffe15 	stw	r2,-8(fp)
   * indicates the highest file descriptor ever allocated. This is used to
   * improve efficency when searching the file descriptor list, and 
   * therefore reduce contention on the alt_fd_list_lock semaphore. 
   */

  for (i = 0; i < ALT_MAX_FD; i++)
 4023818:	e03ffd15 	stw	zero,-12(fp)
 402381c:	00001906 	br	4023884 <alt_get_fd+0x84>
  {
    if (!alt_fd_list[i].dev)
 4023820:	008100f4 	movhi	r2,1027
 4023824:	10898904 	addi	r2,r2,9764
 4023828:	e0fffd17 	ldw	r3,-12(fp)
 402382c:	18c00324 	muli	r3,r3,12
 4023830:	10c5883a 	add	r2,r2,r3
 4023834:	10800017 	ldw	r2,0(r2)
 4023838:	10000f1e 	bne	r2,zero,4023878 <alt_get_fd+0x78>
    {
      alt_fd_list[i].dev = dev;
 402383c:	008100f4 	movhi	r2,1027
 4023840:	10898904 	addi	r2,r2,9764
 4023844:	e0fffd17 	ldw	r3,-12(fp)
 4023848:	18c00324 	muli	r3,r3,12
 402384c:	10c5883a 	add	r2,r2,r3
 4023850:	e0ffff17 	ldw	r3,-4(fp)
 4023854:	10c00015 	stw	r3,0(r2)
      if (i > alt_max_fd)
 4023858:	d0e00717 	ldw	r3,-32740(gp)
 402385c:	e0bffd17 	ldw	r2,-12(fp)
 4023860:	1880020e 	bge	r3,r2,402386c <alt_get_fd+0x6c>
      {
        alt_max_fd = i;
 4023864:	e0bffd17 	ldw	r2,-12(fp)
 4023868:	d0a00715 	stw	r2,-32740(gp)
      }
      rc = i;
 402386c:	e0bffd17 	ldw	r2,-12(fp)
 4023870:	e0bffe15 	stw	r2,-8(fp)
      goto alt_get_fd_exit;
 4023874:	00000606 	br	4023890 <alt_get_fd+0x90>
   * indicates the highest file descriptor ever allocated. This is used to
   * improve efficency when searching the file descriptor list, and 
   * therefore reduce contention on the alt_fd_list_lock semaphore. 
   */

  for (i = 0; i < ALT_MAX_FD; i++)
 4023878:	e0bffd17 	ldw	r2,-12(fp)
 402387c:	10800044 	addi	r2,r2,1
 4023880:	e0bffd15 	stw	r2,-12(fp)
 4023884:	e0bffd17 	ldw	r2,-12(fp)
 4023888:	10800810 	cmplti	r2,r2,32
 402388c:	103fe41e 	bne	r2,zero,4023820 <__alt_data_end+0xfffe3820>
   * file descriptor pool.
   */

  ALT_SEM_POST(alt_fd_list_lock);

  return rc;
 4023890:	e0bffe17 	ldw	r2,-8(fp)
}
 4023894:	e037883a 	mov	sp,fp
 4023898:	df000017 	ldw	fp,0(sp)
 402389c:	dec00104 	addi	sp,sp,4
 40238a0:	f800283a 	ret

040238a4 <alt_icache_flush>:
 * alt_icache_flush() is called to flush the instruction cache for a memory
 * region of length "len" bytes, starting at address "start".
 */

void alt_icache_flush (void* start, alt_u32 len)
{
 40238a4:	defffb04 	addi	sp,sp,-20
 40238a8:	df000415 	stw	fp,16(sp)
 40238ac:	df000404 	addi	fp,sp,16
 40238b0:	e13ffe15 	stw	r4,-8(fp)
 40238b4:	e17fff15 	stw	r5,-4(fp)

  /*
   * This is the most we would ever need to flush.
   */
 
  if (len > NIOS2_ICACHE_SIZE)
 40238b8:	e0bfff17 	ldw	r2,-4(fp)
 40238bc:	10840070 	cmpltui	r2,r2,4097
 40238c0:	1000021e 	bne	r2,zero,40238cc <alt_icache_flush+0x28>
  {
    len = NIOS2_ICACHE_SIZE;
 40238c4:	00840004 	movi	r2,4096
 40238c8:	e0bfff15 	stw	r2,-4(fp)
  }

  end = ((char*) start) + len;
 40238cc:	e0fffe17 	ldw	r3,-8(fp)
 40238d0:	e0bfff17 	ldw	r2,-4(fp)
 40238d4:	1885883a 	add	r2,r3,r2
 40238d8:	e0bffd15 	stw	r2,-12(fp)

  for (i = start; i < end; i+= NIOS2_ICACHE_LINE_SIZE)
 40238dc:	e0bffe17 	ldw	r2,-8(fp)
 40238e0:	e0bffc15 	stw	r2,-16(fp)
 40238e4:	00000506 	br	40238fc <alt_icache_flush+0x58>
  { 
    __asm__ volatile ("flushi %0" :: "r" (i)); 
 40238e8:	e0bffc17 	ldw	r2,-16(fp)
 40238ec:	1000603a 	flushi	r2
    len = NIOS2_ICACHE_SIZE;
  }

  end = ((char*) start) + len;

  for (i = start; i < end; i+= NIOS2_ICACHE_LINE_SIZE)
 40238f0:	e0bffc17 	ldw	r2,-16(fp)
 40238f4:	10800804 	addi	r2,r2,32
 40238f8:	e0bffc15 	stw	r2,-16(fp)
 40238fc:	e0fffc17 	ldw	r3,-16(fp)
 4023900:	e0bffd17 	ldw	r2,-12(fp)
 4023904:	18bff836 	bltu	r3,r2,40238e8 <__alt_data_end+0xfffe38e8>
   * For an unaligned flush request, we've got one more line left.
   * Note that this is dependent on NIOS2_ICACHE_LINE_SIZE to be a 
   * multiple of 2 (which it always is).
   */

  if (((alt_u32) start) & (NIOS2_ICACHE_LINE_SIZE - 1))
 4023908:	e0bffe17 	ldw	r2,-8(fp)
 402390c:	108007cc 	andi	r2,r2,31
 4023910:	10000226 	beq	r2,zero,402391c <alt_icache_flush+0x78>
  {
    __asm__ volatile ("flushi %0" :: "r" (i));
 4023914:	e0bffc17 	ldw	r2,-16(fp)
 4023918:	1000603a 	flushi	r2
  /* 
   * Having flushed the cache, flush any stale instructions in the 
   * pipeline 
   */

  __asm__ volatile ("flushp");
 402391c:	0000203a 	flushp

#endif /* NIOS2_ICACHE_SIZE > 0 */
}
 4023920:	0001883a 	nop
 4023924:	e037883a 	mov	sp,fp
 4023928:	df000017 	ldw	fp,0(sp)
 402392c:	dec00104 	addi	sp,sp,4
 4023930:	f800283a 	ret

04023934 <atexit>:
 4023934:	200b883a 	mov	r5,r4
 4023938:	000f883a 	mov	r7,zero
 402393c:	000d883a 	mov	r6,zero
 4023940:	0009883a 	mov	r4,zero
 4023944:	402632c1 	jmpi	402632c <__register_exitproc>

04023948 <exit>:
 4023948:	defffe04 	addi	sp,sp,-8
 402394c:	000b883a 	mov	r5,zero
 4023950:	dc000015 	stw	r16,0(sp)
 4023954:	dfc00115 	stw	ra,4(sp)
 4023958:	2021883a 	mov	r16,r4
 402395c:	40264440 	call	4026444 <__call_exitprocs>
 4023960:	008100f4 	movhi	r2,1027
 4023964:	108c1d04 	addi	r2,r2,12404
 4023968:	11000017 	ldw	r4,0(r2)
 402396c:	20800f17 	ldw	r2,60(r4)
 4023970:	10000126 	beq	r2,zero,4023978 <exit+0x30>
 4023974:	103ee83a 	callr	r2
 4023978:	8009883a 	mov	r4,r16
 402397c:	40306b80 	call	40306b8 <_exit>

04023980 <memcmp>:
 4023980:	01c000c4 	movi	r7,3
 4023984:	3980192e 	bgeu	r7,r6,40239ec <memcmp+0x6c>
 4023988:	2144b03a 	or	r2,r4,r5
 402398c:	11c4703a 	and	r2,r2,r7
 4023990:	10000f26 	beq	r2,zero,40239d0 <memcmp+0x50>
 4023994:	20800003 	ldbu	r2,0(r4)
 4023998:	28c00003 	ldbu	r3,0(r5)
 402399c:	10c0151e 	bne	r2,r3,40239f4 <memcmp+0x74>
 40239a0:	31bfff84 	addi	r6,r6,-2
 40239a4:	01ffffc4 	movi	r7,-1
 40239a8:	00000406 	br	40239bc <memcmp+0x3c>
 40239ac:	20800003 	ldbu	r2,0(r4)
 40239b0:	28c00003 	ldbu	r3,0(r5)
 40239b4:	31bfffc4 	addi	r6,r6,-1
 40239b8:	10c00e1e 	bne	r2,r3,40239f4 <memcmp+0x74>
 40239bc:	21000044 	addi	r4,r4,1
 40239c0:	29400044 	addi	r5,r5,1
 40239c4:	31fff91e 	bne	r6,r7,40239ac <__alt_data_end+0xfffe39ac>
 40239c8:	0005883a 	mov	r2,zero
 40239cc:	f800283a 	ret
 40239d0:	20c00017 	ldw	r3,0(r4)
 40239d4:	28800017 	ldw	r2,0(r5)
 40239d8:	18bfee1e 	bne	r3,r2,4023994 <__alt_data_end+0xfffe3994>
 40239dc:	31bfff04 	addi	r6,r6,-4
 40239e0:	21000104 	addi	r4,r4,4
 40239e4:	29400104 	addi	r5,r5,4
 40239e8:	39bff936 	bltu	r7,r6,40239d0 <__alt_data_end+0xfffe39d0>
 40239ec:	303fe91e 	bne	r6,zero,4023994 <__alt_data_end+0xfffe3994>
 40239f0:	003ff506 	br	40239c8 <__alt_data_end+0xfffe39c8>
 40239f4:	10c5c83a 	sub	r2,r2,r3
 40239f8:	f800283a 	ret

040239fc <memcpy>:
 40239fc:	defffd04 	addi	sp,sp,-12
 4023a00:	dfc00215 	stw	ra,8(sp)
 4023a04:	dc400115 	stw	r17,4(sp)
 4023a08:	dc000015 	stw	r16,0(sp)
 4023a0c:	00c003c4 	movi	r3,15
 4023a10:	2005883a 	mov	r2,r4
 4023a14:	1980452e 	bgeu	r3,r6,4023b2c <memcpy+0x130>
 4023a18:	2906b03a 	or	r3,r5,r4
 4023a1c:	18c000cc 	andi	r3,r3,3
 4023a20:	1800441e 	bne	r3,zero,4023b34 <memcpy+0x138>
 4023a24:	347ffc04 	addi	r17,r6,-16
 4023a28:	8822d13a 	srli	r17,r17,4
 4023a2c:	28c00104 	addi	r3,r5,4
 4023a30:	23400104 	addi	r13,r4,4
 4023a34:	8820913a 	slli	r16,r17,4
 4023a38:	2b000204 	addi	r12,r5,8
 4023a3c:	22c00204 	addi	r11,r4,8
 4023a40:	84000504 	addi	r16,r16,20
 4023a44:	2a800304 	addi	r10,r5,12
 4023a48:	22400304 	addi	r9,r4,12
 4023a4c:	2c21883a 	add	r16,r5,r16
 4023a50:	2811883a 	mov	r8,r5
 4023a54:	200f883a 	mov	r7,r4
 4023a58:	41000017 	ldw	r4,0(r8)
 4023a5c:	1fc00017 	ldw	ra,0(r3)
 4023a60:	63c00017 	ldw	r15,0(r12)
 4023a64:	39000015 	stw	r4,0(r7)
 4023a68:	53800017 	ldw	r14,0(r10)
 4023a6c:	6fc00015 	stw	ra,0(r13)
 4023a70:	5bc00015 	stw	r15,0(r11)
 4023a74:	4b800015 	stw	r14,0(r9)
 4023a78:	18c00404 	addi	r3,r3,16
 4023a7c:	39c00404 	addi	r7,r7,16
 4023a80:	42000404 	addi	r8,r8,16
 4023a84:	6b400404 	addi	r13,r13,16
 4023a88:	63000404 	addi	r12,r12,16
 4023a8c:	5ac00404 	addi	r11,r11,16
 4023a90:	52800404 	addi	r10,r10,16
 4023a94:	4a400404 	addi	r9,r9,16
 4023a98:	1c3fef1e 	bne	r3,r16,4023a58 <__alt_data_end+0xfffe3a58>
 4023a9c:	89c00044 	addi	r7,r17,1
 4023aa0:	380e913a 	slli	r7,r7,4
 4023aa4:	310003cc 	andi	r4,r6,15
 4023aa8:	02c000c4 	movi	r11,3
 4023aac:	11c7883a 	add	r3,r2,r7
 4023ab0:	29cb883a 	add	r5,r5,r7
 4023ab4:	5900212e 	bgeu	r11,r4,4023b3c <memcpy+0x140>
 4023ab8:	1813883a 	mov	r9,r3
 4023abc:	2811883a 	mov	r8,r5
 4023ac0:	200f883a 	mov	r7,r4
 4023ac4:	42800017 	ldw	r10,0(r8)
 4023ac8:	4a400104 	addi	r9,r9,4
 4023acc:	39ffff04 	addi	r7,r7,-4
 4023ad0:	4abfff15 	stw	r10,-4(r9)
 4023ad4:	42000104 	addi	r8,r8,4
 4023ad8:	59fffa36 	bltu	r11,r7,4023ac4 <__alt_data_end+0xfffe3ac4>
 4023adc:	213fff04 	addi	r4,r4,-4
 4023ae0:	2008d0ba 	srli	r4,r4,2
 4023ae4:	318000cc 	andi	r6,r6,3
 4023ae8:	21000044 	addi	r4,r4,1
 4023aec:	2109883a 	add	r4,r4,r4
 4023af0:	2109883a 	add	r4,r4,r4
 4023af4:	1907883a 	add	r3,r3,r4
 4023af8:	290b883a 	add	r5,r5,r4
 4023afc:	30000626 	beq	r6,zero,4023b18 <memcpy+0x11c>
 4023b00:	198d883a 	add	r6,r3,r6
 4023b04:	29c00003 	ldbu	r7,0(r5)
 4023b08:	18c00044 	addi	r3,r3,1
 4023b0c:	29400044 	addi	r5,r5,1
 4023b10:	19ffffc5 	stb	r7,-1(r3)
 4023b14:	19bffb1e 	bne	r3,r6,4023b04 <__alt_data_end+0xfffe3b04>
 4023b18:	dfc00217 	ldw	ra,8(sp)
 4023b1c:	dc400117 	ldw	r17,4(sp)
 4023b20:	dc000017 	ldw	r16,0(sp)
 4023b24:	dec00304 	addi	sp,sp,12
 4023b28:	f800283a 	ret
 4023b2c:	2007883a 	mov	r3,r4
 4023b30:	003ff206 	br	4023afc <__alt_data_end+0xfffe3afc>
 4023b34:	2007883a 	mov	r3,r4
 4023b38:	003ff106 	br	4023b00 <__alt_data_end+0xfffe3b00>
 4023b3c:	200d883a 	mov	r6,r4
 4023b40:	003fee06 	br	4023afc <__alt_data_end+0xfffe3afc>

04023b44 <_printf_r>:
 4023b44:	defffd04 	addi	sp,sp,-12
 4023b48:	2805883a 	mov	r2,r5
 4023b4c:	dfc00015 	stw	ra,0(sp)
 4023b50:	d9800115 	stw	r6,4(sp)
 4023b54:	d9c00215 	stw	r7,8(sp)
 4023b58:	21400217 	ldw	r5,8(r4)
 4023b5c:	d9c00104 	addi	r7,sp,4
 4023b60:	100d883a 	mov	r6,r2
 4023b64:	4023db00 	call	4023db0 <___vfprintf_internal_r>
 4023b68:	dfc00017 	ldw	ra,0(sp)
 4023b6c:	dec00304 	addi	sp,sp,12
 4023b70:	f800283a 	ret

04023b74 <printf>:
 4023b74:	defffc04 	addi	sp,sp,-16
 4023b78:	dfc00015 	stw	ra,0(sp)
 4023b7c:	d9400115 	stw	r5,4(sp)
 4023b80:	d9800215 	stw	r6,8(sp)
 4023b84:	d9c00315 	stw	r7,12(sp)
 4023b88:	008100f4 	movhi	r2,1027
 4023b8c:	108c1e04 	addi	r2,r2,12408
 4023b90:	10800017 	ldw	r2,0(r2)
 4023b94:	200b883a 	mov	r5,r4
 4023b98:	d9800104 	addi	r6,sp,4
 4023b9c:	11000217 	ldw	r4,8(r2)
 4023ba0:	4025fa80 	call	4025fa8 <__vfprintf_internal>
 4023ba4:	dfc00017 	ldw	ra,0(sp)
 4023ba8:	dec00404 	addi	sp,sp,16
 4023bac:	f800283a 	ret

04023bb0 <_putc_r>:
 4023bb0:	defffc04 	addi	sp,sp,-16
 4023bb4:	dc000215 	stw	r16,8(sp)
 4023bb8:	dfc00315 	stw	ra,12(sp)
 4023bbc:	2021883a 	mov	r16,r4
 4023bc0:	20000226 	beq	r4,zero,4023bcc <_putc_r+0x1c>
 4023bc4:	20800e17 	ldw	r2,56(r4)
 4023bc8:	10001b26 	beq	r2,zero,4023c38 <_putc_r+0x88>
 4023bcc:	30800217 	ldw	r2,8(r6)
 4023bd0:	10bfffc4 	addi	r2,r2,-1
 4023bd4:	30800215 	stw	r2,8(r6)
 4023bd8:	10000a16 	blt	r2,zero,4023c04 <_putc_r+0x54>
 4023bdc:	30800017 	ldw	r2,0(r6)
 4023be0:	11400005 	stb	r5,0(r2)
 4023be4:	30800017 	ldw	r2,0(r6)
 4023be8:	10c00044 	addi	r3,r2,1
 4023bec:	30c00015 	stw	r3,0(r6)
 4023bf0:	10800003 	ldbu	r2,0(r2)
 4023bf4:	dfc00317 	ldw	ra,12(sp)
 4023bf8:	dc000217 	ldw	r16,8(sp)
 4023bfc:	dec00404 	addi	sp,sp,16
 4023c00:	f800283a 	ret
 4023c04:	30c00617 	ldw	r3,24(r6)
 4023c08:	10c00616 	blt	r2,r3,4023c24 <_putc_r+0x74>
 4023c0c:	30800017 	ldw	r2,0(r6)
 4023c10:	00c00284 	movi	r3,10
 4023c14:	11400005 	stb	r5,0(r2)
 4023c18:	30800017 	ldw	r2,0(r6)
 4023c1c:	11400003 	ldbu	r5,0(r2)
 4023c20:	28fff11e 	bne	r5,r3,4023be8 <__alt_data_end+0xfffe3be8>
 4023c24:	8009883a 	mov	r4,r16
 4023c28:	dfc00317 	ldw	ra,12(sp)
 4023c2c:	dc000217 	ldw	r16,8(sp)
 4023c30:	dec00404 	addi	sp,sp,16
 4023c34:	40260801 	jmpi	4026080 <__swbuf_r>
 4023c38:	d9400015 	stw	r5,0(sp)
 4023c3c:	d9800115 	stw	r6,4(sp)
 4023c40:	40284440 	call	4028444 <__sinit>
 4023c44:	d9800117 	ldw	r6,4(sp)
 4023c48:	d9400017 	ldw	r5,0(sp)
 4023c4c:	003fdf06 	br	4023bcc <__alt_data_end+0xfffe3bcc>

04023c50 <putc>:
 4023c50:	008100f4 	movhi	r2,1027
 4023c54:	defffc04 	addi	sp,sp,-16
 4023c58:	108c1e04 	addi	r2,r2,12408
 4023c5c:	dc000115 	stw	r16,4(sp)
 4023c60:	14000017 	ldw	r16,0(r2)
 4023c64:	dc400215 	stw	r17,8(sp)
 4023c68:	dfc00315 	stw	ra,12(sp)
 4023c6c:	2023883a 	mov	r17,r4
 4023c70:	80000226 	beq	r16,zero,4023c7c <putc+0x2c>
 4023c74:	80800e17 	ldw	r2,56(r16)
 4023c78:	10001a26 	beq	r2,zero,4023ce4 <putc+0x94>
 4023c7c:	28800217 	ldw	r2,8(r5)
 4023c80:	10bfffc4 	addi	r2,r2,-1
 4023c84:	28800215 	stw	r2,8(r5)
 4023c88:	10000b16 	blt	r2,zero,4023cb8 <putc+0x68>
 4023c8c:	28800017 	ldw	r2,0(r5)
 4023c90:	14400005 	stb	r17,0(r2)
 4023c94:	28800017 	ldw	r2,0(r5)
 4023c98:	10c00044 	addi	r3,r2,1
 4023c9c:	28c00015 	stw	r3,0(r5)
 4023ca0:	10800003 	ldbu	r2,0(r2)
 4023ca4:	dfc00317 	ldw	ra,12(sp)
 4023ca8:	dc400217 	ldw	r17,8(sp)
 4023cac:	dc000117 	ldw	r16,4(sp)
 4023cb0:	dec00404 	addi	sp,sp,16
 4023cb4:	f800283a 	ret
 4023cb8:	28c00617 	ldw	r3,24(r5)
 4023cbc:	10c00e16 	blt	r2,r3,4023cf8 <putc+0xa8>
 4023cc0:	28800017 	ldw	r2,0(r5)
 4023cc4:	01000284 	movi	r4,10
 4023cc8:	14400005 	stb	r17,0(r2)
 4023ccc:	28800017 	ldw	r2,0(r5)
 4023cd0:	10c00003 	ldbu	r3,0(r2)
 4023cd4:	193ff01e 	bne	r3,r4,4023c98 <__alt_data_end+0xfffe3c98>
 4023cd8:	280d883a 	mov	r6,r5
 4023cdc:	180b883a 	mov	r5,r3
 4023ce0:	00000706 	br	4023d00 <putc+0xb0>
 4023ce4:	8009883a 	mov	r4,r16
 4023ce8:	d9400015 	stw	r5,0(sp)
 4023cec:	40284440 	call	4028444 <__sinit>
 4023cf0:	d9400017 	ldw	r5,0(sp)
 4023cf4:	003fe106 	br	4023c7c <__alt_data_end+0xfffe3c7c>
 4023cf8:	280d883a 	mov	r6,r5
 4023cfc:	880b883a 	mov	r5,r17
 4023d00:	8009883a 	mov	r4,r16
 4023d04:	dfc00317 	ldw	ra,12(sp)
 4023d08:	dc400217 	ldw	r17,8(sp)
 4023d0c:	dc000117 	ldw	r16,4(sp)
 4023d10:	dec00404 	addi	sp,sp,16
 4023d14:	40260801 	jmpi	4026080 <__swbuf_r>

04023d18 <strlen>:
 4023d18:	208000cc 	andi	r2,r4,3
 4023d1c:	10002026 	beq	r2,zero,4023da0 <strlen+0x88>
 4023d20:	20800007 	ldb	r2,0(r4)
 4023d24:	10002026 	beq	r2,zero,4023da8 <strlen+0x90>
 4023d28:	2005883a 	mov	r2,r4
 4023d2c:	00000206 	br	4023d38 <strlen+0x20>
 4023d30:	10c00007 	ldb	r3,0(r2)
 4023d34:	18001826 	beq	r3,zero,4023d98 <strlen+0x80>
 4023d38:	10800044 	addi	r2,r2,1
 4023d3c:	10c000cc 	andi	r3,r2,3
 4023d40:	183ffb1e 	bne	r3,zero,4023d30 <__alt_data_end+0xfffe3d30>
 4023d44:	10c00017 	ldw	r3,0(r2)
 4023d48:	01ffbff4 	movhi	r7,65279
 4023d4c:	39ffbfc4 	addi	r7,r7,-257
 4023d50:	00ca303a 	nor	r5,zero,r3
 4023d54:	01a02074 	movhi	r6,32897
 4023d58:	19c7883a 	add	r3,r3,r7
 4023d5c:	31a02004 	addi	r6,r6,-32640
 4023d60:	1946703a 	and	r3,r3,r5
 4023d64:	1986703a 	and	r3,r3,r6
 4023d68:	1800091e 	bne	r3,zero,4023d90 <strlen+0x78>
 4023d6c:	10800104 	addi	r2,r2,4
 4023d70:	10c00017 	ldw	r3,0(r2)
 4023d74:	19cb883a 	add	r5,r3,r7
 4023d78:	00c6303a 	nor	r3,zero,r3
 4023d7c:	28c6703a 	and	r3,r5,r3
 4023d80:	1986703a 	and	r3,r3,r6
 4023d84:	183ff926 	beq	r3,zero,4023d6c <__alt_data_end+0xfffe3d6c>
 4023d88:	00000106 	br	4023d90 <strlen+0x78>
 4023d8c:	10800044 	addi	r2,r2,1
 4023d90:	10c00007 	ldb	r3,0(r2)
 4023d94:	183ffd1e 	bne	r3,zero,4023d8c <__alt_data_end+0xfffe3d8c>
 4023d98:	1105c83a 	sub	r2,r2,r4
 4023d9c:	f800283a 	ret
 4023da0:	2005883a 	mov	r2,r4
 4023da4:	003fe706 	br	4023d44 <__alt_data_end+0xfffe3d44>
 4023da8:	0005883a 	mov	r2,zero
 4023dac:	f800283a 	ret

04023db0 <___vfprintf_internal_r>:
 4023db0:	deffb804 	addi	sp,sp,-288
 4023db4:	dfc04715 	stw	ra,284(sp)
 4023db8:	ddc04515 	stw	r23,276(sp)
 4023dbc:	dd404315 	stw	r21,268(sp)
 4023dc0:	d9002c15 	stw	r4,176(sp)
 4023dc4:	282f883a 	mov	r23,r5
 4023dc8:	302b883a 	mov	r21,r6
 4023dcc:	d9c02d15 	stw	r7,180(sp)
 4023dd0:	df004615 	stw	fp,280(sp)
 4023dd4:	dd804415 	stw	r22,272(sp)
 4023dd8:	dd004215 	stw	r20,264(sp)
 4023ddc:	dcc04115 	stw	r19,260(sp)
 4023de0:	dc804015 	stw	r18,256(sp)
 4023de4:	dc403f15 	stw	r17,252(sp)
 4023de8:	dc003e15 	stw	r16,248(sp)
 4023dec:	4028afc0 	call	4028afc <_localeconv_r>
 4023df0:	10800017 	ldw	r2,0(r2)
 4023df4:	1009883a 	mov	r4,r2
 4023df8:	d8803415 	stw	r2,208(sp)
 4023dfc:	4023d180 	call	4023d18 <strlen>
 4023e00:	d8803715 	stw	r2,220(sp)
 4023e04:	d8802c17 	ldw	r2,176(sp)
 4023e08:	10000226 	beq	r2,zero,4023e14 <___vfprintf_internal_r+0x64>
 4023e0c:	10800e17 	ldw	r2,56(r2)
 4023e10:	1000f926 	beq	r2,zero,40241f8 <___vfprintf_internal_r+0x448>
 4023e14:	b880030b 	ldhu	r2,12(r23)
 4023e18:	10c8000c 	andi	r3,r2,8192
 4023e1c:	1800061e 	bne	r3,zero,4023e38 <___vfprintf_internal_r+0x88>
 4023e20:	b9001917 	ldw	r4,100(r23)
 4023e24:	00f7ffc4 	movi	r3,-8193
 4023e28:	10880014 	ori	r2,r2,8192
 4023e2c:	20c6703a 	and	r3,r4,r3
 4023e30:	b880030d 	sth	r2,12(r23)
 4023e34:	b8c01915 	stw	r3,100(r23)
 4023e38:	10c0020c 	andi	r3,r2,8
 4023e3c:	1800c126 	beq	r3,zero,4024144 <___vfprintf_internal_r+0x394>
 4023e40:	b8c00417 	ldw	r3,16(r23)
 4023e44:	1800bf26 	beq	r3,zero,4024144 <___vfprintf_internal_r+0x394>
 4023e48:	1080068c 	andi	r2,r2,26
 4023e4c:	00c00284 	movi	r3,10
 4023e50:	10c0c426 	beq	r2,r3,4024164 <___vfprintf_internal_r+0x3b4>
 4023e54:	d8c00404 	addi	r3,sp,16
 4023e58:	050100f4 	movhi	r20,1027
 4023e5c:	d9001e04 	addi	r4,sp,120
 4023e60:	a5048c84 	addi	r20,r20,4658
 4023e64:	d8c01e15 	stw	r3,120(sp)
 4023e68:	d8002015 	stw	zero,128(sp)
 4023e6c:	d8001f15 	stw	zero,124(sp)
 4023e70:	d8003315 	stw	zero,204(sp)
 4023e74:	d8003615 	stw	zero,216(sp)
 4023e78:	d8003815 	stw	zero,224(sp)
 4023e7c:	1811883a 	mov	r8,r3
 4023e80:	d8003915 	stw	zero,228(sp)
 4023e84:	d8003a15 	stw	zero,232(sp)
 4023e88:	d8002f15 	stw	zero,188(sp)
 4023e8c:	d9002815 	stw	r4,160(sp)
 4023e90:	a8800007 	ldb	r2,0(r21)
 4023e94:	10027b26 	beq	r2,zero,4024884 <___vfprintf_internal_r+0xad4>
 4023e98:	00c00944 	movi	r3,37
 4023e9c:	a821883a 	mov	r16,r21
 4023ea0:	10c0021e 	bne	r2,r3,4023eac <___vfprintf_internal_r+0xfc>
 4023ea4:	00001406 	br	4023ef8 <___vfprintf_internal_r+0x148>
 4023ea8:	10c00326 	beq	r2,r3,4023eb8 <___vfprintf_internal_r+0x108>
 4023eac:	84000044 	addi	r16,r16,1
 4023eb0:	80800007 	ldb	r2,0(r16)
 4023eb4:	103ffc1e 	bne	r2,zero,4023ea8 <__alt_data_end+0xfffe3ea8>
 4023eb8:	8563c83a 	sub	r17,r16,r21
 4023ebc:	88000e26 	beq	r17,zero,4023ef8 <___vfprintf_internal_r+0x148>
 4023ec0:	d8c02017 	ldw	r3,128(sp)
 4023ec4:	d8801f17 	ldw	r2,124(sp)
 4023ec8:	45400015 	stw	r21,0(r8)
 4023ecc:	1c47883a 	add	r3,r3,r17
 4023ed0:	10800044 	addi	r2,r2,1
 4023ed4:	d8c02015 	stw	r3,128(sp)
 4023ed8:	44400115 	stw	r17,4(r8)
 4023edc:	d8801f15 	stw	r2,124(sp)
 4023ee0:	00c001c4 	movi	r3,7
 4023ee4:	1880a716 	blt	r3,r2,4024184 <___vfprintf_internal_r+0x3d4>
 4023ee8:	42000204 	addi	r8,r8,8
 4023eec:	d9402f17 	ldw	r5,188(sp)
 4023ef0:	2c4b883a 	add	r5,r5,r17
 4023ef4:	d9402f15 	stw	r5,188(sp)
 4023ef8:	80800007 	ldb	r2,0(r16)
 4023efc:	1000a826 	beq	r2,zero,40241a0 <___vfprintf_internal_r+0x3f0>
 4023f00:	84400047 	ldb	r17,1(r16)
 4023f04:	00bfffc4 	movi	r2,-1
 4023f08:	85400044 	addi	r21,r16,1
 4023f0c:	d8002785 	stb	zero,158(sp)
 4023f10:	0007883a 	mov	r3,zero
 4023f14:	000f883a 	mov	r7,zero
 4023f18:	d8802915 	stw	r2,164(sp)
 4023f1c:	d8003115 	stw	zero,196(sp)
 4023f20:	0025883a 	mov	r18,zero
 4023f24:	01401604 	movi	r5,88
 4023f28:	01800244 	movi	r6,9
 4023f2c:	02800a84 	movi	r10,42
 4023f30:	02401b04 	movi	r9,108
 4023f34:	ad400044 	addi	r21,r21,1
 4023f38:	88bff804 	addi	r2,r17,-32
 4023f3c:	28830436 	bltu	r5,r2,4024b50 <___vfprintf_internal_r+0xda0>
 4023f40:	100490ba 	slli	r2,r2,2
 4023f44:	010100b4 	movhi	r4,1026
 4023f48:	210fd604 	addi	r4,r4,16216
 4023f4c:	1105883a 	add	r2,r2,r4
 4023f50:	10800017 	ldw	r2,0(r2)
 4023f54:	1000683a 	jmp	r2
 4023f58:	04024a70 	cmpltui	r16,zero,2345
 4023f5c:	04024b50 	cmplti	r16,zero,2349
 4023f60:	04024b50 	cmplti	r16,zero,2349
 4023f64:	04024a90 	cmplti	r16,zero,2346
 4023f68:	04024b50 	cmplti	r16,zero,2349
 4023f6c:	04024b50 	cmplti	r16,zero,2349
 4023f70:	04024b50 	cmplti	r16,zero,2349
 4023f74:	04024b50 	cmplti	r16,zero,2349
 4023f78:	04024b50 	cmplti	r16,zero,2349
 4023f7c:	04024b50 	cmplti	r16,zero,2349
 4023f80:	04024204 	movi	r16,2312
 4023f84:	040249ac 	andhi	r16,zero,2342
 4023f88:	04024b50 	cmplti	r16,zero,2349
 4023f8c:	040240cc 	andi	r16,zero,2307
 4023f90:	0402422c 	andhi	r16,zero,2312
 4023f94:	04024b50 	cmplti	r16,zero,2349
 4023f98:	0402426c 	andhi	r16,zero,2313
 4023f9c:	04024278 	rdprs	r16,zero,2313
 4023fa0:	04024278 	rdprs	r16,zero,2313
 4023fa4:	04024278 	rdprs	r16,zero,2313
 4023fa8:	04024278 	rdprs	r16,zero,2313
 4023fac:	04024278 	rdprs	r16,zero,2313
 4023fb0:	04024278 	rdprs	r16,zero,2313
 4023fb4:	04024278 	rdprs	r16,zero,2313
 4023fb8:	04024278 	rdprs	r16,zero,2313
 4023fbc:	04024278 	rdprs	r16,zero,2313
 4023fc0:	04024b50 	cmplti	r16,zero,2349
 4023fc4:	04024b50 	cmplti	r16,zero,2349
 4023fc8:	04024b50 	cmplti	r16,zero,2349
 4023fcc:	04024b50 	cmplti	r16,zero,2349
 4023fd0:	04024b50 	cmplti	r16,zero,2349
 4023fd4:	04024b50 	cmplti	r16,zero,2349
 4023fd8:	04024b50 	cmplti	r16,zero,2349
 4023fdc:	04024b50 	cmplti	r16,zero,2349
 4023fe0:	04024b50 	cmplti	r16,zero,2349
 4023fe4:	04024b50 	cmplti	r16,zero,2349
 4023fe8:	040242ac 	andhi	r16,zero,2314
 4023fec:	04024368 	cmpgeui	r16,zero,2317
 4023ff0:	04024b50 	cmplti	r16,zero,2349
 4023ff4:	04024368 	cmpgeui	r16,zero,2317
 4023ff8:	04024b50 	cmplti	r16,zero,2349
 4023ffc:	04024b50 	cmplti	r16,zero,2349
 4024000:	04024b50 	cmplti	r16,zero,2349
 4024004:	04024b50 	cmplti	r16,zero,2349
 4024008:	04024408 	cmpgei	r16,zero,2320
 402400c:	04024b50 	cmplti	r16,zero,2349
 4024010:	04024b50 	cmplti	r16,zero,2349
 4024014:	04024414 	movui	r16,2320
 4024018:	04024b50 	cmplti	r16,zero,2349
 402401c:	04024b50 	cmplti	r16,zero,2349
 4024020:	04024b50 	cmplti	r16,zero,2349
 4024024:	04024b50 	cmplti	r16,zero,2349
 4024028:	04024b50 	cmplti	r16,zero,2349
 402402c:	0402488c 	andi	r16,zero,2338
 4024030:	04024b50 	cmplti	r16,zero,2349
 4024034:	04024b50 	cmplti	r16,zero,2349
 4024038:	040248ec 	andhi	r16,zero,2339
 402403c:	04024b50 	cmplti	r16,zero,2349
 4024040:	04024b50 	cmplti	r16,zero,2349
 4024044:	04024b50 	cmplti	r16,zero,2349
 4024048:	04024b50 	cmplti	r16,zero,2349
 402404c:	04024b50 	cmplti	r16,zero,2349
 4024050:	04024b50 	cmplti	r16,zero,2349
 4024054:	04024b50 	cmplti	r16,zero,2349
 4024058:	04024b50 	cmplti	r16,zero,2349
 402405c:	04024b50 	cmplti	r16,zero,2349
 4024060:	04024b50 	cmplti	r16,zero,2349
 4024064:	04024afc 	xorhi	r16,zero,2347
 4024068:	04024a9c 	xori	r16,zero,2346
 402406c:	04024368 	cmpgeui	r16,zero,2317
 4024070:	04024368 	cmpgeui	r16,zero,2317
 4024074:	04024368 	cmpgeui	r16,zero,2317
 4024078:	04024aac 	andhi	r16,zero,2346
 402407c:	04024a9c 	xori	r16,zero,2346
 4024080:	04024b50 	cmplti	r16,zero,2349
 4024084:	04024b50 	cmplti	r16,zero,2349
 4024088:	04024ab8 	rdprs	r16,zero,2346
 402408c:	04024b50 	cmplti	r16,zero,2349
 4024090:	04024ac8 	cmpgei	r16,zero,2347
 4024094:	0402499c 	xori	r16,zero,2342
 4024098:	040240d8 	cmpnei	r16,zero,2307
 402409c:	040249bc 	xorhi	r16,zero,2342
 40240a0:	04024b50 	cmplti	r16,zero,2349
 40240a4:	040249c8 	cmpgei	r16,zero,2343
 40240a8:	04024b50 	cmplti	r16,zero,2349
 40240ac:	04024a24 	muli	r16,zero,2344
 40240b0:	04024b50 	cmplti	r16,zero,2349
 40240b4:	04024b50 	cmplti	r16,zero,2349
 40240b8:	04024a34 	movhi	r16,2344
 40240bc:	d9003117 	ldw	r4,196(sp)
 40240c0:	d8802d15 	stw	r2,180(sp)
 40240c4:	0109c83a 	sub	r4,zero,r4
 40240c8:	d9003115 	stw	r4,196(sp)
 40240cc:	94800114 	ori	r18,r18,4
 40240d0:	ac400007 	ldb	r17,0(r21)
 40240d4:	003f9706 	br	4023f34 <__alt_data_end+0xfffe3f34>
 40240d8:	00800c04 	movi	r2,48
 40240dc:	d9002d17 	ldw	r4,180(sp)
 40240e0:	d9402917 	ldw	r5,164(sp)
 40240e4:	d8802705 	stb	r2,156(sp)
 40240e8:	00801e04 	movi	r2,120
 40240ec:	d8802745 	stb	r2,157(sp)
 40240f0:	d8002785 	stb	zero,158(sp)
 40240f4:	20c00104 	addi	r3,r4,4
 40240f8:	24c00017 	ldw	r19,0(r4)
 40240fc:	002d883a 	mov	r22,zero
 4024100:	90800094 	ori	r2,r18,2
 4024104:	28029a16 	blt	r5,zero,4024b70 <___vfprintf_internal_r+0xdc0>
 4024108:	00bfdfc4 	movi	r2,-129
 402410c:	90a4703a 	and	r18,r18,r2
 4024110:	d8c02d15 	stw	r3,180(sp)
 4024114:	94800094 	ori	r18,r18,2
 4024118:	9802871e 	bne	r19,zero,4024b38 <___vfprintf_internal_r+0xd88>
 402411c:	008100f4 	movhi	r2,1027
 4024120:	10848504 	addi	r2,r2,4628
 4024124:	d8803915 	stw	r2,228(sp)
 4024128:	04401e04 	movi	r17,120
 402412c:	d8802917 	ldw	r2,164(sp)
 4024130:	0039883a 	mov	fp,zero
 4024134:	1001e926 	beq	r2,zero,40248dc <___vfprintf_internal_r+0xb2c>
 4024138:	0027883a 	mov	r19,zero
 402413c:	002d883a 	mov	r22,zero
 4024140:	00020506 	br	4024958 <___vfprintf_internal_r+0xba8>
 4024144:	d9002c17 	ldw	r4,176(sp)
 4024148:	b80b883a 	mov	r5,r23
 402414c:	40261d80 	call	40261d8 <__swsetup_r>
 4024150:	1005ac1e 	bne	r2,zero,4025804 <___vfprintf_internal_r+0x1a54>
 4024154:	b880030b 	ldhu	r2,12(r23)
 4024158:	00c00284 	movi	r3,10
 402415c:	1080068c 	andi	r2,r2,26
 4024160:	10ff3c1e 	bne	r2,r3,4023e54 <__alt_data_end+0xfffe3e54>
 4024164:	b880038f 	ldh	r2,14(r23)
 4024168:	103f3a16 	blt	r2,zero,4023e54 <__alt_data_end+0xfffe3e54>
 402416c:	d9c02d17 	ldw	r7,180(sp)
 4024170:	d9002c17 	ldw	r4,176(sp)
 4024174:	a80d883a 	mov	r6,r21
 4024178:	b80b883a 	mov	r5,r23
 402417c:	4025fc40 	call	4025fc4 <__sbprintf>
 4024180:	00001106 	br	40241c8 <___vfprintf_internal_r+0x418>
 4024184:	d9002c17 	ldw	r4,176(sp)
 4024188:	d9801e04 	addi	r6,sp,120
 402418c:	b80b883a 	mov	r5,r23
 4024190:	402aad80 	call	402aad8 <__sprint_r>
 4024194:	1000081e 	bne	r2,zero,40241b8 <___vfprintf_internal_r+0x408>
 4024198:	da000404 	addi	r8,sp,16
 402419c:	003f5306 	br	4023eec <__alt_data_end+0xfffe3eec>
 40241a0:	d8802017 	ldw	r2,128(sp)
 40241a4:	10000426 	beq	r2,zero,40241b8 <___vfprintf_internal_r+0x408>
 40241a8:	d9002c17 	ldw	r4,176(sp)
 40241ac:	d9801e04 	addi	r6,sp,120
 40241b0:	b80b883a 	mov	r5,r23
 40241b4:	402aad80 	call	402aad8 <__sprint_r>
 40241b8:	b880030b 	ldhu	r2,12(r23)
 40241bc:	1080100c 	andi	r2,r2,64
 40241c0:	1005901e 	bne	r2,zero,4025804 <___vfprintf_internal_r+0x1a54>
 40241c4:	d8802f17 	ldw	r2,188(sp)
 40241c8:	dfc04717 	ldw	ra,284(sp)
 40241cc:	df004617 	ldw	fp,280(sp)
 40241d0:	ddc04517 	ldw	r23,276(sp)
 40241d4:	dd804417 	ldw	r22,272(sp)
 40241d8:	dd404317 	ldw	r21,268(sp)
 40241dc:	dd004217 	ldw	r20,264(sp)
 40241e0:	dcc04117 	ldw	r19,260(sp)
 40241e4:	dc804017 	ldw	r18,256(sp)
 40241e8:	dc403f17 	ldw	r17,252(sp)
 40241ec:	dc003e17 	ldw	r16,248(sp)
 40241f0:	dec04804 	addi	sp,sp,288
 40241f4:	f800283a 	ret
 40241f8:	d9002c17 	ldw	r4,176(sp)
 40241fc:	40284440 	call	4028444 <__sinit>
 4024200:	003f0406 	br	4023e14 <__alt_data_end+0xfffe3e14>
 4024204:	d8802d17 	ldw	r2,180(sp)
 4024208:	d9002d17 	ldw	r4,180(sp)
 402420c:	10800017 	ldw	r2,0(r2)
 4024210:	d8803115 	stw	r2,196(sp)
 4024214:	20800104 	addi	r2,r4,4
 4024218:	d9003117 	ldw	r4,196(sp)
 402421c:	203fa716 	blt	r4,zero,40240bc <__alt_data_end+0xfffe40bc>
 4024220:	d8802d15 	stw	r2,180(sp)
 4024224:	ac400007 	ldb	r17,0(r21)
 4024228:	003f4206 	br	4023f34 <__alt_data_end+0xfffe3f34>
 402422c:	ac400007 	ldb	r17,0(r21)
 4024230:	aac00044 	addi	r11,r21,1
 4024234:	8a872826 	beq	r17,r10,4025ed8 <___vfprintf_internal_r+0x2128>
 4024238:	88bff404 	addi	r2,r17,-48
 402423c:	0009883a 	mov	r4,zero
 4024240:	30867d36 	bltu	r6,r2,4025c38 <___vfprintf_internal_r+0x1e88>
 4024244:	5c400007 	ldb	r17,0(r11)
 4024248:	210002a4 	muli	r4,r4,10
 402424c:	5d400044 	addi	r21,r11,1
 4024250:	a817883a 	mov	r11,r21
 4024254:	2089883a 	add	r4,r4,r2
 4024258:	88bff404 	addi	r2,r17,-48
 402425c:	30bff92e 	bgeu	r6,r2,4024244 <__alt_data_end+0xfffe4244>
 4024260:	2005c916 	blt	r4,zero,4025988 <___vfprintf_internal_r+0x1bd8>
 4024264:	d9002915 	stw	r4,164(sp)
 4024268:	003f3306 	br	4023f38 <__alt_data_end+0xfffe3f38>
 402426c:	94802014 	ori	r18,r18,128
 4024270:	ac400007 	ldb	r17,0(r21)
 4024274:	003f2f06 	br	4023f34 <__alt_data_end+0xfffe3f34>
 4024278:	a809883a 	mov	r4,r21
 402427c:	d8003115 	stw	zero,196(sp)
 4024280:	88bff404 	addi	r2,r17,-48
 4024284:	0017883a 	mov	r11,zero
 4024288:	24400007 	ldb	r17,0(r4)
 402428c:	5ac002a4 	muli	r11,r11,10
 4024290:	ad400044 	addi	r21,r21,1
 4024294:	a809883a 	mov	r4,r21
 4024298:	12d7883a 	add	r11,r2,r11
 402429c:	88bff404 	addi	r2,r17,-48
 40242a0:	30bff92e 	bgeu	r6,r2,4024288 <__alt_data_end+0xfffe4288>
 40242a4:	dac03115 	stw	r11,196(sp)
 40242a8:	003f2306 	br	4023f38 <__alt_data_end+0xfffe3f38>
 40242ac:	18c03fcc 	andi	r3,r3,255
 40242b0:	18072b1e 	bne	r3,zero,4025f60 <___vfprintf_internal_r+0x21b0>
 40242b4:	94800414 	ori	r18,r18,16
 40242b8:	9080080c 	andi	r2,r18,32
 40242bc:	10037b26 	beq	r2,zero,40250ac <___vfprintf_internal_r+0x12fc>
 40242c0:	d9402d17 	ldw	r5,180(sp)
 40242c4:	28800117 	ldw	r2,4(r5)
 40242c8:	2cc00017 	ldw	r19,0(r5)
 40242cc:	29400204 	addi	r5,r5,8
 40242d0:	d9402d15 	stw	r5,180(sp)
 40242d4:	102d883a 	mov	r22,r2
 40242d8:	10044b16 	blt	r2,zero,4025408 <___vfprintf_internal_r+0x1658>
 40242dc:	d9402917 	ldw	r5,164(sp)
 40242e0:	df002783 	ldbu	fp,158(sp)
 40242e4:	2803bc16 	blt	r5,zero,40251d8 <___vfprintf_internal_r+0x1428>
 40242e8:	00ffdfc4 	movi	r3,-129
 40242ec:	9d84b03a 	or	r2,r19,r22
 40242f0:	90e4703a 	and	r18,r18,r3
 40242f4:	10017726 	beq	r2,zero,40248d4 <___vfprintf_internal_r+0xb24>
 40242f8:	b0038326 	beq	r22,zero,4025108 <___vfprintf_internal_r+0x1358>
 40242fc:	dc402a15 	stw	r17,168(sp)
 4024300:	dc001e04 	addi	r16,sp,120
 4024304:	b023883a 	mov	r17,r22
 4024308:	402d883a 	mov	r22,r8
 402430c:	9809883a 	mov	r4,r19
 4024310:	880b883a 	mov	r5,r17
 4024314:	01800284 	movi	r6,10
 4024318:	000f883a 	mov	r7,zero
 402431c:	402d9640 	call	402d964 <__umoddi3>
 4024320:	10800c04 	addi	r2,r2,48
 4024324:	843fffc4 	addi	r16,r16,-1
 4024328:	9809883a 	mov	r4,r19
 402432c:	880b883a 	mov	r5,r17
 4024330:	80800005 	stb	r2,0(r16)
 4024334:	01800284 	movi	r6,10
 4024338:	000f883a 	mov	r7,zero
 402433c:	402d3ec0 	call	402d3ec <__udivdi3>
 4024340:	1027883a 	mov	r19,r2
 4024344:	10c4b03a 	or	r2,r2,r3
 4024348:	1823883a 	mov	r17,r3
 402434c:	103fef1e 	bne	r2,zero,402430c <__alt_data_end+0xfffe430c>
 4024350:	d8c02817 	ldw	r3,160(sp)
 4024354:	dc402a17 	ldw	r17,168(sp)
 4024358:	b011883a 	mov	r8,r22
 402435c:	1c07c83a 	sub	r3,r3,r16
 4024360:	d8c02e15 	stw	r3,184(sp)
 4024364:	00005906 	br	40244cc <___vfprintf_internal_r+0x71c>
 4024368:	18c03fcc 	andi	r3,r3,255
 402436c:	1806fa1e 	bne	r3,zero,4025f58 <___vfprintf_internal_r+0x21a8>
 4024370:	9080020c 	andi	r2,r18,8
 4024374:	10048a26 	beq	r2,zero,40255a0 <___vfprintf_internal_r+0x17f0>
 4024378:	d8c02d17 	ldw	r3,180(sp)
 402437c:	d9002d17 	ldw	r4,180(sp)
 4024380:	d9402d17 	ldw	r5,180(sp)
 4024384:	18c00017 	ldw	r3,0(r3)
 4024388:	21000117 	ldw	r4,4(r4)
 402438c:	29400204 	addi	r5,r5,8
 4024390:	d8c03615 	stw	r3,216(sp)
 4024394:	d9003815 	stw	r4,224(sp)
 4024398:	d9402d15 	stw	r5,180(sp)
 402439c:	d9003617 	ldw	r4,216(sp)
 40243a0:	d9403817 	ldw	r5,224(sp)
 40243a4:	da003d15 	stw	r8,244(sp)
 40243a8:	04000044 	movi	r16,1
 40243ac:	402a6fc0 	call	402a6fc <__fpclassifyd>
 40243b0:	da003d17 	ldw	r8,244(sp)
 40243b4:	14041f1e 	bne	r2,r16,4025434 <___vfprintf_internal_r+0x1684>
 40243b8:	d9003617 	ldw	r4,216(sp)
 40243bc:	d9403817 	ldw	r5,224(sp)
 40243c0:	000d883a 	mov	r6,zero
 40243c4:	000f883a 	mov	r7,zero
 40243c8:	402f3480 	call	402f348 <__ledf2>
 40243cc:	da003d17 	ldw	r8,244(sp)
 40243d0:	1005be16 	blt	r2,zero,4025acc <___vfprintf_internal_r+0x1d1c>
 40243d4:	df002783 	ldbu	fp,158(sp)
 40243d8:	008011c4 	movi	r2,71
 40243dc:	1445330e 	bge	r2,r17,40258ac <___vfprintf_internal_r+0x1afc>
 40243e0:	040100f4 	movhi	r16,1027
 40243e4:	84047d04 	addi	r16,r16,4596
 40243e8:	00c000c4 	movi	r3,3
 40243ec:	00bfdfc4 	movi	r2,-129
 40243f0:	d8c02a15 	stw	r3,168(sp)
 40243f4:	90a4703a 	and	r18,r18,r2
 40243f8:	d8c02e15 	stw	r3,184(sp)
 40243fc:	d8002915 	stw	zero,164(sp)
 4024400:	d8003215 	stw	zero,200(sp)
 4024404:	00003706 	br	40244e4 <___vfprintf_internal_r+0x734>
 4024408:	94800214 	ori	r18,r18,8
 402440c:	ac400007 	ldb	r17,0(r21)
 4024410:	003ec806 	br	4023f34 <__alt_data_end+0xfffe3f34>
 4024414:	18c03fcc 	andi	r3,r3,255
 4024418:	1806db1e 	bne	r3,zero,4025f88 <___vfprintf_internal_r+0x21d8>
 402441c:	94800414 	ori	r18,r18,16
 4024420:	9080080c 	andi	r2,r18,32
 4024424:	1002d826 	beq	r2,zero,4024f88 <___vfprintf_internal_r+0x11d8>
 4024428:	d9402d17 	ldw	r5,180(sp)
 402442c:	d8c02917 	ldw	r3,164(sp)
 4024430:	d8002785 	stb	zero,158(sp)
 4024434:	28800204 	addi	r2,r5,8
 4024438:	2cc00017 	ldw	r19,0(r5)
 402443c:	2d800117 	ldw	r22,4(r5)
 4024440:	18048f16 	blt	r3,zero,4025680 <___vfprintf_internal_r+0x18d0>
 4024444:	013fdfc4 	movi	r4,-129
 4024448:	9d86b03a 	or	r3,r19,r22
 402444c:	d8802d15 	stw	r2,180(sp)
 4024450:	9124703a 	and	r18,r18,r4
 4024454:	1802d91e 	bne	r3,zero,4024fbc <___vfprintf_internal_r+0x120c>
 4024458:	d8c02917 	ldw	r3,164(sp)
 402445c:	0039883a 	mov	fp,zero
 4024460:	1805c326 	beq	r3,zero,4025b70 <___vfprintf_internal_r+0x1dc0>
 4024464:	0027883a 	mov	r19,zero
 4024468:	002d883a 	mov	r22,zero
 402446c:	dc001e04 	addi	r16,sp,120
 4024470:	9806d0fa 	srli	r3,r19,3
 4024474:	b008977a 	slli	r4,r22,29
 4024478:	b02cd0fa 	srli	r22,r22,3
 402447c:	9cc001cc 	andi	r19,r19,7
 4024480:	98800c04 	addi	r2,r19,48
 4024484:	843fffc4 	addi	r16,r16,-1
 4024488:	20e6b03a 	or	r19,r4,r3
 402448c:	80800005 	stb	r2,0(r16)
 4024490:	9d86b03a 	or	r3,r19,r22
 4024494:	183ff61e 	bne	r3,zero,4024470 <__alt_data_end+0xfffe4470>
 4024498:	90c0004c 	andi	r3,r18,1
 402449c:	18013b26 	beq	r3,zero,402498c <___vfprintf_internal_r+0xbdc>
 40244a0:	10803fcc 	andi	r2,r2,255
 40244a4:	1080201c 	xori	r2,r2,128
 40244a8:	10bfe004 	addi	r2,r2,-128
 40244ac:	00c00c04 	movi	r3,48
 40244b0:	10c13626 	beq	r2,r3,402498c <___vfprintf_internal_r+0xbdc>
 40244b4:	80ffffc5 	stb	r3,-1(r16)
 40244b8:	d8c02817 	ldw	r3,160(sp)
 40244bc:	80bfffc4 	addi	r2,r16,-1
 40244c0:	1021883a 	mov	r16,r2
 40244c4:	1887c83a 	sub	r3,r3,r2
 40244c8:	d8c02e15 	stw	r3,184(sp)
 40244cc:	d8802e17 	ldw	r2,184(sp)
 40244d0:	d9002917 	ldw	r4,164(sp)
 40244d4:	1100010e 	bge	r2,r4,40244dc <___vfprintf_internal_r+0x72c>
 40244d8:	2005883a 	mov	r2,r4
 40244dc:	d8802a15 	stw	r2,168(sp)
 40244e0:	d8003215 	stw	zero,200(sp)
 40244e4:	e7003fcc 	andi	fp,fp,255
 40244e8:	e700201c 	xori	fp,fp,128
 40244ec:	e73fe004 	addi	fp,fp,-128
 40244f0:	e0000326 	beq	fp,zero,4024500 <___vfprintf_internal_r+0x750>
 40244f4:	d8c02a17 	ldw	r3,168(sp)
 40244f8:	18c00044 	addi	r3,r3,1
 40244fc:	d8c02a15 	stw	r3,168(sp)
 4024500:	90c0008c 	andi	r3,r18,2
 4024504:	d8c02b15 	stw	r3,172(sp)
 4024508:	18000326 	beq	r3,zero,4024518 <___vfprintf_internal_r+0x768>
 402450c:	d8c02a17 	ldw	r3,168(sp)
 4024510:	18c00084 	addi	r3,r3,2
 4024514:	d8c02a15 	stw	r3,168(sp)
 4024518:	90c0210c 	andi	r3,r18,132
 402451c:	d8c03015 	stw	r3,192(sp)
 4024520:	1801a31e 	bne	r3,zero,4024bb0 <___vfprintf_internal_r+0xe00>
 4024524:	d9003117 	ldw	r4,196(sp)
 4024528:	d8c02a17 	ldw	r3,168(sp)
 402452c:	20e7c83a 	sub	r19,r4,r3
 4024530:	04c19f0e 	bge	zero,r19,4024bb0 <___vfprintf_internal_r+0xe00>
 4024534:	02400404 	movi	r9,16
 4024538:	d8c02017 	ldw	r3,128(sp)
 402453c:	d8801f17 	ldw	r2,124(sp)
 4024540:	4cc50d0e 	bge	r9,r19,4025978 <___vfprintf_internal_r+0x1bc8>
 4024544:	014100f4 	movhi	r5,1027
 4024548:	29449084 	addi	r5,r5,4674
 402454c:	dc403b15 	stw	r17,236(sp)
 4024550:	d9403515 	stw	r5,212(sp)
 4024554:	9823883a 	mov	r17,r19
 4024558:	482d883a 	mov	r22,r9
 402455c:	9027883a 	mov	r19,r18
 4024560:	070001c4 	movi	fp,7
 4024564:	8025883a 	mov	r18,r16
 4024568:	dc002c17 	ldw	r16,176(sp)
 402456c:	00000306 	br	402457c <___vfprintf_internal_r+0x7cc>
 4024570:	8c7ffc04 	addi	r17,r17,-16
 4024574:	42000204 	addi	r8,r8,8
 4024578:	b440130e 	bge	r22,r17,40245c8 <___vfprintf_internal_r+0x818>
 402457c:	010100f4 	movhi	r4,1027
 4024580:	18c00404 	addi	r3,r3,16
 4024584:	10800044 	addi	r2,r2,1
 4024588:	21049084 	addi	r4,r4,4674
 402458c:	41000015 	stw	r4,0(r8)
 4024590:	45800115 	stw	r22,4(r8)
 4024594:	d8c02015 	stw	r3,128(sp)
 4024598:	d8801f15 	stw	r2,124(sp)
 402459c:	e0bff40e 	bge	fp,r2,4024570 <__alt_data_end+0xfffe4570>
 40245a0:	d9801e04 	addi	r6,sp,120
 40245a4:	b80b883a 	mov	r5,r23
 40245a8:	8009883a 	mov	r4,r16
 40245ac:	402aad80 	call	402aad8 <__sprint_r>
 40245b0:	103f011e 	bne	r2,zero,40241b8 <__alt_data_end+0xfffe41b8>
 40245b4:	8c7ffc04 	addi	r17,r17,-16
 40245b8:	d8c02017 	ldw	r3,128(sp)
 40245bc:	d8801f17 	ldw	r2,124(sp)
 40245c0:	da000404 	addi	r8,sp,16
 40245c4:	b47fed16 	blt	r22,r17,402457c <__alt_data_end+0xfffe457c>
 40245c8:	9021883a 	mov	r16,r18
 40245cc:	9825883a 	mov	r18,r19
 40245d0:	8827883a 	mov	r19,r17
 40245d4:	dc403b17 	ldw	r17,236(sp)
 40245d8:	d9403517 	ldw	r5,212(sp)
 40245dc:	98c7883a 	add	r3,r19,r3
 40245e0:	10800044 	addi	r2,r2,1
 40245e4:	41400015 	stw	r5,0(r8)
 40245e8:	44c00115 	stw	r19,4(r8)
 40245ec:	d8c02015 	stw	r3,128(sp)
 40245f0:	d8801f15 	stw	r2,124(sp)
 40245f4:	010001c4 	movi	r4,7
 40245f8:	2082a316 	blt	r4,r2,4025088 <___vfprintf_internal_r+0x12d8>
 40245fc:	df002787 	ldb	fp,158(sp)
 4024600:	42000204 	addi	r8,r8,8
 4024604:	e0000c26 	beq	fp,zero,4024638 <___vfprintf_internal_r+0x888>
 4024608:	d8801f17 	ldw	r2,124(sp)
 402460c:	d9002784 	addi	r4,sp,158
 4024610:	18c00044 	addi	r3,r3,1
 4024614:	10800044 	addi	r2,r2,1
 4024618:	41000015 	stw	r4,0(r8)
 402461c:	01000044 	movi	r4,1
 4024620:	41000115 	stw	r4,4(r8)
 4024624:	d8c02015 	stw	r3,128(sp)
 4024628:	d8801f15 	stw	r2,124(sp)
 402462c:	010001c4 	movi	r4,7
 4024630:	20823c16 	blt	r4,r2,4024f24 <___vfprintf_internal_r+0x1174>
 4024634:	42000204 	addi	r8,r8,8
 4024638:	d8802b17 	ldw	r2,172(sp)
 402463c:	10000c26 	beq	r2,zero,4024670 <___vfprintf_internal_r+0x8c0>
 4024640:	d8801f17 	ldw	r2,124(sp)
 4024644:	d9002704 	addi	r4,sp,156
 4024648:	18c00084 	addi	r3,r3,2
 402464c:	10800044 	addi	r2,r2,1
 4024650:	41000015 	stw	r4,0(r8)
 4024654:	01000084 	movi	r4,2
 4024658:	41000115 	stw	r4,4(r8)
 402465c:	d8c02015 	stw	r3,128(sp)
 4024660:	d8801f15 	stw	r2,124(sp)
 4024664:	010001c4 	movi	r4,7
 4024668:	20823616 	blt	r4,r2,4024f44 <___vfprintf_internal_r+0x1194>
 402466c:	42000204 	addi	r8,r8,8
 4024670:	d9003017 	ldw	r4,192(sp)
 4024674:	00802004 	movi	r2,128
 4024678:	20819926 	beq	r4,r2,4024ce0 <___vfprintf_internal_r+0xf30>
 402467c:	d9402917 	ldw	r5,164(sp)
 4024680:	d8802e17 	ldw	r2,184(sp)
 4024684:	28adc83a 	sub	r22,r5,r2
 4024688:	0580310e 	bge	zero,r22,4024750 <___vfprintf_internal_r+0x9a0>
 402468c:	07000404 	movi	fp,16
 4024690:	d8801f17 	ldw	r2,124(sp)
 4024694:	e584140e 	bge	fp,r22,40256e8 <___vfprintf_internal_r+0x1938>
 4024698:	014100f4 	movhi	r5,1027
 402469c:	29448c84 	addi	r5,r5,4658
 40246a0:	dc402915 	stw	r17,164(sp)
 40246a4:	d9402b15 	stw	r5,172(sp)
 40246a8:	b023883a 	mov	r17,r22
 40246ac:	04c001c4 	movi	r19,7
 40246b0:	a82d883a 	mov	r22,r21
 40246b4:	902b883a 	mov	r21,r18
 40246b8:	8025883a 	mov	r18,r16
 40246bc:	dc002c17 	ldw	r16,176(sp)
 40246c0:	00000306 	br	40246d0 <___vfprintf_internal_r+0x920>
 40246c4:	8c7ffc04 	addi	r17,r17,-16
 40246c8:	42000204 	addi	r8,r8,8
 40246cc:	e440110e 	bge	fp,r17,4024714 <___vfprintf_internal_r+0x964>
 40246d0:	18c00404 	addi	r3,r3,16
 40246d4:	10800044 	addi	r2,r2,1
 40246d8:	45000015 	stw	r20,0(r8)
 40246dc:	47000115 	stw	fp,4(r8)
 40246e0:	d8c02015 	stw	r3,128(sp)
 40246e4:	d8801f15 	stw	r2,124(sp)
 40246e8:	98bff60e 	bge	r19,r2,40246c4 <__alt_data_end+0xfffe46c4>
 40246ec:	d9801e04 	addi	r6,sp,120
 40246f0:	b80b883a 	mov	r5,r23
 40246f4:	8009883a 	mov	r4,r16
 40246f8:	402aad80 	call	402aad8 <__sprint_r>
 40246fc:	103eae1e 	bne	r2,zero,40241b8 <__alt_data_end+0xfffe41b8>
 4024700:	8c7ffc04 	addi	r17,r17,-16
 4024704:	d8c02017 	ldw	r3,128(sp)
 4024708:	d8801f17 	ldw	r2,124(sp)
 402470c:	da000404 	addi	r8,sp,16
 4024710:	e47fef16 	blt	fp,r17,40246d0 <__alt_data_end+0xfffe46d0>
 4024714:	9021883a 	mov	r16,r18
 4024718:	a825883a 	mov	r18,r21
 402471c:	b02b883a 	mov	r21,r22
 4024720:	882d883a 	mov	r22,r17
 4024724:	dc402917 	ldw	r17,164(sp)
 4024728:	d9002b17 	ldw	r4,172(sp)
 402472c:	1d87883a 	add	r3,r3,r22
 4024730:	10800044 	addi	r2,r2,1
 4024734:	41000015 	stw	r4,0(r8)
 4024738:	45800115 	stw	r22,4(r8)
 402473c:	d8c02015 	stw	r3,128(sp)
 4024740:	d8801f15 	stw	r2,124(sp)
 4024744:	010001c4 	movi	r4,7
 4024748:	2081ee16 	blt	r4,r2,4024f04 <___vfprintf_internal_r+0x1154>
 402474c:	42000204 	addi	r8,r8,8
 4024750:	9080400c 	andi	r2,r18,256
 4024754:	1001181e 	bne	r2,zero,4024bb8 <___vfprintf_internal_r+0xe08>
 4024758:	d9402e17 	ldw	r5,184(sp)
 402475c:	d8801f17 	ldw	r2,124(sp)
 4024760:	44000015 	stw	r16,0(r8)
 4024764:	1947883a 	add	r3,r3,r5
 4024768:	10800044 	addi	r2,r2,1
 402476c:	41400115 	stw	r5,4(r8)
 4024770:	d8c02015 	stw	r3,128(sp)
 4024774:	d8801f15 	stw	r2,124(sp)
 4024778:	010001c4 	movi	r4,7
 402477c:	2081d316 	blt	r4,r2,4024ecc <___vfprintf_internal_r+0x111c>
 4024780:	42000204 	addi	r8,r8,8
 4024784:	9480010c 	andi	r18,r18,4
 4024788:	90003226 	beq	r18,zero,4024854 <___vfprintf_internal_r+0xaa4>
 402478c:	d9403117 	ldw	r5,196(sp)
 4024790:	d8802a17 	ldw	r2,168(sp)
 4024794:	28a1c83a 	sub	r16,r5,r2
 4024798:	04002e0e 	bge	zero,r16,4024854 <___vfprintf_internal_r+0xaa4>
 402479c:	04400404 	movi	r17,16
 40247a0:	d8801f17 	ldw	r2,124(sp)
 40247a4:	8c04a20e 	bge	r17,r16,4025a30 <___vfprintf_internal_r+0x1c80>
 40247a8:	014100f4 	movhi	r5,1027
 40247ac:	29449084 	addi	r5,r5,4674
 40247b0:	d9403515 	stw	r5,212(sp)
 40247b4:	048001c4 	movi	r18,7
 40247b8:	dcc02c17 	ldw	r19,176(sp)
 40247bc:	00000306 	br	40247cc <___vfprintf_internal_r+0xa1c>
 40247c0:	843ffc04 	addi	r16,r16,-16
 40247c4:	42000204 	addi	r8,r8,8
 40247c8:	8c00130e 	bge	r17,r16,4024818 <___vfprintf_internal_r+0xa68>
 40247cc:	010100f4 	movhi	r4,1027
 40247d0:	18c00404 	addi	r3,r3,16
 40247d4:	10800044 	addi	r2,r2,1
 40247d8:	21049084 	addi	r4,r4,4674
 40247dc:	41000015 	stw	r4,0(r8)
 40247e0:	44400115 	stw	r17,4(r8)
 40247e4:	d8c02015 	stw	r3,128(sp)
 40247e8:	d8801f15 	stw	r2,124(sp)
 40247ec:	90bff40e 	bge	r18,r2,40247c0 <__alt_data_end+0xfffe47c0>
 40247f0:	d9801e04 	addi	r6,sp,120
 40247f4:	b80b883a 	mov	r5,r23
 40247f8:	9809883a 	mov	r4,r19
 40247fc:	402aad80 	call	402aad8 <__sprint_r>
 4024800:	103e6d1e 	bne	r2,zero,40241b8 <__alt_data_end+0xfffe41b8>
 4024804:	843ffc04 	addi	r16,r16,-16
 4024808:	d8c02017 	ldw	r3,128(sp)
 402480c:	d8801f17 	ldw	r2,124(sp)
 4024810:	da000404 	addi	r8,sp,16
 4024814:	8c3fed16 	blt	r17,r16,40247cc <__alt_data_end+0xfffe47cc>
 4024818:	d9403517 	ldw	r5,212(sp)
 402481c:	1c07883a 	add	r3,r3,r16
 4024820:	10800044 	addi	r2,r2,1
 4024824:	41400015 	stw	r5,0(r8)
 4024828:	44000115 	stw	r16,4(r8)
 402482c:	d8c02015 	stw	r3,128(sp)
 4024830:	d8801f15 	stw	r2,124(sp)
 4024834:	010001c4 	movi	r4,7
 4024838:	2080060e 	bge	r4,r2,4024854 <___vfprintf_internal_r+0xaa4>
 402483c:	d9002c17 	ldw	r4,176(sp)
 4024840:	d9801e04 	addi	r6,sp,120
 4024844:	b80b883a 	mov	r5,r23
 4024848:	402aad80 	call	402aad8 <__sprint_r>
 402484c:	103e5a1e 	bne	r2,zero,40241b8 <__alt_data_end+0xfffe41b8>
 4024850:	d8c02017 	ldw	r3,128(sp)
 4024854:	d8803117 	ldw	r2,196(sp)
 4024858:	d9002a17 	ldw	r4,168(sp)
 402485c:	1100010e 	bge	r2,r4,4024864 <___vfprintf_internal_r+0xab4>
 4024860:	2005883a 	mov	r2,r4
 4024864:	d9402f17 	ldw	r5,188(sp)
 4024868:	288b883a 	add	r5,r5,r2
 402486c:	d9402f15 	stw	r5,188(sp)
 4024870:	18019e1e 	bne	r3,zero,4024eec <___vfprintf_internal_r+0x113c>
 4024874:	a8800007 	ldb	r2,0(r21)
 4024878:	d8001f15 	stw	zero,124(sp)
 402487c:	da000404 	addi	r8,sp,16
 4024880:	103d851e 	bne	r2,zero,4023e98 <__alt_data_end+0xfffe3e98>
 4024884:	a821883a 	mov	r16,r21
 4024888:	003d9b06 	br	4023ef8 <__alt_data_end+0xfffe3ef8>
 402488c:	18c03fcc 	andi	r3,r3,255
 4024890:	1805c11e 	bne	r3,zero,4025f98 <___vfprintf_internal_r+0x21e8>
 4024894:	94800414 	ori	r18,r18,16
 4024898:	9080080c 	andi	r2,r18,32
 402489c:	10020c26 	beq	r2,zero,40250d0 <___vfprintf_internal_r+0x1320>
 40248a0:	d8802d17 	ldw	r2,180(sp)
 40248a4:	d9002917 	ldw	r4,164(sp)
 40248a8:	d8002785 	stb	zero,158(sp)
 40248ac:	10c00204 	addi	r3,r2,8
 40248b0:	14c00017 	ldw	r19,0(r2)
 40248b4:	15800117 	ldw	r22,4(r2)
 40248b8:	20040f16 	blt	r4,zero,40258f8 <___vfprintf_internal_r+0x1b48>
 40248bc:	013fdfc4 	movi	r4,-129
 40248c0:	9d84b03a 	or	r2,r19,r22
 40248c4:	d8c02d15 	stw	r3,180(sp)
 40248c8:	9124703a 	and	r18,r18,r4
 40248cc:	0039883a 	mov	fp,zero
 40248d0:	103e891e 	bne	r2,zero,40242f8 <__alt_data_end+0xfffe42f8>
 40248d4:	d9002917 	ldw	r4,164(sp)
 40248d8:	2002c11e 	bne	r4,zero,40253e0 <___vfprintf_internal_r+0x1630>
 40248dc:	d8002915 	stw	zero,164(sp)
 40248e0:	d8002e15 	stw	zero,184(sp)
 40248e4:	dc001e04 	addi	r16,sp,120
 40248e8:	003ef806 	br	40244cc <__alt_data_end+0xfffe44cc>
 40248ec:	18c03fcc 	andi	r3,r3,255
 40248f0:	18059d1e 	bne	r3,zero,4025f68 <___vfprintf_internal_r+0x21b8>
 40248f4:	014100f4 	movhi	r5,1027
 40248f8:	29448004 	addi	r5,r5,4608
 40248fc:	d9403915 	stw	r5,228(sp)
 4024900:	9080080c 	andi	r2,r18,32
 4024904:	10005226 	beq	r2,zero,4024a50 <___vfprintf_internal_r+0xca0>
 4024908:	d8802d17 	ldw	r2,180(sp)
 402490c:	14c00017 	ldw	r19,0(r2)
 4024910:	15800117 	ldw	r22,4(r2)
 4024914:	10800204 	addi	r2,r2,8
 4024918:	d8802d15 	stw	r2,180(sp)
 402491c:	9080004c 	andi	r2,r18,1
 4024920:	10019026 	beq	r2,zero,4024f64 <___vfprintf_internal_r+0x11b4>
 4024924:	9d84b03a 	or	r2,r19,r22
 4024928:	10036926 	beq	r2,zero,40256d0 <___vfprintf_internal_r+0x1920>
 402492c:	d8c02917 	ldw	r3,164(sp)
 4024930:	00800c04 	movi	r2,48
 4024934:	d8802705 	stb	r2,156(sp)
 4024938:	dc402745 	stb	r17,157(sp)
 402493c:	d8002785 	stb	zero,158(sp)
 4024940:	90800094 	ori	r2,r18,2
 4024944:	18045d16 	blt	r3,zero,4025abc <___vfprintf_internal_r+0x1d0c>
 4024948:	00bfdfc4 	movi	r2,-129
 402494c:	90a4703a 	and	r18,r18,r2
 4024950:	94800094 	ori	r18,r18,2
 4024954:	0039883a 	mov	fp,zero
 4024958:	d9003917 	ldw	r4,228(sp)
 402495c:	dc001e04 	addi	r16,sp,120
 4024960:	988003cc 	andi	r2,r19,15
 4024964:	b006973a 	slli	r3,r22,28
 4024968:	2085883a 	add	r2,r4,r2
 402496c:	9826d13a 	srli	r19,r19,4
 4024970:	10800003 	ldbu	r2,0(r2)
 4024974:	b02cd13a 	srli	r22,r22,4
 4024978:	843fffc4 	addi	r16,r16,-1
 402497c:	1ce6b03a 	or	r19,r3,r19
 4024980:	80800005 	stb	r2,0(r16)
 4024984:	9d84b03a 	or	r2,r19,r22
 4024988:	103ff51e 	bne	r2,zero,4024960 <__alt_data_end+0xfffe4960>
 402498c:	d8c02817 	ldw	r3,160(sp)
 4024990:	1c07c83a 	sub	r3,r3,r16
 4024994:	d8c02e15 	stw	r3,184(sp)
 4024998:	003ecc06 	br	40244cc <__alt_data_end+0xfffe44cc>
 402499c:	18c03fcc 	andi	r3,r3,255
 40249a0:	183e9f26 	beq	r3,zero,4024420 <__alt_data_end+0xfffe4420>
 40249a4:	d9c02785 	stb	r7,158(sp)
 40249a8:	003e9d06 	br	4024420 <__alt_data_end+0xfffe4420>
 40249ac:	00c00044 	movi	r3,1
 40249b0:	01c00ac4 	movi	r7,43
 40249b4:	ac400007 	ldb	r17,0(r21)
 40249b8:	003d5e06 	br	4023f34 <__alt_data_end+0xfffe3f34>
 40249bc:	94800814 	ori	r18,r18,32
 40249c0:	ac400007 	ldb	r17,0(r21)
 40249c4:	003d5b06 	br	4023f34 <__alt_data_end+0xfffe3f34>
 40249c8:	d8c02d17 	ldw	r3,180(sp)
 40249cc:	d8002785 	stb	zero,158(sp)
 40249d0:	1c000017 	ldw	r16,0(r3)
 40249d4:	1cc00104 	addi	r19,r3,4
 40249d8:	80041926 	beq	r16,zero,4025a40 <___vfprintf_internal_r+0x1c90>
 40249dc:	d9002917 	ldw	r4,164(sp)
 40249e0:	2003d016 	blt	r4,zero,4025924 <___vfprintf_internal_r+0x1b74>
 40249e4:	200d883a 	mov	r6,r4
 40249e8:	000b883a 	mov	r5,zero
 40249ec:	8009883a 	mov	r4,r16
 40249f0:	da003d15 	stw	r8,244(sp)
 40249f4:	40294f40 	call	40294f4 <memchr>
 40249f8:	da003d17 	ldw	r8,244(sp)
 40249fc:	10045426 	beq	r2,zero,4025b50 <___vfprintf_internal_r+0x1da0>
 4024a00:	1405c83a 	sub	r2,r2,r16
 4024a04:	d8802e15 	stw	r2,184(sp)
 4024a08:	1003cc16 	blt	r2,zero,402593c <___vfprintf_internal_r+0x1b8c>
 4024a0c:	df002783 	ldbu	fp,158(sp)
 4024a10:	d8802a15 	stw	r2,168(sp)
 4024a14:	dcc02d15 	stw	r19,180(sp)
 4024a18:	d8002915 	stw	zero,164(sp)
 4024a1c:	d8003215 	stw	zero,200(sp)
 4024a20:	003eb006 	br	40244e4 <__alt_data_end+0xfffe44e4>
 4024a24:	18c03fcc 	andi	r3,r3,255
 4024a28:	183f9b26 	beq	r3,zero,4024898 <__alt_data_end+0xfffe4898>
 4024a2c:	d9c02785 	stb	r7,158(sp)
 4024a30:	003f9906 	br	4024898 <__alt_data_end+0xfffe4898>
 4024a34:	18c03fcc 	andi	r3,r3,255
 4024a38:	1805551e 	bne	r3,zero,4025f90 <___vfprintf_internal_r+0x21e0>
 4024a3c:	014100f4 	movhi	r5,1027
 4024a40:	29448504 	addi	r5,r5,4628
 4024a44:	d9403915 	stw	r5,228(sp)
 4024a48:	9080080c 	andi	r2,r18,32
 4024a4c:	103fae1e 	bne	r2,zero,4024908 <__alt_data_end+0xfffe4908>
 4024a50:	9080040c 	andi	r2,r18,16
 4024a54:	1002de26 	beq	r2,zero,40255d0 <___vfprintf_internal_r+0x1820>
 4024a58:	d8c02d17 	ldw	r3,180(sp)
 4024a5c:	002d883a 	mov	r22,zero
 4024a60:	1cc00017 	ldw	r19,0(r3)
 4024a64:	18c00104 	addi	r3,r3,4
 4024a68:	d8c02d15 	stw	r3,180(sp)
 4024a6c:	003fab06 	br	402491c <__alt_data_end+0xfffe491c>
 4024a70:	38803fcc 	andi	r2,r7,255
 4024a74:	1080201c 	xori	r2,r2,128
 4024a78:	10bfe004 	addi	r2,r2,-128
 4024a7c:	1002d21e 	bne	r2,zero,40255c8 <___vfprintf_internal_r+0x1818>
 4024a80:	00c00044 	movi	r3,1
 4024a84:	01c00804 	movi	r7,32
 4024a88:	ac400007 	ldb	r17,0(r21)
 4024a8c:	003d2906 	br	4023f34 <__alt_data_end+0xfffe3f34>
 4024a90:	94800054 	ori	r18,r18,1
 4024a94:	ac400007 	ldb	r17,0(r21)
 4024a98:	003d2606 	br	4023f34 <__alt_data_end+0xfffe3f34>
 4024a9c:	18c03fcc 	andi	r3,r3,255
 4024aa0:	183e0526 	beq	r3,zero,40242b8 <__alt_data_end+0xfffe42b8>
 4024aa4:	d9c02785 	stb	r7,158(sp)
 4024aa8:	003e0306 	br	40242b8 <__alt_data_end+0xfffe42b8>
 4024aac:	94801014 	ori	r18,r18,64
 4024ab0:	ac400007 	ldb	r17,0(r21)
 4024ab4:	003d1f06 	br	4023f34 <__alt_data_end+0xfffe3f34>
 4024ab8:	ac400007 	ldb	r17,0(r21)
 4024abc:	8a438726 	beq	r17,r9,40258dc <___vfprintf_internal_r+0x1b2c>
 4024ac0:	94800414 	ori	r18,r18,16
 4024ac4:	003d1b06 	br	4023f34 <__alt_data_end+0xfffe3f34>
 4024ac8:	18c03fcc 	andi	r3,r3,255
 4024acc:	1805341e 	bne	r3,zero,4025fa0 <___vfprintf_internal_r+0x21f0>
 4024ad0:	9080080c 	andi	r2,r18,32
 4024ad4:	1002cd26 	beq	r2,zero,402560c <___vfprintf_internal_r+0x185c>
 4024ad8:	d9402d17 	ldw	r5,180(sp)
 4024adc:	d9002f17 	ldw	r4,188(sp)
 4024ae0:	28800017 	ldw	r2,0(r5)
 4024ae4:	2007d7fa 	srai	r3,r4,31
 4024ae8:	29400104 	addi	r5,r5,4
 4024aec:	d9402d15 	stw	r5,180(sp)
 4024af0:	11000015 	stw	r4,0(r2)
 4024af4:	10c00115 	stw	r3,4(r2)
 4024af8:	003ce506 	br	4023e90 <__alt_data_end+0xfffe3e90>
 4024afc:	d8c02d17 	ldw	r3,180(sp)
 4024b00:	d9002d17 	ldw	r4,180(sp)
 4024b04:	d8002785 	stb	zero,158(sp)
 4024b08:	18800017 	ldw	r2,0(r3)
 4024b0c:	21000104 	addi	r4,r4,4
 4024b10:	00c00044 	movi	r3,1
 4024b14:	d8c02a15 	stw	r3,168(sp)
 4024b18:	d8801405 	stb	r2,80(sp)
 4024b1c:	d9002d15 	stw	r4,180(sp)
 4024b20:	d8c02e15 	stw	r3,184(sp)
 4024b24:	d8002915 	stw	zero,164(sp)
 4024b28:	d8003215 	stw	zero,200(sp)
 4024b2c:	dc001404 	addi	r16,sp,80
 4024b30:	0039883a 	mov	fp,zero
 4024b34:	003e7206 	br	4024500 <__alt_data_end+0xfffe4500>
 4024b38:	010100f4 	movhi	r4,1027
 4024b3c:	21048504 	addi	r4,r4,4628
 4024b40:	0039883a 	mov	fp,zero
 4024b44:	d9003915 	stw	r4,228(sp)
 4024b48:	04401e04 	movi	r17,120
 4024b4c:	003f8206 	br	4024958 <__alt_data_end+0xfffe4958>
 4024b50:	18c03fcc 	andi	r3,r3,255
 4024b54:	1805061e 	bne	r3,zero,4025f70 <___vfprintf_internal_r+0x21c0>
 4024b58:	883d9126 	beq	r17,zero,40241a0 <__alt_data_end+0xfffe41a0>
 4024b5c:	00c00044 	movi	r3,1
 4024b60:	d8c02a15 	stw	r3,168(sp)
 4024b64:	dc401405 	stb	r17,80(sp)
 4024b68:	d8002785 	stb	zero,158(sp)
 4024b6c:	003fec06 	br	4024b20 <__alt_data_end+0xfffe4b20>
 4024b70:	014100f4 	movhi	r5,1027
 4024b74:	29448504 	addi	r5,r5,4628
 4024b78:	d9403915 	stw	r5,228(sp)
 4024b7c:	d8c02d15 	stw	r3,180(sp)
 4024b80:	1025883a 	mov	r18,r2
 4024b84:	04401e04 	movi	r17,120
 4024b88:	9d84b03a 	or	r2,r19,r22
 4024b8c:	1000fc1e 	bne	r2,zero,4024f80 <___vfprintf_internal_r+0x11d0>
 4024b90:	0039883a 	mov	fp,zero
 4024b94:	00800084 	movi	r2,2
 4024b98:	10803fcc 	andi	r2,r2,255
 4024b9c:	00c00044 	movi	r3,1
 4024ba0:	10c20f26 	beq	r2,r3,40253e0 <___vfprintf_internal_r+0x1630>
 4024ba4:	00c00084 	movi	r3,2
 4024ba8:	10fd6326 	beq	r2,r3,4024138 <__alt_data_end+0xfffe4138>
 4024bac:	003e2d06 	br	4024464 <__alt_data_end+0xfffe4464>
 4024bb0:	d8c02017 	ldw	r3,128(sp)
 4024bb4:	003e9306 	br	4024604 <__alt_data_end+0xfffe4604>
 4024bb8:	00801944 	movi	r2,101
 4024bbc:	14407e0e 	bge	r2,r17,4024db8 <___vfprintf_internal_r+0x1008>
 4024bc0:	d9003617 	ldw	r4,216(sp)
 4024bc4:	d9403817 	ldw	r5,224(sp)
 4024bc8:	000d883a 	mov	r6,zero
 4024bcc:	000f883a 	mov	r7,zero
 4024bd0:	d8c03c15 	stw	r3,240(sp)
 4024bd4:	da003d15 	stw	r8,244(sp)
 4024bd8:	402f1e40 	call	402f1e4 <__eqdf2>
 4024bdc:	d8c03c17 	ldw	r3,240(sp)
 4024be0:	da003d17 	ldw	r8,244(sp)
 4024be4:	1000f71e 	bne	r2,zero,4024fc4 <___vfprintf_internal_r+0x1214>
 4024be8:	d8801f17 	ldw	r2,124(sp)
 4024bec:	010100f4 	movhi	r4,1027
 4024bf0:	21048c04 	addi	r4,r4,4656
 4024bf4:	18c00044 	addi	r3,r3,1
 4024bf8:	10800044 	addi	r2,r2,1
 4024bfc:	41000015 	stw	r4,0(r8)
 4024c00:	01000044 	movi	r4,1
 4024c04:	41000115 	stw	r4,4(r8)
 4024c08:	d8c02015 	stw	r3,128(sp)
 4024c0c:	d8801f15 	stw	r2,124(sp)
 4024c10:	010001c4 	movi	r4,7
 4024c14:	2082b816 	blt	r4,r2,40256f8 <___vfprintf_internal_r+0x1948>
 4024c18:	42000204 	addi	r8,r8,8
 4024c1c:	d8802617 	ldw	r2,152(sp)
 4024c20:	d9403317 	ldw	r5,204(sp)
 4024c24:	11400216 	blt	r2,r5,4024c30 <___vfprintf_internal_r+0xe80>
 4024c28:	9080004c 	andi	r2,r18,1
 4024c2c:	103ed526 	beq	r2,zero,4024784 <__alt_data_end+0xfffe4784>
 4024c30:	d8803717 	ldw	r2,220(sp)
 4024c34:	d9003417 	ldw	r4,208(sp)
 4024c38:	d9403717 	ldw	r5,220(sp)
 4024c3c:	1887883a 	add	r3,r3,r2
 4024c40:	d8801f17 	ldw	r2,124(sp)
 4024c44:	41000015 	stw	r4,0(r8)
 4024c48:	41400115 	stw	r5,4(r8)
 4024c4c:	10800044 	addi	r2,r2,1
 4024c50:	d8c02015 	stw	r3,128(sp)
 4024c54:	d8801f15 	stw	r2,124(sp)
 4024c58:	010001c4 	movi	r4,7
 4024c5c:	20832916 	blt	r4,r2,4025904 <___vfprintf_internal_r+0x1b54>
 4024c60:	42000204 	addi	r8,r8,8
 4024c64:	d8803317 	ldw	r2,204(sp)
 4024c68:	143fffc4 	addi	r16,r2,-1
 4024c6c:	043ec50e 	bge	zero,r16,4024784 <__alt_data_end+0xfffe4784>
 4024c70:	04400404 	movi	r17,16
 4024c74:	d8801f17 	ldw	r2,124(sp)
 4024c78:	8c00880e 	bge	r17,r16,4024e9c <___vfprintf_internal_r+0x10ec>
 4024c7c:	014100f4 	movhi	r5,1027
 4024c80:	29448c84 	addi	r5,r5,4658
 4024c84:	d9402b15 	stw	r5,172(sp)
 4024c88:	058001c4 	movi	r22,7
 4024c8c:	dcc02c17 	ldw	r19,176(sp)
 4024c90:	00000306 	br	4024ca0 <___vfprintf_internal_r+0xef0>
 4024c94:	42000204 	addi	r8,r8,8
 4024c98:	843ffc04 	addi	r16,r16,-16
 4024c9c:	8c00820e 	bge	r17,r16,4024ea8 <___vfprintf_internal_r+0x10f8>
 4024ca0:	18c00404 	addi	r3,r3,16
 4024ca4:	10800044 	addi	r2,r2,1
 4024ca8:	45000015 	stw	r20,0(r8)
 4024cac:	44400115 	stw	r17,4(r8)
 4024cb0:	d8c02015 	stw	r3,128(sp)
 4024cb4:	d8801f15 	stw	r2,124(sp)
 4024cb8:	b0bff60e 	bge	r22,r2,4024c94 <__alt_data_end+0xfffe4c94>
 4024cbc:	d9801e04 	addi	r6,sp,120
 4024cc0:	b80b883a 	mov	r5,r23
 4024cc4:	9809883a 	mov	r4,r19
 4024cc8:	402aad80 	call	402aad8 <__sprint_r>
 4024ccc:	103d3a1e 	bne	r2,zero,40241b8 <__alt_data_end+0xfffe41b8>
 4024cd0:	d8c02017 	ldw	r3,128(sp)
 4024cd4:	d8801f17 	ldw	r2,124(sp)
 4024cd8:	da000404 	addi	r8,sp,16
 4024cdc:	003fee06 	br	4024c98 <__alt_data_end+0xfffe4c98>
 4024ce0:	d9403117 	ldw	r5,196(sp)
 4024ce4:	d8802a17 	ldw	r2,168(sp)
 4024ce8:	28adc83a 	sub	r22,r5,r2
 4024cec:	05be630e 	bge	zero,r22,402467c <__alt_data_end+0xfffe467c>
 4024cf0:	07000404 	movi	fp,16
 4024cf4:	d8801f17 	ldw	r2,124(sp)
 4024cf8:	e5838f0e 	bge	fp,r22,4025b38 <___vfprintf_internal_r+0x1d88>
 4024cfc:	014100f4 	movhi	r5,1027
 4024d00:	29448c84 	addi	r5,r5,4658
 4024d04:	dc403015 	stw	r17,192(sp)
 4024d08:	d9402b15 	stw	r5,172(sp)
 4024d0c:	b023883a 	mov	r17,r22
 4024d10:	04c001c4 	movi	r19,7
 4024d14:	a82d883a 	mov	r22,r21
 4024d18:	902b883a 	mov	r21,r18
 4024d1c:	8025883a 	mov	r18,r16
 4024d20:	dc002c17 	ldw	r16,176(sp)
 4024d24:	00000306 	br	4024d34 <___vfprintf_internal_r+0xf84>
 4024d28:	8c7ffc04 	addi	r17,r17,-16
 4024d2c:	42000204 	addi	r8,r8,8
 4024d30:	e440110e 	bge	fp,r17,4024d78 <___vfprintf_internal_r+0xfc8>
 4024d34:	18c00404 	addi	r3,r3,16
 4024d38:	10800044 	addi	r2,r2,1
 4024d3c:	45000015 	stw	r20,0(r8)
 4024d40:	47000115 	stw	fp,4(r8)
 4024d44:	d8c02015 	stw	r3,128(sp)
 4024d48:	d8801f15 	stw	r2,124(sp)
 4024d4c:	98bff60e 	bge	r19,r2,4024d28 <__alt_data_end+0xfffe4d28>
 4024d50:	d9801e04 	addi	r6,sp,120
 4024d54:	b80b883a 	mov	r5,r23
 4024d58:	8009883a 	mov	r4,r16
 4024d5c:	402aad80 	call	402aad8 <__sprint_r>
 4024d60:	103d151e 	bne	r2,zero,40241b8 <__alt_data_end+0xfffe41b8>
 4024d64:	8c7ffc04 	addi	r17,r17,-16
 4024d68:	d8c02017 	ldw	r3,128(sp)
 4024d6c:	d8801f17 	ldw	r2,124(sp)
 4024d70:	da000404 	addi	r8,sp,16
 4024d74:	e47fef16 	blt	fp,r17,4024d34 <__alt_data_end+0xfffe4d34>
 4024d78:	9021883a 	mov	r16,r18
 4024d7c:	a825883a 	mov	r18,r21
 4024d80:	b02b883a 	mov	r21,r22
 4024d84:	882d883a 	mov	r22,r17
 4024d88:	dc403017 	ldw	r17,192(sp)
 4024d8c:	d9002b17 	ldw	r4,172(sp)
 4024d90:	1d87883a 	add	r3,r3,r22
 4024d94:	10800044 	addi	r2,r2,1
 4024d98:	41000015 	stw	r4,0(r8)
 4024d9c:	45800115 	stw	r22,4(r8)
 4024da0:	d8c02015 	stw	r3,128(sp)
 4024da4:	d8801f15 	stw	r2,124(sp)
 4024da8:	010001c4 	movi	r4,7
 4024dac:	20818e16 	blt	r4,r2,40253e8 <___vfprintf_internal_r+0x1638>
 4024db0:	42000204 	addi	r8,r8,8
 4024db4:	003e3106 	br	402467c <__alt_data_end+0xfffe467c>
 4024db8:	d9403317 	ldw	r5,204(sp)
 4024dbc:	00800044 	movi	r2,1
 4024dc0:	18c00044 	addi	r3,r3,1
 4024dc4:	1141530e 	bge	r2,r5,4025314 <___vfprintf_internal_r+0x1564>
 4024dc8:	dc401f17 	ldw	r17,124(sp)
 4024dcc:	00800044 	movi	r2,1
 4024dd0:	40800115 	stw	r2,4(r8)
 4024dd4:	8c400044 	addi	r17,r17,1
 4024dd8:	44000015 	stw	r16,0(r8)
 4024ddc:	d8c02015 	stw	r3,128(sp)
 4024de0:	dc401f15 	stw	r17,124(sp)
 4024de4:	008001c4 	movi	r2,7
 4024de8:	14416b16 	blt	r2,r17,4025398 <___vfprintf_internal_r+0x15e8>
 4024dec:	42000204 	addi	r8,r8,8
 4024df0:	d8803717 	ldw	r2,220(sp)
 4024df4:	d9003417 	ldw	r4,208(sp)
 4024df8:	8c400044 	addi	r17,r17,1
 4024dfc:	10c7883a 	add	r3,r2,r3
 4024e00:	40800115 	stw	r2,4(r8)
 4024e04:	41000015 	stw	r4,0(r8)
 4024e08:	d8c02015 	stw	r3,128(sp)
 4024e0c:	dc401f15 	stw	r17,124(sp)
 4024e10:	008001c4 	movi	r2,7
 4024e14:	14416916 	blt	r2,r17,40253bc <___vfprintf_internal_r+0x160c>
 4024e18:	45800204 	addi	r22,r8,8
 4024e1c:	d9003617 	ldw	r4,216(sp)
 4024e20:	d9403817 	ldw	r5,224(sp)
 4024e24:	000d883a 	mov	r6,zero
 4024e28:	000f883a 	mov	r7,zero
 4024e2c:	d8c03c15 	stw	r3,240(sp)
 4024e30:	402f1e40 	call	402f1e4 <__eqdf2>
 4024e34:	d8c03c17 	ldw	r3,240(sp)
 4024e38:	1000bc26 	beq	r2,zero,402512c <___vfprintf_internal_r+0x137c>
 4024e3c:	d9403317 	ldw	r5,204(sp)
 4024e40:	84000044 	addi	r16,r16,1
 4024e44:	8c400044 	addi	r17,r17,1
 4024e48:	28bfffc4 	addi	r2,r5,-1
 4024e4c:	1887883a 	add	r3,r3,r2
 4024e50:	b0800115 	stw	r2,4(r22)
 4024e54:	b4000015 	stw	r16,0(r22)
 4024e58:	d8c02015 	stw	r3,128(sp)
 4024e5c:	dc401f15 	stw	r17,124(sp)
 4024e60:	008001c4 	movi	r2,7
 4024e64:	14414316 	blt	r2,r17,4025374 <___vfprintf_internal_r+0x15c4>
 4024e68:	b5800204 	addi	r22,r22,8
 4024e6c:	d9003a17 	ldw	r4,232(sp)
 4024e70:	df0022c4 	addi	fp,sp,139
 4024e74:	8c400044 	addi	r17,r17,1
 4024e78:	20c7883a 	add	r3,r4,r3
 4024e7c:	b7000015 	stw	fp,0(r22)
 4024e80:	b1000115 	stw	r4,4(r22)
 4024e84:	d8c02015 	stw	r3,128(sp)
 4024e88:	dc401f15 	stw	r17,124(sp)
 4024e8c:	008001c4 	movi	r2,7
 4024e90:	14400e16 	blt	r2,r17,4024ecc <___vfprintf_internal_r+0x111c>
 4024e94:	b2000204 	addi	r8,r22,8
 4024e98:	003e3a06 	br	4024784 <__alt_data_end+0xfffe4784>
 4024e9c:	010100f4 	movhi	r4,1027
 4024ea0:	21048c84 	addi	r4,r4,4658
 4024ea4:	d9002b15 	stw	r4,172(sp)
 4024ea8:	d9002b17 	ldw	r4,172(sp)
 4024eac:	1c07883a 	add	r3,r3,r16
 4024eb0:	44000115 	stw	r16,4(r8)
 4024eb4:	41000015 	stw	r4,0(r8)
 4024eb8:	10800044 	addi	r2,r2,1
 4024ebc:	d8c02015 	stw	r3,128(sp)
 4024ec0:	d8801f15 	stw	r2,124(sp)
 4024ec4:	010001c4 	movi	r4,7
 4024ec8:	20be2d0e 	bge	r4,r2,4024780 <__alt_data_end+0xfffe4780>
 4024ecc:	d9002c17 	ldw	r4,176(sp)
 4024ed0:	d9801e04 	addi	r6,sp,120
 4024ed4:	b80b883a 	mov	r5,r23
 4024ed8:	402aad80 	call	402aad8 <__sprint_r>
 4024edc:	103cb61e 	bne	r2,zero,40241b8 <__alt_data_end+0xfffe41b8>
 4024ee0:	d8c02017 	ldw	r3,128(sp)
 4024ee4:	da000404 	addi	r8,sp,16
 4024ee8:	003e2606 	br	4024784 <__alt_data_end+0xfffe4784>
 4024eec:	d9002c17 	ldw	r4,176(sp)
 4024ef0:	d9801e04 	addi	r6,sp,120
 4024ef4:	b80b883a 	mov	r5,r23
 4024ef8:	402aad80 	call	402aad8 <__sprint_r>
 4024efc:	103e5d26 	beq	r2,zero,4024874 <__alt_data_end+0xfffe4874>
 4024f00:	003cad06 	br	40241b8 <__alt_data_end+0xfffe41b8>
 4024f04:	d9002c17 	ldw	r4,176(sp)
 4024f08:	d9801e04 	addi	r6,sp,120
 4024f0c:	b80b883a 	mov	r5,r23
 4024f10:	402aad80 	call	402aad8 <__sprint_r>
 4024f14:	103ca81e 	bne	r2,zero,40241b8 <__alt_data_end+0xfffe41b8>
 4024f18:	d8c02017 	ldw	r3,128(sp)
 4024f1c:	da000404 	addi	r8,sp,16
 4024f20:	003e0b06 	br	4024750 <__alt_data_end+0xfffe4750>
 4024f24:	d9002c17 	ldw	r4,176(sp)
 4024f28:	d9801e04 	addi	r6,sp,120
 4024f2c:	b80b883a 	mov	r5,r23
 4024f30:	402aad80 	call	402aad8 <__sprint_r>
 4024f34:	103ca01e 	bne	r2,zero,40241b8 <__alt_data_end+0xfffe41b8>
 4024f38:	d8c02017 	ldw	r3,128(sp)
 4024f3c:	da000404 	addi	r8,sp,16
 4024f40:	003dbd06 	br	4024638 <__alt_data_end+0xfffe4638>
 4024f44:	d9002c17 	ldw	r4,176(sp)
 4024f48:	d9801e04 	addi	r6,sp,120
 4024f4c:	b80b883a 	mov	r5,r23
 4024f50:	402aad80 	call	402aad8 <__sprint_r>
 4024f54:	103c981e 	bne	r2,zero,40241b8 <__alt_data_end+0xfffe41b8>
 4024f58:	d8c02017 	ldw	r3,128(sp)
 4024f5c:	da000404 	addi	r8,sp,16
 4024f60:	003dc306 	br	4024670 <__alt_data_end+0xfffe4670>
 4024f64:	d8802917 	ldw	r2,164(sp)
 4024f68:	d8002785 	stb	zero,158(sp)
 4024f6c:	103f0616 	blt	r2,zero,4024b88 <__alt_data_end+0xfffe4b88>
 4024f70:	00ffdfc4 	movi	r3,-129
 4024f74:	9d84b03a 	or	r2,r19,r22
 4024f78:	90e4703a 	and	r18,r18,r3
 4024f7c:	103c6b26 	beq	r2,zero,402412c <__alt_data_end+0xfffe412c>
 4024f80:	0039883a 	mov	fp,zero
 4024f84:	003e7406 	br	4024958 <__alt_data_end+0xfffe4958>
 4024f88:	9080040c 	andi	r2,r18,16
 4024f8c:	1001b326 	beq	r2,zero,402565c <___vfprintf_internal_r+0x18ac>
 4024f90:	d9002d17 	ldw	r4,180(sp)
 4024f94:	d9402917 	ldw	r5,164(sp)
 4024f98:	d8002785 	stb	zero,158(sp)
 4024f9c:	20800104 	addi	r2,r4,4
 4024fa0:	24c00017 	ldw	r19,0(r4)
 4024fa4:	002d883a 	mov	r22,zero
 4024fa8:	2801b516 	blt	r5,zero,4025680 <___vfprintf_internal_r+0x18d0>
 4024fac:	00ffdfc4 	movi	r3,-129
 4024fb0:	d8802d15 	stw	r2,180(sp)
 4024fb4:	90e4703a 	and	r18,r18,r3
 4024fb8:	983d2726 	beq	r19,zero,4024458 <__alt_data_end+0xfffe4458>
 4024fbc:	0039883a 	mov	fp,zero
 4024fc0:	003d2a06 	br	402446c <__alt_data_end+0xfffe446c>
 4024fc4:	dc402617 	ldw	r17,152(sp)
 4024fc8:	0441d30e 	bge	zero,r17,4025718 <___vfprintf_internal_r+0x1968>
 4024fcc:	dc403217 	ldw	r17,200(sp)
 4024fd0:	d8803317 	ldw	r2,204(sp)
 4024fd4:	1440010e 	bge	r2,r17,4024fdc <___vfprintf_internal_r+0x122c>
 4024fd8:	1023883a 	mov	r17,r2
 4024fdc:	04400a0e 	bge	zero,r17,4025008 <___vfprintf_internal_r+0x1258>
 4024fe0:	d8801f17 	ldw	r2,124(sp)
 4024fe4:	1c47883a 	add	r3,r3,r17
 4024fe8:	44000015 	stw	r16,0(r8)
 4024fec:	10800044 	addi	r2,r2,1
 4024ff0:	44400115 	stw	r17,4(r8)
 4024ff4:	d8c02015 	stw	r3,128(sp)
 4024ff8:	d8801f15 	stw	r2,124(sp)
 4024ffc:	010001c4 	movi	r4,7
 4025000:	20826516 	blt	r4,r2,4025998 <___vfprintf_internal_r+0x1be8>
 4025004:	42000204 	addi	r8,r8,8
 4025008:	88026116 	blt	r17,zero,4025990 <___vfprintf_internal_r+0x1be0>
 402500c:	d9003217 	ldw	r4,200(sp)
 4025010:	2463c83a 	sub	r17,r4,r17
 4025014:	04407b0e 	bge	zero,r17,4025204 <___vfprintf_internal_r+0x1454>
 4025018:	05800404 	movi	r22,16
 402501c:	d8801f17 	ldw	r2,124(sp)
 4025020:	b4419d0e 	bge	r22,r17,4025698 <___vfprintf_internal_r+0x18e8>
 4025024:	010100f4 	movhi	r4,1027
 4025028:	21048c84 	addi	r4,r4,4658
 402502c:	d9002b15 	stw	r4,172(sp)
 4025030:	070001c4 	movi	fp,7
 4025034:	dcc02c17 	ldw	r19,176(sp)
 4025038:	00000306 	br	4025048 <___vfprintf_internal_r+0x1298>
 402503c:	42000204 	addi	r8,r8,8
 4025040:	8c7ffc04 	addi	r17,r17,-16
 4025044:	b441970e 	bge	r22,r17,40256a4 <___vfprintf_internal_r+0x18f4>
 4025048:	18c00404 	addi	r3,r3,16
 402504c:	10800044 	addi	r2,r2,1
 4025050:	45000015 	stw	r20,0(r8)
 4025054:	45800115 	stw	r22,4(r8)
 4025058:	d8c02015 	stw	r3,128(sp)
 402505c:	d8801f15 	stw	r2,124(sp)
 4025060:	e0bff60e 	bge	fp,r2,402503c <__alt_data_end+0xfffe503c>
 4025064:	d9801e04 	addi	r6,sp,120
 4025068:	b80b883a 	mov	r5,r23
 402506c:	9809883a 	mov	r4,r19
 4025070:	402aad80 	call	402aad8 <__sprint_r>
 4025074:	103c501e 	bne	r2,zero,40241b8 <__alt_data_end+0xfffe41b8>
 4025078:	d8c02017 	ldw	r3,128(sp)
 402507c:	d8801f17 	ldw	r2,124(sp)
 4025080:	da000404 	addi	r8,sp,16
 4025084:	003fee06 	br	4025040 <__alt_data_end+0xfffe5040>
 4025088:	d9002c17 	ldw	r4,176(sp)
 402508c:	d9801e04 	addi	r6,sp,120
 4025090:	b80b883a 	mov	r5,r23
 4025094:	402aad80 	call	402aad8 <__sprint_r>
 4025098:	103c471e 	bne	r2,zero,40241b8 <__alt_data_end+0xfffe41b8>
 402509c:	d8c02017 	ldw	r3,128(sp)
 40250a0:	df002787 	ldb	fp,158(sp)
 40250a4:	da000404 	addi	r8,sp,16
 40250a8:	003d5606 	br	4024604 <__alt_data_end+0xfffe4604>
 40250ac:	9080040c 	andi	r2,r18,16
 40250b0:	10016126 	beq	r2,zero,4025638 <___vfprintf_internal_r+0x1888>
 40250b4:	d8802d17 	ldw	r2,180(sp)
 40250b8:	14c00017 	ldw	r19,0(r2)
 40250bc:	10800104 	addi	r2,r2,4
 40250c0:	d8802d15 	stw	r2,180(sp)
 40250c4:	982dd7fa 	srai	r22,r19,31
 40250c8:	b005883a 	mov	r2,r22
 40250cc:	003c8206 	br	40242d8 <__alt_data_end+0xfffe42d8>
 40250d0:	9080040c 	andi	r2,r18,16
 40250d4:	10003526 	beq	r2,zero,40251ac <___vfprintf_internal_r+0x13fc>
 40250d8:	d9402d17 	ldw	r5,180(sp)
 40250dc:	d8c02917 	ldw	r3,164(sp)
 40250e0:	d8002785 	stb	zero,158(sp)
 40250e4:	28800104 	addi	r2,r5,4
 40250e8:	2cc00017 	ldw	r19,0(r5)
 40250ec:	002d883a 	mov	r22,zero
 40250f0:	18003716 	blt	r3,zero,40251d0 <___vfprintf_internal_r+0x1420>
 40250f4:	00ffdfc4 	movi	r3,-129
 40250f8:	d8802d15 	stw	r2,180(sp)
 40250fc:	90e4703a 	and	r18,r18,r3
 4025100:	0039883a 	mov	fp,zero
 4025104:	983df326 	beq	r19,zero,40248d4 <__alt_data_end+0xfffe48d4>
 4025108:	00800244 	movi	r2,9
 402510c:	14fc7b36 	bltu	r2,r19,40242fc <__alt_data_end+0xfffe42fc>
 4025110:	d8c02817 	ldw	r3,160(sp)
 4025114:	dc001dc4 	addi	r16,sp,119
 4025118:	9cc00c04 	addi	r19,r19,48
 402511c:	1c07c83a 	sub	r3,r3,r16
 4025120:	dcc01dc5 	stb	r19,119(sp)
 4025124:	d8c02e15 	stw	r3,184(sp)
 4025128:	003ce806 	br	40244cc <__alt_data_end+0xfffe44cc>
 402512c:	d8803317 	ldw	r2,204(sp)
 4025130:	143fffc4 	addi	r16,r2,-1
 4025134:	043f4d0e 	bge	zero,r16,4024e6c <__alt_data_end+0xfffe4e6c>
 4025138:	07000404 	movi	fp,16
 402513c:	e400810e 	bge	fp,r16,4025344 <___vfprintf_internal_r+0x1594>
 4025140:	014100f4 	movhi	r5,1027
 4025144:	29448c84 	addi	r5,r5,4658
 4025148:	d9402b15 	stw	r5,172(sp)
 402514c:	01c001c4 	movi	r7,7
 4025150:	dcc02c17 	ldw	r19,176(sp)
 4025154:	00000306 	br	4025164 <___vfprintf_internal_r+0x13b4>
 4025158:	b5800204 	addi	r22,r22,8
 402515c:	843ffc04 	addi	r16,r16,-16
 4025160:	e4007b0e 	bge	fp,r16,4025350 <___vfprintf_internal_r+0x15a0>
 4025164:	18c00404 	addi	r3,r3,16
 4025168:	8c400044 	addi	r17,r17,1
 402516c:	b5000015 	stw	r20,0(r22)
 4025170:	b7000115 	stw	fp,4(r22)
 4025174:	d8c02015 	stw	r3,128(sp)
 4025178:	dc401f15 	stw	r17,124(sp)
 402517c:	3c7ff60e 	bge	r7,r17,4025158 <__alt_data_end+0xfffe5158>
 4025180:	d9801e04 	addi	r6,sp,120
 4025184:	b80b883a 	mov	r5,r23
 4025188:	9809883a 	mov	r4,r19
 402518c:	d9c03c15 	stw	r7,240(sp)
 4025190:	402aad80 	call	402aad8 <__sprint_r>
 4025194:	d9c03c17 	ldw	r7,240(sp)
 4025198:	103c071e 	bne	r2,zero,40241b8 <__alt_data_end+0xfffe41b8>
 402519c:	d8c02017 	ldw	r3,128(sp)
 40251a0:	dc401f17 	ldw	r17,124(sp)
 40251a4:	dd800404 	addi	r22,sp,16
 40251a8:	003fec06 	br	402515c <__alt_data_end+0xfffe515c>
 40251ac:	9080100c 	andi	r2,r18,64
 40251b0:	d8002785 	stb	zero,158(sp)
 40251b4:	10010e26 	beq	r2,zero,40255f0 <___vfprintf_internal_r+0x1840>
 40251b8:	d9002d17 	ldw	r4,180(sp)
 40251bc:	d9402917 	ldw	r5,164(sp)
 40251c0:	002d883a 	mov	r22,zero
 40251c4:	20800104 	addi	r2,r4,4
 40251c8:	24c0000b 	ldhu	r19,0(r4)
 40251cc:	283fc90e 	bge	r5,zero,40250f4 <__alt_data_end+0xfffe50f4>
 40251d0:	d8802d15 	stw	r2,180(sp)
 40251d4:	0039883a 	mov	fp,zero
 40251d8:	9d84b03a 	or	r2,r19,r22
 40251dc:	103c461e 	bne	r2,zero,40242f8 <__alt_data_end+0xfffe42f8>
 40251e0:	00800044 	movi	r2,1
 40251e4:	003e6c06 	br	4024b98 <__alt_data_end+0xfffe4b98>
 40251e8:	d9002c17 	ldw	r4,176(sp)
 40251ec:	d9801e04 	addi	r6,sp,120
 40251f0:	b80b883a 	mov	r5,r23
 40251f4:	402aad80 	call	402aad8 <__sprint_r>
 40251f8:	103bef1e 	bne	r2,zero,40241b8 <__alt_data_end+0xfffe41b8>
 40251fc:	d8c02017 	ldw	r3,128(sp)
 4025200:	da000404 	addi	r8,sp,16
 4025204:	d9003217 	ldw	r4,200(sp)
 4025208:	d8802617 	ldw	r2,152(sp)
 402520c:	d9403317 	ldw	r5,204(sp)
 4025210:	8123883a 	add	r17,r16,r4
 4025214:	11400216 	blt	r2,r5,4025220 <___vfprintf_internal_r+0x1470>
 4025218:	9100004c 	andi	r4,r18,1
 402521c:	20000d26 	beq	r4,zero,4025254 <___vfprintf_internal_r+0x14a4>
 4025220:	d9003717 	ldw	r4,220(sp)
 4025224:	d9403417 	ldw	r5,208(sp)
 4025228:	1907883a 	add	r3,r3,r4
 402522c:	d9001f17 	ldw	r4,124(sp)
 4025230:	41400015 	stw	r5,0(r8)
 4025234:	d9403717 	ldw	r5,220(sp)
 4025238:	21000044 	addi	r4,r4,1
 402523c:	d8c02015 	stw	r3,128(sp)
 4025240:	41400115 	stw	r5,4(r8)
 4025244:	d9001f15 	stw	r4,124(sp)
 4025248:	014001c4 	movi	r5,7
 402524c:	2901e816 	blt	r5,r4,40259f0 <___vfprintf_internal_r+0x1c40>
 4025250:	42000204 	addi	r8,r8,8
 4025254:	d9003317 	ldw	r4,204(sp)
 4025258:	8121883a 	add	r16,r16,r4
 402525c:	2085c83a 	sub	r2,r4,r2
 4025260:	8461c83a 	sub	r16,r16,r17
 4025264:	1400010e 	bge	r2,r16,402526c <___vfprintf_internal_r+0x14bc>
 4025268:	1021883a 	mov	r16,r2
 402526c:	04000a0e 	bge	zero,r16,4025298 <___vfprintf_internal_r+0x14e8>
 4025270:	d9001f17 	ldw	r4,124(sp)
 4025274:	1c07883a 	add	r3,r3,r16
 4025278:	44400015 	stw	r17,0(r8)
 402527c:	21000044 	addi	r4,r4,1
 4025280:	44000115 	stw	r16,4(r8)
 4025284:	d8c02015 	stw	r3,128(sp)
 4025288:	d9001f15 	stw	r4,124(sp)
 402528c:	014001c4 	movi	r5,7
 4025290:	2901fb16 	blt	r5,r4,4025a80 <___vfprintf_internal_r+0x1cd0>
 4025294:	42000204 	addi	r8,r8,8
 4025298:	8001f716 	blt	r16,zero,4025a78 <___vfprintf_internal_r+0x1cc8>
 402529c:	1421c83a 	sub	r16,r2,r16
 40252a0:	043d380e 	bge	zero,r16,4024784 <__alt_data_end+0xfffe4784>
 40252a4:	04400404 	movi	r17,16
 40252a8:	d8801f17 	ldw	r2,124(sp)
 40252ac:	8c3efb0e 	bge	r17,r16,4024e9c <__alt_data_end+0xfffe4e9c>
 40252b0:	014100f4 	movhi	r5,1027
 40252b4:	29448c84 	addi	r5,r5,4658
 40252b8:	d9402b15 	stw	r5,172(sp)
 40252bc:	058001c4 	movi	r22,7
 40252c0:	dcc02c17 	ldw	r19,176(sp)
 40252c4:	00000306 	br	40252d4 <___vfprintf_internal_r+0x1524>
 40252c8:	42000204 	addi	r8,r8,8
 40252cc:	843ffc04 	addi	r16,r16,-16
 40252d0:	8c3ef50e 	bge	r17,r16,4024ea8 <__alt_data_end+0xfffe4ea8>
 40252d4:	18c00404 	addi	r3,r3,16
 40252d8:	10800044 	addi	r2,r2,1
 40252dc:	45000015 	stw	r20,0(r8)
 40252e0:	44400115 	stw	r17,4(r8)
 40252e4:	d8c02015 	stw	r3,128(sp)
 40252e8:	d8801f15 	stw	r2,124(sp)
 40252ec:	b0bff60e 	bge	r22,r2,40252c8 <__alt_data_end+0xfffe52c8>
 40252f0:	d9801e04 	addi	r6,sp,120
 40252f4:	b80b883a 	mov	r5,r23
 40252f8:	9809883a 	mov	r4,r19
 40252fc:	402aad80 	call	402aad8 <__sprint_r>
 4025300:	103bad1e 	bne	r2,zero,40241b8 <__alt_data_end+0xfffe41b8>
 4025304:	d8c02017 	ldw	r3,128(sp)
 4025308:	d8801f17 	ldw	r2,124(sp)
 402530c:	da000404 	addi	r8,sp,16
 4025310:	003fee06 	br	40252cc <__alt_data_end+0xfffe52cc>
 4025314:	9088703a 	and	r4,r18,r2
 4025318:	203eab1e 	bne	r4,zero,4024dc8 <__alt_data_end+0xfffe4dc8>
 402531c:	dc401f17 	ldw	r17,124(sp)
 4025320:	40800115 	stw	r2,4(r8)
 4025324:	44000015 	stw	r16,0(r8)
 4025328:	8c400044 	addi	r17,r17,1
 402532c:	d8c02015 	stw	r3,128(sp)
 4025330:	dc401f15 	stw	r17,124(sp)
 4025334:	008001c4 	movi	r2,7
 4025338:	14400e16 	blt	r2,r17,4025374 <___vfprintf_internal_r+0x15c4>
 402533c:	45800204 	addi	r22,r8,8
 4025340:	003eca06 	br	4024e6c <__alt_data_end+0xfffe4e6c>
 4025344:	010100f4 	movhi	r4,1027
 4025348:	21048c84 	addi	r4,r4,4658
 402534c:	d9002b15 	stw	r4,172(sp)
 4025350:	d8802b17 	ldw	r2,172(sp)
 4025354:	1c07883a 	add	r3,r3,r16
 4025358:	8c400044 	addi	r17,r17,1
 402535c:	b0800015 	stw	r2,0(r22)
 4025360:	b4000115 	stw	r16,4(r22)
 4025364:	d8c02015 	stw	r3,128(sp)
 4025368:	dc401f15 	stw	r17,124(sp)
 402536c:	008001c4 	movi	r2,7
 4025370:	147ebd0e 	bge	r2,r17,4024e68 <__alt_data_end+0xfffe4e68>
 4025374:	d9002c17 	ldw	r4,176(sp)
 4025378:	d9801e04 	addi	r6,sp,120
 402537c:	b80b883a 	mov	r5,r23
 4025380:	402aad80 	call	402aad8 <__sprint_r>
 4025384:	103b8c1e 	bne	r2,zero,40241b8 <__alt_data_end+0xfffe41b8>
 4025388:	d8c02017 	ldw	r3,128(sp)
 402538c:	dc401f17 	ldw	r17,124(sp)
 4025390:	dd800404 	addi	r22,sp,16
 4025394:	003eb506 	br	4024e6c <__alt_data_end+0xfffe4e6c>
 4025398:	d9002c17 	ldw	r4,176(sp)
 402539c:	d9801e04 	addi	r6,sp,120
 40253a0:	b80b883a 	mov	r5,r23
 40253a4:	402aad80 	call	402aad8 <__sprint_r>
 40253a8:	103b831e 	bne	r2,zero,40241b8 <__alt_data_end+0xfffe41b8>
 40253ac:	d8c02017 	ldw	r3,128(sp)
 40253b0:	dc401f17 	ldw	r17,124(sp)
 40253b4:	da000404 	addi	r8,sp,16
 40253b8:	003e8d06 	br	4024df0 <__alt_data_end+0xfffe4df0>
 40253bc:	d9002c17 	ldw	r4,176(sp)
 40253c0:	d9801e04 	addi	r6,sp,120
 40253c4:	b80b883a 	mov	r5,r23
 40253c8:	402aad80 	call	402aad8 <__sprint_r>
 40253cc:	103b7a1e 	bne	r2,zero,40241b8 <__alt_data_end+0xfffe41b8>
 40253d0:	d8c02017 	ldw	r3,128(sp)
 40253d4:	dc401f17 	ldw	r17,124(sp)
 40253d8:	dd800404 	addi	r22,sp,16
 40253dc:	003e8f06 	br	4024e1c <__alt_data_end+0xfffe4e1c>
 40253e0:	0027883a 	mov	r19,zero
 40253e4:	003f4a06 	br	4025110 <__alt_data_end+0xfffe5110>
 40253e8:	d9002c17 	ldw	r4,176(sp)
 40253ec:	d9801e04 	addi	r6,sp,120
 40253f0:	b80b883a 	mov	r5,r23
 40253f4:	402aad80 	call	402aad8 <__sprint_r>
 40253f8:	103b6f1e 	bne	r2,zero,40241b8 <__alt_data_end+0xfffe41b8>
 40253fc:	d8c02017 	ldw	r3,128(sp)
 4025400:	da000404 	addi	r8,sp,16
 4025404:	003c9d06 	br	402467c <__alt_data_end+0xfffe467c>
 4025408:	04e7c83a 	sub	r19,zero,r19
 402540c:	9804c03a 	cmpne	r2,r19,zero
 4025410:	05adc83a 	sub	r22,zero,r22
 4025414:	b0adc83a 	sub	r22,r22,r2
 4025418:	d8802917 	ldw	r2,164(sp)
 402541c:	07000b44 	movi	fp,45
 4025420:	df002785 	stb	fp,158(sp)
 4025424:	10017b16 	blt	r2,zero,4025a14 <___vfprintf_internal_r+0x1c64>
 4025428:	00bfdfc4 	movi	r2,-129
 402542c:	90a4703a 	and	r18,r18,r2
 4025430:	003bb106 	br	40242f8 <__alt_data_end+0xfffe42f8>
 4025434:	d9003617 	ldw	r4,216(sp)
 4025438:	d9403817 	ldw	r5,224(sp)
 402543c:	da003d15 	stw	r8,244(sp)
 4025440:	402a6fc0 	call	402a6fc <__fpclassifyd>
 4025444:	da003d17 	ldw	r8,244(sp)
 4025448:	1000f026 	beq	r2,zero,402580c <___vfprintf_internal_r+0x1a5c>
 402544c:	d9002917 	ldw	r4,164(sp)
 4025450:	05bff7c4 	movi	r22,-33
 4025454:	00bfffc4 	movi	r2,-1
 4025458:	8dac703a 	and	r22,r17,r22
 402545c:	20820026 	beq	r4,r2,4025c60 <___vfprintf_internal_r+0x1eb0>
 4025460:	008011c4 	movi	r2,71
 4025464:	b081f726 	beq	r22,r2,4025c44 <___vfprintf_internal_r+0x1e94>
 4025468:	d9003817 	ldw	r4,224(sp)
 402546c:	90c04014 	ori	r3,r18,256
 4025470:	d8c02b15 	stw	r3,172(sp)
 4025474:	20021516 	blt	r4,zero,4025ccc <___vfprintf_internal_r+0x1f1c>
 4025478:	dcc03817 	ldw	r19,224(sp)
 402547c:	d8002a05 	stb	zero,168(sp)
 4025480:	00801984 	movi	r2,102
 4025484:	8881f926 	beq	r17,r2,4025c6c <___vfprintf_internal_r+0x1ebc>
 4025488:	00801184 	movi	r2,70
 402548c:	88821c26 	beq	r17,r2,4025d00 <___vfprintf_internal_r+0x1f50>
 4025490:	00801144 	movi	r2,69
 4025494:	b081ef26 	beq	r22,r2,4025c54 <___vfprintf_internal_r+0x1ea4>
 4025498:	d8c02917 	ldw	r3,164(sp)
 402549c:	d8802104 	addi	r2,sp,132
 40254a0:	d8800315 	stw	r2,12(sp)
 40254a4:	d9403617 	ldw	r5,216(sp)
 40254a8:	d8802504 	addi	r2,sp,148
 40254ac:	d9002c17 	ldw	r4,176(sp)
 40254b0:	d8800215 	stw	r2,8(sp)
 40254b4:	d8802604 	addi	r2,sp,152
 40254b8:	d8c00015 	stw	r3,0(sp)
 40254bc:	d8800115 	stw	r2,4(sp)
 40254c0:	01c00084 	movi	r7,2
 40254c4:	980d883a 	mov	r6,r19
 40254c8:	d8c03c15 	stw	r3,240(sp)
 40254cc:	da003d15 	stw	r8,244(sp)
 40254d0:	40267c40 	call	40267c4 <_dtoa_r>
 40254d4:	1021883a 	mov	r16,r2
 40254d8:	008019c4 	movi	r2,103
 40254dc:	d8c03c17 	ldw	r3,240(sp)
 40254e0:	da003d17 	ldw	r8,244(sp)
 40254e4:	88817126 	beq	r17,r2,4025aac <___vfprintf_internal_r+0x1cfc>
 40254e8:	008011c4 	movi	r2,71
 40254ec:	88829226 	beq	r17,r2,4025f38 <___vfprintf_internal_r+0x2188>
 40254f0:	80f9883a 	add	fp,r16,r3
 40254f4:	d9003617 	ldw	r4,216(sp)
 40254f8:	000d883a 	mov	r6,zero
 40254fc:	000f883a 	mov	r7,zero
 4025500:	980b883a 	mov	r5,r19
 4025504:	da003d15 	stw	r8,244(sp)
 4025508:	402f1e40 	call	402f1e4 <__eqdf2>
 402550c:	da003d17 	ldw	r8,244(sp)
 4025510:	10018d26 	beq	r2,zero,4025b48 <___vfprintf_internal_r+0x1d98>
 4025514:	d8802117 	ldw	r2,132(sp)
 4025518:	1700062e 	bgeu	r2,fp,4025534 <___vfprintf_internal_r+0x1784>
 402551c:	01000c04 	movi	r4,48
 4025520:	10c00044 	addi	r3,r2,1
 4025524:	d8c02115 	stw	r3,132(sp)
 4025528:	11000005 	stb	r4,0(r2)
 402552c:	d8802117 	ldw	r2,132(sp)
 4025530:	173ffb36 	bltu	r2,fp,4025520 <__alt_data_end+0xfffe5520>
 4025534:	1405c83a 	sub	r2,r2,r16
 4025538:	d8803315 	stw	r2,204(sp)
 402553c:	008011c4 	movi	r2,71
 4025540:	b0817626 	beq	r22,r2,4025b1c <___vfprintf_internal_r+0x1d6c>
 4025544:	00801944 	movi	r2,101
 4025548:	1442810e 	bge	r2,r17,4025f50 <___vfprintf_internal_r+0x21a0>
 402554c:	d8c02617 	ldw	r3,152(sp)
 4025550:	00801984 	movi	r2,102
 4025554:	d8c03215 	stw	r3,200(sp)
 4025558:	8881fe26 	beq	r17,r2,4025d54 <___vfprintf_internal_r+0x1fa4>
 402555c:	d8c03217 	ldw	r3,200(sp)
 4025560:	d9003317 	ldw	r4,204(sp)
 4025564:	1901dd16 	blt	r3,r4,4025cdc <___vfprintf_internal_r+0x1f2c>
 4025568:	9480004c 	andi	r18,r18,1
 402556c:	90022b1e 	bne	r18,zero,4025e1c <___vfprintf_internal_r+0x206c>
 4025570:	1805883a 	mov	r2,r3
 4025574:	18028016 	blt	r3,zero,4025f78 <___vfprintf_internal_r+0x21c8>
 4025578:	d8c03217 	ldw	r3,200(sp)
 402557c:	044019c4 	movi	r17,103
 4025580:	d8c02e15 	stw	r3,184(sp)
 4025584:	df002a07 	ldb	fp,168(sp)
 4025588:	e001531e 	bne	fp,zero,4025ad8 <___vfprintf_internal_r+0x1d28>
 402558c:	df002783 	ldbu	fp,158(sp)
 4025590:	d8802a15 	stw	r2,168(sp)
 4025594:	dc802b17 	ldw	r18,172(sp)
 4025598:	d8002915 	stw	zero,164(sp)
 402559c:	003bd106 	br	40244e4 <__alt_data_end+0xfffe44e4>
 40255a0:	d8802d17 	ldw	r2,180(sp)
 40255a4:	d8c02d17 	ldw	r3,180(sp)
 40255a8:	d9002d17 	ldw	r4,180(sp)
 40255ac:	10800017 	ldw	r2,0(r2)
 40255b0:	18c00117 	ldw	r3,4(r3)
 40255b4:	21000204 	addi	r4,r4,8
 40255b8:	d8803615 	stw	r2,216(sp)
 40255bc:	d8c03815 	stw	r3,224(sp)
 40255c0:	d9002d15 	stw	r4,180(sp)
 40255c4:	003b7506 	br	402439c <__alt_data_end+0xfffe439c>
 40255c8:	ac400007 	ldb	r17,0(r21)
 40255cc:	003a5906 	br	4023f34 <__alt_data_end+0xfffe3f34>
 40255d0:	9080100c 	andi	r2,r18,64
 40255d4:	1000a826 	beq	r2,zero,4025878 <___vfprintf_internal_r+0x1ac8>
 40255d8:	d9002d17 	ldw	r4,180(sp)
 40255dc:	002d883a 	mov	r22,zero
 40255e0:	24c0000b 	ldhu	r19,0(r4)
 40255e4:	21000104 	addi	r4,r4,4
 40255e8:	d9002d15 	stw	r4,180(sp)
 40255ec:	003ccb06 	br	402491c <__alt_data_end+0xfffe491c>
 40255f0:	d8c02d17 	ldw	r3,180(sp)
 40255f4:	d9002917 	ldw	r4,164(sp)
 40255f8:	002d883a 	mov	r22,zero
 40255fc:	18800104 	addi	r2,r3,4
 4025600:	1cc00017 	ldw	r19,0(r3)
 4025604:	203ebb0e 	bge	r4,zero,40250f4 <__alt_data_end+0xfffe50f4>
 4025608:	003ef106 	br	40251d0 <__alt_data_end+0xfffe51d0>
 402560c:	9080040c 	andi	r2,r18,16
 4025610:	1000921e 	bne	r2,zero,402585c <___vfprintf_internal_r+0x1aac>
 4025614:	9480100c 	andi	r18,r18,64
 4025618:	90013926 	beq	r18,zero,4025b00 <___vfprintf_internal_r+0x1d50>
 402561c:	d9002d17 	ldw	r4,180(sp)
 4025620:	d9402f17 	ldw	r5,188(sp)
 4025624:	20800017 	ldw	r2,0(r4)
 4025628:	21000104 	addi	r4,r4,4
 402562c:	d9002d15 	stw	r4,180(sp)
 4025630:	1140000d 	sth	r5,0(r2)
 4025634:	003a1606 	br	4023e90 <__alt_data_end+0xfffe3e90>
 4025638:	9080100c 	andi	r2,r18,64
 402563c:	10008026 	beq	r2,zero,4025840 <___vfprintf_internal_r+0x1a90>
 4025640:	d8c02d17 	ldw	r3,180(sp)
 4025644:	1cc0000f 	ldh	r19,0(r3)
 4025648:	18c00104 	addi	r3,r3,4
 402564c:	d8c02d15 	stw	r3,180(sp)
 4025650:	982dd7fa 	srai	r22,r19,31
 4025654:	b005883a 	mov	r2,r22
 4025658:	003b1f06 	br	40242d8 <__alt_data_end+0xfffe42d8>
 402565c:	9080100c 	andi	r2,r18,64
 4025660:	d8002785 	stb	zero,158(sp)
 4025664:	10008a1e 	bne	r2,zero,4025890 <___vfprintf_internal_r+0x1ae0>
 4025668:	d9402d17 	ldw	r5,180(sp)
 402566c:	d8c02917 	ldw	r3,164(sp)
 4025670:	002d883a 	mov	r22,zero
 4025674:	28800104 	addi	r2,r5,4
 4025678:	2cc00017 	ldw	r19,0(r5)
 402567c:	183e4b0e 	bge	r3,zero,4024fac <__alt_data_end+0xfffe4fac>
 4025680:	9d86b03a 	or	r3,r19,r22
 4025684:	d8802d15 	stw	r2,180(sp)
 4025688:	183e4c1e 	bne	r3,zero,4024fbc <__alt_data_end+0xfffe4fbc>
 402568c:	0039883a 	mov	fp,zero
 4025690:	0005883a 	mov	r2,zero
 4025694:	003d4006 	br	4024b98 <__alt_data_end+0xfffe4b98>
 4025698:	014100f4 	movhi	r5,1027
 402569c:	29448c84 	addi	r5,r5,4658
 40256a0:	d9402b15 	stw	r5,172(sp)
 40256a4:	d9402b17 	ldw	r5,172(sp)
 40256a8:	1c47883a 	add	r3,r3,r17
 40256ac:	10800044 	addi	r2,r2,1
 40256b0:	41400015 	stw	r5,0(r8)
 40256b4:	44400115 	stw	r17,4(r8)
 40256b8:	d8c02015 	stw	r3,128(sp)
 40256bc:	d8801f15 	stw	r2,124(sp)
 40256c0:	010001c4 	movi	r4,7
 40256c4:	20bec816 	blt	r4,r2,40251e8 <__alt_data_end+0xfffe51e8>
 40256c8:	42000204 	addi	r8,r8,8
 40256cc:	003ecd06 	br	4025204 <__alt_data_end+0xfffe5204>
 40256d0:	d9002917 	ldw	r4,164(sp)
 40256d4:	d8002785 	stb	zero,158(sp)
 40256d8:	203d2d16 	blt	r4,zero,4024b90 <__alt_data_end+0xfffe4b90>
 40256dc:	00bfdfc4 	movi	r2,-129
 40256e0:	90a4703a 	and	r18,r18,r2
 40256e4:	003a9106 	br	402412c <__alt_data_end+0xfffe412c>
 40256e8:	010100f4 	movhi	r4,1027
 40256ec:	21048c84 	addi	r4,r4,4658
 40256f0:	d9002b15 	stw	r4,172(sp)
 40256f4:	003c0c06 	br	4024728 <__alt_data_end+0xfffe4728>
 40256f8:	d9002c17 	ldw	r4,176(sp)
 40256fc:	d9801e04 	addi	r6,sp,120
 4025700:	b80b883a 	mov	r5,r23
 4025704:	402aad80 	call	402aad8 <__sprint_r>
 4025708:	103aab1e 	bne	r2,zero,40241b8 <__alt_data_end+0xfffe41b8>
 402570c:	d8c02017 	ldw	r3,128(sp)
 4025710:	da000404 	addi	r8,sp,16
 4025714:	003d4106 	br	4024c1c <__alt_data_end+0xfffe4c1c>
 4025718:	d8801f17 	ldw	r2,124(sp)
 402571c:	014100f4 	movhi	r5,1027
 4025720:	01000044 	movi	r4,1
 4025724:	18c00044 	addi	r3,r3,1
 4025728:	10800044 	addi	r2,r2,1
 402572c:	29448c04 	addi	r5,r5,4656
 4025730:	41000115 	stw	r4,4(r8)
 4025734:	41400015 	stw	r5,0(r8)
 4025738:	d8c02015 	stw	r3,128(sp)
 402573c:	d8801f15 	stw	r2,124(sp)
 4025740:	010001c4 	movi	r4,7
 4025744:	20805c16 	blt	r4,r2,40258b8 <___vfprintf_internal_r+0x1b08>
 4025748:	42000204 	addi	r8,r8,8
 402574c:	8800041e 	bne	r17,zero,4025760 <___vfprintf_internal_r+0x19b0>
 4025750:	d8803317 	ldw	r2,204(sp)
 4025754:	1000021e 	bne	r2,zero,4025760 <___vfprintf_internal_r+0x19b0>
 4025758:	9080004c 	andi	r2,r18,1
 402575c:	103c0926 	beq	r2,zero,4024784 <__alt_data_end+0xfffe4784>
 4025760:	d9003717 	ldw	r4,220(sp)
 4025764:	d8801f17 	ldw	r2,124(sp)
 4025768:	d9403417 	ldw	r5,208(sp)
 402576c:	20c7883a 	add	r3,r4,r3
 4025770:	10800044 	addi	r2,r2,1
 4025774:	41000115 	stw	r4,4(r8)
 4025778:	41400015 	stw	r5,0(r8)
 402577c:	d8c02015 	stw	r3,128(sp)
 4025780:	d8801f15 	stw	r2,124(sp)
 4025784:	010001c4 	movi	r4,7
 4025788:	20812116 	blt	r4,r2,4025c10 <___vfprintf_internal_r+0x1e60>
 402578c:	42000204 	addi	r8,r8,8
 4025790:	0463c83a 	sub	r17,zero,r17
 4025794:	0440730e 	bge	zero,r17,4025964 <___vfprintf_internal_r+0x1bb4>
 4025798:	05800404 	movi	r22,16
 402579c:	b440860e 	bge	r22,r17,40259b8 <___vfprintf_internal_r+0x1c08>
 40257a0:	014100f4 	movhi	r5,1027
 40257a4:	29448c84 	addi	r5,r5,4658
 40257a8:	d9402b15 	stw	r5,172(sp)
 40257ac:	070001c4 	movi	fp,7
 40257b0:	dcc02c17 	ldw	r19,176(sp)
 40257b4:	00000306 	br	40257c4 <___vfprintf_internal_r+0x1a14>
 40257b8:	42000204 	addi	r8,r8,8
 40257bc:	8c7ffc04 	addi	r17,r17,-16
 40257c0:	b440800e 	bge	r22,r17,40259c4 <___vfprintf_internal_r+0x1c14>
 40257c4:	18c00404 	addi	r3,r3,16
 40257c8:	10800044 	addi	r2,r2,1
 40257cc:	45000015 	stw	r20,0(r8)
 40257d0:	45800115 	stw	r22,4(r8)
 40257d4:	d8c02015 	stw	r3,128(sp)
 40257d8:	d8801f15 	stw	r2,124(sp)
 40257dc:	e0bff60e 	bge	fp,r2,40257b8 <__alt_data_end+0xfffe57b8>
 40257e0:	d9801e04 	addi	r6,sp,120
 40257e4:	b80b883a 	mov	r5,r23
 40257e8:	9809883a 	mov	r4,r19
 40257ec:	402aad80 	call	402aad8 <__sprint_r>
 40257f0:	103a711e 	bne	r2,zero,40241b8 <__alt_data_end+0xfffe41b8>
 40257f4:	d8c02017 	ldw	r3,128(sp)
 40257f8:	d8801f17 	ldw	r2,124(sp)
 40257fc:	da000404 	addi	r8,sp,16
 4025800:	003fee06 	br	40257bc <__alt_data_end+0xfffe57bc>
 4025804:	00bfffc4 	movi	r2,-1
 4025808:	003a6f06 	br	40241c8 <__alt_data_end+0xfffe41c8>
 402580c:	008011c4 	movi	r2,71
 4025810:	1440b816 	blt	r2,r17,4025af4 <___vfprintf_internal_r+0x1d44>
 4025814:	040100f4 	movhi	r16,1027
 4025818:	84047e04 	addi	r16,r16,4600
 402581c:	00c000c4 	movi	r3,3
 4025820:	00bfdfc4 	movi	r2,-129
 4025824:	d8c02a15 	stw	r3,168(sp)
 4025828:	90a4703a 	and	r18,r18,r2
 402582c:	df002783 	ldbu	fp,158(sp)
 4025830:	d8c02e15 	stw	r3,184(sp)
 4025834:	d8002915 	stw	zero,164(sp)
 4025838:	d8003215 	stw	zero,200(sp)
 402583c:	003b2906 	br	40244e4 <__alt_data_end+0xfffe44e4>
 4025840:	d9002d17 	ldw	r4,180(sp)
 4025844:	24c00017 	ldw	r19,0(r4)
 4025848:	21000104 	addi	r4,r4,4
 402584c:	d9002d15 	stw	r4,180(sp)
 4025850:	982dd7fa 	srai	r22,r19,31
 4025854:	b005883a 	mov	r2,r22
 4025858:	003a9f06 	br	40242d8 <__alt_data_end+0xfffe42d8>
 402585c:	d9402d17 	ldw	r5,180(sp)
 4025860:	d8c02f17 	ldw	r3,188(sp)
 4025864:	28800017 	ldw	r2,0(r5)
 4025868:	29400104 	addi	r5,r5,4
 402586c:	d9402d15 	stw	r5,180(sp)
 4025870:	10c00015 	stw	r3,0(r2)
 4025874:	00398606 	br	4023e90 <__alt_data_end+0xfffe3e90>
 4025878:	d9402d17 	ldw	r5,180(sp)
 402587c:	002d883a 	mov	r22,zero
 4025880:	2cc00017 	ldw	r19,0(r5)
 4025884:	29400104 	addi	r5,r5,4
 4025888:	d9402d15 	stw	r5,180(sp)
 402588c:	003c2306 	br	402491c <__alt_data_end+0xfffe491c>
 4025890:	d8c02d17 	ldw	r3,180(sp)
 4025894:	d9002917 	ldw	r4,164(sp)
 4025898:	002d883a 	mov	r22,zero
 402589c:	18800104 	addi	r2,r3,4
 40258a0:	1cc0000b 	ldhu	r19,0(r3)
 40258a4:	203dc10e 	bge	r4,zero,4024fac <__alt_data_end+0xfffe4fac>
 40258a8:	003f7506 	br	4025680 <__alt_data_end+0xfffe5680>
 40258ac:	040100f4 	movhi	r16,1027
 40258b0:	84047c04 	addi	r16,r16,4592
 40258b4:	003acc06 	br	40243e8 <__alt_data_end+0xfffe43e8>
 40258b8:	d9002c17 	ldw	r4,176(sp)
 40258bc:	d9801e04 	addi	r6,sp,120
 40258c0:	b80b883a 	mov	r5,r23
 40258c4:	402aad80 	call	402aad8 <__sprint_r>
 40258c8:	103a3b1e 	bne	r2,zero,40241b8 <__alt_data_end+0xfffe41b8>
 40258cc:	dc402617 	ldw	r17,152(sp)
 40258d0:	d8c02017 	ldw	r3,128(sp)
 40258d4:	da000404 	addi	r8,sp,16
 40258d8:	003f9c06 	br	402574c <__alt_data_end+0xfffe574c>
 40258dc:	ac400043 	ldbu	r17,1(r21)
 40258e0:	94800814 	ori	r18,r18,32
 40258e4:	ad400044 	addi	r21,r21,1
 40258e8:	8c403fcc 	andi	r17,r17,255
 40258ec:	8c40201c 	xori	r17,r17,128
 40258f0:	8c7fe004 	addi	r17,r17,-128
 40258f4:	00398f06 	br	4023f34 <__alt_data_end+0xfffe3f34>
 40258f8:	d8c02d15 	stw	r3,180(sp)
 40258fc:	0039883a 	mov	fp,zero
 4025900:	003e3506 	br	40251d8 <__alt_data_end+0xfffe51d8>
 4025904:	d9002c17 	ldw	r4,176(sp)
 4025908:	d9801e04 	addi	r6,sp,120
 402590c:	b80b883a 	mov	r5,r23
 4025910:	402aad80 	call	402aad8 <__sprint_r>
 4025914:	103a281e 	bne	r2,zero,40241b8 <__alt_data_end+0xfffe41b8>
 4025918:	d8c02017 	ldw	r3,128(sp)
 402591c:	da000404 	addi	r8,sp,16
 4025920:	003cd006 	br	4024c64 <__alt_data_end+0xfffe4c64>
 4025924:	8009883a 	mov	r4,r16
 4025928:	da003d15 	stw	r8,244(sp)
 402592c:	4023d180 	call	4023d18 <strlen>
 4025930:	d8802e15 	stw	r2,184(sp)
 4025934:	da003d17 	ldw	r8,244(sp)
 4025938:	103c340e 	bge	r2,zero,4024a0c <__alt_data_end+0xfffe4a0c>
 402593c:	0005883a 	mov	r2,zero
 4025940:	003c3206 	br	4024a0c <__alt_data_end+0xfffe4a0c>
 4025944:	d9002c17 	ldw	r4,176(sp)
 4025948:	d9801e04 	addi	r6,sp,120
 402594c:	b80b883a 	mov	r5,r23
 4025950:	402aad80 	call	402aad8 <__sprint_r>
 4025954:	103a181e 	bne	r2,zero,40241b8 <__alt_data_end+0xfffe41b8>
 4025958:	d8c02017 	ldw	r3,128(sp)
 402595c:	d8801f17 	ldw	r2,124(sp)
 4025960:	da000404 	addi	r8,sp,16
 4025964:	d9403317 	ldw	r5,204(sp)
 4025968:	10800044 	addi	r2,r2,1
 402596c:	44000015 	stw	r16,0(r8)
 4025970:	28c7883a 	add	r3,r5,r3
 4025974:	003b7d06 	br	402476c <__alt_data_end+0xfffe476c>
 4025978:	010100f4 	movhi	r4,1027
 402597c:	21049084 	addi	r4,r4,4674
 4025980:	d9003515 	stw	r4,212(sp)
 4025984:	003b1406 	br	40245d8 <__alt_data_end+0xfffe45d8>
 4025988:	013fffc4 	movi	r4,-1
 402598c:	003a3506 	br	4024264 <__alt_data_end+0xfffe4264>
 4025990:	0023883a 	mov	r17,zero
 4025994:	003d9d06 	br	402500c <__alt_data_end+0xfffe500c>
 4025998:	d9002c17 	ldw	r4,176(sp)
 402599c:	d9801e04 	addi	r6,sp,120
 40259a0:	b80b883a 	mov	r5,r23
 40259a4:	402aad80 	call	402aad8 <__sprint_r>
 40259a8:	103a031e 	bne	r2,zero,40241b8 <__alt_data_end+0xfffe41b8>
 40259ac:	d8c02017 	ldw	r3,128(sp)
 40259b0:	da000404 	addi	r8,sp,16
 40259b4:	003d9406 	br	4025008 <__alt_data_end+0xfffe5008>
 40259b8:	010100f4 	movhi	r4,1027
 40259bc:	21048c84 	addi	r4,r4,4658
 40259c0:	d9002b15 	stw	r4,172(sp)
 40259c4:	d9002b17 	ldw	r4,172(sp)
 40259c8:	1c47883a 	add	r3,r3,r17
 40259cc:	10800044 	addi	r2,r2,1
 40259d0:	41000015 	stw	r4,0(r8)
 40259d4:	44400115 	stw	r17,4(r8)
 40259d8:	d8c02015 	stw	r3,128(sp)
 40259dc:	d8801f15 	stw	r2,124(sp)
 40259e0:	010001c4 	movi	r4,7
 40259e4:	20bfd716 	blt	r4,r2,4025944 <__alt_data_end+0xfffe5944>
 40259e8:	42000204 	addi	r8,r8,8
 40259ec:	003fdd06 	br	4025964 <__alt_data_end+0xfffe5964>
 40259f0:	d9002c17 	ldw	r4,176(sp)
 40259f4:	d9801e04 	addi	r6,sp,120
 40259f8:	b80b883a 	mov	r5,r23
 40259fc:	402aad80 	call	402aad8 <__sprint_r>
 4025a00:	1039ed1e 	bne	r2,zero,40241b8 <__alt_data_end+0xfffe41b8>
 4025a04:	d8802617 	ldw	r2,152(sp)
 4025a08:	d8c02017 	ldw	r3,128(sp)
 4025a0c:	da000404 	addi	r8,sp,16
 4025a10:	003e1006 	br	4025254 <__alt_data_end+0xfffe5254>
 4025a14:	00800044 	movi	r2,1
 4025a18:	10803fcc 	andi	r2,r2,255
 4025a1c:	00c00044 	movi	r3,1
 4025a20:	10fa3526 	beq	r2,r3,40242f8 <__alt_data_end+0xfffe42f8>
 4025a24:	00c00084 	movi	r3,2
 4025a28:	10fbcb26 	beq	r2,r3,4024958 <__alt_data_end+0xfffe4958>
 4025a2c:	003a8f06 	br	402446c <__alt_data_end+0xfffe446c>
 4025a30:	010100f4 	movhi	r4,1027
 4025a34:	21049084 	addi	r4,r4,4674
 4025a38:	d9003515 	stw	r4,212(sp)
 4025a3c:	003b7606 	br	4024818 <__alt_data_end+0xfffe4818>
 4025a40:	d8802917 	ldw	r2,164(sp)
 4025a44:	00c00184 	movi	r3,6
 4025a48:	1880012e 	bgeu	r3,r2,4025a50 <___vfprintf_internal_r+0x1ca0>
 4025a4c:	1805883a 	mov	r2,r3
 4025a50:	d8802e15 	stw	r2,184(sp)
 4025a54:	1000ef16 	blt	r2,zero,4025e14 <___vfprintf_internal_r+0x2064>
 4025a58:	040100f4 	movhi	r16,1027
 4025a5c:	d8802a15 	stw	r2,168(sp)
 4025a60:	dcc02d15 	stw	r19,180(sp)
 4025a64:	d8002915 	stw	zero,164(sp)
 4025a68:	d8003215 	stw	zero,200(sp)
 4025a6c:	84048a04 	addi	r16,r16,4648
 4025a70:	0039883a 	mov	fp,zero
 4025a74:	003aa206 	br	4024500 <__alt_data_end+0xfffe4500>
 4025a78:	0021883a 	mov	r16,zero
 4025a7c:	003e0706 	br	402529c <__alt_data_end+0xfffe529c>
 4025a80:	d9002c17 	ldw	r4,176(sp)
 4025a84:	d9801e04 	addi	r6,sp,120
 4025a88:	b80b883a 	mov	r5,r23
 4025a8c:	402aad80 	call	402aad8 <__sprint_r>
 4025a90:	1039c91e 	bne	r2,zero,40241b8 <__alt_data_end+0xfffe41b8>
 4025a94:	d8802617 	ldw	r2,152(sp)
 4025a98:	d9403317 	ldw	r5,204(sp)
 4025a9c:	d8c02017 	ldw	r3,128(sp)
 4025aa0:	da000404 	addi	r8,sp,16
 4025aa4:	2885c83a 	sub	r2,r5,r2
 4025aa8:	003dfb06 	br	4025298 <__alt_data_end+0xfffe5298>
 4025aac:	9080004c 	andi	r2,r18,1
 4025ab0:	103e8f1e 	bne	r2,zero,40254f0 <__alt_data_end+0xfffe54f0>
 4025ab4:	d8802117 	ldw	r2,132(sp)
 4025ab8:	003e9e06 	br	4025534 <__alt_data_end+0xfffe5534>
 4025abc:	1025883a 	mov	r18,r2
 4025ac0:	0039883a 	mov	fp,zero
 4025ac4:	00800084 	movi	r2,2
 4025ac8:	003fd306 	br	4025a18 <__alt_data_end+0xfffe5a18>
 4025acc:	07000b44 	movi	fp,45
 4025ad0:	df002785 	stb	fp,158(sp)
 4025ad4:	003a4006 	br	40243d8 <__alt_data_end+0xfffe43d8>
 4025ad8:	00c00b44 	movi	r3,45
 4025adc:	d8c02785 	stb	r3,158(sp)
 4025ae0:	d8802a15 	stw	r2,168(sp)
 4025ae4:	dc802b17 	ldw	r18,172(sp)
 4025ae8:	d8002915 	stw	zero,164(sp)
 4025aec:	07000b44 	movi	fp,45
 4025af0:	003a8006 	br	40244f4 <__alt_data_end+0xfffe44f4>
 4025af4:	040100f4 	movhi	r16,1027
 4025af8:	84047f04 	addi	r16,r16,4604
 4025afc:	003f4706 	br	402581c <__alt_data_end+0xfffe581c>
 4025b00:	d8c02d17 	ldw	r3,180(sp)
 4025b04:	d9002f17 	ldw	r4,188(sp)
 4025b08:	18800017 	ldw	r2,0(r3)
 4025b0c:	18c00104 	addi	r3,r3,4
 4025b10:	d8c02d15 	stw	r3,180(sp)
 4025b14:	11000015 	stw	r4,0(r2)
 4025b18:	0038dd06 	br	4023e90 <__alt_data_end+0xfffe3e90>
 4025b1c:	dd802617 	ldw	r22,152(sp)
 4025b20:	00bfff44 	movi	r2,-3
 4025b24:	b0801c16 	blt	r22,r2,4025b98 <___vfprintf_internal_r+0x1de8>
 4025b28:	d9402917 	ldw	r5,164(sp)
 4025b2c:	2d801a16 	blt	r5,r22,4025b98 <___vfprintf_internal_r+0x1de8>
 4025b30:	dd803215 	stw	r22,200(sp)
 4025b34:	003e8906 	br	402555c <__alt_data_end+0xfffe555c>
 4025b38:	010100f4 	movhi	r4,1027
 4025b3c:	21048c84 	addi	r4,r4,4658
 4025b40:	d9002b15 	stw	r4,172(sp)
 4025b44:	003c9106 	br	4024d8c <__alt_data_end+0xfffe4d8c>
 4025b48:	e005883a 	mov	r2,fp
 4025b4c:	003e7906 	br	4025534 <__alt_data_end+0xfffe5534>
 4025b50:	d9402917 	ldw	r5,164(sp)
 4025b54:	df002783 	ldbu	fp,158(sp)
 4025b58:	dcc02d15 	stw	r19,180(sp)
 4025b5c:	d9402a15 	stw	r5,168(sp)
 4025b60:	d9402e15 	stw	r5,184(sp)
 4025b64:	d8002915 	stw	zero,164(sp)
 4025b68:	d8003215 	stw	zero,200(sp)
 4025b6c:	003a5d06 	br	40244e4 <__alt_data_end+0xfffe44e4>
 4025b70:	9080004c 	andi	r2,r18,1
 4025b74:	0039883a 	mov	fp,zero
 4025b78:	10000426 	beq	r2,zero,4025b8c <___vfprintf_internal_r+0x1ddc>
 4025b7c:	00800c04 	movi	r2,48
 4025b80:	dc001dc4 	addi	r16,sp,119
 4025b84:	d8801dc5 	stb	r2,119(sp)
 4025b88:	003b8006 	br	402498c <__alt_data_end+0xfffe498c>
 4025b8c:	d8002e15 	stw	zero,184(sp)
 4025b90:	dc001e04 	addi	r16,sp,120
 4025b94:	003a4d06 	br	40244cc <__alt_data_end+0xfffe44cc>
 4025b98:	8c7fff84 	addi	r17,r17,-2
 4025b9c:	b5bfffc4 	addi	r22,r22,-1
 4025ba0:	dd802615 	stw	r22,152(sp)
 4025ba4:	dc4022c5 	stb	r17,139(sp)
 4025ba8:	b000bf16 	blt	r22,zero,4025ea8 <___vfprintf_internal_r+0x20f8>
 4025bac:	00800ac4 	movi	r2,43
 4025bb0:	d8802305 	stb	r2,140(sp)
 4025bb4:	00800244 	movi	r2,9
 4025bb8:	15807016 	blt	r2,r22,4025d7c <___vfprintf_internal_r+0x1fcc>
 4025bbc:	00800c04 	movi	r2,48
 4025bc0:	b5800c04 	addi	r22,r22,48
 4025bc4:	d8802345 	stb	r2,141(sp)
 4025bc8:	dd802385 	stb	r22,142(sp)
 4025bcc:	d88023c4 	addi	r2,sp,143
 4025bd0:	df0022c4 	addi	fp,sp,139
 4025bd4:	d8c03317 	ldw	r3,204(sp)
 4025bd8:	1739c83a 	sub	fp,r2,fp
 4025bdc:	d9003317 	ldw	r4,204(sp)
 4025be0:	e0c7883a 	add	r3,fp,r3
 4025be4:	df003a15 	stw	fp,232(sp)
 4025be8:	d8c02e15 	stw	r3,184(sp)
 4025bec:	00800044 	movi	r2,1
 4025bf0:	1100b30e 	bge	r2,r4,4025ec0 <___vfprintf_internal_r+0x2110>
 4025bf4:	d8c02e17 	ldw	r3,184(sp)
 4025bf8:	18c00044 	addi	r3,r3,1
 4025bfc:	d8c02e15 	stw	r3,184(sp)
 4025c00:	1805883a 	mov	r2,r3
 4025c04:	1800ac16 	blt	r3,zero,4025eb8 <___vfprintf_internal_r+0x2108>
 4025c08:	d8003215 	stw	zero,200(sp)
 4025c0c:	003e5d06 	br	4025584 <__alt_data_end+0xfffe5584>
 4025c10:	d9002c17 	ldw	r4,176(sp)
 4025c14:	d9801e04 	addi	r6,sp,120
 4025c18:	b80b883a 	mov	r5,r23
 4025c1c:	402aad80 	call	402aad8 <__sprint_r>
 4025c20:	1039651e 	bne	r2,zero,40241b8 <__alt_data_end+0xfffe41b8>
 4025c24:	dc402617 	ldw	r17,152(sp)
 4025c28:	d8c02017 	ldw	r3,128(sp)
 4025c2c:	d8801f17 	ldw	r2,124(sp)
 4025c30:	da000404 	addi	r8,sp,16
 4025c34:	003ed606 	br	4025790 <__alt_data_end+0xfffe5790>
 4025c38:	582b883a 	mov	r21,r11
 4025c3c:	d8002915 	stw	zero,164(sp)
 4025c40:	0038bd06 	br	4023f38 <__alt_data_end+0xfffe3f38>
 4025c44:	d8802917 	ldw	r2,164(sp)
 4025c48:	103e071e 	bne	r2,zero,4025468 <__alt_data_end+0xfffe5468>
 4025c4c:	dc002915 	stw	r16,164(sp)
 4025c50:	003e0506 	br	4025468 <__alt_data_end+0xfffe5468>
 4025c54:	d9002917 	ldw	r4,164(sp)
 4025c58:	20c00044 	addi	r3,r4,1
 4025c5c:	003e0f06 	br	402549c <__alt_data_end+0xfffe549c>
 4025c60:	01400184 	movi	r5,6
 4025c64:	d9402915 	stw	r5,164(sp)
 4025c68:	003dff06 	br	4025468 <__alt_data_end+0xfffe5468>
 4025c6c:	d8802104 	addi	r2,sp,132
 4025c70:	d8800315 	stw	r2,12(sp)
 4025c74:	d8802504 	addi	r2,sp,148
 4025c78:	d8800215 	stw	r2,8(sp)
 4025c7c:	d8802604 	addi	r2,sp,152
 4025c80:	d8800115 	stw	r2,4(sp)
 4025c84:	d8802917 	ldw	r2,164(sp)
 4025c88:	d9403617 	ldw	r5,216(sp)
 4025c8c:	d9002c17 	ldw	r4,176(sp)
 4025c90:	d8800015 	stw	r2,0(sp)
 4025c94:	01c000c4 	movi	r7,3
 4025c98:	980d883a 	mov	r6,r19
 4025c9c:	da003d15 	stw	r8,244(sp)
 4025ca0:	40267c40 	call	40267c4 <_dtoa_r>
 4025ca4:	d8c02917 	ldw	r3,164(sp)
 4025ca8:	da003d17 	ldw	r8,244(sp)
 4025cac:	1021883a 	mov	r16,r2
 4025cb0:	10f9883a 	add	fp,r2,r3
 4025cb4:	81000007 	ldb	r4,0(r16)
 4025cb8:	00800c04 	movi	r2,48
 4025cbc:	20805e26 	beq	r4,r2,4025e38 <___vfprintf_internal_r+0x2088>
 4025cc0:	d8c02617 	ldw	r3,152(sp)
 4025cc4:	e0f9883a 	add	fp,fp,r3
 4025cc8:	003e0a06 	br	40254f4 <__alt_data_end+0xfffe54f4>
 4025ccc:	00c00b44 	movi	r3,45
 4025cd0:	24e0003c 	xorhi	r19,r4,32768
 4025cd4:	d8c02a05 	stb	r3,168(sp)
 4025cd8:	003de906 	br	4025480 <__alt_data_end+0xfffe5480>
 4025cdc:	d8c03217 	ldw	r3,200(sp)
 4025ce0:	00c07a0e 	bge	zero,r3,4025ecc <___vfprintf_internal_r+0x211c>
 4025ce4:	00800044 	movi	r2,1
 4025ce8:	d9003317 	ldw	r4,204(sp)
 4025cec:	1105883a 	add	r2,r2,r4
 4025cf0:	d8802e15 	stw	r2,184(sp)
 4025cf4:	10004e16 	blt	r2,zero,4025e30 <___vfprintf_internal_r+0x2080>
 4025cf8:	044019c4 	movi	r17,103
 4025cfc:	003e2106 	br	4025584 <__alt_data_end+0xfffe5584>
 4025d00:	d9002917 	ldw	r4,164(sp)
 4025d04:	d8802104 	addi	r2,sp,132
 4025d08:	d8800315 	stw	r2,12(sp)
 4025d0c:	d9000015 	stw	r4,0(sp)
 4025d10:	d8802504 	addi	r2,sp,148
 4025d14:	d9403617 	ldw	r5,216(sp)
 4025d18:	d9002c17 	ldw	r4,176(sp)
 4025d1c:	d8800215 	stw	r2,8(sp)
 4025d20:	d8802604 	addi	r2,sp,152
 4025d24:	d8800115 	stw	r2,4(sp)
 4025d28:	01c000c4 	movi	r7,3
 4025d2c:	980d883a 	mov	r6,r19
 4025d30:	da003d15 	stw	r8,244(sp)
 4025d34:	40267c40 	call	40267c4 <_dtoa_r>
 4025d38:	d8c02917 	ldw	r3,164(sp)
 4025d3c:	da003d17 	ldw	r8,244(sp)
 4025d40:	1021883a 	mov	r16,r2
 4025d44:	00801184 	movi	r2,70
 4025d48:	80f9883a 	add	fp,r16,r3
 4025d4c:	88bfd926 	beq	r17,r2,4025cb4 <__alt_data_end+0xfffe5cb4>
 4025d50:	003de806 	br	40254f4 <__alt_data_end+0xfffe54f4>
 4025d54:	d9002917 	ldw	r4,164(sp)
 4025d58:	00c04d0e 	bge	zero,r3,4025e90 <___vfprintf_internal_r+0x20e0>
 4025d5c:	2000441e 	bne	r4,zero,4025e70 <___vfprintf_internal_r+0x20c0>
 4025d60:	9480004c 	andi	r18,r18,1
 4025d64:	9000421e 	bne	r18,zero,4025e70 <___vfprintf_internal_r+0x20c0>
 4025d68:	1805883a 	mov	r2,r3
 4025d6c:	18007016 	blt	r3,zero,4025f30 <___vfprintf_internal_r+0x2180>
 4025d70:	d8c03217 	ldw	r3,200(sp)
 4025d74:	d8c02e15 	stw	r3,184(sp)
 4025d78:	003e0206 	br	4025584 <__alt_data_end+0xfffe5584>
 4025d7c:	df0022c4 	addi	fp,sp,139
 4025d80:	dc002915 	stw	r16,164(sp)
 4025d84:	4027883a 	mov	r19,r8
 4025d88:	e021883a 	mov	r16,fp
 4025d8c:	b009883a 	mov	r4,r22
 4025d90:	01400284 	movi	r5,10
 4025d94:	402df200 	call	402df20 <__modsi3>
 4025d98:	10800c04 	addi	r2,r2,48
 4025d9c:	843fffc4 	addi	r16,r16,-1
 4025da0:	b009883a 	mov	r4,r22
 4025da4:	01400284 	movi	r5,10
 4025da8:	80800005 	stb	r2,0(r16)
 4025dac:	402de9c0 	call	402de9c <__divsi3>
 4025db0:	102d883a 	mov	r22,r2
 4025db4:	00800244 	movi	r2,9
 4025db8:	15bff416 	blt	r2,r22,4025d8c <__alt_data_end+0xfffe5d8c>
 4025dbc:	9811883a 	mov	r8,r19
 4025dc0:	b0800c04 	addi	r2,r22,48
 4025dc4:	8027883a 	mov	r19,r16
 4025dc8:	997fffc4 	addi	r5,r19,-1
 4025dcc:	98bfffc5 	stb	r2,-1(r19)
 4025dd0:	dc002917 	ldw	r16,164(sp)
 4025dd4:	2f006a2e 	bgeu	r5,fp,4025f80 <___vfprintf_internal_r+0x21d0>
 4025dd8:	d9c02384 	addi	r7,sp,142
 4025ddc:	3ccfc83a 	sub	r7,r7,r19
 4025de0:	d9002344 	addi	r4,sp,141
 4025de4:	e1cf883a 	add	r7,fp,r7
 4025de8:	00000106 	br	4025df0 <___vfprintf_internal_r+0x2040>
 4025dec:	28800003 	ldbu	r2,0(r5)
 4025df0:	20800005 	stb	r2,0(r4)
 4025df4:	21000044 	addi	r4,r4,1
 4025df8:	29400044 	addi	r5,r5,1
 4025dfc:	393ffb1e 	bne	r7,r4,4025dec <__alt_data_end+0xfffe5dec>
 4025e00:	d8802304 	addi	r2,sp,140
 4025e04:	14c5c83a 	sub	r2,r2,r19
 4025e08:	d8c02344 	addi	r3,sp,141
 4025e0c:	1885883a 	add	r2,r3,r2
 4025e10:	003f7006 	br	4025bd4 <__alt_data_end+0xfffe5bd4>
 4025e14:	0005883a 	mov	r2,zero
 4025e18:	003f0f06 	br	4025a58 <__alt_data_end+0xfffe5a58>
 4025e1c:	d8c03217 	ldw	r3,200(sp)
 4025e20:	18c00044 	addi	r3,r3,1
 4025e24:	d8c02e15 	stw	r3,184(sp)
 4025e28:	1805883a 	mov	r2,r3
 4025e2c:	183fb20e 	bge	r3,zero,4025cf8 <__alt_data_end+0xfffe5cf8>
 4025e30:	0005883a 	mov	r2,zero
 4025e34:	003fb006 	br	4025cf8 <__alt_data_end+0xfffe5cf8>
 4025e38:	d9003617 	ldw	r4,216(sp)
 4025e3c:	000d883a 	mov	r6,zero
 4025e40:	000f883a 	mov	r7,zero
 4025e44:	980b883a 	mov	r5,r19
 4025e48:	d8c03c15 	stw	r3,240(sp)
 4025e4c:	da003d15 	stw	r8,244(sp)
 4025e50:	402f1e40 	call	402f1e4 <__eqdf2>
 4025e54:	d8c03c17 	ldw	r3,240(sp)
 4025e58:	da003d17 	ldw	r8,244(sp)
 4025e5c:	103f9826 	beq	r2,zero,4025cc0 <__alt_data_end+0xfffe5cc0>
 4025e60:	00800044 	movi	r2,1
 4025e64:	10c7c83a 	sub	r3,r2,r3
 4025e68:	d8c02615 	stw	r3,152(sp)
 4025e6c:	003f9506 	br	4025cc4 <__alt_data_end+0xfffe5cc4>
 4025e70:	d9002917 	ldw	r4,164(sp)
 4025e74:	d8c03217 	ldw	r3,200(sp)
 4025e78:	20800044 	addi	r2,r4,1
 4025e7c:	1885883a 	add	r2,r3,r2
 4025e80:	d8802e15 	stw	r2,184(sp)
 4025e84:	103dbf0e 	bge	r2,zero,4025584 <__alt_data_end+0xfffe5584>
 4025e88:	0005883a 	mov	r2,zero
 4025e8c:	003dbd06 	br	4025584 <__alt_data_end+0xfffe5584>
 4025e90:	2000211e 	bne	r4,zero,4025f18 <___vfprintf_internal_r+0x2168>
 4025e94:	9480004c 	andi	r18,r18,1
 4025e98:	90001f1e 	bne	r18,zero,4025f18 <___vfprintf_internal_r+0x2168>
 4025e9c:	00800044 	movi	r2,1
 4025ea0:	d8802e15 	stw	r2,184(sp)
 4025ea4:	003db706 	br	4025584 <__alt_data_end+0xfffe5584>
 4025ea8:	00800b44 	movi	r2,45
 4025eac:	05adc83a 	sub	r22,zero,r22
 4025eb0:	d8802305 	stb	r2,140(sp)
 4025eb4:	003f3f06 	br	4025bb4 <__alt_data_end+0xfffe5bb4>
 4025eb8:	0005883a 	mov	r2,zero
 4025ebc:	003f5206 	br	4025c08 <__alt_data_end+0xfffe5c08>
 4025ec0:	90a4703a 	and	r18,r18,r2
 4025ec4:	903f4e26 	beq	r18,zero,4025c00 <__alt_data_end+0xfffe5c00>
 4025ec8:	003f4a06 	br	4025bf4 <__alt_data_end+0xfffe5bf4>
 4025ecc:	00800084 	movi	r2,2
 4025ed0:	10c5c83a 	sub	r2,r2,r3
 4025ed4:	003f8406 	br	4025ce8 <__alt_data_end+0xfffe5ce8>
 4025ed8:	d8802d17 	ldw	r2,180(sp)
 4025edc:	d9002d17 	ldw	r4,180(sp)
 4025ee0:	ac400043 	ldbu	r17,1(r21)
 4025ee4:	10800017 	ldw	r2,0(r2)
 4025ee8:	582b883a 	mov	r21,r11
 4025eec:	d8802915 	stw	r2,164(sp)
 4025ef0:	20800104 	addi	r2,r4,4
 4025ef4:	d9002917 	ldw	r4,164(sp)
 4025ef8:	d8802d15 	stw	r2,180(sp)
 4025efc:	203e7a0e 	bge	r4,zero,40258e8 <__alt_data_end+0xfffe58e8>
 4025f00:	8c403fcc 	andi	r17,r17,255
 4025f04:	00bfffc4 	movi	r2,-1
 4025f08:	8c40201c 	xori	r17,r17,128
 4025f0c:	d8802915 	stw	r2,164(sp)
 4025f10:	8c7fe004 	addi	r17,r17,-128
 4025f14:	00380706 	br	4023f34 <__alt_data_end+0xfffe3f34>
 4025f18:	d8c02917 	ldw	r3,164(sp)
 4025f1c:	18c00084 	addi	r3,r3,2
 4025f20:	d8c02e15 	stw	r3,184(sp)
 4025f24:	1805883a 	mov	r2,r3
 4025f28:	183d960e 	bge	r3,zero,4025584 <__alt_data_end+0xfffe5584>
 4025f2c:	003fd606 	br	4025e88 <__alt_data_end+0xfffe5e88>
 4025f30:	0005883a 	mov	r2,zero
 4025f34:	003f8e06 	br	4025d70 <__alt_data_end+0xfffe5d70>
 4025f38:	9080004c 	andi	r2,r18,1
 4025f3c:	103f811e 	bne	r2,zero,4025d44 <__alt_data_end+0xfffe5d44>
 4025f40:	d8802117 	ldw	r2,132(sp)
 4025f44:	1405c83a 	sub	r2,r2,r16
 4025f48:	d8803315 	stw	r2,204(sp)
 4025f4c:	b47ef326 	beq	r22,r17,4025b1c <__alt_data_end+0xfffe5b1c>
 4025f50:	dd802617 	ldw	r22,152(sp)
 4025f54:	003f1106 	br	4025b9c <__alt_data_end+0xfffe5b9c>
 4025f58:	d9c02785 	stb	r7,158(sp)
 4025f5c:	00390406 	br	4024370 <__alt_data_end+0xfffe4370>
 4025f60:	d9c02785 	stb	r7,158(sp)
 4025f64:	0038d306 	br	40242b4 <__alt_data_end+0xfffe42b4>
 4025f68:	d9c02785 	stb	r7,158(sp)
 4025f6c:	003a6106 	br	40248f4 <__alt_data_end+0xfffe48f4>
 4025f70:	d9c02785 	stb	r7,158(sp)
 4025f74:	003af806 	br	4024b58 <__alt_data_end+0xfffe4b58>
 4025f78:	0005883a 	mov	r2,zero
 4025f7c:	003d7e06 	br	4025578 <__alt_data_end+0xfffe5578>
 4025f80:	d8802344 	addi	r2,sp,141
 4025f84:	003f1306 	br	4025bd4 <__alt_data_end+0xfffe5bd4>
 4025f88:	d9c02785 	stb	r7,158(sp)
 4025f8c:	00392306 	br	402441c <__alt_data_end+0xfffe441c>
 4025f90:	d9c02785 	stb	r7,158(sp)
 4025f94:	003aa906 	br	4024a3c <__alt_data_end+0xfffe4a3c>
 4025f98:	d9c02785 	stb	r7,158(sp)
 4025f9c:	003a3d06 	br	4024894 <__alt_data_end+0xfffe4894>
 4025fa0:	d9c02785 	stb	r7,158(sp)
 4025fa4:	003aca06 	br	4024ad0 <__alt_data_end+0xfffe4ad0>

04025fa8 <__vfprintf_internal>:
 4025fa8:	008100f4 	movhi	r2,1027
 4025fac:	108c1e04 	addi	r2,r2,12408
 4025fb0:	300f883a 	mov	r7,r6
 4025fb4:	280d883a 	mov	r6,r5
 4025fb8:	200b883a 	mov	r5,r4
 4025fbc:	11000017 	ldw	r4,0(r2)
 4025fc0:	4023db01 	jmpi	4023db0 <___vfprintf_internal_r>

04025fc4 <__sbprintf>:
 4025fc4:	2880030b 	ldhu	r2,12(r5)
 4025fc8:	2ac01917 	ldw	r11,100(r5)
 4025fcc:	2a80038b 	ldhu	r10,14(r5)
 4025fd0:	2a400717 	ldw	r9,28(r5)
 4025fd4:	2a000917 	ldw	r8,36(r5)
 4025fd8:	defee204 	addi	sp,sp,-1144
 4025fdc:	00c10004 	movi	r3,1024
 4025fe0:	dc011a15 	stw	r16,1128(sp)
 4025fe4:	10bfff4c 	andi	r2,r2,65533
 4025fe8:	2821883a 	mov	r16,r5
 4025fec:	d8cb883a 	add	r5,sp,r3
 4025ff0:	dc811c15 	stw	r18,1136(sp)
 4025ff4:	dc411b15 	stw	r17,1132(sp)
 4025ff8:	dfc11d15 	stw	ra,1140(sp)
 4025ffc:	2025883a 	mov	r18,r4
 4026000:	d881030d 	sth	r2,1036(sp)
 4026004:	dac11915 	stw	r11,1124(sp)
 4026008:	da81038d 	sth	r10,1038(sp)
 402600c:	da410715 	stw	r9,1052(sp)
 4026010:	da010915 	stw	r8,1060(sp)
 4026014:	dec10015 	stw	sp,1024(sp)
 4026018:	dec10415 	stw	sp,1040(sp)
 402601c:	d8c10215 	stw	r3,1032(sp)
 4026020:	d8c10515 	stw	r3,1044(sp)
 4026024:	d8010615 	stw	zero,1048(sp)
 4026028:	4023db00 	call	4023db0 <___vfprintf_internal_r>
 402602c:	1023883a 	mov	r17,r2
 4026030:	10000416 	blt	r2,zero,4026044 <__sbprintf+0x80>
 4026034:	d9410004 	addi	r5,sp,1024
 4026038:	9009883a 	mov	r4,r18
 402603c:	40280680 	call	4028068 <_fflush_r>
 4026040:	10000d1e 	bne	r2,zero,4026078 <__sbprintf+0xb4>
 4026044:	d881030b 	ldhu	r2,1036(sp)
 4026048:	1080100c 	andi	r2,r2,64
 402604c:	10000326 	beq	r2,zero,402605c <__sbprintf+0x98>
 4026050:	8080030b 	ldhu	r2,12(r16)
 4026054:	10801014 	ori	r2,r2,64
 4026058:	8080030d 	sth	r2,12(r16)
 402605c:	8805883a 	mov	r2,r17
 4026060:	dfc11d17 	ldw	ra,1140(sp)
 4026064:	dc811c17 	ldw	r18,1136(sp)
 4026068:	dc411b17 	ldw	r17,1132(sp)
 402606c:	dc011a17 	ldw	r16,1128(sp)
 4026070:	dec11e04 	addi	sp,sp,1144
 4026074:	f800283a 	ret
 4026078:	047fffc4 	movi	r17,-1
 402607c:	003ff106 	br	4026044 <__alt_data_end+0xfffe6044>

04026080 <__swbuf_r>:
 4026080:	defffb04 	addi	sp,sp,-20
 4026084:	dcc00315 	stw	r19,12(sp)
 4026088:	dc800215 	stw	r18,8(sp)
 402608c:	dc000015 	stw	r16,0(sp)
 4026090:	dfc00415 	stw	ra,16(sp)
 4026094:	dc400115 	stw	r17,4(sp)
 4026098:	2025883a 	mov	r18,r4
 402609c:	2827883a 	mov	r19,r5
 40260a0:	3021883a 	mov	r16,r6
 40260a4:	20000226 	beq	r4,zero,40260b0 <__swbuf_r+0x30>
 40260a8:	20800e17 	ldw	r2,56(r4)
 40260ac:	10004226 	beq	r2,zero,40261b8 <__swbuf_r+0x138>
 40260b0:	80800617 	ldw	r2,24(r16)
 40260b4:	8100030b 	ldhu	r4,12(r16)
 40260b8:	80800215 	stw	r2,8(r16)
 40260bc:	2080020c 	andi	r2,r4,8
 40260c0:	10003626 	beq	r2,zero,402619c <__swbuf_r+0x11c>
 40260c4:	80c00417 	ldw	r3,16(r16)
 40260c8:	18003426 	beq	r3,zero,402619c <__swbuf_r+0x11c>
 40260cc:	2088000c 	andi	r2,r4,8192
 40260d0:	9c403fcc 	andi	r17,r19,255
 40260d4:	10001a26 	beq	r2,zero,4026140 <__swbuf_r+0xc0>
 40260d8:	80800017 	ldw	r2,0(r16)
 40260dc:	81000517 	ldw	r4,20(r16)
 40260e0:	10c7c83a 	sub	r3,r2,r3
 40260e4:	1900200e 	bge	r3,r4,4026168 <__swbuf_r+0xe8>
 40260e8:	18c00044 	addi	r3,r3,1
 40260ec:	81000217 	ldw	r4,8(r16)
 40260f0:	11400044 	addi	r5,r2,1
 40260f4:	81400015 	stw	r5,0(r16)
 40260f8:	213fffc4 	addi	r4,r4,-1
 40260fc:	81000215 	stw	r4,8(r16)
 4026100:	14c00005 	stb	r19,0(r2)
 4026104:	80800517 	ldw	r2,20(r16)
 4026108:	10c01e26 	beq	r2,r3,4026184 <__swbuf_r+0x104>
 402610c:	8080030b 	ldhu	r2,12(r16)
 4026110:	1080004c 	andi	r2,r2,1
 4026114:	10000226 	beq	r2,zero,4026120 <__swbuf_r+0xa0>
 4026118:	00800284 	movi	r2,10
 402611c:	88801926 	beq	r17,r2,4026184 <__swbuf_r+0x104>
 4026120:	8805883a 	mov	r2,r17
 4026124:	dfc00417 	ldw	ra,16(sp)
 4026128:	dcc00317 	ldw	r19,12(sp)
 402612c:	dc800217 	ldw	r18,8(sp)
 4026130:	dc400117 	ldw	r17,4(sp)
 4026134:	dc000017 	ldw	r16,0(sp)
 4026138:	dec00504 	addi	sp,sp,20
 402613c:	f800283a 	ret
 4026140:	81401917 	ldw	r5,100(r16)
 4026144:	00b7ffc4 	movi	r2,-8193
 4026148:	21080014 	ori	r4,r4,8192
 402614c:	2884703a 	and	r2,r5,r2
 4026150:	80801915 	stw	r2,100(r16)
 4026154:	80800017 	ldw	r2,0(r16)
 4026158:	8100030d 	sth	r4,12(r16)
 402615c:	81000517 	ldw	r4,20(r16)
 4026160:	10c7c83a 	sub	r3,r2,r3
 4026164:	193fe016 	blt	r3,r4,40260e8 <__alt_data_end+0xfffe60e8>
 4026168:	800b883a 	mov	r5,r16
 402616c:	9009883a 	mov	r4,r18
 4026170:	40280680 	call	4028068 <_fflush_r>
 4026174:	1000071e 	bne	r2,zero,4026194 <__swbuf_r+0x114>
 4026178:	80800017 	ldw	r2,0(r16)
 402617c:	00c00044 	movi	r3,1
 4026180:	003fda06 	br	40260ec <__alt_data_end+0xfffe60ec>
 4026184:	800b883a 	mov	r5,r16
 4026188:	9009883a 	mov	r4,r18
 402618c:	40280680 	call	4028068 <_fflush_r>
 4026190:	103fe326 	beq	r2,zero,4026120 <__alt_data_end+0xfffe6120>
 4026194:	00bfffc4 	movi	r2,-1
 4026198:	003fe206 	br	4026124 <__alt_data_end+0xfffe6124>
 402619c:	800b883a 	mov	r5,r16
 40261a0:	9009883a 	mov	r4,r18
 40261a4:	40261d80 	call	40261d8 <__swsetup_r>
 40261a8:	103ffa1e 	bne	r2,zero,4026194 <__alt_data_end+0xfffe6194>
 40261ac:	8100030b 	ldhu	r4,12(r16)
 40261b0:	80c00417 	ldw	r3,16(r16)
 40261b4:	003fc506 	br	40260cc <__alt_data_end+0xfffe60cc>
 40261b8:	40284440 	call	4028444 <__sinit>
 40261bc:	003fbc06 	br	40260b0 <__alt_data_end+0xfffe60b0>

040261c0 <__swbuf>:
 40261c0:	008100f4 	movhi	r2,1027
 40261c4:	108c1e04 	addi	r2,r2,12408
 40261c8:	280d883a 	mov	r6,r5
 40261cc:	200b883a 	mov	r5,r4
 40261d0:	11000017 	ldw	r4,0(r2)
 40261d4:	40260801 	jmpi	4026080 <__swbuf_r>

040261d8 <__swsetup_r>:
 40261d8:	008100f4 	movhi	r2,1027
 40261dc:	defffd04 	addi	sp,sp,-12
 40261e0:	108c1e04 	addi	r2,r2,12408
 40261e4:	dc400115 	stw	r17,4(sp)
 40261e8:	2023883a 	mov	r17,r4
 40261ec:	11000017 	ldw	r4,0(r2)
 40261f0:	dc000015 	stw	r16,0(sp)
 40261f4:	dfc00215 	stw	ra,8(sp)
 40261f8:	2821883a 	mov	r16,r5
 40261fc:	20000226 	beq	r4,zero,4026208 <__swsetup_r+0x30>
 4026200:	20800e17 	ldw	r2,56(r4)
 4026204:	10003126 	beq	r2,zero,40262cc <__swsetup_r+0xf4>
 4026208:	8080030b 	ldhu	r2,12(r16)
 402620c:	10c0020c 	andi	r3,r2,8
 4026210:	1009883a 	mov	r4,r2
 4026214:	18000f26 	beq	r3,zero,4026254 <__swsetup_r+0x7c>
 4026218:	80c00417 	ldw	r3,16(r16)
 402621c:	18001526 	beq	r3,zero,4026274 <__swsetup_r+0x9c>
 4026220:	1100004c 	andi	r4,r2,1
 4026224:	20001c1e 	bne	r4,zero,4026298 <__swsetup_r+0xc0>
 4026228:	1080008c 	andi	r2,r2,2
 402622c:	1000291e 	bne	r2,zero,40262d4 <__swsetup_r+0xfc>
 4026230:	80800517 	ldw	r2,20(r16)
 4026234:	80800215 	stw	r2,8(r16)
 4026238:	18001c26 	beq	r3,zero,40262ac <__swsetup_r+0xd4>
 402623c:	0005883a 	mov	r2,zero
 4026240:	dfc00217 	ldw	ra,8(sp)
 4026244:	dc400117 	ldw	r17,4(sp)
 4026248:	dc000017 	ldw	r16,0(sp)
 402624c:	dec00304 	addi	sp,sp,12
 4026250:	f800283a 	ret
 4026254:	2080040c 	andi	r2,r4,16
 4026258:	10002e26 	beq	r2,zero,4026314 <__swsetup_r+0x13c>
 402625c:	2080010c 	andi	r2,r4,4
 4026260:	10001e1e 	bne	r2,zero,40262dc <__swsetup_r+0x104>
 4026264:	80c00417 	ldw	r3,16(r16)
 4026268:	20800214 	ori	r2,r4,8
 402626c:	8080030d 	sth	r2,12(r16)
 4026270:	183feb1e 	bne	r3,zero,4026220 <__alt_data_end+0xfffe6220>
 4026274:	1100a00c 	andi	r4,r2,640
 4026278:	01408004 	movi	r5,512
 402627c:	217fe826 	beq	r4,r5,4026220 <__alt_data_end+0xfffe6220>
 4026280:	800b883a 	mov	r5,r16
 4026284:	8809883a 	mov	r4,r17
 4026288:	4028b2c0 	call	4028b2c <__smakebuf_r>
 402628c:	8080030b 	ldhu	r2,12(r16)
 4026290:	80c00417 	ldw	r3,16(r16)
 4026294:	003fe206 	br	4026220 <__alt_data_end+0xfffe6220>
 4026298:	80800517 	ldw	r2,20(r16)
 402629c:	80000215 	stw	zero,8(r16)
 40262a0:	0085c83a 	sub	r2,zero,r2
 40262a4:	80800615 	stw	r2,24(r16)
 40262a8:	183fe41e 	bne	r3,zero,402623c <__alt_data_end+0xfffe623c>
 40262ac:	80c0030b 	ldhu	r3,12(r16)
 40262b0:	0005883a 	mov	r2,zero
 40262b4:	1900200c 	andi	r4,r3,128
 40262b8:	203fe126 	beq	r4,zero,4026240 <__alt_data_end+0xfffe6240>
 40262bc:	18c01014 	ori	r3,r3,64
 40262c0:	80c0030d 	sth	r3,12(r16)
 40262c4:	00bfffc4 	movi	r2,-1
 40262c8:	003fdd06 	br	4026240 <__alt_data_end+0xfffe6240>
 40262cc:	40284440 	call	4028444 <__sinit>
 40262d0:	003fcd06 	br	4026208 <__alt_data_end+0xfffe6208>
 40262d4:	0005883a 	mov	r2,zero
 40262d8:	003fd606 	br	4026234 <__alt_data_end+0xfffe6234>
 40262dc:	81400c17 	ldw	r5,48(r16)
 40262e0:	28000626 	beq	r5,zero,40262fc <__swsetup_r+0x124>
 40262e4:	80801004 	addi	r2,r16,64
 40262e8:	28800326 	beq	r5,r2,40262f8 <__swsetup_r+0x120>
 40262ec:	8809883a 	mov	r4,r17
 40262f0:	40285b80 	call	40285b8 <_free_r>
 40262f4:	8100030b 	ldhu	r4,12(r16)
 40262f8:	80000c15 	stw	zero,48(r16)
 40262fc:	80c00417 	ldw	r3,16(r16)
 4026300:	00bff6c4 	movi	r2,-37
 4026304:	1108703a 	and	r4,r2,r4
 4026308:	80000115 	stw	zero,4(r16)
 402630c:	80c00015 	stw	r3,0(r16)
 4026310:	003fd506 	br	4026268 <__alt_data_end+0xfffe6268>
 4026314:	00800244 	movi	r2,9
 4026318:	88800015 	stw	r2,0(r17)
 402631c:	20801014 	ori	r2,r4,64
 4026320:	8080030d 	sth	r2,12(r16)
 4026324:	00bfffc4 	movi	r2,-1
 4026328:	003fc506 	br	4026240 <__alt_data_end+0xfffe6240>

0402632c <__register_exitproc>:
 402632c:	defffa04 	addi	sp,sp,-24
 4026330:	dc000315 	stw	r16,12(sp)
 4026334:	040100f4 	movhi	r16,1027
 4026338:	840c1d04 	addi	r16,r16,12404
 402633c:	80c00017 	ldw	r3,0(r16)
 4026340:	dc400415 	stw	r17,16(sp)
 4026344:	dfc00515 	stw	ra,20(sp)
 4026348:	18805217 	ldw	r2,328(r3)
 402634c:	2023883a 	mov	r17,r4
 4026350:	10003726 	beq	r2,zero,4026430 <__register_exitproc+0x104>
 4026354:	10c00117 	ldw	r3,4(r2)
 4026358:	010007c4 	movi	r4,31
 402635c:	20c00e16 	blt	r4,r3,4026398 <__register_exitproc+0x6c>
 4026360:	1a000044 	addi	r8,r3,1
 4026364:	8800221e 	bne	r17,zero,40263f0 <__register_exitproc+0xc4>
 4026368:	18c00084 	addi	r3,r3,2
 402636c:	18c7883a 	add	r3,r3,r3
 4026370:	18c7883a 	add	r3,r3,r3
 4026374:	12000115 	stw	r8,4(r2)
 4026378:	10c7883a 	add	r3,r2,r3
 402637c:	19400015 	stw	r5,0(r3)
 4026380:	0005883a 	mov	r2,zero
 4026384:	dfc00517 	ldw	ra,20(sp)
 4026388:	dc400417 	ldw	r17,16(sp)
 402638c:	dc000317 	ldw	r16,12(sp)
 4026390:	dec00604 	addi	sp,sp,24
 4026394:	f800283a 	ret
 4026398:	00800034 	movhi	r2,0
 402639c:	10800004 	addi	r2,r2,0
 40263a0:	10002626 	beq	r2,zero,402643c <__register_exitproc+0x110>
 40263a4:	01006404 	movi	r4,400
 40263a8:	d9400015 	stw	r5,0(sp)
 40263ac:	d9800115 	stw	r6,4(sp)
 40263b0:	d9c00215 	stw	r7,8(sp)
 40263b4:	00000000 	call	0 <__alt_mem_sdram_controller_2>
 40263b8:	d9400017 	ldw	r5,0(sp)
 40263bc:	d9800117 	ldw	r6,4(sp)
 40263c0:	d9c00217 	ldw	r7,8(sp)
 40263c4:	10001d26 	beq	r2,zero,402643c <__register_exitproc+0x110>
 40263c8:	81000017 	ldw	r4,0(r16)
 40263cc:	10000115 	stw	zero,4(r2)
 40263d0:	02000044 	movi	r8,1
 40263d4:	22405217 	ldw	r9,328(r4)
 40263d8:	0007883a 	mov	r3,zero
 40263dc:	12400015 	stw	r9,0(r2)
 40263e0:	20805215 	stw	r2,328(r4)
 40263e4:	10006215 	stw	zero,392(r2)
 40263e8:	10006315 	stw	zero,396(r2)
 40263ec:	883fde26 	beq	r17,zero,4026368 <__alt_data_end+0xfffe6368>
 40263f0:	18c9883a 	add	r4,r3,r3
 40263f4:	2109883a 	add	r4,r4,r4
 40263f8:	1109883a 	add	r4,r2,r4
 40263fc:	21802215 	stw	r6,136(r4)
 4026400:	01800044 	movi	r6,1
 4026404:	12406217 	ldw	r9,392(r2)
 4026408:	30cc983a 	sll	r6,r6,r3
 402640c:	4992b03a 	or	r9,r9,r6
 4026410:	12406215 	stw	r9,392(r2)
 4026414:	21c04215 	stw	r7,264(r4)
 4026418:	01000084 	movi	r4,2
 402641c:	893fd21e 	bne	r17,r4,4026368 <__alt_data_end+0xfffe6368>
 4026420:	11006317 	ldw	r4,396(r2)
 4026424:	218cb03a 	or	r6,r4,r6
 4026428:	11806315 	stw	r6,396(r2)
 402642c:	003fce06 	br	4026368 <__alt_data_end+0xfffe6368>
 4026430:	18805304 	addi	r2,r3,332
 4026434:	18805215 	stw	r2,328(r3)
 4026438:	003fc606 	br	4026354 <__alt_data_end+0xfffe6354>
 402643c:	00bfffc4 	movi	r2,-1
 4026440:	003fd006 	br	4026384 <__alt_data_end+0xfffe6384>

04026444 <__call_exitprocs>:
 4026444:	defff504 	addi	sp,sp,-44
 4026448:	df000915 	stw	fp,36(sp)
 402644c:	dd400615 	stw	r21,24(sp)
 4026450:	dc800315 	stw	r18,12(sp)
 4026454:	dfc00a15 	stw	ra,40(sp)
 4026458:	ddc00815 	stw	r23,32(sp)
 402645c:	dd800715 	stw	r22,28(sp)
 4026460:	dd000515 	stw	r20,20(sp)
 4026464:	dcc00415 	stw	r19,16(sp)
 4026468:	dc400215 	stw	r17,8(sp)
 402646c:	dc000115 	stw	r16,4(sp)
 4026470:	d9000015 	stw	r4,0(sp)
 4026474:	2839883a 	mov	fp,r5
 4026478:	04800044 	movi	r18,1
 402647c:	057fffc4 	movi	r21,-1
 4026480:	008100f4 	movhi	r2,1027
 4026484:	108c1d04 	addi	r2,r2,12404
 4026488:	12000017 	ldw	r8,0(r2)
 402648c:	45005217 	ldw	r20,328(r8)
 4026490:	44c05204 	addi	r19,r8,328
 4026494:	a0001c26 	beq	r20,zero,4026508 <__call_exitprocs+0xc4>
 4026498:	a0800117 	ldw	r2,4(r20)
 402649c:	15ffffc4 	addi	r23,r2,-1
 40264a0:	b8000d16 	blt	r23,zero,40264d8 <__call_exitprocs+0x94>
 40264a4:	14000044 	addi	r16,r2,1
 40264a8:	8421883a 	add	r16,r16,r16
 40264ac:	8421883a 	add	r16,r16,r16
 40264b0:	84402004 	addi	r17,r16,128
 40264b4:	a463883a 	add	r17,r20,r17
 40264b8:	a421883a 	add	r16,r20,r16
 40264bc:	e0001e26 	beq	fp,zero,4026538 <__call_exitprocs+0xf4>
 40264c0:	80804017 	ldw	r2,256(r16)
 40264c4:	e0801c26 	beq	fp,r2,4026538 <__call_exitprocs+0xf4>
 40264c8:	bdffffc4 	addi	r23,r23,-1
 40264cc:	843fff04 	addi	r16,r16,-4
 40264d0:	8c7fff04 	addi	r17,r17,-4
 40264d4:	bd7ff91e 	bne	r23,r21,40264bc <__alt_data_end+0xfffe64bc>
 40264d8:	00800034 	movhi	r2,0
 40264dc:	10800004 	addi	r2,r2,0
 40264e0:	10000926 	beq	r2,zero,4026508 <__call_exitprocs+0xc4>
 40264e4:	a0800117 	ldw	r2,4(r20)
 40264e8:	1000301e 	bne	r2,zero,40265ac <__call_exitprocs+0x168>
 40264ec:	a0800017 	ldw	r2,0(r20)
 40264f0:	10003226 	beq	r2,zero,40265bc <__call_exitprocs+0x178>
 40264f4:	a009883a 	mov	r4,r20
 40264f8:	98800015 	stw	r2,0(r19)
 40264fc:	00000000 	call	0 <__alt_mem_sdram_controller_2>
 4026500:	9d000017 	ldw	r20,0(r19)
 4026504:	a03fe41e 	bne	r20,zero,4026498 <__alt_data_end+0xfffe6498>
 4026508:	dfc00a17 	ldw	ra,40(sp)
 402650c:	df000917 	ldw	fp,36(sp)
 4026510:	ddc00817 	ldw	r23,32(sp)
 4026514:	dd800717 	ldw	r22,28(sp)
 4026518:	dd400617 	ldw	r21,24(sp)
 402651c:	dd000517 	ldw	r20,20(sp)
 4026520:	dcc00417 	ldw	r19,16(sp)
 4026524:	dc800317 	ldw	r18,12(sp)
 4026528:	dc400217 	ldw	r17,8(sp)
 402652c:	dc000117 	ldw	r16,4(sp)
 4026530:	dec00b04 	addi	sp,sp,44
 4026534:	f800283a 	ret
 4026538:	a0800117 	ldw	r2,4(r20)
 402653c:	80c00017 	ldw	r3,0(r16)
 4026540:	10bfffc4 	addi	r2,r2,-1
 4026544:	15c01426 	beq	r2,r23,4026598 <__call_exitprocs+0x154>
 4026548:	80000015 	stw	zero,0(r16)
 402654c:	183fde26 	beq	r3,zero,40264c8 <__alt_data_end+0xfffe64c8>
 4026550:	95c8983a 	sll	r4,r18,r23
 4026554:	a0806217 	ldw	r2,392(r20)
 4026558:	a5800117 	ldw	r22,4(r20)
 402655c:	2084703a 	and	r2,r4,r2
 4026560:	10000b26 	beq	r2,zero,4026590 <__call_exitprocs+0x14c>
 4026564:	a0806317 	ldw	r2,396(r20)
 4026568:	2088703a 	and	r4,r4,r2
 402656c:	20000c1e 	bne	r4,zero,40265a0 <__call_exitprocs+0x15c>
 4026570:	89400017 	ldw	r5,0(r17)
 4026574:	d9000017 	ldw	r4,0(sp)
 4026578:	183ee83a 	callr	r3
 402657c:	a0800117 	ldw	r2,4(r20)
 4026580:	15bfbf1e 	bne	r2,r22,4026480 <__alt_data_end+0xfffe6480>
 4026584:	98800017 	ldw	r2,0(r19)
 4026588:	153fcf26 	beq	r2,r20,40264c8 <__alt_data_end+0xfffe64c8>
 402658c:	003fbc06 	br	4026480 <__alt_data_end+0xfffe6480>
 4026590:	183ee83a 	callr	r3
 4026594:	003ff906 	br	402657c <__alt_data_end+0xfffe657c>
 4026598:	a5c00115 	stw	r23,4(r20)
 402659c:	003feb06 	br	402654c <__alt_data_end+0xfffe654c>
 40265a0:	89000017 	ldw	r4,0(r17)
 40265a4:	183ee83a 	callr	r3
 40265a8:	003ff406 	br	402657c <__alt_data_end+0xfffe657c>
 40265ac:	a0800017 	ldw	r2,0(r20)
 40265b0:	a027883a 	mov	r19,r20
 40265b4:	1029883a 	mov	r20,r2
 40265b8:	003fb606 	br	4026494 <__alt_data_end+0xfffe6494>
 40265bc:	0005883a 	mov	r2,zero
 40265c0:	003ffb06 	br	40265b0 <__alt_data_end+0xfffe65b0>

040265c4 <quorem>:
 40265c4:	defff704 	addi	sp,sp,-36
 40265c8:	dc800215 	stw	r18,8(sp)
 40265cc:	20800417 	ldw	r2,16(r4)
 40265d0:	2c800417 	ldw	r18,16(r5)
 40265d4:	dfc00815 	stw	ra,32(sp)
 40265d8:	ddc00715 	stw	r23,28(sp)
 40265dc:	dd800615 	stw	r22,24(sp)
 40265e0:	dd400515 	stw	r21,20(sp)
 40265e4:	dd000415 	stw	r20,16(sp)
 40265e8:	dcc00315 	stw	r19,12(sp)
 40265ec:	dc400115 	stw	r17,4(sp)
 40265f0:	dc000015 	stw	r16,0(sp)
 40265f4:	14807116 	blt	r2,r18,40267bc <quorem+0x1f8>
 40265f8:	94bfffc4 	addi	r18,r18,-1
 40265fc:	94ad883a 	add	r22,r18,r18
 4026600:	b5ad883a 	add	r22,r22,r22
 4026604:	2c400504 	addi	r17,r5,20
 4026608:	8da9883a 	add	r20,r17,r22
 402660c:	25400504 	addi	r21,r4,20
 4026610:	282f883a 	mov	r23,r5
 4026614:	adad883a 	add	r22,r21,r22
 4026618:	a1400017 	ldw	r5,0(r20)
 402661c:	2021883a 	mov	r16,r4
 4026620:	b1000017 	ldw	r4,0(r22)
 4026624:	29400044 	addi	r5,r5,1
 4026628:	402df940 	call	402df94 <__udivsi3>
 402662c:	1027883a 	mov	r19,r2
 4026630:	10002c26 	beq	r2,zero,40266e4 <quorem+0x120>
 4026634:	a813883a 	mov	r9,r21
 4026638:	880b883a 	mov	r5,r17
 402663c:	0009883a 	mov	r4,zero
 4026640:	000d883a 	mov	r6,zero
 4026644:	2a000017 	ldw	r8,0(r5)
 4026648:	49c00017 	ldw	r7,0(r9)
 402664c:	29400104 	addi	r5,r5,4
 4026650:	40bfffcc 	andi	r2,r8,65535
 4026654:	14c5383a 	mul	r2,r2,r19
 4026658:	4010d43a 	srli	r8,r8,16
 402665c:	38ffffcc 	andi	r3,r7,65535
 4026660:	1105883a 	add	r2,r2,r4
 4026664:	1008d43a 	srli	r4,r2,16
 4026668:	44d1383a 	mul	r8,r8,r19
 402666c:	198d883a 	add	r6,r3,r6
 4026670:	10ffffcc 	andi	r3,r2,65535
 4026674:	30c7c83a 	sub	r3,r6,r3
 4026678:	380ed43a 	srli	r7,r7,16
 402667c:	4105883a 	add	r2,r8,r4
 4026680:	180dd43a 	srai	r6,r3,16
 4026684:	113fffcc 	andi	r4,r2,65535
 4026688:	390fc83a 	sub	r7,r7,r4
 402668c:	398d883a 	add	r6,r7,r6
 4026690:	300e943a 	slli	r7,r6,16
 4026694:	18ffffcc 	andi	r3,r3,65535
 4026698:	1008d43a 	srli	r4,r2,16
 402669c:	38ceb03a 	or	r7,r7,r3
 40266a0:	49c00015 	stw	r7,0(r9)
 40266a4:	300dd43a 	srai	r6,r6,16
 40266a8:	4a400104 	addi	r9,r9,4
 40266ac:	a17fe52e 	bgeu	r20,r5,4026644 <__alt_data_end+0xfffe6644>
 40266b0:	b0800017 	ldw	r2,0(r22)
 40266b4:	10000b1e 	bne	r2,zero,40266e4 <quorem+0x120>
 40266b8:	b0bfff04 	addi	r2,r22,-4
 40266bc:	a880082e 	bgeu	r21,r2,40266e0 <quorem+0x11c>
 40266c0:	b0ffff17 	ldw	r3,-4(r22)
 40266c4:	18000326 	beq	r3,zero,40266d4 <quorem+0x110>
 40266c8:	00000506 	br	40266e0 <quorem+0x11c>
 40266cc:	10c00017 	ldw	r3,0(r2)
 40266d0:	1800031e 	bne	r3,zero,40266e0 <quorem+0x11c>
 40266d4:	10bfff04 	addi	r2,r2,-4
 40266d8:	94bfffc4 	addi	r18,r18,-1
 40266dc:	a8bffb36 	bltu	r21,r2,40266cc <__alt_data_end+0xfffe66cc>
 40266e0:	84800415 	stw	r18,16(r16)
 40266e4:	b80b883a 	mov	r5,r23
 40266e8:	8009883a 	mov	r4,r16
 40266ec:	4029fc80 	call	4029fc8 <__mcmp>
 40266f0:	10002616 	blt	r2,zero,402678c <quorem+0x1c8>
 40266f4:	9cc00044 	addi	r19,r19,1
 40266f8:	a805883a 	mov	r2,r21
 40266fc:	000b883a 	mov	r5,zero
 4026700:	11000017 	ldw	r4,0(r2)
 4026704:	89800017 	ldw	r6,0(r17)
 4026708:	10800104 	addi	r2,r2,4
 402670c:	20ffffcc 	andi	r3,r4,65535
 4026710:	194b883a 	add	r5,r3,r5
 4026714:	30ffffcc 	andi	r3,r6,65535
 4026718:	28c7c83a 	sub	r3,r5,r3
 402671c:	300cd43a 	srli	r6,r6,16
 4026720:	2008d43a 	srli	r4,r4,16
 4026724:	180bd43a 	srai	r5,r3,16
 4026728:	18ffffcc 	andi	r3,r3,65535
 402672c:	2189c83a 	sub	r4,r4,r6
 4026730:	2149883a 	add	r4,r4,r5
 4026734:	200c943a 	slli	r6,r4,16
 4026738:	8c400104 	addi	r17,r17,4
 402673c:	200bd43a 	srai	r5,r4,16
 4026740:	30c6b03a 	or	r3,r6,r3
 4026744:	10ffff15 	stw	r3,-4(r2)
 4026748:	a47fed2e 	bgeu	r20,r17,4026700 <__alt_data_end+0xfffe6700>
 402674c:	9485883a 	add	r2,r18,r18
 4026750:	1085883a 	add	r2,r2,r2
 4026754:	a887883a 	add	r3,r21,r2
 4026758:	18800017 	ldw	r2,0(r3)
 402675c:	10000b1e 	bne	r2,zero,402678c <quorem+0x1c8>
 4026760:	18bfff04 	addi	r2,r3,-4
 4026764:	a880082e 	bgeu	r21,r2,4026788 <quorem+0x1c4>
 4026768:	18ffff17 	ldw	r3,-4(r3)
 402676c:	18000326 	beq	r3,zero,402677c <quorem+0x1b8>
 4026770:	00000506 	br	4026788 <quorem+0x1c4>
 4026774:	10c00017 	ldw	r3,0(r2)
 4026778:	1800031e 	bne	r3,zero,4026788 <quorem+0x1c4>
 402677c:	10bfff04 	addi	r2,r2,-4
 4026780:	94bfffc4 	addi	r18,r18,-1
 4026784:	a8bffb36 	bltu	r21,r2,4026774 <__alt_data_end+0xfffe6774>
 4026788:	84800415 	stw	r18,16(r16)
 402678c:	9805883a 	mov	r2,r19
 4026790:	dfc00817 	ldw	ra,32(sp)
 4026794:	ddc00717 	ldw	r23,28(sp)
 4026798:	dd800617 	ldw	r22,24(sp)
 402679c:	dd400517 	ldw	r21,20(sp)
 40267a0:	dd000417 	ldw	r20,16(sp)
 40267a4:	dcc00317 	ldw	r19,12(sp)
 40267a8:	dc800217 	ldw	r18,8(sp)
 40267ac:	dc400117 	ldw	r17,4(sp)
 40267b0:	dc000017 	ldw	r16,0(sp)
 40267b4:	dec00904 	addi	sp,sp,36
 40267b8:	f800283a 	ret
 40267bc:	0005883a 	mov	r2,zero
 40267c0:	003ff306 	br	4026790 <__alt_data_end+0xfffe6790>

040267c4 <_dtoa_r>:
 40267c4:	20801017 	ldw	r2,64(r4)
 40267c8:	deffde04 	addi	sp,sp,-136
 40267cc:	df002015 	stw	fp,128(sp)
 40267d0:	dcc01b15 	stw	r19,108(sp)
 40267d4:	dc801a15 	stw	r18,104(sp)
 40267d8:	dc401915 	stw	r17,100(sp)
 40267dc:	dc001815 	stw	r16,96(sp)
 40267e0:	dfc02115 	stw	ra,132(sp)
 40267e4:	ddc01f15 	stw	r23,124(sp)
 40267e8:	dd801e15 	stw	r22,120(sp)
 40267ec:	dd401d15 	stw	r21,116(sp)
 40267f0:	dd001c15 	stw	r20,112(sp)
 40267f4:	d9c00315 	stw	r7,12(sp)
 40267f8:	2039883a 	mov	fp,r4
 40267fc:	3023883a 	mov	r17,r6
 4026800:	2825883a 	mov	r18,r5
 4026804:	dc002417 	ldw	r16,144(sp)
 4026808:	3027883a 	mov	r19,r6
 402680c:	10000826 	beq	r2,zero,4026830 <_dtoa_r+0x6c>
 4026810:	21801117 	ldw	r6,68(r4)
 4026814:	00c00044 	movi	r3,1
 4026818:	100b883a 	mov	r5,r2
 402681c:	1986983a 	sll	r3,r3,r6
 4026820:	11800115 	stw	r6,4(r2)
 4026824:	10c00215 	stw	r3,8(r2)
 4026828:	40297a80 	call	40297a8 <_Bfree>
 402682c:	e0001015 	stw	zero,64(fp)
 4026830:	88002e16 	blt	r17,zero,40268ec <_dtoa_r+0x128>
 4026834:	80000015 	stw	zero,0(r16)
 4026838:	889ffc2c 	andhi	r2,r17,32752
 402683c:	00dffc34 	movhi	r3,32752
 4026840:	10c01c26 	beq	r2,r3,40268b4 <_dtoa_r+0xf0>
 4026844:	000d883a 	mov	r6,zero
 4026848:	000f883a 	mov	r7,zero
 402684c:	9009883a 	mov	r4,r18
 4026850:	980b883a 	mov	r5,r19
 4026854:	402f1e40 	call	402f1e4 <__eqdf2>
 4026858:	10002b1e 	bne	r2,zero,4026908 <_dtoa_r+0x144>
 402685c:	d9c02317 	ldw	r7,140(sp)
 4026860:	00800044 	movi	r2,1
 4026864:	38800015 	stw	r2,0(r7)
 4026868:	d8802517 	ldw	r2,148(sp)
 402686c:	10019e26 	beq	r2,zero,4026ee8 <_dtoa_r+0x724>
 4026870:	d8c02517 	ldw	r3,148(sp)
 4026874:	008100f4 	movhi	r2,1027
 4026878:	10848c44 	addi	r2,r2,4657
 402687c:	18800015 	stw	r2,0(r3)
 4026880:	10bfffc4 	addi	r2,r2,-1
 4026884:	dfc02117 	ldw	ra,132(sp)
 4026888:	df002017 	ldw	fp,128(sp)
 402688c:	ddc01f17 	ldw	r23,124(sp)
 4026890:	dd801e17 	ldw	r22,120(sp)
 4026894:	dd401d17 	ldw	r21,116(sp)
 4026898:	dd001c17 	ldw	r20,112(sp)
 402689c:	dcc01b17 	ldw	r19,108(sp)
 40268a0:	dc801a17 	ldw	r18,104(sp)
 40268a4:	dc401917 	ldw	r17,100(sp)
 40268a8:	dc001817 	ldw	r16,96(sp)
 40268ac:	dec02204 	addi	sp,sp,136
 40268b0:	f800283a 	ret
 40268b4:	d8c02317 	ldw	r3,140(sp)
 40268b8:	0089c3c4 	movi	r2,9999
 40268bc:	18800015 	stw	r2,0(r3)
 40268c0:	90017726 	beq	r18,zero,4026ea0 <_dtoa_r+0x6dc>
 40268c4:	008100f4 	movhi	r2,1027
 40268c8:	10849804 	addi	r2,r2,4704
 40268cc:	d9002517 	ldw	r4,148(sp)
 40268d0:	203fec26 	beq	r4,zero,4026884 <__alt_data_end+0xfffe6884>
 40268d4:	10c000c7 	ldb	r3,3(r2)
 40268d8:	1801781e 	bne	r3,zero,4026ebc <_dtoa_r+0x6f8>
 40268dc:	10c000c4 	addi	r3,r2,3
 40268e0:	d9802517 	ldw	r6,148(sp)
 40268e4:	30c00015 	stw	r3,0(r6)
 40268e8:	003fe606 	br	4026884 <__alt_data_end+0xfffe6884>
 40268ec:	04e00034 	movhi	r19,32768
 40268f0:	9cffffc4 	addi	r19,r19,-1
 40268f4:	00800044 	movi	r2,1
 40268f8:	8ce6703a 	and	r19,r17,r19
 40268fc:	80800015 	stw	r2,0(r16)
 4026900:	9823883a 	mov	r17,r19
 4026904:	003fcc06 	br	4026838 <__alt_data_end+0xfffe6838>
 4026908:	d8800204 	addi	r2,sp,8
 402690c:	d8800015 	stw	r2,0(sp)
 4026910:	d9c00104 	addi	r7,sp,4
 4026914:	900b883a 	mov	r5,r18
 4026918:	980d883a 	mov	r6,r19
 402691c:	e009883a 	mov	r4,fp
 4026920:	8820d53a 	srli	r16,r17,20
 4026924:	402a3940 	call	402a394 <__d2b>
 4026928:	d8800915 	stw	r2,36(sp)
 402692c:	8001651e 	bne	r16,zero,4026ec4 <_dtoa_r+0x700>
 4026930:	dd800217 	ldw	r22,8(sp)
 4026934:	dc000117 	ldw	r16,4(sp)
 4026938:	00800804 	movi	r2,32
 402693c:	b421883a 	add	r16,r22,r16
 4026940:	80c10c84 	addi	r3,r16,1074
 4026944:	10c2d10e 	bge	r2,r3,402748c <_dtoa_r+0xcc8>
 4026948:	00801004 	movi	r2,64
 402694c:	81010484 	addi	r4,r16,1042
 4026950:	10c7c83a 	sub	r3,r2,r3
 4026954:	9108d83a 	srl	r4,r18,r4
 4026958:	88e2983a 	sll	r17,r17,r3
 402695c:	2448b03a 	or	r4,r4,r17
 4026960:	40305ac0 	call	40305ac <__floatunsidf>
 4026964:	017f8434 	movhi	r5,65040
 4026968:	01800044 	movi	r6,1
 402696c:	1009883a 	mov	r4,r2
 4026970:	194b883a 	add	r5,r3,r5
 4026974:	843fffc4 	addi	r16,r16,-1
 4026978:	d9801115 	stw	r6,68(sp)
 402697c:	000d883a 	mov	r6,zero
 4026980:	01cffe34 	movhi	r7,16376
 4026984:	402fb540 	call	402fb54 <__subdf3>
 4026988:	0198dbf4 	movhi	r6,25455
 402698c:	01cff4f4 	movhi	r7,16339
 4026990:	3190d844 	addi	r6,r6,17249
 4026994:	39e1e9c4 	addi	r7,r7,-30809
 4026998:	1009883a 	mov	r4,r2
 402699c:	180b883a 	mov	r5,r3
 40269a0:	402f43c0 	call	402f43c <__muldf3>
 40269a4:	01a2d874 	movhi	r6,35681
 40269a8:	01cff1f4 	movhi	r7,16327
 40269ac:	31b22cc4 	addi	r6,r6,-14157
 40269b0:	39e28a04 	addi	r7,r7,-30168
 40269b4:	180b883a 	mov	r5,r3
 40269b8:	1009883a 	mov	r4,r2
 40269bc:	402e0500 	call	402e050 <__adddf3>
 40269c0:	8009883a 	mov	r4,r16
 40269c4:	1029883a 	mov	r20,r2
 40269c8:	1823883a 	mov	r17,r3
 40269cc:	40304d00 	call	40304d0 <__floatsidf>
 40269d0:	019427f4 	movhi	r6,20639
 40269d4:	01cff4f4 	movhi	r7,16339
 40269d8:	319e7ec4 	addi	r6,r6,31227
 40269dc:	39d104c4 	addi	r7,r7,17427
 40269e0:	1009883a 	mov	r4,r2
 40269e4:	180b883a 	mov	r5,r3
 40269e8:	402f43c0 	call	402f43c <__muldf3>
 40269ec:	100d883a 	mov	r6,r2
 40269f0:	180f883a 	mov	r7,r3
 40269f4:	a009883a 	mov	r4,r20
 40269f8:	880b883a 	mov	r5,r17
 40269fc:	402e0500 	call	402e050 <__adddf3>
 4026a00:	1009883a 	mov	r4,r2
 4026a04:	180b883a 	mov	r5,r3
 4026a08:	1029883a 	mov	r20,r2
 4026a0c:	1823883a 	mov	r17,r3
 4026a10:	40304500 	call	4030450 <__fixdfsi>
 4026a14:	000d883a 	mov	r6,zero
 4026a18:	000f883a 	mov	r7,zero
 4026a1c:	a009883a 	mov	r4,r20
 4026a20:	880b883a 	mov	r5,r17
 4026a24:	d8800515 	stw	r2,20(sp)
 4026a28:	402f3480 	call	402f348 <__ledf2>
 4026a2c:	10028716 	blt	r2,zero,402744c <_dtoa_r+0xc88>
 4026a30:	d8c00517 	ldw	r3,20(sp)
 4026a34:	00800584 	movi	r2,22
 4026a38:	10c27536 	bltu	r2,r3,4027410 <_dtoa_r+0xc4c>
 4026a3c:	180490fa 	slli	r2,r3,3
 4026a40:	00c100f4 	movhi	r3,1027
 4026a44:	18c4b304 	addi	r3,r3,4812
 4026a48:	1885883a 	add	r2,r3,r2
 4026a4c:	11000017 	ldw	r4,0(r2)
 4026a50:	11400117 	ldw	r5,4(r2)
 4026a54:	900d883a 	mov	r6,r18
 4026a58:	980f883a 	mov	r7,r19
 4026a5c:	402f26c0 	call	402f26c <__gedf2>
 4026a60:	00828d0e 	bge	zero,r2,4027498 <_dtoa_r+0xcd4>
 4026a64:	d9000517 	ldw	r4,20(sp)
 4026a68:	d8000e15 	stw	zero,56(sp)
 4026a6c:	213fffc4 	addi	r4,r4,-1
 4026a70:	d9000515 	stw	r4,20(sp)
 4026a74:	b42dc83a 	sub	r22,r22,r16
 4026a78:	b5bfffc4 	addi	r22,r22,-1
 4026a7c:	b0026f16 	blt	r22,zero,402743c <_dtoa_r+0xc78>
 4026a80:	d8000815 	stw	zero,32(sp)
 4026a84:	d9c00517 	ldw	r7,20(sp)
 4026a88:	38026416 	blt	r7,zero,402741c <_dtoa_r+0xc58>
 4026a8c:	b1ed883a 	add	r22,r22,r7
 4026a90:	d9c00d15 	stw	r7,52(sp)
 4026a94:	d8000a15 	stw	zero,40(sp)
 4026a98:	d9800317 	ldw	r6,12(sp)
 4026a9c:	00800244 	movi	r2,9
 4026aa0:	11811436 	bltu	r2,r6,4026ef4 <_dtoa_r+0x730>
 4026aa4:	00800144 	movi	r2,5
 4026aa8:	1184e10e 	bge	r2,r6,4027e30 <_dtoa_r+0x166c>
 4026aac:	31bfff04 	addi	r6,r6,-4
 4026ab0:	d9800315 	stw	r6,12(sp)
 4026ab4:	0023883a 	mov	r17,zero
 4026ab8:	d9800317 	ldw	r6,12(sp)
 4026abc:	008000c4 	movi	r2,3
 4026ac0:	30836726 	beq	r6,r2,4027860 <_dtoa_r+0x109c>
 4026ac4:	1183410e 	bge	r2,r6,40277cc <_dtoa_r+0x1008>
 4026ac8:	d9c00317 	ldw	r7,12(sp)
 4026acc:	00800104 	movi	r2,4
 4026ad0:	38827c26 	beq	r7,r2,40274c4 <_dtoa_r+0xd00>
 4026ad4:	00800144 	movi	r2,5
 4026ad8:	3884c41e 	bne	r7,r2,4027dec <_dtoa_r+0x1628>
 4026adc:	00800044 	movi	r2,1
 4026ae0:	d8800b15 	stw	r2,44(sp)
 4026ae4:	d8c00517 	ldw	r3,20(sp)
 4026ae8:	d9002217 	ldw	r4,136(sp)
 4026aec:	1907883a 	add	r3,r3,r4
 4026af0:	19800044 	addi	r6,r3,1
 4026af4:	d8c00c15 	stw	r3,48(sp)
 4026af8:	d9800615 	stw	r6,24(sp)
 4026afc:	0183a40e 	bge	zero,r6,4027990 <_dtoa_r+0x11cc>
 4026b00:	d9800617 	ldw	r6,24(sp)
 4026b04:	3021883a 	mov	r16,r6
 4026b08:	e0001115 	stw	zero,68(fp)
 4026b0c:	008005c4 	movi	r2,23
 4026b10:	1184c92e 	bgeu	r2,r6,4027e38 <_dtoa_r+0x1674>
 4026b14:	00c00044 	movi	r3,1
 4026b18:	00800104 	movi	r2,4
 4026b1c:	1085883a 	add	r2,r2,r2
 4026b20:	11000504 	addi	r4,r2,20
 4026b24:	180b883a 	mov	r5,r3
 4026b28:	18c00044 	addi	r3,r3,1
 4026b2c:	313ffb2e 	bgeu	r6,r4,4026b1c <__alt_data_end+0xfffe6b1c>
 4026b30:	e1401115 	stw	r5,68(fp)
 4026b34:	e009883a 	mov	r4,fp
 4026b38:	40297000 	call	4029700 <_Balloc>
 4026b3c:	d8800715 	stw	r2,28(sp)
 4026b40:	e0801015 	stw	r2,64(fp)
 4026b44:	00800384 	movi	r2,14
 4026b48:	1400f736 	bltu	r2,r16,4026f28 <_dtoa_r+0x764>
 4026b4c:	8800f626 	beq	r17,zero,4026f28 <_dtoa_r+0x764>
 4026b50:	d9c00517 	ldw	r7,20(sp)
 4026b54:	01c39a0e 	bge	zero,r7,40279c0 <_dtoa_r+0x11fc>
 4026b58:	388003cc 	andi	r2,r7,15
 4026b5c:	100490fa 	slli	r2,r2,3
 4026b60:	382bd13a 	srai	r21,r7,4
 4026b64:	00c100f4 	movhi	r3,1027
 4026b68:	18c4b304 	addi	r3,r3,4812
 4026b6c:	1885883a 	add	r2,r3,r2
 4026b70:	a8c0040c 	andi	r3,r21,16
 4026b74:	12400017 	ldw	r9,0(r2)
 4026b78:	12000117 	ldw	r8,4(r2)
 4026b7c:	18037926 	beq	r3,zero,4027964 <_dtoa_r+0x11a0>
 4026b80:	008100f4 	movhi	r2,1027
 4026b84:	1084a904 	addi	r2,r2,4772
 4026b88:	11800817 	ldw	r6,32(r2)
 4026b8c:	11c00917 	ldw	r7,36(r2)
 4026b90:	9009883a 	mov	r4,r18
 4026b94:	980b883a 	mov	r5,r19
 4026b98:	da001715 	stw	r8,92(sp)
 4026b9c:	da401615 	stw	r9,88(sp)
 4026ba0:	402e8fc0 	call	402e8fc <__divdf3>
 4026ba4:	da001717 	ldw	r8,92(sp)
 4026ba8:	da401617 	ldw	r9,88(sp)
 4026bac:	ad4003cc 	andi	r21,r21,15
 4026bb0:	040000c4 	movi	r16,3
 4026bb4:	1023883a 	mov	r17,r2
 4026bb8:	1829883a 	mov	r20,r3
 4026bbc:	a8001126 	beq	r21,zero,4026c04 <_dtoa_r+0x440>
 4026bc0:	05c100f4 	movhi	r23,1027
 4026bc4:	bdc4a904 	addi	r23,r23,4772
 4026bc8:	4805883a 	mov	r2,r9
 4026bcc:	4007883a 	mov	r3,r8
 4026bd0:	a980004c 	andi	r6,r21,1
 4026bd4:	1009883a 	mov	r4,r2
 4026bd8:	a82bd07a 	srai	r21,r21,1
 4026bdc:	180b883a 	mov	r5,r3
 4026be0:	30000426 	beq	r6,zero,4026bf4 <_dtoa_r+0x430>
 4026be4:	b9800017 	ldw	r6,0(r23)
 4026be8:	b9c00117 	ldw	r7,4(r23)
 4026bec:	84000044 	addi	r16,r16,1
 4026bf0:	402f43c0 	call	402f43c <__muldf3>
 4026bf4:	bdc00204 	addi	r23,r23,8
 4026bf8:	a83ff51e 	bne	r21,zero,4026bd0 <__alt_data_end+0xfffe6bd0>
 4026bfc:	1013883a 	mov	r9,r2
 4026c00:	1811883a 	mov	r8,r3
 4026c04:	480d883a 	mov	r6,r9
 4026c08:	400f883a 	mov	r7,r8
 4026c0c:	8809883a 	mov	r4,r17
 4026c10:	a00b883a 	mov	r5,r20
 4026c14:	402e8fc0 	call	402e8fc <__divdf3>
 4026c18:	d8800f15 	stw	r2,60(sp)
 4026c1c:	d8c01015 	stw	r3,64(sp)
 4026c20:	d8c00e17 	ldw	r3,56(sp)
 4026c24:	18000626 	beq	r3,zero,4026c40 <_dtoa_r+0x47c>
 4026c28:	d9000f17 	ldw	r4,60(sp)
 4026c2c:	d9401017 	ldw	r5,64(sp)
 4026c30:	000d883a 	mov	r6,zero
 4026c34:	01cffc34 	movhi	r7,16368
 4026c38:	402f3480 	call	402f348 <__ledf2>
 4026c3c:	10040b16 	blt	r2,zero,4027c6c <_dtoa_r+0x14a8>
 4026c40:	8009883a 	mov	r4,r16
 4026c44:	40304d00 	call	40304d0 <__floatsidf>
 4026c48:	d9800f17 	ldw	r6,60(sp)
 4026c4c:	d9c01017 	ldw	r7,64(sp)
 4026c50:	1009883a 	mov	r4,r2
 4026c54:	180b883a 	mov	r5,r3
 4026c58:	402f43c0 	call	402f43c <__muldf3>
 4026c5c:	000d883a 	mov	r6,zero
 4026c60:	01d00734 	movhi	r7,16412
 4026c64:	1009883a 	mov	r4,r2
 4026c68:	180b883a 	mov	r5,r3
 4026c6c:	402e0500 	call	402e050 <__adddf3>
 4026c70:	1021883a 	mov	r16,r2
 4026c74:	d8800617 	ldw	r2,24(sp)
 4026c78:	047f3034 	movhi	r17,64704
 4026c7c:	1c63883a 	add	r17,r3,r17
 4026c80:	10031826 	beq	r2,zero,40278e4 <_dtoa_r+0x1120>
 4026c84:	d8c00517 	ldw	r3,20(sp)
 4026c88:	db000617 	ldw	r12,24(sp)
 4026c8c:	d8c01315 	stw	r3,76(sp)
 4026c90:	d9000b17 	ldw	r4,44(sp)
 4026c94:	20038f26 	beq	r4,zero,4027ad4 <_dtoa_r+0x1310>
 4026c98:	60bfffc4 	addi	r2,r12,-1
 4026c9c:	100490fa 	slli	r2,r2,3
 4026ca0:	00c100f4 	movhi	r3,1027
 4026ca4:	18c4b304 	addi	r3,r3,4812
 4026ca8:	1885883a 	add	r2,r3,r2
 4026cac:	11800017 	ldw	r6,0(r2)
 4026cb0:	11c00117 	ldw	r7,4(r2)
 4026cb4:	d8800717 	ldw	r2,28(sp)
 4026cb8:	0009883a 	mov	r4,zero
 4026cbc:	014ff834 	movhi	r5,16352
 4026cc0:	db001615 	stw	r12,88(sp)
 4026cc4:	15c00044 	addi	r23,r2,1
 4026cc8:	402e8fc0 	call	402e8fc <__divdf3>
 4026ccc:	800d883a 	mov	r6,r16
 4026cd0:	880f883a 	mov	r7,r17
 4026cd4:	1009883a 	mov	r4,r2
 4026cd8:	180b883a 	mov	r5,r3
 4026cdc:	402fb540 	call	402fb54 <__subdf3>
 4026ce0:	d9401017 	ldw	r5,64(sp)
 4026ce4:	d9000f17 	ldw	r4,60(sp)
 4026ce8:	102b883a 	mov	r21,r2
 4026cec:	d8c01215 	stw	r3,72(sp)
 4026cf0:	40304500 	call	4030450 <__fixdfsi>
 4026cf4:	1009883a 	mov	r4,r2
 4026cf8:	1029883a 	mov	r20,r2
 4026cfc:	40304d00 	call	40304d0 <__floatsidf>
 4026d00:	d9000f17 	ldw	r4,60(sp)
 4026d04:	d9401017 	ldw	r5,64(sp)
 4026d08:	100d883a 	mov	r6,r2
 4026d0c:	180f883a 	mov	r7,r3
 4026d10:	402fb540 	call	402fb54 <__subdf3>
 4026d14:	1823883a 	mov	r17,r3
 4026d18:	d8c00717 	ldw	r3,28(sp)
 4026d1c:	d9401217 	ldw	r5,72(sp)
 4026d20:	a2000c04 	addi	r8,r20,48
 4026d24:	1021883a 	mov	r16,r2
 4026d28:	1a000005 	stb	r8,0(r3)
 4026d2c:	800d883a 	mov	r6,r16
 4026d30:	880f883a 	mov	r7,r17
 4026d34:	a809883a 	mov	r4,r21
 4026d38:	4029883a 	mov	r20,r8
 4026d3c:	402f26c0 	call	402f26c <__gedf2>
 4026d40:	00841d16 	blt	zero,r2,4027db8 <_dtoa_r+0x15f4>
 4026d44:	800d883a 	mov	r6,r16
 4026d48:	880f883a 	mov	r7,r17
 4026d4c:	0009883a 	mov	r4,zero
 4026d50:	014ffc34 	movhi	r5,16368
 4026d54:	402fb540 	call	402fb54 <__subdf3>
 4026d58:	d9401217 	ldw	r5,72(sp)
 4026d5c:	100d883a 	mov	r6,r2
 4026d60:	180f883a 	mov	r7,r3
 4026d64:	a809883a 	mov	r4,r21
 4026d68:	402f26c0 	call	402f26c <__gedf2>
 4026d6c:	db001617 	ldw	r12,88(sp)
 4026d70:	00840e16 	blt	zero,r2,4027dac <_dtoa_r+0x15e8>
 4026d74:	00800044 	movi	r2,1
 4026d78:	13006b0e 	bge	r2,r12,4026f28 <_dtoa_r+0x764>
 4026d7c:	d9000717 	ldw	r4,28(sp)
 4026d80:	dd800f15 	stw	r22,60(sp)
 4026d84:	dcc01015 	stw	r19,64(sp)
 4026d88:	2319883a 	add	r12,r4,r12
 4026d8c:	dcc01217 	ldw	r19,72(sp)
 4026d90:	602d883a 	mov	r22,r12
 4026d94:	dc801215 	stw	r18,72(sp)
 4026d98:	b825883a 	mov	r18,r23
 4026d9c:	00000906 	br	4026dc4 <_dtoa_r+0x600>
 4026da0:	402fb540 	call	402fb54 <__subdf3>
 4026da4:	a80d883a 	mov	r6,r21
 4026da8:	980f883a 	mov	r7,r19
 4026dac:	1009883a 	mov	r4,r2
 4026db0:	180b883a 	mov	r5,r3
 4026db4:	402f3480 	call	402f348 <__ledf2>
 4026db8:	1003e816 	blt	r2,zero,4027d5c <_dtoa_r+0x1598>
 4026dbc:	b825883a 	mov	r18,r23
 4026dc0:	bd83e926 	beq	r23,r22,4027d68 <_dtoa_r+0x15a4>
 4026dc4:	a809883a 	mov	r4,r21
 4026dc8:	980b883a 	mov	r5,r19
 4026dcc:	000d883a 	mov	r6,zero
 4026dd0:	01d00934 	movhi	r7,16420
 4026dd4:	402f43c0 	call	402f43c <__muldf3>
 4026dd8:	000d883a 	mov	r6,zero
 4026ddc:	01d00934 	movhi	r7,16420
 4026de0:	8009883a 	mov	r4,r16
 4026de4:	880b883a 	mov	r5,r17
 4026de8:	102b883a 	mov	r21,r2
 4026dec:	1827883a 	mov	r19,r3
 4026df0:	402f43c0 	call	402f43c <__muldf3>
 4026df4:	180b883a 	mov	r5,r3
 4026df8:	1009883a 	mov	r4,r2
 4026dfc:	1821883a 	mov	r16,r3
 4026e00:	1023883a 	mov	r17,r2
 4026e04:	40304500 	call	4030450 <__fixdfsi>
 4026e08:	1009883a 	mov	r4,r2
 4026e0c:	1029883a 	mov	r20,r2
 4026e10:	40304d00 	call	40304d0 <__floatsidf>
 4026e14:	8809883a 	mov	r4,r17
 4026e18:	800b883a 	mov	r5,r16
 4026e1c:	100d883a 	mov	r6,r2
 4026e20:	180f883a 	mov	r7,r3
 4026e24:	402fb540 	call	402fb54 <__subdf3>
 4026e28:	a5000c04 	addi	r20,r20,48
 4026e2c:	a80d883a 	mov	r6,r21
 4026e30:	980f883a 	mov	r7,r19
 4026e34:	1009883a 	mov	r4,r2
 4026e38:	180b883a 	mov	r5,r3
 4026e3c:	95000005 	stb	r20,0(r18)
 4026e40:	1021883a 	mov	r16,r2
 4026e44:	1823883a 	mov	r17,r3
 4026e48:	402f3480 	call	402f348 <__ledf2>
 4026e4c:	bdc00044 	addi	r23,r23,1
 4026e50:	800d883a 	mov	r6,r16
 4026e54:	880f883a 	mov	r7,r17
 4026e58:	0009883a 	mov	r4,zero
 4026e5c:	014ffc34 	movhi	r5,16368
 4026e60:	103fcf0e 	bge	r2,zero,4026da0 <__alt_data_end+0xfffe6da0>
 4026e64:	d8c01317 	ldw	r3,76(sp)
 4026e68:	d8c00515 	stw	r3,20(sp)
 4026e6c:	d9400917 	ldw	r5,36(sp)
 4026e70:	e009883a 	mov	r4,fp
 4026e74:	40297a80 	call	40297a8 <_Bfree>
 4026e78:	d9000517 	ldw	r4,20(sp)
 4026e7c:	d9802317 	ldw	r6,140(sp)
 4026e80:	d9c02517 	ldw	r7,148(sp)
 4026e84:	b8000005 	stb	zero,0(r23)
 4026e88:	20800044 	addi	r2,r4,1
 4026e8c:	30800015 	stw	r2,0(r6)
 4026e90:	3802aa26 	beq	r7,zero,402793c <_dtoa_r+0x1178>
 4026e94:	3dc00015 	stw	r23,0(r7)
 4026e98:	d8800717 	ldw	r2,28(sp)
 4026e9c:	003e7906 	br	4026884 <__alt_data_end+0xfffe6884>
 4026ea0:	00800434 	movhi	r2,16
 4026ea4:	10bfffc4 	addi	r2,r2,-1
 4026ea8:	88a2703a 	and	r17,r17,r2
 4026eac:	883e851e 	bne	r17,zero,40268c4 <__alt_data_end+0xfffe68c4>
 4026eb0:	008100f4 	movhi	r2,1027
 4026eb4:	10849504 	addi	r2,r2,4692
 4026eb8:	003e8406 	br	40268cc <__alt_data_end+0xfffe68cc>
 4026ebc:	10c00204 	addi	r3,r2,8
 4026ec0:	003e8706 	br	40268e0 <__alt_data_end+0xfffe68e0>
 4026ec4:	01400434 	movhi	r5,16
 4026ec8:	297fffc4 	addi	r5,r5,-1
 4026ecc:	994a703a 	and	r5,r19,r5
 4026ed0:	9009883a 	mov	r4,r18
 4026ed4:	843f0044 	addi	r16,r16,-1023
 4026ed8:	294ffc34 	orhi	r5,r5,16368
 4026edc:	dd800217 	ldw	r22,8(sp)
 4026ee0:	d8001115 	stw	zero,68(sp)
 4026ee4:	003ea506 	br	402697c <__alt_data_end+0xfffe697c>
 4026ee8:	008100f4 	movhi	r2,1027
 4026eec:	10848c04 	addi	r2,r2,4656
 4026ef0:	003e6406 	br	4026884 <__alt_data_end+0xfffe6884>
 4026ef4:	e0001115 	stw	zero,68(fp)
 4026ef8:	000b883a 	mov	r5,zero
 4026efc:	e009883a 	mov	r4,fp
 4026f00:	40297000 	call	4029700 <_Balloc>
 4026f04:	01bfffc4 	movi	r6,-1
 4026f08:	01c00044 	movi	r7,1
 4026f0c:	d8800715 	stw	r2,28(sp)
 4026f10:	d9800c15 	stw	r6,48(sp)
 4026f14:	e0801015 	stw	r2,64(fp)
 4026f18:	d8000315 	stw	zero,12(sp)
 4026f1c:	d9c00b15 	stw	r7,44(sp)
 4026f20:	d9800615 	stw	r6,24(sp)
 4026f24:	d8002215 	stw	zero,136(sp)
 4026f28:	d8800117 	ldw	r2,4(sp)
 4026f2c:	10008916 	blt	r2,zero,4027154 <_dtoa_r+0x990>
 4026f30:	d9000517 	ldw	r4,20(sp)
 4026f34:	00c00384 	movi	r3,14
 4026f38:	19008616 	blt	r3,r4,4027154 <_dtoa_r+0x990>
 4026f3c:	200490fa 	slli	r2,r4,3
 4026f40:	00c100f4 	movhi	r3,1027
 4026f44:	d9802217 	ldw	r6,136(sp)
 4026f48:	18c4b304 	addi	r3,r3,4812
 4026f4c:	1885883a 	add	r2,r3,r2
 4026f50:	14000017 	ldw	r16,0(r2)
 4026f54:	14400117 	ldw	r17,4(r2)
 4026f58:	30016316 	blt	r6,zero,40274e8 <_dtoa_r+0xd24>
 4026f5c:	800d883a 	mov	r6,r16
 4026f60:	880f883a 	mov	r7,r17
 4026f64:	9009883a 	mov	r4,r18
 4026f68:	980b883a 	mov	r5,r19
 4026f6c:	402e8fc0 	call	402e8fc <__divdf3>
 4026f70:	180b883a 	mov	r5,r3
 4026f74:	1009883a 	mov	r4,r2
 4026f78:	40304500 	call	4030450 <__fixdfsi>
 4026f7c:	1009883a 	mov	r4,r2
 4026f80:	102b883a 	mov	r21,r2
 4026f84:	40304d00 	call	40304d0 <__floatsidf>
 4026f88:	800d883a 	mov	r6,r16
 4026f8c:	880f883a 	mov	r7,r17
 4026f90:	1009883a 	mov	r4,r2
 4026f94:	180b883a 	mov	r5,r3
 4026f98:	402f43c0 	call	402f43c <__muldf3>
 4026f9c:	100d883a 	mov	r6,r2
 4026fa0:	180f883a 	mov	r7,r3
 4026fa4:	9009883a 	mov	r4,r18
 4026fa8:	980b883a 	mov	r5,r19
 4026fac:	402fb540 	call	402fb54 <__subdf3>
 4026fb0:	d9c00717 	ldw	r7,28(sp)
 4026fb4:	1009883a 	mov	r4,r2
 4026fb8:	a8800c04 	addi	r2,r21,48
 4026fbc:	38800005 	stb	r2,0(r7)
 4026fc0:	3dc00044 	addi	r23,r7,1
 4026fc4:	d9c00617 	ldw	r7,24(sp)
 4026fc8:	01800044 	movi	r6,1
 4026fcc:	180b883a 	mov	r5,r3
 4026fd0:	2005883a 	mov	r2,r4
 4026fd4:	39803826 	beq	r7,r6,40270b8 <_dtoa_r+0x8f4>
 4026fd8:	000d883a 	mov	r6,zero
 4026fdc:	01d00934 	movhi	r7,16420
 4026fe0:	402f43c0 	call	402f43c <__muldf3>
 4026fe4:	000d883a 	mov	r6,zero
 4026fe8:	000f883a 	mov	r7,zero
 4026fec:	1009883a 	mov	r4,r2
 4026ff0:	180b883a 	mov	r5,r3
 4026ff4:	1025883a 	mov	r18,r2
 4026ff8:	1827883a 	mov	r19,r3
 4026ffc:	402f1e40 	call	402f1e4 <__eqdf2>
 4027000:	103f9a26 	beq	r2,zero,4026e6c <__alt_data_end+0xfffe6e6c>
 4027004:	d9c00617 	ldw	r7,24(sp)
 4027008:	d8c00717 	ldw	r3,28(sp)
 402700c:	b829883a 	mov	r20,r23
 4027010:	38bfffc4 	addi	r2,r7,-1
 4027014:	18ad883a 	add	r22,r3,r2
 4027018:	00000a06 	br	4027044 <_dtoa_r+0x880>
 402701c:	402f43c0 	call	402f43c <__muldf3>
 4027020:	000d883a 	mov	r6,zero
 4027024:	000f883a 	mov	r7,zero
 4027028:	1009883a 	mov	r4,r2
 402702c:	180b883a 	mov	r5,r3
 4027030:	1025883a 	mov	r18,r2
 4027034:	1827883a 	mov	r19,r3
 4027038:	b829883a 	mov	r20,r23
 402703c:	402f1e40 	call	402f1e4 <__eqdf2>
 4027040:	103f8a26 	beq	r2,zero,4026e6c <__alt_data_end+0xfffe6e6c>
 4027044:	800d883a 	mov	r6,r16
 4027048:	880f883a 	mov	r7,r17
 402704c:	9009883a 	mov	r4,r18
 4027050:	980b883a 	mov	r5,r19
 4027054:	402e8fc0 	call	402e8fc <__divdf3>
 4027058:	180b883a 	mov	r5,r3
 402705c:	1009883a 	mov	r4,r2
 4027060:	40304500 	call	4030450 <__fixdfsi>
 4027064:	1009883a 	mov	r4,r2
 4027068:	102b883a 	mov	r21,r2
 402706c:	40304d00 	call	40304d0 <__floatsidf>
 4027070:	800d883a 	mov	r6,r16
 4027074:	880f883a 	mov	r7,r17
 4027078:	1009883a 	mov	r4,r2
 402707c:	180b883a 	mov	r5,r3
 4027080:	402f43c0 	call	402f43c <__muldf3>
 4027084:	100d883a 	mov	r6,r2
 4027088:	180f883a 	mov	r7,r3
 402708c:	9009883a 	mov	r4,r18
 4027090:	980b883a 	mov	r5,r19
 4027094:	402fb540 	call	402fb54 <__subdf3>
 4027098:	aa000c04 	addi	r8,r21,48
 402709c:	a2000005 	stb	r8,0(r20)
 40270a0:	000d883a 	mov	r6,zero
 40270a4:	01d00934 	movhi	r7,16420
 40270a8:	1009883a 	mov	r4,r2
 40270ac:	180b883a 	mov	r5,r3
 40270b0:	a5c00044 	addi	r23,r20,1
 40270b4:	b53fd91e 	bne	r22,r20,402701c <__alt_data_end+0xfffe701c>
 40270b8:	100d883a 	mov	r6,r2
 40270bc:	180f883a 	mov	r7,r3
 40270c0:	1009883a 	mov	r4,r2
 40270c4:	180b883a 	mov	r5,r3
 40270c8:	402e0500 	call	402e050 <__adddf3>
 40270cc:	100d883a 	mov	r6,r2
 40270d0:	180f883a 	mov	r7,r3
 40270d4:	8009883a 	mov	r4,r16
 40270d8:	880b883a 	mov	r5,r17
 40270dc:	1027883a 	mov	r19,r2
 40270e0:	1825883a 	mov	r18,r3
 40270e4:	402f3480 	call	402f348 <__ledf2>
 40270e8:	10000816 	blt	r2,zero,402710c <_dtoa_r+0x948>
 40270ec:	980d883a 	mov	r6,r19
 40270f0:	900f883a 	mov	r7,r18
 40270f4:	8009883a 	mov	r4,r16
 40270f8:	880b883a 	mov	r5,r17
 40270fc:	402f1e40 	call	402f1e4 <__eqdf2>
 4027100:	103f5a1e 	bne	r2,zero,4026e6c <__alt_data_end+0xfffe6e6c>
 4027104:	ad40004c 	andi	r21,r21,1
 4027108:	a83f5826 	beq	r21,zero,4026e6c <__alt_data_end+0xfffe6e6c>
 402710c:	bd3fffc3 	ldbu	r20,-1(r23)
 4027110:	b8bfffc4 	addi	r2,r23,-1
 4027114:	1007883a 	mov	r3,r2
 4027118:	01400e44 	movi	r5,57
 402711c:	d9800717 	ldw	r6,28(sp)
 4027120:	00000506 	br	4027138 <_dtoa_r+0x974>
 4027124:	18ffffc4 	addi	r3,r3,-1
 4027128:	11824726 	beq	r2,r6,4027a48 <_dtoa_r+0x1284>
 402712c:	1d000003 	ldbu	r20,0(r3)
 4027130:	102f883a 	mov	r23,r2
 4027134:	10bfffc4 	addi	r2,r2,-1
 4027138:	a1003fcc 	andi	r4,r20,255
 402713c:	2100201c 	xori	r4,r4,128
 4027140:	213fe004 	addi	r4,r4,-128
 4027144:	217ff726 	beq	r4,r5,4027124 <__alt_data_end+0xfffe7124>
 4027148:	a2000044 	addi	r8,r20,1
 402714c:	12000005 	stb	r8,0(r2)
 4027150:	003f4606 	br	4026e6c <__alt_data_end+0xfffe6e6c>
 4027154:	d9000b17 	ldw	r4,44(sp)
 4027158:	2000c826 	beq	r4,zero,402747c <_dtoa_r+0xcb8>
 402715c:	d9800317 	ldw	r6,12(sp)
 4027160:	00c00044 	movi	r3,1
 4027164:	1980f90e 	bge	r3,r6,402754c <_dtoa_r+0xd88>
 4027168:	d8800617 	ldw	r2,24(sp)
 402716c:	d8c00a17 	ldw	r3,40(sp)
 4027170:	157fffc4 	addi	r21,r2,-1
 4027174:	1d41f316 	blt	r3,r21,4027944 <_dtoa_r+0x1180>
 4027178:	1d6bc83a 	sub	r21,r3,r21
 402717c:	d9c00617 	ldw	r7,24(sp)
 4027180:	3802aa16 	blt	r7,zero,4027c2c <_dtoa_r+0x1468>
 4027184:	dd000817 	ldw	r20,32(sp)
 4027188:	d8800617 	ldw	r2,24(sp)
 402718c:	d8c00817 	ldw	r3,32(sp)
 4027190:	01400044 	movi	r5,1
 4027194:	e009883a 	mov	r4,fp
 4027198:	1887883a 	add	r3,r3,r2
 402719c:	d8c00815 	stw	r3,32(sp)
 40271a0:	b0ad883a 	add	r22,r22,r2
 40271a4:	4029b0c0 	call	4029b0c <__i2b>
 40271a8:	1023883a 	mov	r17,r2
 40271ac:	a0000826 	beq	r20,zero,40271d0 <_dtoa_r+0xa0c>
 40271b0:	0580070e 	bge	zero,r22,40271d0 <_dtoa_r+0xa0c>
 40271b4:	a005883a 	mov	r2,r20
 40271b8:	b500b916 	blt	r22,r20,40274a0 <_dtoa_r+0xcdc>
 40271bc:	d9000817 	ldw	r4,32(sp)
 40271c0:	a0a9c83a 	sub	r20,r20,r2
 40271c4:	b0adc83a 	sub	r22,r22,r2
 40271c8:	2089c83a 	sub	r4,r4,r2
 40271cc:	d9000815 	stw	r4,32(sp)
 40271d0:	d9800a17 	ldw	r6,40(sp)
 40271d4:	0181810e 	bge	zero,r6,40277dc <_dtoa_r+0x1018>
 40271d8:	d9c00b17 	ldw	r7,44(sp)
 40271dc:	3800b326 	beq	r7,zero,40274ac <_dtoa_r+0xce8>
 40271e0:	a800b226 	beq	r21,zero,40274ac <_dtoa_r+0xce8>
 40271e4:	880b883a 	mov	r5,r17
 40271e8:	a80d883a 	mov	r6,r21
 40271ec:	e009883a 	mov	r4,fp
 40271f0:	4029d400 	call	4029d40 <__pow5mult>
 40271f4:	d9800917 	ldw	r6,36(sp)
 40271f8:	100b883a 	mov	r5,r2
 40271fc:	e009883a 	mov	r4,fp
 4027200:	1023883a 	mov	r17,r2
 4027204:	4029b480 	call	4029b48 <__multiply>
 4027208:	1021883a 	mov	r16,r2
 402720c:	d8800a17 	ldw	r2,40(sp)
 4027210:	d9400917 	ldw	r5,36(sp)
 4027214:	e009883a 	mov	r4,fp
 4027218:	1545c83a 	sub	r2,r2,r21
 402721c:	d8800a15 	stw	r2,40(sp)
 4027220:	40297a80 	call	40297a8 <_Bfree>
 4027224:	d8c00a17 	ldw	r3,40(sp)
 4027228:	18009f1e 	bne	r3,zero,40274a8 <_dtoa_r+0xce4>
 402722c:	05c00044 	movi	r23,1
 4027230:	e009883a 	mov	r4,fp
 4027234:	b80b883a 	mov	r5,r23
 4027238:	4029b0c0 	call	4029b0c <__i2b>
 402723c:	d9000d17 	ldw	r4,52(sp)
 4027240:	102b883a 	mov	r21,r2
 4027244:	2000ce26 	beq	r4,zero,4027580 <_dtoa_r+0xdbc>
 4027248:	200d883a 	mov	r6,r4
 402724c:	100b883a 	mov	r5,r2
 4027250:	e009883a 	mov	r4,fp
 4027254:	4029d400 	call	4029d40 <__pow5mult>
 4027258:	d9800317 	ldw	r6,12(sp)
 402725c:	102b883a 	mov	r21,r2
 4027260:	b981810e 	bge	r23,r6,4027868 <_dtoa_r+0x10a4>
 4027264:	0027883a 	mov	r19,zero
 4027268:	a8800417 	ldw	r2,16(r21)
 402726c:	05c00804 	movi	r23,32
 4027270:	10800104 	addi	r2,r2,4
 4027274:	1085883a 	add	r2,r2,r2
 4027278:	1085883a 	add	r2,r2,r2
 402727c:	a885883a 	add	r2,r21,r2
 4027280:	11000017 	ldw	r4,0(r2)
 4027284:	40299f40 	call	40299f4 <__hi0bits>
 4027288:	b885c83a 	sub	r2,r23,r2
 402728c:	1585883a 	add	r2,r2,r22
 4027290:	108007cc 	andi	r2,r2,31
 4027294:	1000b326 	beq	r2,zero,4027564 <_dtoa_r+0xda0>
 4027298:	00c00804 	movi	r3,32
 402729c:	1887c83a 	sub	r3,r3,r2
 40272a0:	01000104 	movi	r4,4
 40272a4:	20c2cd0e 	bge	r4,r3,4027ddc <_dtoa_r+0x1618>
 40272a8:	00c00704 	movi	r3,28
 40272ac:	1885c83a 	sub	r2,r3,r2
 40272b0:	d8c00817 	ldw	r3,32(sp)
 40272b4:	a0a9883a 	add	r20,r20,r2
 40272b8:	b0ad883a 	add	r22,r22,r2
 40272bc:	1887883a 	add	r3,r3,r2
 40272c0:	d8c00815 	stw	r3,32(sp)
 40272c4:	d9800817 	ldw	r6,32(sp)
 40272c8:	0180040e 	bge	zero,r6,40272dc <_dtoa_r+0xb18>
 40272cc:	800b883a 	mov	r5,r16
 40272d0:	e009883a 	mov	r4,fp
 40272d4:	4029e800 	call	4029e80 <__lshift>
 40272d8:	1021883a 	mov	r16,r2
 40272dc:	0580050e 	bge	zero,r22,40272f4 <_dtoa_r+0xb30>
 40272e0:	a80b883a 	mov	r5,r21
 40272e4:	b00d883a 	mov	r6,r22
 40272e8:	e009883a 	mov	r4,fp
 40272ec:	4029e800 	call	4029e80 <__lshift>
 40272f0:	102b883a 	mov	r21,r2
 40272f4:	d9c00e17 	ldw	r7,56(sp)
 40272f8:	3801211e 	bne	r7,zero,4027780 <_dtoa_r+0xfbc>
 40272fc:	d9800617 	ldw	r6,24(sp)
 4027300:	0181380e 	bge	zero,r6,40277e4 <_dtoa_r+0x1020>
 4027304:	d8c00b17 	ldw	r3,44(sp)
 4027308:	1800ab1e 	bne	r3,zero,40275b8 <_dtoa_r+0xdf4>
 402730c:	dc800717 	ldw	r18,28(sp)
 4027310:	dcc00617 	ldw	r19,24(sp)
 4027314:	9029883a 	mov	r20,r18
 4027318:	00000206 	br	4027324 <_dtoa_r+0xb60>
 402731c:	40297d00 	call	40297d0 <__multadd>
 4027320:	1021883a 	mov	r16,r2
 4027324:	a80b883a 	mov	r5,r21
 4027328:	8009883a 	mov	r4,r16
 402732c:	40265c40 	call	40265c4 <quorem>
 4027330:	10800c04 	addi	r2,r2,48
 4027334:	90800005 	stb	r2,0(r18)
 4027338:	94800044 	addi	r18,r18,1
 402733c:	9507c83a 	sub	r3,r18,r20
 4027340:	000f883a 	mov	r7,zero
 4027344:	01800284 	movi	r6,10
 4027348:	800b883a 	mov	r5,r16
 402734c:	e009883a 	mov	r4,fp
 4027350:	1cfff216 	blt	r3,r19,402731c <__alt_data_end+0xfffe731c>
 4027354:	1011883a 	mov	r8,r2
 4027358:	d8800617 	ldw	r2,24(sp)
 402735c:	0082370e 	bge	zero,r2,4027c3c <_dtoa_r+0x1478>
 4027360:	d9000717 	ldw	r4,28(sp)
 4027364:	0025883a 	mov	r18,zero
 4027368:	20af883a 	add	r23,r4,r2
 402736c:	01800044 	movi	r6,1
 4027370:	800b883a 	mov	r5,r16
 4027374:	e009883a 	mov	r4,fp
 4027378:	da001715 	stw	r8,92(sp)
 402737c:	4029e800 	call	4029e80 <__lshift>
 4027380:	a80b883a 	mov	r5,r21
 4027384:	1009883a 	mov	r4,r2
 4027388:	d8800915 	stw	r2,36(sp)
 402738c:	4029fc80 	call	4029fc8 <__mcmp>
 4027390:	da001717 	ldw	r8,92(sp)
 4027394:	0081800e 	bge	zero,r2,4027998 <_dtoa_r+0x11d4>
 4027398:	b93fffc3 	ldbu	r4,-1(r23)
 402739c:	b8bfffc4 	addi	r2,r23,-1
 40273a0:	1007883a 	mov	r3,r2
 40273a4:	01800e44 	movi	r6,57
 40273a8:	d9c00717 	ldw	r7,28(sp)
 40273ac:	00000506 	br	40273c4 <_dtoa_r+0xc00>
 40273b0:	18ffffc4 	addi	r3,r3,-1
 40273b4:	11c12326 	beq	r2,r7,4027844 <_dtoa_r+0x1080>
 40273b8:	19000003 	ldbu	r4,0(r3)
 40273bc:	102f883a 	mov	r23,r2
 40273c0:	10bfffc4 	addi	r2,r2,-1
 40273c4:	21403fcc 	andi	r5,r4,255
 40273c8:	2940201c 	xori	r5,r5,128
 40273cc:	297fe004 	addi	r5,r5,-128
 40273d0:	29bff726 	beq	r5,r6,40273b0 <__alt_data_end+0xfffe73b0>
 40273d4:	21000044 	addi	r4,r4,1
 40273d8:	11000005 	stb	r4,0(r2)
 40273dc:	a80b883a 	mov	r5,r21
 40273e0:	e009883a 	mov	r4,fp
 40273e4:	40297a80 	call	40297a8 <_Bfree>
 40273e8:	883ea026 	beq	r17,zero,4026e6c <__alt_data_end+0xfffe6e6c>
 40273ec:	90000426 	beq	r18,zero,4027400 <_dtoa_r+0xc3c>
 40273f0:	94400326 	beq	r18,r17,4027400 <_dtoa_r+0xc3c>
 40273f4:	900b883a 	mov	r5,r18
 40273f8:	e009883a 	mov	r4,fp
 40273fc:	40297a80 	call	40297a8 <_Bfree>
 4027400:	880b883a 	mov	r5,r17
 4027404:	e009883a 	mov	r4,fp
 4027408:	40297a80 	call	40297a8 <_Bfree>
 402740c:	003e9706 	br	4026e6c <__alt_data_end+0xfffe6e6c>
 4027410:	01800044 	movi	r6,1
 4027414:	d9800e15 	stw	r6,56(sp)
 4027418:	003d9606 	br	4026a74 <__alt_data_end+0xfffe6a74>
 402741c:	d8800817 	ldw	r2,32(sp)
 4027420:	d8c00517 	ldw	r3,20(sp)
 4027424:	d8000d15 	stw	zero,52(sp)
 4027428:	10c5c83a 	sub	r2,r2,r3
 402742c:	00c9c83a 	sub	r4,zero,r3
 4027430:	d8800815 	stw	r2,32(sp)
 4027434:	d9000a15 	stw	r4,40(sp)
 4027438:	003d9706 	br	4026a98 <__alt_data_end+0xfffe6a98>
 402743c:	05adc83a 	sub	r22,zero,r22
 4027440:	dd800815 	stw	r22,32(sp)
 4027444:	002d883a 	mov	r22,zero
 4027448:	003d8e06 	br	4026a84 <__alt_data_end+0xfffe6a84>
 402744c:	d9000517 	ldw	r4,20(sp)
 4027450:	40304d00 	call	40304d0 <__floatsidf>
 4027454:	100d883a 	mov	r6,r2
 4027458:	180f883a 	mov	r7,r3
 402745c:	a009883a 	mov	r4,r20
 4027460:	880b883a 	mov	r5,r17
 4027464:	402f1e40 	call	402f1e4 <__eqdf2>
 4027468:	103d7126 	beq	r2,zero,4026a30 <__alt_data_end+0xfffe6a30>
 402746c:	d9c00517 	ldw	r7,20(sp)
 4027470:	39ffffc4 	addi	r7,r7,-1
 4027474:	d9c00515 	stw	r7,20(sp)
 4027478:	003d6d06 	br	4026a30 <__alt_data_end+0xfffe6a30>
 402747c:	dd400a17 	ldw	r21,40(sp)
 4027480:	dd000817 	ldw	r20,32(sp)
 4027484:	0023883a 	mov	r17,zero
 4027488:	003f4806 	br	40271ac <__alt_data_end+0xfffe71ac>
 402748c:	10e3c83a 	sub	r17,r2,r3
 4027490:	9448983a 	sll	r4,r18,r17
 4027494:	003d3206 	br	4026960 <__alt_data_end+0xfffe6960>
 4027498:	d8000e15 	stw	zero,56(sp)
 402749c:	003d7506 	br	4026a74 <__alt_data_end+0xfffe6a74>
 40274a0:	b005883a 	mov	r2,r22
 40274a4:	003f4506 	br	40271bc <__alt_data_end+0xfffe71bc>
 40274a8:	dc000915 	stw	r16,36(sp)
 40274ac:	d9800a17 	ldw	r6,40(sp)
 40274b0:	d9400917 	ldw	r5,36(sp)
 40274b4:	e009883a 	mov	r4,fp
 40274b8:	4029d400 	call	4029d40 <__pow5mult>
 40274bc:	1021883a 	mov	r16,r2
 40274c0:	003f5a06 	br	402722c <__alt_data_end+0xfffe722c>
 40274c4:	01c00044 	movi	r7,1
 40274c8:	d9c00b15 	stw	r7,44(sp)
 40274cc:	d8802217 	ldw	r2,136(sp)
 40274d0:	0081280e 	bge	zero,r2,4027974 <_dtoa_r+0x11b0>
 40274d4:	100d883a 	mov	r6,r2
 40274d8:	1021883a 	mov	r16,r2
 40274dc:	d8800c15 	stw	r2,48(sp)
 40274e0:	d8800615 	stw	r2,24(sp)
 40274e4:	003d8806 	br	4026b08 <__alt_data_end+0xfffe6b08>
 40274e8:	d8800617 	ldw	r2,24(sp)
 40274ec:	00be9b16 	blt	zero,r2,4026f5c <__alt_data_end+0xfffe6f5c>
 40274f0:	10010f1e 	bne	r2,zero,4027930 <_dtoa_r+0x116c>
 40274f4:	880b883a 	mov	r5,r17
 40274f8:	000d883a 	mov	r6,zero
 40274fc:	01d00534 	movhi	r7,16404
 4027500:	8009883a 	mov	r4,r16
 4027504:	402f43c0 	call	402f43c <__muldf3>
 4027508:	900d883a 	mov	r6,r18
 402750c:	980f883a 	mov	r7,r19
 4027510:	1009883a 	mov	r4,r2
 4027514:	180b883a 	mov	r5,r3
 4027518:	402f26c0 	call	402f26c <__gedf2>
 402751c:	002b883a 	mov	r21,zero
 4027520:	0023883a 	mov	r17,zero
 4027524:	1000bf16 	blt	r2,zero,4027824 <_dtoa_r+0x1060>
 4027528:	d9802217 	ldw	r6,136(sp)
 402752c:	ddc00717 	ldw	r23,28(sp)
 4027530:	018c303a 	nor	r6,zero,r6
 4027534:	d9800515 	stw	r6,20(sp)
 4027538:	a80b883a 	mov	r5,r21
 402753c:	e009883a 	mov	r4,fp
 4027540:	40297a80 	call	40297a8 <_Bfree>
 4027544:	883e4926 	beq	r17,zero,4026e6c <__alt_data_end+0xfffe6e6c>
 4027548:	003fad06 	br	4027400 <__alt_data_end+0xfffe7400>
 402754c:	d9c01117 	ldw	r7,68(sp)
 4027550:	3801bc26 	beq	r7,zero,4027c44 <_dtoa_r+0x1480>
 4027554:	10810cc4 	addi	r2,r2,1075
 4027558:	dd400a17 	ldw	r21,40(sp)
 402755c:	dd000817 	ldw	r20,32(sp)
 4027560:	003f0a06 	br	402718c <__alt_data_end+0xfffe718c>
 4027564:	00800704 	movi	r2,28
 4027568:	d9000817 	ldw	r4,32(sp)
 402756c:	a0a9883a 	add	r20,r20,r2
 4027570:	b0ad883a 	add	r22,r22,r2
 4027574:	2089883a 	add	r4,r4,r2
 4027578:	d9000815 	stw	r4,32(sp)
 402757c:	003f5106 	br	40272c4 <__alt_data_end+0xfffe72c4>
 4027580:	d8c00317 	ldw	r3,12(sp)
 4027584:	b8c1fc0e 	bge	r23,r3,4027d78 <_dtoa_r+0x15b4>
 4027588:	0027883a 	mov	r19,zero
 402758c:	b805883a 	mov	r2,r23
 4027590:	003f3e06 	br	402728c <__alt_data_end+0xfffe728c>
 4027594:	880b883a 	mov	r5,r17
 4027598:	e009883a 	mov	r4,fp
 402759c:	000f883a 	mov	r7,zero
 40275a0:	01800284 	movi	r6,10
 40275a4:	40297d00 	call	40297d0 <__multadd>
 40275a8:	d9000c17 	ldw	r4,48(sp)
 40275ac:	1023883a 	mov	r17,r2
 40275b0:	0102040e 	bge	zero,r4,4027dc4 <_dtoa_r+0x1600>
 40275b4:	d9000615 	stw	r4,24(sp)
 40275b8:	0500050e 	bge	zero,r20,40275d0 <_dtoa_r+0xe0c>
 40275bc:	880b883a 	mov	r5,r17
 40275c0:	a00d883a 	mov	r6,r20
 40275c4:	e009883a 	mov	r4,fp
 40275c8:	4029e800 	call	4029e80 <__lshift>
 40275cc:	1023883a 	mov	r17,r2
 40275d0:	9801241e 	bne	r19,zero,4027a64 <_dtoa_r+0x12a0>
 40275d4:	8829883a 	mov	r20,r17
 40275d8:	d9000617 	ldw	r4,24(sp)
 40275dc:	dcc00717 	ldw	r19,28(sp)
 40275e0:	9480004c 	andi	r18,r18,1
 40275e4:	20bfffc4 	addi	r2,r4,-1
 40275e8:	9885883a 	add	r2,r19,r2
 40275ec:	d8800415 	stw	r2,16(sp)
 40275f0:	dc800615 	stw	r18,24(sp)
 40275f4:	a80b883a 	mov	r5,r21
 40275f8:	8009883a 	mov	r4,r16
 40275fc:	40265c40 	call	40265c4 <quorem>
 4027600:	880b883a 	mov	r5,r17
 4027604:	8009883a 	mov	r4,r16
 4027608:	102f883a 	mov	r23,r2
 402760c:	4029fc80 	call	4029fc8 <__mcmp>
 4027610:	a80b883a 	mov	r5,r21
 4027614:	a00d883a 	mov	r6,r20
 4027618:	e009883a 	mov	r4,fp
 402761c:	102d883a 	mov	r22,r2
 4027620:	402a0280 	call	402a028 <__mdiff>
 4027624:	1007883a 	mov	r3,r2
 4027628:	10800317 	ldw	r2,12(r2)
 402762c:	bc800c04 	addi	r18,r23,48
 4027630:	180b883a 	mov	r5,r3
 4027634:	10004e1e 	bne	r2,zero,4027770 <_dtoa_r+0xfac>
 4027638:	8009883a 	mov	r4,r16
 402763c:	d8c01615 	stw	r3,88(sp)
 4027640:	4029fc80 	call	4029fc8 <__mcmp>
 4027644:	d8c01617 	ldw	r3,88(sp)
 4027648:	e009883a 	mov	r4,fp
 402764c:	d8801615 	stw	r2,88(sp)
 4027650:	180b883a 	mov	r5,r3
 4027654:	40297a80 	call	40297a8 <_Bfree>
 4027658:	d8801617 	ldw	r2,88(sp)
 402765c:	1000041e 	bne	r2,zero,4027670 <_dtoa_r+0xeac>
 4027660:	d9800317 	ldw	r6,12(sp)
 4027664:	3000021e 	bne	r6,zero,4027670 <_dtoa_r+0xeac>
 4027668:	d8c00617 	ldw	r3,24(sp)
 402766c:	18003726 	beq	r3,zero,402774c <_dtoa_r+0xf88>
 4027670:	b0002016 	blt	r22,zero,40276f4 <_dtoa_r+0xf30>
 4027674:	b000041e 	bne	r22,zero,4027688 <_dtoa_r+0xec4>
 4027678:	d9000317 	ldw	r4,12(sp)
 402767c:	2000021e 	bne	r4,zero,4027688 <_dtoa_r+0xec4>
 4027680:	d8c00617 	ldw	r3,24(sp)
 4027684:	18001b26 	beq	r3,zero,40276f4 <_dtoa_r+0xf30>
 4027688:	00810716 	blt	zero,r2,4027aa8 <_dtoa_r+0x12e4>
 402768c:	d8c00417 	ldw	r3,16(sp)
 4027690:	9d800044 	addi	r22,r19,1
 4027694:	9c800005 	stb	r18,0(r19)
 4027698:	b02f883a 	mov	r23,r22
 402769c:	98c10626 	beq	r19,r3,4027ab8 <_dtoa_r+0x12f4>
 40276a0:	800b883a 	mov	r5,r16
 40276a4:	000f883a 	mov	r7,zero
 40276a8:	01800284 	movi	r6,10
 40276ac:	e009883a 	mov	r4,fp
 40276b0:	40297d00 	call	40297d0 <__multadd>
 40276b4:	1021883a 	mov	r16,r2
 40276b8:	000f883a 	mov	r7,zero
 40276bc:	01800284 	movi	r6,10
 40276c0:	880b883a 	mov	r5,r17
 40276c4:	e009883a 	mov	r4,fp
 40276c8:	8d002526 	beq	r17,r20,4027760 <_dtoa_r+0xf9c>
 40276cc:	40297d00 	call	40297d0 <__multadd>
 40276d0:	a00b883a 	mov	r5,r20
 40276d4:	000f883a 	mov	r7,zero
 40276d8:	01800284 	movi	r6,10
 40276dc:	e009883a 	mov	r4,fp
 40276e0:	1023883a 	mov	r17,r2
 40276e4:	40297d00 	call	40297d0 <__multadd>
 40276e8:	1029883a 	mov	r20,r2
 40276ec:	b027883a 	mov	r19,r22
 40276f0:	003fc006 	br	40275f4 <__alt_data_end+0xfffe75f4>
 40276f4:	9011883a 	mov	r8,r18
 40276f8:	00800e0e 	bge	zero,r2,4027734 <_dtoa_r+0xf70>
 40276fc:	800b883a 	mov	r5,r16
 4027700:	01800044 	movi	r6,1
 4027704:	e009883a 	mov	r4,fp
 4027708:	da001715 	stw	r8,92(sp)
 402770c:	4029e800 	call	4029e80 <__lshift>
 4027710:	a80b883a 	mov	r5,r21
 4027714:	1009883a 	mov	r4,r2
 4027718:	1021883a 	mov	r16,r2
 402771c:	4029fc80 	call	4029fc8 <__mcmp>
 4027720:	da001717 	ldw	r8,92(sp)
 4027724:	0081960e 	bge	zero,r2,4027d80 <_dtoa_r+0x15bc>
 4027728:	00800e44 	movi	r2,57
 402772c:	40817026 	beq	r8,r2,4027cf0 <_dtoa_r+0x152c>
 4027730:	ba000c44 	addi	r8,r23,49
 4027734:	8825883a 	mov	r18,r17
 4027738:	9dc00044 	addi	r23,r19,1
 402773c:	9a000005 	stb	r8,0(r19)
 4027740:	a023883a 	mov	r17,r20
 4027744:	dc000915 	stw	r16,36(sp)
 4027748:	003f2406 	br	40273dc <__alt_data_end+0xfffe73dc>
 402774c:	00800e44 	movi	r2,57
 4027750:	9011883a 	mov	r8,r18
 4027754:	90816626 	beq	r18,r2,4027cf0 <_dtoa_r+0x152c>
 4027758:	05bff516 	blt	zero,r22,4027730 <__alt_data_end+0xfffe7730>
 402775c:	003ff506 	br	4027734 <__alt_data_end+0xfffe7734>
 4027760:	40297d00 	call	40297d0 <__multadd>
 4027764:	1023883a 	mov	r17,r2
 4027768:	1029883a 	mov	r20,r2
 402776c:	003fdf06 	br	40276ec <__alt_data_end+0xfffe76ec>
 4027770:	e009883a 	mov	r4,fp
 4027774:	40297a80 	call	40297a8 <_Bfree>
 4027778:	00800044 	movi	r2,1
 402777c:	003fbc06 	br	4027670 <__alt_data_end+0xfffe7670>
 4027780:	a80b883a 	mov	r5,r21
 4027784:	8009883a 	mov	r4,r16
 4027788:	4029fc80 	call	4029fc8 <__mcmp>
 402778c:	103edb0e 	bge	r2,zero,40272fc <__alt_data_end+0xfffe72fc>
 4027790:	800b883a 	mov	r5,r16
 4027794:	000f883a 	mov	r7,zero
 4027798:	01800284 	movi	r6,10
 402779c:	e009883a 	mov	r4,fp
 40277a0:	40297d00 	call	40297d0 <__multadd>
 40277a4:	1021883a 	mov	r16,r2
 40277a8:	d8800517 	ldw	r2,20(sp)
 40277ac:	d8c00b17 	ldw	r3,44(sp)
 40277b0:	10bfffc4 	addi	r2,r2,-1
 40277b4:	d8800515 	stw	r2,20(sp)
 40277b8:	183f761e 	bne	r3,zero,4027594 <__alt_data_end+0xfffe7594>
 40277bc:	d9000c17 	ldw	r4,48(sp)
 40277c0:	0101730e 	bge	zero,r4,4027d90 <_dtoa_r+0x15cc>
 40277c4:	d9000615 	stw	r4,24(sp)
 40277c8:	003ed006 	br	402730c <__alt_data_end+0xfffe730c>
 40277cc:	00800084 	movi	r2,2
 40277d0:	3081861e 	bne	r6,r2,4027dec <_dtoa_r+0x1628>
 40277d4:	d8000b15 	stw	zero,44(sp)
 40277d8:	003f3c06 	br	40274cc <__alt_data_end+0xfffe74cc>
 40277dc:	dc000917 	ldw	r16,36(sp)
 40277e0:	003e9206 	br	402722c <__alt_data_end+0xfffe722c>
 40277e4:	d9c00317 	ldw	r7,12(sp)
 40277e8:	00800084 	movi	r2,2
 40277ec:	11fec50e 	bge	r2,r7,4027304 <__alt_data_end+0xfffe7304>
 40277f0:	d9000617 	ldw	r4,24(sp)
 40277f4:	20013c1e 	bne	r4,zero,4027ce8 <_dtoa_r+0x1524>
 40277f8:	a80b883a 	mov	r5,r21
 40277fc:	000f883a 	mov	r7,zero
 4027800:	01800144 	movi	r6,5
 4027804:	e009883a 	mov	r4,fp
 4027808:	40297d00 	call	40297d0 <__multadd>
 402780c:	100b883a 	mov	r5,r2
 4027810:	8009883a 	mov	r4,r16
 4027814:	102b883a 	mov	r21,r2
 4027818:	4029fc80 	call	4029fc8 <__mcmp>
 402781c:	dc000915 	stw	r16,36(sp)
 4027820:	00bf410e 	bge	zero,r2,4027528 <__alt_data_end+0xfffe7528>
 4027824:	d9c00717 	ldw	r7,28(sp)
 4027828:	00800c44 	movi	r2,49
 402782c:	38800005 	stb	r2,0(r7)
 4027830:	d8800517 	ldw	r2,20(sp)
 4027834:	3dc00044 	addi	r23,r7,1
 4027838:	10800044 	addi	r2,r2,1
 402783c:	d8800515 	stw	r2,20(sp)
 4027840:	003f3d06 	br	4027538 <__alt_data_end+0xfffe7538>
 4027844:	d9800517 	ldw	r6,20(sp)
 4027848:	d9c00717 	ldw	r7,28(sp)
 402784c:	00800c44 	movi	r2,49
 4027850:	31800044 	addi	r6,r6,1
 4027854:	d9800515 	stw	r6,20(sp)
 4027858:	38800005 	stb	r2,0(r7)
 402785c:	003edf06 	br	40273dc <__alt_data_end+0xfffe73dc>
 4027860:	d8000b15 	stw	zero,44(sp)
 4027864:	003c9f06 	br	4026ae4 <__alt_data_end+0xfffe6ae4>
 4027868:	903e7e1e 	bne	r18,zero,4027264 <__alt_data_end+0xfffe7264>
 402786c:	00800434 	movhi	r2,16
 4027870:	10bfffc4 	addi	r2,r2,-1
 4027874:	9884703a 	and	r2,r19,r2
 4027878:	1000ea1e 	bne	r2,zero,4027c24 <_dtoa_r+0x1460>
 402787c:	9cdffc2c 	andhi	r19,r19,32752
 4027880:	9800e826 	beq	r19,zero,4027c24 <_dtoa_r+0x1460>
 4027884:	d9c00817 	ldw	r7,32(sp)
 4027888:	b5800044 	addi	r22,r22,1
 402788c:	04c00044 	movi	r19,1
 4027890:	39c00044 	addi	r7,r7,1
 4027894:	d9c00815 	stw	r7,32(sp)
 4027898:	d8800d17 	ldw	r2,52(sp)
 402789c:	103e721e 	bne	r2,zero,4027268 <__alt_data_end+0xfffe7268>
 40278a0:	00800044 	movi	r2,1
 40278a4:	003e7906 	br	402728c <__alt_data_end+0xfffe728c>
 40278a8:	8009883a 	mov	r4,r16
 40278ac:	40304d00 	call	40304d0 <__floatsidf>
 40278b0:	d9800f17 	ldw	r6,60(sp)
 40278b4:	d9c01017 	ldw	r7,64(sp)
 40278b8:	1009883a 	mov	r4,r2
 40278bc:	180b883a 	mov	r5,r3
 40278c0:	402f43c0 	call	402f43c <__muldf3>
 40278c4:	000d883a 	mov	r6,zero
 40278c8:	01d00734 	movhi	r7,16412
 40278cc:	1009883a 	mov	r4,r2
 40278d0:	180b883a 	mov	r5,r3
 40278d4:	402e0500 	call	402e050 <__adddf3>
 40278d8:	047f3034 	movhi	r17,64704
 40278dc:	1021883a 	mov	r16,r2
 40278e0:	1c63883a 	add	r17,r3,r17
 40278e4:	d9000f17 	ldw	r4,60(sp)
 40278e8:	d9401017 	ldw	r5,64(sp)
 40278ec:	000d883a 	mov	r6,zero
 40278f0:	01d00534 	movhi	r7,16404
 40278f4:	402fb540 	call	402fb54 <__subdf3>
 40278f8:	800d883a 	mov	r6,r16
 40278fc:	880f883a 	mov	r7,r17
 4027900:	1009883a 	mov	r4,r2
 4027904:	180b883a 	mov	r5,r3
 4027908:	102b883a 	mov	r21,r2
 402790c:	1829883a 	mov	r20,r3
 4027910:	402f26c0 	call	402f26c <__gedf2>
 4027914:	00806c16 	blt	zero,r2,4027ac8 <_dtoa_r+0x1304>
 4027918:	89e0003c 	xorhi	r7,r17,32768
 402791c:	800d883a 	mov	r6,r16
 4027920:	a809883a 	mov	r4,r21
 4027924:	a00b883a 	mov	r5,r20
 4027928:	402f3480 	call	402f348 <__ledf2>
 402792c:	103d7e0e 	bge	r2,zero,4026f28 <__alt_data_end+0xfffe6f28>
 4027930:	002b883a 	mov	r21,zero
 4027934:	0023883a 	mov	r17,zero
 4027938:	003efb06 	br	4027528 <__alt_data_end+0xfffe7528>
 402793c:	d8800717 	ldw	r2,28(sp)
 4027940:	003bd006 	br	4026884 <__alt_data_end+0xfffe6884>
 4027944:	d9000a17 	ldw	r4,40(sp)
 4027948:	d9800d17 	ldw	r6,52(sp)
 402794c:	dd400a15 	stw	r21,40(sp)
 4027950:	a905c83a 	sub	r2,r21,r4
 4027954:	308d883a 	add	r6,r6,r2
 4027958:	d9800d15 	stw	r6,52(sp)
 402795c:	002b883a 	mov	r21,zero
 4027960:	003e0606 	br	402717c <__alt_data_end+0xfffe717c>
 4027964:	9023883a 	mov	r17,r18
 4027968:	9829883a 	mov	r20,r19
 402796c:	04000084 	movi	r16,2
 4027970:	003c9206 	br	4026bbc <__alt_data_end+0xfffe6bbc>
 4027974:	04000044 	movi	r16,1
 4027978:	dc000c15 	stw	r16,48(sp)
 402797c:	dc000615 	stw	r16,24(sp)
 4027980:	dc002215 	stw	r16,136(sp)
 4027984:	e0001115 	stw	zero,68(fp)
 4027988:	000b883a 	mov	r5,zero
 402798c:	003c6906 	br	4026b34 <__alt_data_end+0xfffe6b34>
 4027990:	3021883a 	mov	r16,r6
 4027994:	003ffb06 	br	4027984 <__alt_data_end+0xfffe7984>
 4027998:	1000021e 	bne	r2,zero,40279a4 <_dtoa_r+0x11e0>
 402799c:	4200004c 	andi	r8,r8,1
 40279a0:	403e7d1e 	bne	r8,zero,4027398 <__alt_data_end+0xfffe7398>
 40279a4:	01000c04 	movi	r4,48
 40279a8:	00000106 	br	40279b0 <_dtoa_r+0x11ec>
 40279ac:	102f883a 	mov	r23,r2
 40279b0:	b8bfffc4 	addi	r2,r23,-1
 40279b4:	10c00007 	ldb	r3,0(r2)
 40279b8:	193ffc26 	beq	r3,r4,40279ac <__alt_data_end+0xfffe79ac>
 40279bc:	003e8706 	br	40273dc <__alt_data_end+0xfffe73dc>
 40279c0:	d8800517 	ldw	r2,20(sp)
 40279c4:	00a3c83a 	sub	r17,zero,r2
 40279c8:	8800a426 	beq	r17,zero,4027c5c <_dtoa_r+0x1498>
 40279cc:	888003cc 	andi	r2,r17,15
 40279d0:	100490fa 	slli	r2,r2,3
 40279d4:	00c100f4 	movhi	r3,1027
 40279d8:	18c4b304 	addi	r3,r3,4812
 40279dc:	1885883a 	add	r2,r3,r2
 40279e0:	11800017 	ldw	r6,0(r2)
 40279e4:	11c00117 	ldw	r7,4(r2)
 40279e8:	9009883a 	mov	r4,r18
 40279ec:	980b883a 	mov	r5,r19
 40279f0:	8823d13a 	srai	r17,r17,4
 40279f4:	402f43c0 	call	402f43c <__muldf3>
 40279f8:	d8800f15 	stw	r2,60(sp)
 40279fc:	d8c01015 	stw	r3,64(sp)
 4027a00:	8800e826 	beq	r17,zero,4027da4 <_dtoa_r+0x15e0>
 4027a04:	050100f4 	movhi	r20,1027
 4027a08:	a504a904 	addi	r20,r20,4772
 4027a0c:	04000084 	movi	r16,2
 4027a10:	8980004c 	andi	r6,r17,1
 4027a14:	1009883a 	mov	r4,r2
 4027a18:	8823d07a 	srai	r17,r17,1
 4027a1c:	180b883a 	mov	r5,r3
 4027a20:	30000426 	beq	r6,zero,4027a34 <_dtoa_r+0x1270>
 4027a24:	a1800017 	ldw	r6,0(r20)
 4027a28:	a1c00117 	ldw	r7,4(r20)
 4027a2c:	84000044 	addi	r16,r16,1
 4027a30:	402f43c0 	call	402f43c <__muldf3>
 4027a34:	a5000204 	addi	r20,r20,8
 4027a38:	883ff51e 	bne	r17,zero,4027a10 <__alt_data_end+0xfffe7a10>
 4027a3c:	d8800f15 	stw	r2,60(sp)
 4027a40:	d8c01015 	stw	r3,64(sp)
 4027a44:	003c7606 	br	4026c20 <__alt_data_end+0xfffe6c20>
 4027a48:	00c00c04 	movi	r3,48
 4027a4c:	10c00005 	stb	r3,0(r2)
 4027a50:	d8c00517 	ldw	r3,20(sp)
 4027a54:	bd3fffc3 	ldbu	r20,-1(r23)
 4027a58:	18c00044 	addi	r3,r3,1
 4027a5c:	d8c00515 	stw	r3,20(sp)
 4027a60:	003db906 	br	4027148 <__alt_data_end+0xfffe7148>
 4027a64:	89400117 	ldw	r5,4(r17)
 4027a68:	e009883a 	mov	r4,fp
 4027a6c:	40297000 	call	4029700 <_Balloc>
 4027a70:	89800417 	ldw	r6,16(r17)
 4027a74:	89400304 	addi	r5,r17,12
 4027a78:	11000304 	addi	r4,r2,12
 4027a7c:	31800084 	addi	r6,r6,2
 4027a80:	318d883a 	add	r6,r6,r6
 4027a84:	318d883a 	add	r6,r6,r6
 4027a88:	1027883a 	mov	r19,r2
 4027a8c:	40239fc0 	call	40239fc <memcpy>
 4027a90:	01800044 	movi	r6,1
 4027a94:	980b883a 	mov	r5,r19
 4027a98:	e009883a 	mov	r4,fp
 4027a9c:	4029e800 	call	4029e80 <__lshift>
 4027aa0:	1029883a 	mov	r20,r2
 4027aa4:	003ecc06 	br	40275d8 <__alt_data_end+0xfffe75d8>
 4027aa8:	00800e44 	movi	r2,57
 4027aac:	90809026 	beq	r18,r2,4027cf0 <_dtoa_r+0x152c>
 4027ab0:	92000044 	addi	r8,r18,1
 4027ab4:	003f1f06 	br	4027734 <__alt_data_end+0xfffe7734>
 4027ab8:	9011883a 	mov	r8,r18
 4027abc:	8825883a 	mov	r18,r17
 4027ac0:	a023883a 	mov	r17,r20
 4027ac4:	003e2906 	br	402736c <__alt_data_end+0xfffe736c>
 4027ac8:	002b883a 	mov	r21,zero
 4027acc:	0023883a 	mov	r17,zero
 4027ad0:	003f5406 	br	4027824 <__alt_data_end+0xfffe7824>
 4027ad4:	61bfffc4 	addi	r6,r12,-1
 4027ad8:	300490fa 	slli	r2,r6,3
 4027adc:	00c100f4 	movhi	r3,1027
 4027ae0:	18c4b304 	addi	r3,r3,4812
 4027ae4:	1885883a 	add	r2,r3,r2
 4027ae8:	11000017 	ldw	r4,0(r2)
 4027aec:	11400117 	ldw	r5,4(r2)
 4027af0:	d8800717 	ldw	r2,28(sp)
 4027af4:	880f883a 	mov	r7,r17
 4027af8:	d9801215 	stw	r6,72(sp)
 4027afc:	800d883a 	mov	r6,r16
 4027b00:	db001615 	stw	r12,88(sp)
 4027b04:	15c00044 	addi	r23,r2,1
 4027b08:	402f43c0 	call	402f43c <__muldf3>
 4027b0c:	d9401017 	ldw	r5,64(sp)
 4027b10:	d9000f17 	ldw	r4,60(sp)
 4027b14:	d8c01515 	stw	r3,84(sp)
 4027b18:	d8801415 	stw	r2,80(sp)
 4027b1c:	40304500 	call	4030450 <__fixdfsi>
 4027b20:	1009883a 	mov	r4,r2
 4027b24:	1021883a 	mov	r16,r2
 4027b28:	40304d00 	call	40304d0 <__floatsidf>
 4027b2c:	d9000f17 	ldw	r4,60(sp)
 4027b30:	d9401017 	ldw	r5,64(sp)
 4027b34:	100d883a 	mov	r6,r2
 4027b38:	180f883a 	mov	r7,r3
 4027b3c:	402fb540 	call	402fb54 <__subdf3>
 4027b40:	1829883a 	mov	r20,r3
 4027b44:	d8c00717 	ldw	r3,28(sp)
 4027b48:	84000c04 	addi	r16,r16,48
 4027b4c:	1023883a 	mov	r17,r2
 4027b50:	1c000005 	stb	r16,0(r3)
 4027b54:	db001617 	ldw	r12,88(sp)
 4027b58:	00800044 	movi	r2,1
 4027b5c:	60802226 	beq	r12,r2,4027be8 <_dtoa_r+0x1424>
 4027b60:	d9c00717 	ldw	r7,28(sp)
 4027b64:	8805883a 	mov	r2,r17
 4027b68:	b82b883a 	mov	r21,r23
 4027b6c:	3b19883a 	add	r12,r7,r12
 4027b70:	6023883a 	mov	r17,r12
 4027b74:	a007883a 	mov	r3,r20
 4027b78:	dc800f15 	stw	r18,60(sp)
 4027b7c:	000d883a 	mov	r6,zero
 4027b80:	01d00934 	movhi	r7,16420
 4027b84:	1009883a 	mov	r4,r2
 4027b88:	180b883a 	mov	r5,r3
 4027b8c:	402f43c0 	call	402f43c <__muldf3>
 4027b90:	180b883a 	mov	r5,r3
 4027b94:	1009883a 	mov	r4,r2
 4027b98:	1829883a 	mov	r20,r3
 4027b9c:	1025883a 	mov	r18,r2
 4027ba0:	40304500 	call	4030450 <__fixdfsi>
 4027ba4:	1009883a 	mov	r4,r2
 4027ba8:	1021883a 	mov	r16,r2
 4027bac:	40304d00 	call	40304d0 <__floatsidf>
 4027bb0:	100d883a 	mov	r6,r2
 4027bb4:	180f883a 	mov	r7,r3
 4027bb8:	9009883a 	mov	r4,r18
 4027bbc:	a00b883a 	mov	r5,r20
 4027bc0:	84000c04 	addi	r16,r16,48
 4027bc4:	402fb540 	call	402fb54 <__subdf3>
 4027bc8:	ad400044 	addi	r21,r21,1
 4027bcc:	ac3fffc5 	stb	r16,-1(r21)
 4027bd0:	ac7fea1e 	bne	r21,r17,4027b7c <__alt_data_end+0xfffe7b7c>
 4027bd4:	1023883a 	mov	r17,r2
 4027bd8:	d8801217 	ldw	r2,72(sp)
 4027bdc:	dc800f17 	ldw	r18,60(sp)
 4027be0:	1829883a 	mov	r20,r3
 4027be4:	b8af883a 	add	r23,r23,r2
 4027be8:	d9001417 	ldw	r4,80(sp)
 4027bec:	d9401517 	ldw	r5,84(sp)
 4027bf0:	000d883a 	mov	r6,zero
 4027bf4:	01cff834 	movhi	r7,16352
 4027bf8:	402e0500 	call	402e050 <__adddf3>
 4027bfc:	880d883a 	mov	r6,r17
 4027c00:	a00f883a 	mov	r7,r20
 4027c04:	1009883a 	mov	r4,r2
 4027c08:	180b883a 	mov	r5,r3
 4027c0c:	402f3480 	call	402f348 <__ledf2>
 4027c10:	10003e0e 	bge	r2,zero,4027d0c <_dtoa_r+0x1548>
 4027c14:	d9001317 	ldw	r4,76(sp)
 4027c18:	bd3fffc3 	ldbu	r20,-1(r23)
 4027c1c:	d9000515 	stw	r4,20(sp)
 4027c20:	003d3b06 	br	4027110 <__alt_data_end+0xfffe7110>
 4027c24:	0027883a 	mov	r19,zero
 4027c28:	003f1b06 	br	4027898 <__alt_data_end+0xfffe7898>
 4027c2c:	d8800817 	ldw	r2,32(sp)
 4027c30:	11e9c83a 	sub	r20,r2,r7
 4027c34:	0005883a 	mov	r2,zero
 4027c38:	003d5406 	br	402718c <__alt_data_end+0xfffe718c>
 4027c3c:	00800044 	movi	r2,1
 4027c40:	003dc706 	br	4027360 <__alt_data_end+0xfffe7360>
 4027c44:	d8c00217 	ldw	r3,8(sp)
 4027c48:	00800d84 	movi	r2,54
 4027c4c:	dd400a17 	ldw	r21,40(sp)
 4027c50:	10c5c83a 	sub	r2,r2,r3
 4027c54:	dd000817 	ldw	r20,32(sp)
 4027c58:	003d4c06 	br	402718c <__alt_data_end+0xfffe718c>
 4027c5c:	dc800f15 	stw	r18,60(sp)
 4027c60:	dcc01015 	stw	r19,64(sp)
 4027c64:	04000084 	movi	r16,2
 4027c68:	003bed06 	br	4026c20 <__alt_data_end+0xfffe6c20>
 4027c6c:	d9000617 	ldw	r4,24(sp)
 4027c70:	203f0d26 	beq	r4,zero,40278a8 <__alt_data_end+0xfffe78a8>
 4027c74:	d9800c17 	ldw	r6,48(sp)
 4027c78:	01bcab0e 	bge	zero,r6,4026f28 <__alt_data_end+0xfffe6f28>
 4027c7c:	d9401017 	ldw	r5,64(sp)
 4027c80:	d9000f17 	ldw	r4,60(sp)
 4027c84:	000d883a 	mov	r6,zero
 4027c88:	01d00934 	movhi	r7,16420
 4027c8c:	402f43c0 	call	402f43c <__muldf3>
 4027c90:	81000044 	addi	r4,r16,1
 4027c94:	d8800f15 	stw	r2,60(sp)
 4027c98:	d8c01015 	stw	r3,64(sp)
 4027c9c:	40304d00 	call	40304d0 <__floatsidf>
 4027ca0:	d9800f17 	ldw	r6,60(sp)
 4027ca4:	d9c01017 	ldw	r7,64(sp)
 4027ca8:	1009883a 	mov	r4,r2
 4027cac:	180b883a 	mov	r5,r3
 4027cb0:	402f43c0 	call	402f43c <__muldf3>
 4027cb4:	01d00734 	movhi	r7,16412
 4027cb8:	000d883a 	mov	r6,zero
 4027cbc:	1009883a 	mov	r4,r2
 4027cc0:	180b883a 	mov	r5,r3
 4027cc4:	402e0500 	call	402e050 <__adddf3>
 4027cc8:	d9c00517 	ldw	r7,20(sp)
 4027ccc:	047f3034 	movhi	r17,64704
 4027cd0:	1021883a 	mov	r16,r2
 4027cd4:	39ffffc4 	addi	r7,r7,-1
 4027cd8:	d9c01315 	stw	r7,76(sp)
 4027cdc:	1c63883a 	add	r17,r3,r17
 4027ce0:	db000c17 	ldw	r12,48(sp)
 4027ce4:	003bea06 	br	4026c90 <__alt_data_end+0xfffe6c90>
 4027ce8:	dc000915 	stw	r16,36(sp)
 4027cec:	003e0e06 	br	4027528 <__alt_data_end+0xfffe7528>
 4027cf0:	01000e44 	movi	r4,57
 4027cf4:	8825883a 	mov	r18,r17
 4027cf8:	9dc00044 	addi	r23,r19,1
 4027cfc:	99000005 	stb	r4,0(r19)
 4027d00:	a023883a 	mov	r17,r20
 4027d04:	dc000915 	stw	r16,36(sp)
 4027d08:	003da406 	br	402739c <__alt_data_end+0xfffe739c>
 4027d0c:	d9801417 	ldw	r6,80(sp)
 4027d10:	d9c01517 	ldw	r7,84(sp)
 4027d14:	0009883a 	mov	r4,zero
 4027d18:	014ff834 	movhi	r5,16352
 4027d1c:	402fb540 	call	402fb54 <__subdf3>
 4027d20:	880d883a 	mov	r6,r17
 4027d24:	a00f883a 	mov	r7,r20
 4027d28:	1009883a 	mov	r4,r2
 4027d2c:	180b883a 	mov	r5,r3
 4027d30:	402f26c0 	call	402f26c <__gedf2>
 4027d34:	00bc7c0e 	bge	zero,r2,4026f28 <__alt_data_end+0xfffe6f28>
 4027d38:	01000c04 	movi	r4,48
 4027d3c:	00000106 	br	4027d44 <_dtoa_r+0x1580>
 4027d40:	102f883a 	mov	r23,r2
 4027d44:	b8bfffc4 	addi	r2,r23,-1
 4027d48:	10c00007 	ldb	r3,0(r2)
 4027d4c:	193ffc26 	beq	r3,r4,4027d40 <__alt_data_end+0xfffe7d40>
 4027d50:	d9801317 	ldw	r6,76(sp)
 4027d54:	d9800515 	stw	r6,20(sp)
 4027d58:	003c4406 	br	4026e6c <__alt_data_end+0xfffe6e6c>
 4027d5c:	d9801317 	ldw	r6,76(sp)
 4027d60:	d9800515 	stw	r6,20(sp)
 4027d64:	003cea06 	br	4027110 <__alt_data_end+0xfffe7110>
 4027d68:	dd800f17 	ldw	r22,60(sp)
 4027d6c:	dcc01017 	ldw	r19,64(sp)
 4027d70:	dc801217 	ldw	r18,72(sp)
 4027d74:	003c6c06 	br	4026f28 <__alt_data_end+0xfffe6f28>
 4027d78:	903e031e 	bne	r18,zero,4027588 <__alt_data_end+0xfffe7588>
 4027d7c:	003ebb06 	br	402786c <__alt_data_end+0xfffe786c>
 4027d80:	103e6c1e 	bne	r2,zero,4027734 <__alt_data_end+0xfffe7734>
 4027d84:	4080004c 	andi	r2,r8,1
 4027d88:	103e6a26 	beq	r2,zero,4027734 <__alt_data_end+0xfffe7734>
 4027d8c:	003e6606 	br	4027728 <__alt_data_end+0xfffe7728>
 4027d90:	d8c00317 	ldw	r3,12(sp)
 4027d94:	00800084 	movi	r2,2
 4027d98:	10c02916 	blt	r2,r3,4027e40 <_dtoa_r+0x167c>
 4027d9c:	d9000c17 	ldw	r4,48(sp)
 4027da0:	003e8806 	br	40277c4 <__alt_data_end+0xfffe77c4>
 4027da4:	04000084 	movi	r16,2
 4027da8:	003b9d06 	br	4026c20 <__alt_data_end+0xfffe6c20>
 4027dac:	d9001317 	ldw	r4,76(sp)
 4027db0:	d9000515 	stw	r4,20(sp)
 4027db4:	003cd606 	br	4027110 <__alt_data_end+0xfffe7110>
 4027db8:	d8801317 	ldw	r2,76(sp)
 4027dbc:	d8800515 	stw	r2,20(sp)
 4027dc0:	003c2a06 	br	4026e6c <__alt_data_end+0xfffe6e6c>
 4027dc4:	d9800317 	ldw	r6,12(sp)
 4027dc8:	00800084 	movi	r2,2
 4027dcc:	11801516 	blt	r2,r6,4027e24 <_dtoa_r+0x1660>
 4027dd0:	d9c00c17 	ldw	r7,48(sp)
 4027dd4:	d9c00615 	stw	r7,24(sp)
 4027dd8:	003df706 	br	40275b8 <__alt_data_end+0xfffe75b8>
 4027ddc:	193d3926 	beq	r3,r4,40272c4 <__alt_data_end+0xfffe72c4>
 4027de0:	00c00f04 	movi	r3,60
 4027de4:	1885c83a 	sub	r2,r3,r2
 4027de8:	003ddf06 	br	4027568 <__alt_data_end+0xfffe7568>
 4027dec:	e009883a 	mov	r4,fp
 4027df0:	e0001115 	stw	zero,68(fp)
 4027df4:	000b883a 	mov	r5,zero
 4027df8:	40297000 	call	4029700 <_Balloc>
 4027dfc:	d8800715 	stw	r2,28(sp)
 4027e00:	d8c00717 	ldw	r3,28(sp)
 4027e04:	00bfffc4 	movi	r2,-1
 4027e08:	01000044 	movi	r4,1
 4027e0c:	d8800c15 	stw	r2,48(sp)
 4027e10:	e0c01015 	stw	r3,64(fp)
 4027e14:	d9000b15 	stw	r4,44(sp)
 4027e18:	d8800615 	stw	r2,24(sp)
 4027e1c:	d8002215 	stw	zero,136(sp)
 4027e20:	003c4106 	br	4026f28 <__alt_data_end+0xfffe6f28>
 4027e24:	d8c00c17 	ldw	r3,48(sp)
 4027e28:	d8c00615 	stw	r3,24(sp)
 4027e2c:	003e7006 	br	40277f0 <__alt_data_end+0xfffe77f0>
 4027e30:	04400044 	movi	r17,1
 4027e34:	003b2006 	br	4026ab8 <__alt_data_end+0xfffe6ab8>
 4027e38:	000b883a 	mov	r5,zero
 4027e3c:	003b3d06 	br	4026b34 <__alt_data_end+0xfffe6b34>
 4027e40:	d8800c17 	ldw	r2,48(sp)
 4027e44:	d8800615 	stw	r2,24(sp)
 4027e48:	003e6906 	br	40277f0 <__alt_data_end+0xfffe77f0>

04027e4c <__sflush_r>:
 4027e4c:	2880030b 	ldhu	r2,12(r5)
 4027e50:	defffb04 	addi	sp,sp,-20
 4027e54:	dcc00315 	stw	r19,12(sp)
 4027e58:	dc400115 	stw	r17,4(sp)
 4027e5c:	dfc00415 	stw	ra,16(sp)
 4027e60:	dc800215 	stw	r18,8(sp)
 4027e64:	dc000015 	stw	r16,0(sp)
 4027e68:	10c0020c 	andi	r3,r2,8
 4027e6c:	2823883a 	mov	r17,r5
 4027e70:	2027883a 	mov	r19,r4
 4027e74:	1800311e 	bne	r3,zero,4027f3c <__sflush_r+0xf0>
 4027e78:	28c00117 	ldw	r3,4(r5)
 4027e7c:	10820014 	ori	r2,r2,2048
 4027e80:	2880030d 	sth	r2,12(r5)
 4027e84:	00c04b0e 	bge	zero,r3,4027fb4 <__sflush_r+0x168>
 4027e88:	8a000a17 	ldw	r8,40(r17)
 4027e8c:	40002326 	beq	r8,zero,4027f1c <__sflush_r+0xd0>
 4027e90:	9c000017 	ldw	r16,0(r19)
 4027e94:	10c4000c 	andi	r3,r2,4096
 4027e98:	98000015 	stw	zero,0(r19)
 4027e9c:	18004826 	beq	r3,zero,4027fc0 <__sflush_r+0x174>
 4027ea0:	89801417 	ldw	r6,80(r17)
 4027ea4:	10c0010c 	andi	r3,r2,4
 4027ea8:	18000626 	beq	r3,zero,4027ec4 <__sflush_r+0x78>
 4027eac:	88c00117 	ldw	r3,4(r17)
 4027eb0:	88800c17 	ldw	r2,48(r17)
 4027eb4:	30cdc83a 	sub	r6,r6,r3
 4027eb8:	10000226 	beq	r2,zero,4027ec4 <__sflush_r+0x78>
 4027ebc:	88800f17 	ldw	r2,60(r17)
 4027ec0:	308dc83a 	sub	r6,r6,r2
 4027ec4:	89400717 	ldw	r5,28(r17)
 4027ec8:	000f883a 	mov	r7,zero
 4027ecc:	9809883a 	mov	r4,r19
 4027ed0:	403ee83a 	callr	r8
 4027ed4:	00ffffc4 	movi	r3,-1
 4027ed8:	10c04426 	beq	r2,r3,4027fec <__sflush_r+0x1a0>
 4027edc:	88c0030b 	ldhu	r3,12(r17)
 4027ee0:	89000417 	ldw	r4,16(r17)
 4027ee4:	88000115 	stw	zero,4(r17)
 4027ee8:	197dffcc 	andi	r5,r3,63487
 4027eec:	8940030d 	sth	r5,12(r17)
 4027ef0:	89000015 	stw	r4,0(r17)
 4027ef4:	18c4000c 	andi	r3,r3,4096
 4027ef8:	18002c1e 	bne	r3,zero,4027fac <__sflush_r+0x160>
 4027efc:	89400c17 	ldw	r5,48(r17)
 4027f00:	9c000015 	stw	r16,0(r19)
 4027f04:	28000526 	beq	r5,zero,4027f1c <__sflush_r+0xd0>
 4027f08:	88801004 	addi	r2,r17,64
 4027f0c:	28800226 	beq	r5,r2,4027f18 <__sflush_r+0xcc>
 4027f10:	9809883a 	mov	r4,r19
 4027f14:	40285b80 	call	40285b8 <_free_r>
 4027f18:	88000c15 	stw	zero,48(r17)
 4027f1c:	0005883a 	mov	r2,zero
 4027f20:	dfc00417 	ldw	ra,16(sp)
 4027f24:	dcc00317 	ldw	r19,12(sp)
 4027f28:	dc800217 	ldw	r18,8(sp)
 4027f2c:	dc400117 	ldw	r17,4(sp)
 4027f30:	dc000017 	ldw	r16,0(sp)
 4027f34:	dec00504 	addi	sp,sp,20
 4027f38:	f800283a 	ret
 4027f3c:	2c800417 	ldw	r18,16(r5)
 4027f40:	903ff626 	beq	r18,zero,4027f1c <__alt_data_end+0xfffe7f1c>
 4027f44:	2c000017 	ldw	r16,0(r5)
 4027f48:	108000cc 	andi	r2,r2,3
 4027f4c:	2c800015 	stw	r18,0(r5)
 4027f50:	84a1c83a 	sub	r16,r16,r18
 4027f54:	1000131e 	bne	r2,zero,4027fa4 <__sflush_r+0x158>
 4027f58:	28800517 	ldw	r2,20(r5)
 4027f5c:	88800215 	stw	r2,8(r17)
 4027f60:	04000316 	blt	zero,r16,4027f70 <__sflush_r+0x124>
 4027f64:	003fed06 	br	4027f1c <__alt_data_end+0xfffe7f1c>
 4027f68:	90a5883a 	add	r18,r18,r2
 4027f6c:	043feb0e 	bge	zero,r16,4027f1c <__alt_data_end+0xfffe7f1c>
 4027f70:	88800917 	ldw	r2,36(r17)
 4027f74:	89400717 	ldw	r5,28(r17)
 4027f78:	800f883a 	mov	r7,r16
 4027f7c:	900d883a 	mov	r6,r18
 4027f80:	9809883a 	mov	r4,r19
 4027f84:	103ee83a 	callr	r2
 4027f88:	80a1c83a 	sub	r16,r16,r2
 4027f8c:	00bff616 	blt	zero,r2,4027f68 <__alt_data_end+0xfffe7f68>
 4027f90:	88c0030b 	ldhu	r3,12(r17)
 4027f94:	00bfffc4 	movi	r2,-1
 4027f98:	18c01014 	ori	r3,r3,64
 4027f9c:	88c0030d 	sth	r3,12(r17)
 4027fa0:	003fdf06 	br	4027f20 <__alt_data_end+0xfffe7f20>
 4027fa4:	0005883a 	mov	r2,zero
 4027fa8:	003fec06 	br	4027f5c <__alt_data_end+0xfffe7f5c>
 4027fac:	88801415 	stw	r2,80(r17)
 4027fb0:	003fd206 	br	4027efc <__alt_data_end+0xfffe7efc>
 4027fb4:	28c00f17 	ldw	r3,60(r5)
 4027fb8:	00ffb316 	blt	zero,r3,4027e88 <__alt_data_end+0xfffe7e88>
 4027fbc:	003fd706 	br	4027f1c <__alt_data_end+0xfffe7f1c>
 4027fc0:	89400717 	ldw	r5,28(r17)
 4027fc4:	000d883a 	mov	r6,zero
 4027fc8:	01c00044 	movi	r7,1
 4027fcc:	9809883a 	mov	r4,r19
 4027fd0:	403ee83a 	callr	r8
 4027fd4:	100d883a 	mov	r6,r2
 4027fd8:	00bfffc4 	movi	r2,-1
 4027fdc:	30801426 	beq	r6,r2,4028030 <__sflush_r+0x1e4>
 4027fe0:	8880030b 	ldhu	r2,12(r17)
 4027fe4:	8a000a17 	ldw	r8,40(r17)
 4027fe8:	003fae06 	br	4027ea4 <__alt_data_end+0xfffe7ea4>
 4027fec:	98c00017 	ldw	r3,0(r19)
 4027ff0:	183fba26 	beq	r3,zero,4027edc <__alt_data_end+0xfffe7edc>
 4027ff4:	01000744 	movi	r4,29
 4027ff8:	19000626 	beq	r3,r4,4028014 <__sflush_r+0x1c8>
 4027ffc:	01000584 	movi	r4,22
 4028000:	19000426 	beq	r3,r4,4028014 <__sflush_r+0x1c8>
 4028004:	88c0030b 	ldhu	r3,12(r17)
 4028008:	18c01014 	ori	r3,r3,64
 402800c:	88c0030d 	sth	r3,12(r17)
 4028010:	003fc306 	br	4027f20 <__alt_data_end+0xfffe7f20>
 4028014:	8880030b 	ldhu	r2,12(r17)
 4028018:	88c00417 	ldw	r3,16(r17)
 402801c:	88000115 	stw	zero,4(r17)
 4028020:	10bdffcc 	andi	r2,r2,63487
 4028024:	8880030d 	sth	r2,12(r17)
 4028028:	88c00015 	stw	r3,0(r17)
 402802c:	003fb306 	br	4027efc <__alt_data_end+0xfffe7efc>
 4028030:	98800017 	ldw	r2,0(r19)
 4028034:	103fea26 	beq	r2,zero,4027fe0 <__alt_data_end+0xfffe7fe0>
 4028038:	00c00744 	movi	r3,29
 402803c:	10c00226 	beq	r2,r3,4028048 <__sflush_r+0x1fc>
 4028040:	00c00584 	movi	r3,22
 4028044:	10c0031e 	bne	r2,r3,4028054 <__sflush_r+0x208>
 4028048:	9c000015 	stw	r16,0(r19)
 402804c:	0005883a 	mov	r2,zero
 4028050:	003fb306 	br	4027f20 <__alt_data_end+0xfffe7f20>
 4028054:	88c0030b 	ldhu	r3,12(r17)
 4028058:	3005883a 	mov	r2,r6
 402805c:	18c01014 	ori	r3,r3,64
 4028060:	88c0030d 	sth	r3,12(r17)
 4028064:	003fae06 	br	4027f20 <__alt_data_end+0xfffe7f20>

04028068 <_fflush_r>:
 4028068:	defffd04 	addi	sp,sp,-12
 402806c:	dc000115 	stw	r16,4(sp)
 4028070:	dfc00215 	stw	ra,8(sp)
 4028074:	2021883a 	mov	r16,r4
 4028078:	20000226 	beq	r4,zero,4028084 <_fflush_r+0x1c>
 402807c:	20800e17 	ldw	r2,56(r4)
 4028080:	10000c26 	beq	r2,zero,40280b4 <_fflush_r+0x4c>
 4028084:	2880030f 	ldh	r2,12(r5)
 4028088:	1000051e 	bne	r2,zero,40280a0 <_fflush_r+0x38>
 402808c:	0005883a 	mov	r2,zero
 4028090:	dfc00217 	ldw	ra,8(sp)
 4028094:	dc000117 	ldw	r16,4(sp)
 4028098:	dec00304 	addi	sp,sp,12
 402809c:	f800283a 	ret
 40280a0:	8009883a 	mov	r4,r16
 40280a4:	dfc00217 	ldw	ra,8(sp)
 40280a8:	dc000117 	ldw	r16,4(sp)
 40280ac:	dec00304 	addi	sp,sp,12
 40280b0:	4027e4c1 	jmpi	4027e4c <__sflush_r>
 40280b4:	d9400015 	stw	r5,0(sp)
 40280b8:	40284440 	call	4028444 <__sinit>
 40280bc:	d9400017 	ldw	r5,0(sp)
 40280c0:	003ff006 	br	4028084 <__alt_data_end+0xfffe8084>

040280c4 <fflush>:
 40280c4:	20000526 	beq	r4,zero,40280dc <fflush+0x18>
 40280c8:	008100f4 	movhi	r2,1027
 40280cc:	108c1e04 	addi	r2,r2,12408
 40280d0:	200b883a 	mov	r5,r4
 40280d4:	11000017 	ldw	r4,0(r2)
 40280d8:	40280681 	jmpi	4028068 <_fflush_r>
 40280dc:	008100f4 	movhi	r2,1027
 40280e0:	108c1d04 	addi	r2,r2,12404
 40280e4:	11000017 	ldw	r4,0(r2)
 40280e8:	014100f4 	movhi	r5,1027
 40280ec:	29601a04 	addi	r5,r5,-32664
 40280f0:	402898c1 	jmpi	402898c <_fwalk_reent>

040280f4 <__fp_unlock>:
 40280f4:	0005883a 	mov	r2,zero
 40280f8:	f800283a 	ret

040280fc <_cleanup_r>:
 40280fc:	014100f4 	movhi	r5,1027
 4028100:	29706704 	addi	r5,r5,-15972
 4028104:	402898c1 	jmpi	402898c <_fwalk_reent>

04028108 <__sinit.part.1>:
 4028108:	defff704 	addi	sp,sp,-36
 402810c:	00c100f4 	movhi	r3,1027
 4028110:	dfc00815 	stw	ra,32(sp)
 4028114:	ddc00715 	stw	r23,28(sp)
 4028118:	dd800615 	stw	r22,24(sp)
 402811c:	dd400515 	stw	r21,20(sp)
 4028120:	dd000415 	stw	r20,16(sp)
 4028124:	dcc00315 	stw	r19,12(sp)
 4028128:	dc800215 	stw	r18,8(sp)
 402812c:	dc400115 	stw	r17,4(sp)
 4028130:	dc000015 	stw	r16,0(sp)
 4028134:	18e03f04 	addi	r3,r3,-32516
 4028138:	24000117 	ldw	r16,4(r4)
 402813c:	20c00f15 	stw	r3,60(r4)
 4028140:	2080bb04 	addi	r2,r4,748
 4028144:	00c000c4 	movi	r3,3
 4028148:	20c0b915 	stw	r3,740(r4)
 402814c:	2080ba15 	stw	r2,744(r4)
 4028150:	2000b815 	stw	zero,736(r4)
 4028154:	05c00204 	movi	r23,8
 4028158:	00800104 	movi	r2,4
 402815c:	2025883a 	mov	r18,r4
 4028160:	b80d883a 	mov	r6,r23
 4028164:	81001704 	addi	r4,r16,92
 4028168:	000b883a 	mov	r5,zero
 402816c:	80000015 	stw	zero,0(r16)
 4028170:	80000115 	stw	zero,4(r16)
 4028174:	80000215 	stw	zero,8(r16)
 4028178:	8080030d 	sth	r2,12(r16)
 402817c:	80001915 	stw	zero,100(r16)
 4028180:	8000038d 	sth	zero,14(r16)
 4028184:	80000415 	stw	zero,16(r16)
 4028188:	80000515 	stw	zero,20(r16)
 402818c:	80000615 	stw	zero,24(r16)
 4028190:	40295d80 	call	40295d8 <memset>
 4028194:	058100f4 	movhi	r22,1027
 4028198:	94400217 	ldw	r17,8(r18)
 402819c:	054100f4 	movhi	r21,1027
 40281a0:	050100f4 	movhi	r20,1027
 40281a4:	04c100f4 	movhi	r19,1027
 40281a8:	b5a9f104 	addi	r22,r22,-22588
 40281ac:	ad6a0804 	addi	r21,r21,-22496
 40281b0:	a52a2704 	addi	r20,r20,-22372
 40281b4:	9cea3e04 	addi	r19,r19,-22280
 40281b8:	85800815 	stw	r22,32(r16)
 40281bc:	85400915 	stw	r21,36(r16)
 40281c0:	85000a15 	stw	r20,40(r16)
 40281c4:	84c00b15 	stw	r19,44(r16)
 40281c8:	84000715 	stw	r16,28(r16)
 40281cc:	00800284 	movi	r2,10
 40281d0:	8880030d 	sth	r2,12(r17)
 40281d4:	00800044 	movi	r2,1
 40281d8:	b80d883a 	mov	r6,r23
 40281dc:	89001704 	addi	r4,r17,92
 40281e0:	000b883a 	mov	r5,zero
 40281e4:	88000015 	stw	zero,0(r17)
 40281e8:	88000115 	stw	zero,4(r17)
 40281ec:	88000215 	stw	zero,8(r17)
 40281f0:	88001915 	stw	zero,100(r17)
 40281f4:	8880038d 	sth	r2,14(r17)
 40281f8:	88000415 	stw	zero,16(r17)
 40281fc:	88000515 	stw	zero,20(r17)
 4028200:	88000615 	stw	zero,24(r17)
 4028204:	40295d80 	call	40295d8 <memset>
 4028208:	94000317 	ldw	r16,12(r18)
 402820c:	00800484 	movi	r2,18
 4028210:	8c400715 	stw	r17,28(r17)
 4028214:	8d800815 	stw	r22,32(r17)
 4028218:	8d400915 	stw	r21,36(r17)
 402821c:	8d000a15 	stw	r20,40(r17)
 4028220:	8cc00b15 	stw	r19,44(r17)
 4028224:	8080030d 	sth	r2,12(r16)
 4028228:	00800084 	movi	r2,2
 402822c:	80000015 	stw	zero,0(r16)
 4028230:	80000115 	stw	zero,4(r16)
 4028234:	80000215 	stw	zero,8(r16)
 4028238:	80001915 	stw	zero,100(r16)
 402823c:	8080038d 	sth	r2,14(r16)
 4028240:	80000415 	stw	zero,16(r16)
 4028244:	80000515 	stw	zero,20(r16)
 4028248:	80000615 	stw	zero,24(r16)
 402824c:	b80d883a 	mov	r6,r23
 4028250:	000b883a 	mov	r5,zero
 4028254:	81001704 	addi	r4,r16,92
 4028258:	40295d80 	call	40295d8 <memset>
 402825c:	00800044 	movi	r2,1
 4028260:	84000715 	stw	r16,28(r16)
 4028264:	85800815 	stw	r22,32(r16)
 4028268:	85400915 	stw	r21,36(r16)
 402826c:	85000a15 	stw	r20,40(r16)
 4028270:	84c00b15 	stw	r19,44(r16)
 4028274:	90800e15 	stw	r2,56(r18)
 4028278:	dfc00817 	ldw	ra,32(sp)
 402827c:	ddc00717 	ldw	r23,28(sp)
 4028280:	dd800617 	ldw	r22,24(sp)
 4028284:	dd400517 	ldw	r21,20(sp)
 4028288:	dd000417 	ldw	r20,16(sp)
 402828c:	dcc00317 	ldw	r19,12(sp)
 4028290:	dc800217 	ldw	r18,8(sp)
 4028294:	dc400117 	ldw	r17,4(sp)
 4028298:	dc000017 	ldw	r16,0(sp)
 402829c:	dec00904 	addi	sp,sp,36
 40282a0:	f800283a 	ret

040282a4 <__fp_lock>:
 40282a4:	0005883a 	mov	r2,zero
 40282a8:	f800283a 	ret

040282ac <__sfmoreglue>:
 40282ac:	defffc04 	addi	sp,sp,-16
 40282b0:	dc400115 	stw	r17,4(sp)
 40282b4:	2c7fffc4 	addi	r17,r5,-1
 40282b8:	8c401a24 	muli	r17,r17,104
 40282bc:	dc800215 	stw	r18,8(sp)
 40282c0:	2825883a 	mov	r18,r5
 40282c4:	89401d04 	addi	r5,r17,116
 40282c8:	dc000015 	stw	r16,0(sp)
 40282cc:	dfc00315 	stw	ra,12(sp)
 40282d0:	4028ce80 	call	4028ce8 <_malloc_r>
 40282d4:	1021883a 	mov	r16,r2
 40282d8:	10000726 	beq	r2,zero,40282f8 <__sfmoreglue+0x4c>
 40282dc:	11000304 	addi	r4,r2,12
 40282e0:	10000015 	stw	zero,0(r2)
 40282e4:	14800115 	stw	r18,4(r2)
 40282e8:	11000215 	stw	r4,8(r2)
 40282ec:	89801a04 	addi	r6,r17,104
 40282f0:	000b883a 	mov	r5,zero
 40282f4:	40295d80 	call	40295d8 <memset>
 40282f8:	8005883a 	mov	r2,r16
 40282fc:	dfc00317 	ldw	ra,12(sp)
 4028300:	dc800217 	ldw	r18,8(sp)
 4028304:	dc400117 	ldw	r17,4(sp)
 4028308:	dc000017 	ldw	r16,0(sp)
 402830c:	dec00404 	addi	sp,sp,16
 4028310:	f800283a 	ret

04028314 <__sfp>:
 4028314:	defffb04 	addi	sp,sp,-20
 4028318:	dc000015 	stw	r16,0(sp)
 402831c:	040100f4 	movhi	r16,1027
 4028320:	840c1d04 	addi	r16,r16,12404
 4028324:	dcc00315 	stw	r19,12(sp)
 4028328:	2027883a 	mov	r19,r4
 402832c:	81000017 	ldw	r4,0(r16)
 4028330:	dfc00415 	stw	ra,16(sp)
 4028334:	dc800215 	stw	r18,8(sp)
 4028338:	20800e17 	ldw	r2,56(r4)
 402833c:	dc400115 	stw	r17,4(sp)
 4028340:	1000021e 	bne	r2,zero,402834c <__sfp+0x38>
 4028344:	40281080 	call	4028108 <__sinit.part.1>
 4028348:	81000017 	ldw	r4,0(r16)
 402834c:	2480b804 	addi	r18,r4,736
 4028350:	047fffc4 	movi	r17,-1
 4028354:	91000117 	ldw	r4,4(r18)
 4028358:	94000217 	ldw	r16,8(r18)
 402835c:	213fffc4 	addi	r4,r4,-1
 4028360:	20000a16 	blt	r4,zero,402838c <__sfp+0x78>
 4028364:	8080030f 	ldh	r2,12(r16)
 4028368:	10000c26 	beq	r2,zero,402839c <__sfp+0x88>
 402836c:	80c01d04 	addi	r3,r16,116
 4028370:	00000206 	br	402837c <__sfp+0x68>
 4028374:	18bfe60f 	ldh	r2,-104(r3)
 4028378:	10000826 	beq	r2,zero,402839c <__sfp+0x88>
 402837c:	213fffc4 	addi	r4,r4,-1
 4028380:	1c3ffd04 	addi	r16,r3,-12
 4028384:	18c01a04 	addi	r3,r3,104
 4028388:	247ffa1e 	bne	r4,r17,4028374 <__alt_data_end+0xfffe8374>
 402838c:	90800017 	ldw	r2,0(r18)
 4028390:	10001d26 	beq	r2,zero,4028408 <__sfp+0xf4>
 4028394:	1025883a 	mov	r18,r2
 4028398:	003fee06 	br	4028354 <__alt_data_end+0xfffe8354>
 402839c:	00bfffc4 	movi	r2,-1
 40283a0:	8080038d 	sth	r2,14(r16)
 40283a4:	00800044 	movi	r2,1
 40283a8:	8080030d 	sth	r2,12(r16)
 40283ac:	80001915 	stw	zero,100(r16)
 40283b0:	80000015 	stw	zero,0(r16)
 40283b4:	80000215 	stw	zero,8(r16)
 40283b8:	80000115 	stw	zero,4(r16)
 40283bc:	80000415 	stw	zero,16(r16)
 40283c0:	80000515 	stw	zero,20(r16)
 40283c4:	80000615 	stw	zero,24(r16)
 40283c8:	01800204 	movi	r6,8
 40283cc:	000b883a 	mov	r5,zero
 40283d0:	81001704 	addi	r4,r16,92
 40283d4:	40295d80 	call	40295d8 <memset>
 40283d8:	8005883a 	mov	r2,r16
 40283dc:	80000c15 	stw	zero,48(r16)
 40283e0:	80000d15 	stw	zero,52(r16)
 40283e4:	80001115 	stw	zero,68(r16)
 40283e8:	80001215 	stw	zero,72(r16)
 40283ec:	dfc00417 	ldw	ra,16(sp)
 40283f0:	dcc00317 	ldw	r19,12(sp)
 40283f4:	dc800217 	ldw	r18,8(sp)
 40283f8:	dc400117 	ldw	r17,4(sp)
 40283fc:	dc000017 	ldw	r16,0(sp)
 4028400:	dec00504 	addi	sp,sp,20
 4028404:	f800283a 	ret
 4028408:	01400104 	movi	r5,4
 402840c:	9809883a 	mov	r4,r19
 4028410:	40282ac0 	call	40282ac <__sfmoreglue>
 4028414:	90800015 	stw	r2,0(r18)
 4028418:	103fde1e 	bne	r2,zero,4028394 <__alt_data_end+0xfffe8394>
 402841c:	00800304 	movi	r2,12
 4028420:	98800015 	stw	r2,0(r19)
 4028424:	0005883a 	mov	r2,zero
 4028428:	003ff006 	br	40283ec <__alt_data_end+0xfffe83ec>

0402842c <_cleanup>:
 402842c:	008100f4 	movhi	r2,1027
 4028430:	108c1d04 	addi	r2,r2,12404
 4028434:	11000017 	ldw	r4,0(r2)
 4028438:	014100f4 	movhi	r5,1027
 402843c:	29706704 	addi	r5,r5,-15972
 4028440:	402898c1 	jmpi	402898c <_fwalk_reent>

04028444 <__sinit>:
 4028444:	20800e17 	ldw	r2,56(r4)
 4028448:	10000126 	beq	r2,zero,4028450 <__sinit+0xc>
 402844c:	f800283a 	ret
 4028450:	40281081 	jmpi	4028108 <__sinit.part.1>

04028454 <__sfp_lock_acquire>:
 4028454:	f800283a 	ret

04028458 <__sfp_lock_release>:
 4028458:	f800283a 	ret

0402845c <__sinit_lock_acquire>:
 402845c:	f800283a 	ret

04028460 <__sinit_lock_release>:
 4028460:	f800283a 	ret

04028464 <__fp_lock_all>:
 4028464:	008100f4 	movhi	r2,1027
 4028468:	108c1e04 	addi	r2,r2,12408
 402846c:	11000017 	ldw	r4,0(r2)
 4028470:	014100f4 	movhi	r5,1027
 4028474:	2960a904 	addi	r5,r5,-32092
 4028478:	40288c81 	jmpi	40288c8 <_fwalk>

0402847c <__fp_unlock_all>:
 402847c:	008100f4 	movhi	r2,1027
 4028480:	108c1e04 	addi	r2,r2,12408
 4028484:	11000017 	ldw	r4,0(r2)
 4028488:	014100f4 	movhi	r5,1027
 402848c:	29603d04 	addi	r5,r5,-32524
 4028490:	40288c81 	jmpi	40288c8 <_fwalk>

04028494 <_malloc_trim_r>:
 4028494:	defffb04 	addi	sp,sp,-20
 4028498:	dcc00315 	stw	r19,12(sp)
 402849c:	04c100f4 	movhi	r19,1027
 40284a0:	dc800215 	stw	r18,8(sp)
 40284a4:	dc400115 	stw	r17,4(sp)
 40284a8:	dc000015 	stw	r16,0(sp)
 40284ac:	dfc00415 	stw	ra,16(sp)
 40284b0:	2821883a 	mov	r16,r5
 40284b4:	9ccb1004 	addi	r19,r19,11328
 40284b8:	2025883a 	mov	r18,r4
 40284bc:	40309c80 	call	40309c8 <__malloc_lock>
 40284c0:	98800217 	ldw	r2,8(r19)
 40284c4:	14400117 	ldw	r17,4(r2)
 40284c8:	00bfff04 	movi	r2,-4
 40284cc:	88a2703a 	and	r17,r17,r2
 40284d0:	8c21c83a 	sub	r16,r17,r16
 40284d4:	8403fbc4 	addi	r16,r16,4079
 40284d8:	8020d33a 	srli	r16,r16,12
 40284dc:	0083ffc4 	movi	r2,4095
 40284e0:	843fffc4 	addi	r16,r16,-1
 40284e4:	8020933a 	slli	r16,r16,12
 40284e8:	1400060e 	bge	r2,r16,4028504 <_malloc_trim_r+0x70>
 40284ec:	000b883a 	mov	r5,zero
 40284f0:	9009883a 	mov	r4,r18
 40284f4:	402a7700 	call	402a770 <_sbrk_r>
 40284f8:	98c00217 	ldw	r3,8(r19)
 40284fc:	1c47883a 	add	r3,r3,r17
 4028500:	10c00a26 	beq	r2,r3,402852c <_malloc_trim_r+0x98>
 4028504:	9009883a 	mov	r4,r18
 4028508:	40309ec0 	call	40309ec <__malloc_unlock>
 402850c:	0005883a 	mov	r2,zero
 4028510:	dfc00417 	ldw	ra,16(sp)
 4028514:	dcc00317 	ldw	r19,12(sp)
 4028518:	dc800217 	ldw	r18,8(sp)
 402851c:	dc400117 	ldw	r17,4(sp)
 4028520:	dc000017 	ldw	r16,0(sp)
 4028524:	dec00504 	addi	sp,sp,20
 4028528:	f800283a 	ret
 402852c:	040bc83a 	sub	r5,zero,r16
 4028530:	9009883a 	mov	r4,r18
 4028534:	402a7700 	call	402a770 <_sbrk_r>
 4028538:	00ffffc4 	movi	r3,-1
 402853c:	10c00d26 	beq	r2,r3,4028574 <_malloc_trim_r+0xe0>
 4028540:	00c100f4 	movhi	r3,1027
 4028544:	18d32e04 	addi	r3,r3,19640
 4028548:	18800017 	ldw	r2,0(r3)
 402854c:	99000217 	ldw	r4,8(r19)
 4028550:	8c23c83a 	sub	r17,r17,r16
 4028554:	8c400054 	ori	r17,r17,1
 4028558:	1421c83a 	sub	r16,r2,r16
 402855c:	24400115 	stw	r17,4(r4)
 4028560:	9009883a 	mov	r4,r18
 4028564:	1c000015 	stw	r16,0(r3)
 4028568:	40309ec0 	call	40309ec <__malloc_unlock>
 402856c:	00800044 	movi	r2,1
 4028570:	003fe706 	br	4028510 <__alt_data_end+0xfffe8510>
 4028574:	000b883a 	mov	r5,zero
 4028578:	9009883a 	mov	r4,r18
 402857c:	402a7700 	call	402a770 <_sbrk_r>
 4028580:	99000217 	ldw	r4,8(r19)
 4028584:	014003c4 	movi	r5,15
 4028588:	1107c83a 	sub	r3,r2,r4
 402858c:	28ffdd0e 	bge	r5,r3,4028504 <__alt_data_end+0xfffe8504>
 4028590:	014100f4 	movhi	r5,1027
 4028594:	294c2004 	addi	r5,r5,12416
 4028598:	29400017 	ldw	r5,0(r5)
 402859c:	18c00054 	ori	r3,r3,1
 40285a0:	20c00115 	stw	r3,4(r4)
 40285a4:	00c100f4 	movhi	r3,1027
 40285a8:	1145c83a 	sub	r2,r2,r5
 40285ac:	18d32e04 	addi	r3,r3,19640
 40285b0:	18800015 	stw	r2,0(r3)
 40285b4:	003fd306 	br	4028504 <__alt_data_end+0xfffe8504>

040285b8 <_free_r>:
 40285b8:	28004126 	beq	r5,zero,40286c0 <_free_r+0x108>
 40285bc:	defffd04 	addi	sp,sp,-12
 40285c0:	dc400115 	stw	r17,4(sp)
 40285c4:	dc000015 	stw	r16,0(sp)
 40285c8:	2023883a 	mov	r17,r4
 40285cc:	2821883a 	mov	r16,r5
 40285d0:	dfc00215 	stw	ra,8(sp)
 40285d4:	40309c80 	call	40309c8 <__malloc_lock>
 40285d8:	81ffff17 	ldw	r7,-4(r16)
 40285dc:	00bfff84 	movi	r2,-2
 40285e0:	010100f4 	movhi	r4,1027
 40285e4:	81bffe04 	addi	r6,r16,-8
 40285e8:	3884703a 	and	r2,r7,r2
 40285ec:	210b1004 	addi	r4,r4,11328
 40285f0:	308b883a 	add	r5,r6,r2
 40285f4:	2a400117 	ldw	r9,4(r5)
 40285f8:	22000217 	ldw	r8,8(r4)
 40285fc:	00ffff04 	movi	r3,-4
 4028600:	48c6703a 	and	r3,r9,r3
 4028604:	2a005726 	beq	r5,r8,4028764 <_free_r+0x1ac>
 4028608:	28c00115 	stw	r3,4(r5)
 402860c:	39c0004c 	andi	r7,r7,1
 4028610:	3800091e 	bne	r7,zero,4028638 <_free_r+0x80>
 4028614:	823ffe17 	ldw	r8,-8(r16)
 4028618:	22400204 	addi	r9,r4,8
 402861c:	320dc83a 	sub	r6,r6,r8
 4028620:	31c00217 	ldw	r7,8(r6)
 4028624:	1205883a 	add	r2,r2,r8
 4028628:	3a406526 	beq	r7,r9,40287c0 <_free_r+0x208>
 402862c:	32000317 	ldw	r8,12(r6)
 4028630:	3a000315 	stw	r8,12(r7)
 4028634:	41c00215 	stw	r7,8(r8)
 4028638:	28cf883a 	add	r7,r5,r3
 402863c:	39c00117 	ldw	r7,4(r7)
 4028640:	39c0004c 	andi	r7,r7,1
 4028644:	38003a26 	beq	r7,zero,4028730 <_free_r+0x178>
 4028648:	10c00054 	ori	r3,r2,1
 402864c:	30c00115 	stw	r3,4(r6)
 4028650:	3087883a 	add	r3,r6,r2
 4028654:	18800015 	stw	r2,0(r3)
 4028658:	00c07fc4 	movi	r3,511
 402865c:	18801936 	bltu	r3,r2,40286c4 <_free_r+0x10c>
 4028660:	1004d0fa 	srli	r2,r2,3
 4028664:	01c00044 	movi	r7,1
 4028668:	21400117 	ldw	r5,4(r4)
 402866c:	10c00044 	addi	r3,r2,1
 4028670:	18c7883a 	add	r3,r3,r3
 4028674:	1005d0ba 	srai	r2,r2,2
 4028678:	18c7883a 	add	r3,r3,r3
 402867c:	18c7883a 	add	r3,r3,r3
 4028680:	1907883a 	add	r3,r3,r4
 4028684:	3884983a 	sll	r2,r7,r2
 4028688:	19c00017 	ldw	r7,0(r3)
 402868c:	1a3ffe04 	addi	r8,r3,-8
 4028690:	1144b03a 	or	r2,r2,r5
 4028694:	32000315 	stw	r8,12(r6)
 4028698:	31c00215 	stw	r7,8(r6)
 402869c:	20800115 	stw	r2,4(r4)
 40286a0:	19800015 	stw	r6,0(r3)
 40286a4:	39800315 	stw	r6,12(r7)
 40286a8:	8809883a 	mov	r4,r17
 40286ac:	dfc00217 	ldw	ra,8(sp)
 40286b0:	dc400117 	ldw	r17,4(sp)
 40286b4:	dc000017 	ldw	r16,0(sp)
 40286b8:	dec00304 	addi	sp,sp,12
 40286bc:	40309ec1 	jmpi	40309ec <__malloc_unlock>
 40286c0:	f800283a 	ret
 40286c4:	100ad27a 	srli	r5,r2,9
 40286c8:	00c00104 	movi	r3,4
 40286cc:	19404a36 	bltu	r3,r5,40287f8 <_free_r+0x240>
 40286d0:	100ad1ba 	srli	r5,r2,6
 40286d4:	28c00e44 	addi	r3,r5,57
 40286d8:	18c7883a 	add	r3,r3,r3
 40286dc:	29400e04 	addi	r5,r5,56
 40286e0:	18c7883a 	add	r3,r3,r3
 40286e4:	18c7883a 	add	r3,r3,r3
 40286e8:	1909883a 	add	r4,r3,r4
 40286ec:	20c00017 	ldw	r3,0(r4)
 40286f0:	01c100f4 	movhi	r7,1027
 40286f4:	213ffe04 	addi	r4,r4,-8
 40286f8:	39cb1004 	addi	r7,r7,11328
 40286fc:	20c04426 	beq	r4,r3,4028810 <_free_r+0x258>
 4028700:	01ffff04 	movi	r7,-4
 4028704:	19400117 	ldw	r5,4(r3)
 4028708:	29ca703a 	and	r5,r5,r7
 402870c:	1140022e 	bgeu	r2,r5,4028718 <_free_r+0x160>
 4028710:	18c00217 	ldw	r3,8(r3)
 4028714:	20fffb1e 	bne	r4,r3,4028704 <__alt_data_end+0xfffe8704>
 4028718:	19000317 	ldw	r4,12(r3)
 402871c:	31000315 	stw	r4,12(r6)
 4028720:	30c00215 	stw	r3,8(r6)
 4028724:	21800215 	stw	r6,8(r4)
 4028728:	19800315 	stw	r6,12(r3)
 402872c:	003fde06 	br	40286a8 <__alt_data_end+0xfffe86a8>
 4028730:	29c00217 	ldw	r7,8(r5)
 4028734:	10c5883a 	add	r2,r2,r3
 4028738:	00c100f4 	movhi	r3,1027
 402873c:	18cb1204 	addi	r3,r3,11336
 4028740:	38c03b26 	beq	r7,r3,4028830 <_free_r+0x278>
 4028744:	2a000317 	ldw	r8,12(r5)
 4028748:	11400054 	ori	r5,r2,1
 402874c:	3087883a 	add	r3,r6,r2
 4028750:	3a000315 	stw	r8,12(r7)
 4028754:	41c00215 	stw	r7,8(r8)
 4028758:	31400115 	stw	r5,4(r6)
 402875c:	18800015 	stw	r2,0(r3)
 4028760:	003fbd06 	br	4028658 <__alt_data_end+0xfffe8658>
 4028764:	39c0004c 	andi	r7,r7,1
 4028768:	10c5883a 	add	r2,r2,r3
 402876c:	3800071e 	bne	r7,zero,402878c <_free_r+0x1d4>
 4028770:	81fffe17 	ldw	r7,-8(r16)
 4028774:	31cdc83a 	sub	r6,r6,r7
 4028778:	30c00317 	ldw	r3,12(r6)
 402877c:	31400217 	ldw	r5,8(r6)
 4028780:	11c5883a 	add	r2,r2,r7
 4028784:	28c00315 	stw	r3,12(r5)
 4028788:	19400215 	stw	r5,8(r3)
 402878c:	10c00054 	ori	r3,r2,1
 4028790:	30c00115 	stw	r3,4(r6)
 4028794:	00c100f4 	movhi	r3,1027
 4028798:	18cc2104 	addi	r3,r3,12420
 402879c:	18c00017 	ldw	r3,0(r3)
 40287a0:	21800215 	stw	r6,8(r4)
 40287a4:	10ffc036 	bltu	r2,r3,40286a8 <__alt_data_end+0xfffe86a8>
 40287a8:	008100f4 	movhi	r2,1027
 40287ac:	10932d04 	addi	r2,r2,19636
 40287b0:	11400017 	ldw	r5,0(r2)
 40287b4:	8809883a 	mov	r4,r17
 40287b8:	40284940 	call	4028494 <_malloc_trim_r>
 40287bc:	003fba06 	br	40286a8 <__alt_data_end+0xfffe86a8>
 40287c0:	28c9883a 	add	r4,r5,r3
 40287c4:	21000117 	ldw	r4,4(r4)
 40287c8:	2100004c 	andi	r4,r4,1
 40287cc:	2000391e 	bne	r4,zero,40288b4 <_free_r+0x2fc>
 40287d0:	29c00217 	ldw	r7,8(r5)
 40287d4:	29000317 	ldw	r4,12(r5)
 40287d8:	1885883a 	add	r2,r3,r2
 40287dc:	10c00054 	ori	r3,r2,1
 40287e0:	39000315 	stw	r4,12(r7)
 40287e4:	21c00215 	stw	r7,8(r4)
 40287e8:	30c00115 	stw	r3,4(r6)
 40287ec:	308d883a 	add	r6,r6,r2
 40287f0:	30800015 	stw	r2,0(r6)
 40287f4:	003fac06 	br	40286a8 <__alt_data_end+0xfffe86a8>
 40287f8:	00c00504 	movi	r3,20
 40287fc:	19401536 	bltu	r3,r5,4028854 <_free_r+0x29c>
 4028800:	28c01704 	addi	r3,r5,92
 4028804:	18c7883a 	add	r3,r3,r3
 4028808:	294016c4 	addi	r5,r5,91
 402880c:	003fb406 	br	40286e0 <__alt_data_end+0xfffe86e0>
 4028810:	280bd0ba 	srai	r5,r5,2
 4028814:	00c00044 	movi	r3,1
 4028818:	38800117 	ldw	r2,4(r7)
 402881c:	194a983a 	sll	r5,r3,r5
 4028820:	2007883a 	mov	r3,r4
 4028824:	2884b03a 	or	r2,r5,r2
 4028828:	38800115 	stw	r2,4(r7)
 402882c:	003fbb06 	br	402871c <__alt_data_end+0xfffe871c>
 4028830:	21800515 	stw	r6,20(r4)
 4028834:	21800415 	stw	r6,16(r4)
 4028838:	10c00054 	ori	r3,r2,1
 402883c:	31c00315 	stw	r7,12(r6)
 4028840:	31c00215 	stw	r7,8(r6)
 4028844:	30c00115 	stw	r3,4(r6)
 4028848:	308d883a 	add	r6,r6,r2
 402884c:	30800015 	stw	r2,0(r6)
 4028850:	003f9506 	br	40286a8 <__alt_data_end+0xfffe86a8>
 4028854:	00c01504 	movi	r3,84
 4028858:	19400536 	bltu	r3,r5,4028870 <_free_r+0x2b8>
 402885c:	100ad33a 	srli	r5,r2,12
 4028860:	28c01bc4 	addi	r3,r5,111
 4028864:	18c7883a 	add	r3,r3,r3
 4028868:	29401b84 	addi	r5,r5,110
 402886c:	003f9c06 	br	40286e0 <__alt_data_end+0xfffe86e0>
 4028870:	00c05504 	movi	r3,340
 4028874:	19400536 	bltu	r3,r5,402888c <_free_r+0x2d4>
 4028878:	100ad3fa 	srli	r5,r2,15
 402887c:	28c01e04 	addi	r3,r5,120
 4028880:	18c7883a 	add	r3,r3,r3
 4028884:	29401dc4 	addi	r5,r5,119
 4028888:	003f9506 	br	40286e0 <__alt_data_end+0xfffe86e0>
 402888c:	00c15504 	movi	r3,1364
 4028890:	19400536 	bltu	r3,r5,40288a8 <_free_r+0x2f0>
 4028894:	100ad4ba 	srli	r5,r2,18
 4028898:	28c01f44 	addi	r3,r5,125
 402889c:	18c7883a 	add	r3,r3,r3
 40288a0:	29401f04 	addi	r5,r5,124
 40288a4:	003f8e06 	br	40286e0 <__alt_data_end+0xfffe86e0>
 40288a8:	00c03f84 	movi	r3,254
 40288ac:	01401f84 	movi	r5,126
 40288b0:	003f8b06 	br	40286e0 <__alt_data_end+0xfffe86e0>
 40288b4:	10c00054 	ori	r3,r2,1
 40288b8:	30c00115 	stw	r3,4(r6)
 40288bc:	308d883a 	add	r6,r6,r2
 40288c0:	30800015 	stw	r2,0(r6)
 40288c4:	003f7806 	br	40286a8 <__alt_data_end+0xfffe86a8>

040288c8 <_fwalk>:
 40288c8:	defff704 	addi	sp,sp,-36
 40288cc:	dd000415 	stw	r20,16(sp)
 40288d0:	dfc00815 	stw	ra,32(sp)
 40288d4:	ddc00715 	stw	r23,28(sp)
 40288d8:	dd800615 	stw	r22,24(sp)
 40288dc:	dd400515 	stw	r21,20(sp)
 40288e0:	dcc00315 	stw	r19,12(sp)
 40288e4:	dc800215 	stw	r18,8(sp)
 40288e8:	dc400115 	stw	r17,4(sp)
 40288ec:	dc000015 	stw	r16,0(sp)
 40288f0:	2500b804 	addi	r20,r4,736
 40288f4:	a0002326 	beq	r20,zero,4028984 <_fwalk+0xbc>
 40288f8:	282b883a 	mov	r21,r5
 40288fc:	002f883a 	mov	r23,zero
 4028900:	05800044 	movi	r22,1
 4028904:	04ffffc4 	movi	r19,-1
 4028908:	a4400117 	ldw	r17,4(r20)
 402890c:	a4800217 	ldw	r18,8(r20)
 4028910:	8c7fffc4 	addi	r17,r17,-1
 4028914:	88000d16 	blt	r17,zero,402894c <_fwalk+0x84>
 4028918:	94000304 	addi	r16,r18,12
 402891c:	94800384 	addi	r18,r18,14
 4028920:	8080000b 	ldhu	r2,0(r16)
 4028924:	8c7fffc4 	addi	r17,r17,-1
 4028928:	813ffd04 	addi	r4,r16,-12
 402892c:	b080042e 	bgeu	r22,r2,4028940 <_fwalk+0x78>
 4028930:	9080000f 	ldh	r2,0(r18)
 4028934:	14c00226 	beq	r2,r19,4028940 <_fwalk+0x78>
 4028938:	a83ee83a 	callr	r21
 402893c:	b8aeb03a 	or	r23,r23,r2
 4028940:	84001a04 	addi	r16,r16,104
 4028944:	94801a04 	addi	r18,r18,104
 4028948:	8cfff51e 	bne	r17,r19,4028920 <__alt_data_end+0xfffe8920>
 402894c:	a5000017 	ldw	r20,0(r20)
 4028950:	a03fed1e 	bne	r20,zero,4028908 <__alt_data_end+0xfffe8908>
 4028954:	b805883a 	mov	r2,r23
 4028958:	dfc00817 	ldw	ra,32(sp)
 402895c:	ddc00717 	ldw	r23,28(sp)
 4028960:	dd800617 	ldw	r22,24(sp)
 4028964:	dd400517 	ldw	r21,20(sp)
 4028968:	dd000417 	ldw	r20,16(sp)
 402896c:	dcc00317 	ldw	r19,12(sp)
 4028970:	dc800217 	ldw	r18,8(sp)
 4028974:	dc400117 	ldw	r17,4(sp)
 4028978:	dc000017 	ldw	r16,0(sp)
 402897c:	dec00904 	addi	sp,sp,36
 4028980:	f800283a 	ret
 4028984:	002f883a 	mov	r23,zero
 4028988:	003ff206 	br	4028954 <__alt_data_end+0xfffe8954>

0402898c <_fwalk_reent>:
 402898c:	defff704 	addi	sp,sp,-36
 4028990:	dd000415 	stw	r20,16(sp)
 4028994:	dfc00815 	stw	ra,32(sp)
 4028998:	ddc00715 	stw	r23,28(sp)
 402899c:	dd800615 	stw	r22,24(sp)
 40289a0:	dd400515 	stw	r21,20(sp)
 40289a4:	dcc00315 	stw	r19,12(sp)
 40289a8:	dc800215 	stw	r18,8(sp)
 40289ac:	dc400115 	stw	r17,4(sp)
 40289b0:	dc000015 	stw	r16,0(sp)
 40289b4:	2500b804 	addi	r20,r4,736
 40289b8:	a0002326 	beq	r20,zero,4028a48 <_fwalk_reent+0xbc>
 40289bc:	282b883a 	mov	r21,r5
 40289c0:	2027883a 	mov	r19,r4
 40289c4:	002f883a 	mov	r23,zero
 40289c8:	05800044 	movi	r22,1
 40289cc:	04bfffc4 	movi	r18,-1
 40289d0:	a4400117 	ldw	r17,4(r20)
 40289d4:	a4000217 	ldw	r16,8(r20)
 40289d8:	8c7fffc4 	addi	r17,r17,-1
 40289dc:	88000c16 	blt	r17,zero,4028a10 <_fwalk_reent+0x84>
 40289e0:	84000304 	addi	r16,r16,12
 40289e4:	8080000b 	ldhu	r2,0(r16)
 40289e8:	8c7fffc4 	addi	r17,r17,-1
 40289ec:	817ffd04 	addi	r5,r16,-12
 40289f0:	b080052e 	bgeu	r22,r2,4028a08 <_fwalk_reent+0x7c>
 40289f4:	8080008f 	ldh	r2,2(r16)
 40289f8:	9809883a 	mov	r4,r19
 40289fc:	14800226 	beq	r2,r18,4028a08 <_fwalk_reent+0x7c>
 4028a00:	a83ee83a 	callr	r21
 4028a04:	b8aeb03a 	or	r23,r23,r2
 4028a08:	84001a04 	addi	r16,r16,104
 4028a0c:	8cbff51e 	bne	r17,r18,40289e4 <__alt_data_end+0xfffe89e4>
 4028a10:	a5000017 	ldw	r20,0(r20)
 4028a14:	a03fee1e 	bne	r20,zero,40289d0 <__alt_data_end+0xfffe89d0>
 4028a18:	b805883a 	mov	r2,r23
 4028a1c:	dfc00817 	ldw	ra,32(sp)
 4028a20:	ddc00717 	ldw	r23,28(sp)
 4028a24:	dd800617 	ldw	r22,24(sp)
 4028a28:	dd400517 	ldw	r21,20(sp)
 4028a2c:	dd000417 	ldw	r20,16(sp)
 4028a30:	dcc00317 	ldw	r19,12(sp)
 4028a34:	dc800217 	ldw	r18,8(sp)
 4028a38:	dc400117 	ldw	r17,4(sp)
 4028a3c:	dc000017 	ldw	r16,0(sp)
 4028a40:	dec00904 	addi	sp,sp,36
 4028a44:	f800283a 	ret
 4028a48:	002f883a 	mov	r23,zero
 4028a4c:	003ff206 	br	4028a18 <__alt_data_end+0xfffe8a18>

04028a50 <_setlocale_r>:
 4028a50:	30001b26 	beq	r6,zero,4028ac0 <_setlocale_r+0x70>
 4028a54:	014100f4 	movhi	r5,1027
 4028a58:	defffe04 	addi	sp,sp,-8
 4028a5c:	29449904 	addi	r5,r5,4708
 4028a60:	3009883a 	mov	r4,r6
 4028a64:	dc000015 	stw	r16,0(sp)
 4028a68:	dfc00115 	stw	ra,4(sp)
 4028a6c:	3021883a 	mov	r16,r6
 4028a70:	402a9000 	call	402a900 <strcmp>
 4028a74:	1000061e 	bne	r2,zero,4028a90 <_setlocale_r+0x40>
 4028a78:	008100f4 	movhi	r2,1027
 4028a7c:	10847b04 	addi	r2,r2,4588
 4028a80:	dfc00117 	ldw	ra,4(sp)
 4028a84:	dc000017 	ldw	r16,0(sp)
 4028a88:	dec00204 	addi	sp,sp,8
 4028a8c:	f800283a 	ret
 4028a90:	014100f4 	movhi	r5,1027
 4028a94:	29447b04 	addi	r5,r5,4588
 4028a98:	8009883a 	mov	r4,r16
 4028a9c:	402a9000 	call	402a900 <strcmp>
 4028aa0:	103ff526 	beq	r2,zero,4028a78 <__alt_data_end+0xfffe8a78>
 4028aa4:	014100f4 	movhi	r5,1027
 4028aa8:	29448404 	addi	r5,r5,4624
 4028aac:	8009883a 	mov	r4,r16
 4028ab0:	402a9000 	call	402a900 <strcmp>
 4028ab4:	103ff026 	beq	r2,zero,4028a78 <__alt_data_end+0xfffe8a78>
 4028ab8:	0005883a 	mov	r2,zero
 4028abc:	003ff006 	br	4028a80 <__alt_data_end+0xfffe8a80>
 4028ac0:	008100f4 	movhi	r2,1027
 4028ac4:	10847b04 	addi	r2,r2,4588
 4028ac8:	f800283a 	ret

04028acc <__locale_charset>:
 4028acc:	008100f4 	movhi	r2,1027
 4028ad0:	108afa04 	addi	r2,r2,11240
 4028ad4:	f800283a 	ret

04028ad8 <__locale_mb_cur_max>:
 4028ad8:	008100f4 	movhi	r2,1027
 4028adc:	108c1f04 	addi	r2,r2,12412
 4028ae0:	10800017 	ldw	r2,0(r2)
 4028ae4:	f800283a 	ret

04028ae8 <__locale_msgcharset>:
 4028ae8:	008100f4 	movhi	r2,1027
 4028aec:	108af204 	addi	r2,r2,11208
 4028af0:	f800283a 	ret

04028af4 <__locale_cjk_lang>:
 4028af4:	0005883a 	mov	r2,zero
 4028af8:	f800283a 	ret

04028afc <_localeconv_r>:
 4028afc:	008100f4 	movhi	r2,1027
 4028b00:	108b0204 	addi	r2,r2,11272
 4028b04:	f800283a 	ret

04028b08 <setlocale>:
 4028b08:	008100f4 	movhi	r2,1027
 4028b0c:	108c1e04 	addi	r2,r2,12408
 4028b10:	280d883a 	mov	r6,r5
 4028b14:	200b883a 	mov	r5,r4
 4028b18:	11000017 	ldw	r4,0(r2)
 4028b1c:	4028a501 	jmpi	4028a50 <_setlocale_r>

04028b20 <localeconv>:
 4028b20:	008100f4 	movhi	r2,1027
 4028b24:	108b0204 	addi	r2,r2,11272
 4028b28:	f800283a 	ret

04028b2c <__smakebuf_r>:
 4028b2c:	2880030b 	ldhu	r2,12(r5)
 4028b30:	10c0008c 	andi	r3,r2,2
 4028b34:	1800411e 	bne	r3,zero,4028c3c <__smakebuf_r+0x110>
 4028b38:	deffec04 	addi	sp,sp,-80
 4028b3c:	dc000f15 	stw	r16,60(sp)
 4028b40:	2821883a 	mov	r16,r5
 4028b44:	2940038f 	ldh	r5,14(r5)
 4028b48:	dc401015 	stw	r17,64(sp)
 4028b4c:	dfc01315 	stw	ra,76(sp)
 4028b50:	dcc01215 	stw	r19,72(sp)
 4028b54:	dc801115 	stw	r18,68(sp)
 4028b58:	2023883a 	mov	r17,r4
 4028b5c:	28001c16 	blt	r5,zero,4028bd0 <__smakebuf_r+0xa4>
 4028b60:	d80d883a 	mov	r6,sp
 4028b64:	402c4a80 	call	402c4a8 <_fstat_r>
 4028b68:	10001816 	blt	r2,zero,4028bcc <__smakebuf_r+0xa0>
 4028b6c:	d8800117 	ldw	r2,4(sp)
 4028b70:	00e00014 	movui	r3,32768
 4028b74:	10bc000c 	andi	r2,r2,61440
 4028b78:	14c80020 	cmpeqi	r19,r2,8192
 4028b7c:	10c03726 	beq	r2,r3,4028c5c <__smakebuf_r+0x130>
 4028b80:	80c0030b 	ldhu	r3,12(r16)
 4028b84:	18c20014 	ori	r3,r3,2048
 4028b88:	80c0030d 	sth	r3,12(r16)
 4028b8c:	00c80004 	movi	r3,8192
 4028b90:	10c0521e 	bne	r2,r3,4028cdc <__smakebuf_r+0x1b0>
 4028b94:	8140038f 	ldh	r5,14(r16)
 4028b98:	8809883a 	mov	r4,r17
 4028b9c:	402c9c00 	call	402c9c0 <_isatty_r>
 4028ba0:	10004c26 	beq	r2,zero,4028cd4 <__smakebuf_r+0x1a8>
 4028ba4:	8080030b 	ldhu	r2,12(r16)
 4028ba8:	80c010c4 	addi	r3,r16,67
 4028bac:	80c00015 	stw	r3,0(r16)
 4028bb0:	10800054 	ori	r2,r2,1
 4028bb4:	8080030d 	sth	r2,12(r16)
 4028bb8:	00800044 	movi	r2,1
 4028bbc:	80c00415 	stw	r3,16(r16)
 4028bc0:	80800515 	stw	r2,20(r16)
 4028bc4:	04810004 	movi	r18,1024
 4028bc8:	00000706 	br	4028be8 <__smakebuf_r+0xbc>
 4028bcc:	8080030b 	ldhu	r2,12(r16)
 4028bd0:	10c0200c 	andi	r3,r2,128
 4028bd4:	18001f1e 	bne	r3,zero,4028c54 <__smakebuf_r+0x128>
 4028bd8:	04810004 	movi	r18,1024
 4028bdc:	10820014 	ori	r2,r2,2048
 4028be0:	8080030d 	sth	r2,12(r16)
 4028be4:	0027883a 	mov	r19,zero
 4028be8:	900b883a 	mov	r5,r18
 4028bec:	8809883a 	mov	r4,r17
 4028bf0:	4028ce80 	call	4028ce8 <_malloc_r>
 4028bf4:	10002c26 	beq	r2,zero,4028ca8 <__smakebuf_r+0x17c>
 4028bf8:	80c0030b 	ldhu	r3,12(r16)
 4028bfc:	010100f4 	movhi	r4,1027
 4028c00:	21203f04 	addi	r4,r4,-32516
 4028c04:	89000f15 	stw	r4,60(r17)
 4028c08:	18c02014 	ori	r3,r3,128
 4028c0c:	80c0030d 	sth	r3,12(r16)
 4028c10:	80800015 	stw	r2,0(r16)
 4028c14:	80800415 	stw	r2,16(r16)
 4028c18:	84800515 	stw	r18,20(r16)
 4028c1c:	98001a1e 	bne	r19,zero,4028c88 <__smakebuf_r+0x15c>
 4028c20:	dfc01317 	ldw	ra,76(sp)
 4028c24:	dcc01217 	ldw	r19,72(sp)
 4028c28:	dc801117 	ldw	r18,68(sp)
 4028c2c:	dc401017 	ldw	r17,64(sp)
 4028c30:	dc000f17 	ldw	r16,60(sp)
 4028c34:	dec01404 	addi	sp,sp,80
 4028c38:	f800283a 	ret
 4028c3c:	288010c4 	addi	r2,r5,67
 4028c40:	28800015 	stw	r2,0(r5)
 4028c44:	28800415 	stw	r2,16(r5)
 4028c48:	00800044 	movi	r2,1
 4028c4c:	28800515 	stw	r2,20(r5)
 4028c50:	f800283a 	ret
 4028c54:	04801004 	movi	r18,64
 4028c58:	003fe006 	br	4028bdc <__alt_data_end+0xfffe8bdc>
 4028c5c:	81000a17 	ldw	r4,40(r16)
 4028c60:	00c100f4 	movhi	r3,1027
 4028c64:	18ea2704 	addi	r3,r3,-22372
 4028c68:	20ffc51e 	bne	r4,r3,4028b80 <__alt_data_end+0xfffe8b80>
 4028c6c:	8080030b 	ldhu	r2,12(r16)
 4028c70:	04810004 	movi	r18,1024
 4028c74:	84801315 	stw	r18,76(r16)
 4028c78:	1484b03a 	or	r2,r2,r18
 4028c7c:	8080030d 	sth	r2,12(r16)
 4028c80:	0027883a 	mov	r19,zero
 4028c84:	003fd806 	br	4028be8 <__alt_data_end+0xfffe8be8>
 4028c88:	8140038f 	ldh	r5,14(r16)
 4028c8c:	8809883a 	mov	r4,r17
 4028c90:	402c9c00 	call	402c9c0 <_isatty_r>
 4028c94:	103fe226 	beq	r2,zero,4028c20 <__alt_data_end+0xfffe8c20>
 4028c98:	8080030b 	ldhu	r2,12(r16)
 4028c9c:	10800054 	ori	r2,r2,1
 4028ca0:	8080030d 	sth	r2,12(r16)
 4028ca4:	003fde06 	br	4028c20 <__alt_data_end+0xfffe8c20>
 4028ca8:	8080030b 	ldhu	r2,12(r16)
 4028cac:	10c0800c 	andi	r3,r2,512
 4028cb0:	183fdb1e 	bne	r3,zero,4028c20 <__alt_data_end+0xfffe8c20>
 4028cb4:	10800094 	ori	r2,r2,2
 4028cb8:	80c010c4 	addi	r3,r16,67
 4028cbc:	8080030d 	sth	r2,12(r16)
 4028cc0:	00800044 	movi	r2,1
 4028cc4:	80c00015 	stw	r3,0(r16)
 4028cc8:	80c00415 	stw	r3,16(r16)
 4028ccc:	80800515 	stw	r2,20(r16)
 4028cd0:	003fd306 	br	4028c20 <__alt_data_end+0xfffe8c20>
 4028cd4:	04810004 	movi	r18,1024
 4028cd8:	003fc306 	br	4028be8 <__alt_data_end+0xfffe8be8>
 4028cdc:	0027883a 	mov	r19,zero
 4028ce0:	04810004 	movi	r18,1024
 4028ce4:	003fc006 	br	4028be8 <__alt_data_end+0xfffe8be8>

04028ce8 <_malloc_r>:
 4028ce8:	defff504 	addi	sp,sp,-44
 4028cec:	dc800315 	stw	r18,12(sp)
 4028cf0:	dfc00a15 	stw	ra,40(sp)
 4028cf4:	df000915 	stw	fp,36(sp)
 4028cf8:	ddc00815 	stw	r23,32(sp)
 4028cfc:	dd800715 	stw	r22,28(sp)
 4028d00:	dd400615 	stw	r21,24(sp)
 4028d04:	dd000515 	stw	r20,20(sp)
 4028d08:	dcc00415 	stw	r19,16(sp)
 4028d0c:	dc400215 	stw	r17,8(sp)
 4028d10:	dc000115 	stw	r16,4(sp)
 4028d14:	288002c4 	addi	r2,r5,11
 4028d18:	00c00584 	movi	r3,22
 4028d1c:	2025883a 	mov	r18,r4
 4028d20:	18807f2e 	bgeu	r3,r2,4028f20 <_malloc_r+0x238>
 4028d24:	047ffe04 	movi	r17,-8
 4028d28:	1462703a 	and	r17,r2,r17
 4028d2c:	8800a316 	blt	r17,zero,4028fbc <_malloc_r+0x2d4>
 4028d30:	8940a236 	bltu	r17,r5,4028fbc <_malloc_r+0x2d4>
 4028d34:	40309c80 	call	40309c8 <__malloc_lock>
 4028d38:	00807dc4 	movi	r2,503
 4028d3c:	1441e92e 	bgeu	r2,r17,40294e4 <_malloc_r+0x7fc>
 4028d40:	8804d27a 	srli	r2,r17,9
 4028d44:	1000a126 	beq	r2,zero,4028fcc <_malloc_r+0x2e4>
 4028d48:	00c00104 	movi	r3,4
 4028d4c:	18811e36 	bltu	r3,r2,40291c8 <_malloc_r+0x4e0>
 4028d50:	8804d1ba 	srli	r2,r17,6
 4028d54:	12000e44 	addi	r8,r2,57
 4028d58:	11c00e04 	addi	r7,r2,56
 4028d5c:	4209883a 	add	r4,r8,r8
 4028d60:	04c100f4 	movhi	r19,1027
 4028d64:	2109883a 	add	r4,r4,r4
 4028d68:	9ccb1004 	addi	r19,r19,11328
 4028d6c:	2109883a 	add	r4,r4,r4
 4028d70:	9909883a 	add	r4,r19,r4
 4028d74:	24000117 	ldw	r16,4(r4)
 4028d78:	213ffe04 	addi	r4,r4,-8
 4028d7c:	24009726 	beq	r4,r16,4028fdc <_malloc_r+0x2f4>
 4028d80:	80800117 	ldw	r2,4(r16)
 4028d84:	01bfff04 	movi	r6,-4
 4028d88:	014003c4 	movi	r5,15
 4028d8c:	1184703a 	and	r2,r2,r6
 4028d90:	1447c83a 	sub	r3,r2,r17
 4028d94:	28c00716 	blt	r5,r3,4028db4 <_malloc_r+0xcc>
 4028d98:	1800920e 	bge	r3,zero,4028fe4 <_malloc_r+0x2fc>
 4028d9c:	84000317 	ldw	r16,12(r16)
 4028da0:	24008e26 	beq	r4,r16,4028fdc <_malloc_r+0x2f4>
 4028da4:	80800117 	ldw	r2,4(r16)
 4028da8:	1184703a 	and	r2,r2,r6
 4028dac:	1447c83a 	sub	r3,r2,r17
 4028db0:	28fff90e 	bge	r5,r3,4028d98 <__alt_data_end+0xfffe8d98>
 4028db4:	3809883a 	mov	r4,r7
 4028db8:	018100f4 	movhi	r6,1027
 4028dbc:	9c000417 	ldw	r16,16(r19)
 4028dc0:	318b1004 	addi	r6,r6,11328
 4028dc4:	32000204 	addi	r8,r6,8
 4028dc8:	82013426 	beq	r16,r8,402929c <_malloc_r+0x5b4>
 4028dcc:	80c00117 	ldw	r3,4(r16)
 4028dd0:	00bfff04 	movi	r2,-4
 4028dd4:	188e703a 	and	r7,r3,r2
 4028dd8:	3c45c83a 	sub	r2,r7,r17
 4028ddc:	00c003c4 	movi	r3,15
 4028de0:	18811f16 	blt	r3,r2,4029260 <_malloc_r+0x578>
 4028de4:	32000515 	stw	r8,20(r6)
 4028de8:	32000415 	stw	r8,16(r6)
 4028dec:	10007f0e 	bge	r2,zero,4028fec <_malloc_r+0x304>
 4028df0:	00807fc4 	movi	r2,511
 4028df4:	11c0fd36 	bltu	r2,r7,40291ec <_malloc_r+0x504>
 4028df8:	3806d0fa 	srli	r3,r7,3
 4028dfc:	01c00044 	movi	r7,1
 4028e00:	30800117 	ldw	r2,4(r6)
 4028e04:	19400044 	addi	r5,r3,1
 4028e08:	294b883a 	add	r5,r5,r5
 4028e0c:	1807d0ba 	srai	r3,r3,2
 4028e10:	294b883a 	add	r5,r5,r5
 4028e14:	294b883a 	add	r5,r5,r5
 4028e18:	298b883a 	add	r5,r5,r6
 4028e1c:	38c6983a 	sll	r3,r7,r3
 4028e20:	29c00017 	ldw	r7,0(r5)
 4028e24:	2a7ffe04 	addi	r9,r5,-8
 4028e28:	1886b03a 	or	r3,r3,r2
 4028e2c:	82400315 	stw	r9,12(r16)
 4028e30:	81c00215 	stw	r7,8(r16)
 4028e34:	30c00115 	stw	r3,4(r6)
 4028e38:	2c000015 	stw	r16,0(r5)
 4028e3c:	3c000315 	stw	r16,12(r7)
 4028e40:	2005d0ba 	srai	r2,r4,2
 4028e44:	01400044 	movi	r5,1
 4028e48:	288a983a 	sll	r5,r5,r2
 4028e4c:	19406f36 	bltu	r3,r5,402900c <_malloc_r+0x324>
 4028e50:	28c4703a 	and	r2,r5,r3
 4028e54:	10000a1e 	bne	r2,zero,4028e80 <_malloc_r+0x198>
 4028e58:	00bfff04 	movi	r2,-4
 4028e5c:	294b883a 	add	r5,r5,r5
 4028e60:	2088703a 	and	r4,r4,r2
 4028e64:	28c4703a 	and	r2,r5,r3
 4028e68:	21000104 	addi	r4,r4,4
 4028e6c:	1000041e 	bne	r2,zero,4028e80 <_malloc_r+0x198>
 4028e70:	294b883a 	add	r5,r5,r5
 4028e74:	28c4703a 	and	r2,r5,r3
 4028e78:	21000104 	addi	r4,r4,4
 4028e7c:	103ffc26 	beq	r2,zero,4028e70 <__alt_data_end+0xfffe8e70>
 4028e80:	02bfff04 	movi	r10,-4
 4028e84:	024003c4 	movi	r9,15
 4028e88:	21800044 	addi	r6,r4,1
 4028e8c:	318d883a 	add	r6,r6,r6
 4028e90:	318d883a 	add	r6,r6,r6
 4028e94:	318d883a 	add	r6,r6,r6
 4028e98:	998d883a 	add	r6,r19,r6
 4028e9c:	333ffe04 	addi	r12,r6,-8
 4028ea0:	2017883a 	mov	r11,r4
 4028ea4:	31800104 	addi	r6,r6,4
 4028ea8:	34000017 	ldw	r16,0(r6)
 4028eac:	31fffd04 	addi	r7,r6,-12
 4028eb0:	81c0041e 	bne	r16,r7,4028ec4 <_malloc_r+0x1dc>
 4028eb4:	0000fb06 	br	40292a4 <_malloc_r+0x5bc>
 4028eb8:	1801030e 	bge	r3,zero,40292c8 <_malloc_r+0x5e0>
 4028ebc:	84000317 	ldw	r16,12(r16)
 4028ec0:	81c0f826 	beq	r16,r7,40292a4 <_malloc_r+0x5bc>
 4028ec4:	80800117 	ldw	r2,4(r16)
 4028ec8:	1284703a 	and	r2,r2,r10
 4028ecc:	1447c83a 	sub	r3,r2,r17
 4028ed0:	48fff90e 	bge	r9,r3,4028eb8 <__alt_data_end+0xfffe8eb8>
 4028ed4:	80800317 	ldw	r2,12(r16)
 4028ed8:	81000217 	ldw	r4,8(r16)
 4028edc:	89400054 	ori	r5,r17,1
 4028ee0:	81400115 	stw	r5,4(r16)
 4028ee4:	20800315 	stw	r2,12(r4)
 4028ee8:	11000215 	stw	r4,8(r2)
 4028eec:	8463883a 	add	r17,r16,r17
 4028ef0:	9c400515 	stw	r17,20(r19)
 4028ef4:	9c400415 	stw	r17,16(r19)
 4028ef8:	18800054 	ori	r2,r3,1
 4028efc:	88800115 	stw	r2,4(r17)
 4028f00:	8a000315 	stw	r8,12(r17)
 4028f04:	8a000215 	stw	r8,8(r17)
 4028f08:	88e3883a 	add	r17,r17,r3
 4028f0c:	88c00015 	stw	r3,0(r17)
 4028f10:	9009883a 	mov	r4,r18
 4028f14:	40309ec0 	call	40309ec <__malloc_unlock>
 4028f18:	80800204 	addi	r2,r16,8
 4028f1c:	00001b06 	br	4028f8c <_malloc_r+0x2a4>
 4028f20:	04400404 	movi	r17,16
 4028f24:	89402536 	bltu	r17,r5,4028fbc <_malloc_r+0x2d4>
 4028f28:	40309c80 	call	40309c8 <__malloc_lock>
 4028f2c:	00800184 	movi	r2,6
 4028f30:	01000084 	movi	r4,2
 4028f34:	04c100f4 	movhi	r19,1027
 4028f38:	1085883a 	add	r2,r2,r2
 4028f3c:	9ccb1004 	addi	r19,r19,11328
 4028f40:	1085883a 	add	r2,r2,r2
 4028f44:	9885883a 	add	r2,r19,r2
 4028f48:	14000117 	ldw	r16,4(r2)
 4028f4c:	10fffe04 	addi	r3,r2,-8
 4028f50:	80c0d926 	beq	r16,r3,40292b8 <_malloc_r+0x5d0>
 4028f54:	80c00117 	ldw	r3,4(r16)
 4028f58:	81000317 	ldw	r4,12(r16)
 4028f5c:	00bfff04 	movi	r2,-4
 4028f60:	1884703a 	and	r2,r3,r2
 4028f64:	81400217 	ldw	r5,8(r16)
 4028f68:	8085883a 	add	r2,r16,r2
 4028f6c:	10c00117 	ldw	r3,4(r2)
 4028f70:	29000315 	stw	r4,12(r5)
 4028f74:	21400215 	stw	r5,8(r4)
 4028f78:	18c00054 	ori	r3,r3,1
 4028f7c:	10c00115 	stw	r3,4(r2)
 4028f80:	9009883a 	mov	r4,r18
 4028f84:	40309ec0 	call	40309ec <__malloc_unlock>
 4028f88:	80800204 	addi	r2,r16,8
 4028f8c:	dfc00a17 	ldw	ra,40(sp)
 4028f90:	df000917 	ldw	fp,36(sp)
 4028f94:	ddc00817 	ldw	r23,32(sp)
 4028f98:	dd800717 	ldw	r22,28(sp)
 4028f9c:	dd400617 	ldw	r21,24(sp)
 4028fa0:	dd000517 	ldw	r20,20(sp)
 4028fa4:	dcc00417 	ldw	r19,16(sp)
 4028fa8:	dc800317 	ldw	r18,12(sp)
 4028fac:	dc400217 	ldw	r17,8(sp)
 4028fb0:	dc000117 	ldw	r16,4(sp)
 4028fb4:	dec00b04 	addi	sp,sp,44
 4028fb8:	f800283a 	ret
 4028fbc:	00800304 	movi	r2,12
 4028fc0:	90800015 	stw	r2,0(r18)
 4028fc4:	0005883a 	mov	r2,zero
 4028fc8:	003ff006 	br	4028f8c <__alt_data_end+0xfffe8f8c>
 4028fcc:	01002004 	movi	r4,128
 4028fd0:	02001004 	movi	r8,64
 4028fd4:	01c00fc4 	movi	r7,63
 4028fd8:	003f6106 	br	4028d60 <__alt_data_end+0xfffe8d60>
 4028fdc:	4009883a 	mov	r4,r8
 4028fe0:	003f7506 	br	4028db8 <__alt_data_end+0xfffe8db8>
 4028fe4:	81000317 	ldw	r4,12(r16)
 4028fe8:	003fde06 	br	4028f64 <__alt_data_end+0xfffe8f64>
 4028fec:	81c5883a 	add	r2,r16,r7
 4028ff0:	11400117 	ldw	r5,4(r2)
 4028ff4:	9009883a 	mov	r4,r18
 4028ff8:	29400054 	ori	r5,r5,1
 4028ffc:	11400115 	stw	r5,4(r2)
 4029000:	40309ec0 	call	40309ec <__malloc_unlock>
 4029004:	80800204 	addi	r2,r16,8
 4029008:	003fe006 	br	4028f8c <__alt_data_end+0xfffe8f8c>
 402900c:	9c000217 	ldw	r16,8(r19)
 4029010:	00bfff04 	movi	r2,-4
 4029014:	85800117 	ldw	r22,4(r16)
 4029018:	b0ac703a 	and	r22,r22,r2
 402901c:	b4400336 	bltu	r22,r17,402902c <_malloc_r+0x344>
 4029020:	b445c83a 	sub	r2,r22,r17
 4029024:	00c003c4 	movi	r3,15
 4029028:	18805d16 	blt	r3,r2,40291a0 <_malloc_r+0x4b8>
 402902c:	05c100f4 	movhi	r23,1027
 4029030:	008100f4 	movhi	r2,1027
 4029034:	10932d04 	addi	r2,r2,19636
 4029038:	bdcc2004 	addi	r23,r23,12416
 402903c:	15400017 	ldw	r21,0(r2)
 4029040:	b8c00017 	ldw	r3,0(r23)
 4029044:	00bfffc4 	movi	r2,-1
 4029048:	858d883a 	add	r6,r16,r22
 402904c:	8d6b883a 	add	r21,r17,r21
 4029050:	1880ea26 	beq	r3,r2,40293fc <_malloc_r+0x714>
 4029054:	ad4403c4 	addi	r21,r21,4111
 4029058:	00bc0004 	movi	r2,-4096
 402905c:	a8aa703a 	and	r21,r21,r2
 4029060:	a80b883a 	mov	r5,r21
 4029064:	9009883a 	mov	r4,r18
 4029068:	d9800015 	stw	r6,0(sp)
 402906c:	402a7700 	call	402a770 <_sbrk_r>
 4029070:	1029883a 	mov	r20,r2
 4029074:	00bfffc4 	movi	r2,-1
 4029078:	d9800017 	ldw	r6,0(sp)
 402907c:	a080e826 	beq	r20,r2,4029420 <_malloc_r+0x738>
 4029080:	a180a636 	bltu	r20,r6,402931c <_malloc_r+0x634>
 4029084:	070100f4 	movhi	fp,1027
 4029088:	e7132e04 	addi	fp,fp,19640
 402908c:	e0800017 	ldw	r2,0(fp)
 4029090:	a887883a 	add	r3,r21,r2
 4029094:	e0c00015 	stw	r3,0(fp)
 4029098:	3500e626 	beq	r6,r20,4029434 <_malloc_r+0x74c>
 402909c:	b9000017 	ldw	r4,0(r23)
 40290a0:	00bfffc4 	movi	r2,-1
 40290a4:	2080ee26 	beq	r4,r2,4029460 <_malloc_r+0x778>
 40290a8:	a185c83a 	sub	r2,r20,r6
 40290ac:	10c5883a 	add	r2,r2,r3
 40290b0:	e0800015 	stw	r2,0(fp)
 40290b4:	a0c001cc 	andi	r3,r20,7
 40290b8:	1800bc26 	beq	r3,zero,40293ac <_malloc_r+0x6c4>
 40290bc:	a0e9c83a 	sub	r20,r20,r3
 40290c0:	00840204 	movi	r2,4104
 40290c4:	a5000204 	addi	r20,r20,8
 40290c8:	10c7c83a 	sub	r3,r2,r3
 40290cc:	a545883a 	add	r2,r20,r21
 40290d0:	1083ffcc 	andi	r2,r2,4095
 40290d4:	18abc83a 	sub	r21,r3,r2
 40290d8:	a80b883a 	mov	r5,r21
 40290dc:	9009883a 	mov	r4,r18
 40290e0:	402a7700 	call	402a770 <_sbrk_r>
 40290e4:	00ffffc4 	movi	r3,-1
 40290e8:	10c0e126 	beq	r2,r3,4029470 <_malloc_r+0x788>
 40290ec:	1505c83a 	sub	r2,r2,r20
 40290f0:	1545883a 	add	r2,r2,r21
 40290f4:	10800054 	ori	r2,r2,1
 40290f8:	e0c00017 	ldw	r3,0(fp)
 40290fc:	9d000215 	stw	r20,8(r19)
 4029100:	a0800115 	stw	r2,4(r20)
 4029104:	a8c7883a 	add	r3,r21,r3
 4029108:	e0c00015 	stw	r3,0(fp)
 402910c:	84c00e26 	beq	r16,r19,4029148 <_malloc_r+0x460>
 4029110:	018003c4 	movi	r6,15
 4029114:	3580a72e 	bgeu	r6,r22,40293b4 <_malloc_r+0x6cc>
 4029118:	81400117 	ldw	r5,4(r16)
 402911c:	013ffe04 	movi	r4,-8
 4029120:	b0bffd04 	addi	r2,r22,-12
 4029124:	1104703a 	and	r2,r2,r4
 4029128:	2900004c 	andi	r4,r5,1
 402912c:	2088b03a 	or	r4,r4,r2
 4029130:	81000115 	stw	r4,4(r16)
 4029134:	01400144 	movi	r5,5
 4029138:	8089883a 	add	r4,r16,r2
 402913c:	21400115 	stw	r5,4(r4)
 4029140:	21400215 	stw	r5,8(r4)
 4029144:	3080cd36 	bltu	r6,r2,402947c <_malloc_r+0x794>
 4029148:	008100f4 	movhi	r2,1027
 402914c:	10932c04 	addi	r2,r2,19632
 4029150:	11000017 	ldw	r4,0(r2)
 4029154:	20c0012e 	bgeu	r4,r3,402915c <_malloc_r+0x474>
 4029158:	10c00015 	stw	r3,0(r2)
 402915c:	008100f4 	movhi	r2,1027
 4029160:	10932b04 	addi	r2,r2,19628
 4029164:	11000017 	ldw	r4,0(r2)
 4029168:	9c000217 	ldw	r16,8(r19)
 402916c:	20c0012e 	bgeu	r4,r3,4029174 <_malloc_r+0x48c>
 4029170:	10c00015 	stw	r3,0(r2)
 4029174:	80c00117 	ldw	r3,4(r16)
 4029178:	00bfff04 	movi	r2,-4
 402917c:	1886703a 	and	r3,r3,r2
 4029180:	1c45c83a 	sub	r2,r3,r17
 4029184:	1c400236 	bltu	r3,r17,4029190 <_malloc_r+0x4a8>
 4029188:	00c003c4 	movi	r3,15
 402918c:	18800416 	blt	r3,r2,40291a0 <_malloc_r+0x4b8>
 4029190:	9009883a 	mov	r4,r18
 4029194:	40309ec0 	call	40309ec <__malloc_unlock>
 4029198:	0005883a 	mov	r2,zero
 402919c:	003f7b06 	br	4028f8c <__alt_data_end+0xfffe8f8c>
 40291a0:	88c00054 	ori	r3,r17,1
 40291a4:	80c00115 	stw	r3,4(r16)
 40291a8:	8463883a 	add	r17,r16,r17
 40291ac:	10800054 	ori	r2,r2,1
 40291b0:	9c400215 	stw	r17,8(r19)
 40291b4:	88800115 	stw	r2,4(r17)
 40291b8:	9009883a 	mov	r4,r18
 40291bc:	40309ec0 	call	40309ec <__malloc_unlock>
 40291c0:	80800204 	addi	r2,r16,8
 40291c4:	003f7106 	br	4028f8c <__alt_data_end+0xfffe8f8c>
 40291c8:	00c00504 	movi	r3,20
 40291cc:	18804a2e 	bgeu	r3,r2,40292f8 <_malloc_r+0x610>
 40291d0:	00c01504 	movi	r3,84
 40291d4:	18806e36 	bltu	r3,r2,4029390 <_malloc_r+0x6a8>
 40291d8:	8804d33a 	srli	r2,r17,12
 40291dc:	12001bc4 	addi	r8,r2,111
 40291e0:	11c01b84 	addi	r7,r2,110
 40291e4:	4209883a 	add	r4,r8,r8
 40291e8:	003edd06 	br	4028d60 <__alt_data_end+0xfffe8d60>
 40291ec:	3804d27a 	srli	r2,r7,9
 40291f0:	00c00104 	movi	r3,4
 40291f4:	1880442e 	bgeu	r3,r2,4029308 <_malloc_r+0x620>
 40291f8:	00c00504 	movi	r3,20
 40291fc:	18808136 	bltu	r3,r2,4029404 <_malloc_r+0x71c>
 4029200:	11401704 	addi	r5,r2,92
 4029204:	10c016c4 	addi	r3,r2,91
 4029208:	294b883a 	add	r5,r5,r5
 402920c:	294b883a 	add	r5,r5,r5
 4029210:	294b883a 	add	r5,r5,r5
 4029214:	994b883a 	add	r5,r19,r5
 4029218:	28800017 	ldw	r2,0(r5)
 402921c:	018100f4 	movhi	r6,1027
 4029220:	297ffe04 	addi	r5,r5,-8
 4029224:	318b1004 	addi	r6,r6,11328
 4029228:	28806526 	beq	r5,r2,40293c0 <_malloc_r+0x6d8>
 402922c:	01bfff04 	movi	r6,-4
 4029230:	10c00117 	ldw	r3,4(r2)
 4029234:	1986703a 	and	r3,r3,r6
 4029238:	38c0022e 	bgeu	r7,r3,4029244 <_malloc_r+0x55c>
 402923c:	10800217 	ldw	r2,8(r2)
 4029240:	28bffb1e 	bne	r5,r2,4029230 <__alt_data_end+0xfffe9230>
 4029244:	11400317 	ldw	r5,12(r2)
 4029248:	98c00117 	ldw	r3,4(r19)
 402924c:	81400315 	stw	r5,12(r16)
 4029250:	80800215 	stw	r2,8(r16)
 4029254:	2c000215 	stw	r16,8(r5)
 4029258:	14000315 	stw	r16,12(r2)
 402925c:	003ef806 	br	4028e40 <__alt_data_end+0xfffe8e40>
 4029260:	88c00054 	ori	r3,r17,1
 4029264:	80c00115 	stw	r3,4(r16)
 4029268:	8463883a 	add	r17,r16,r17
 402926c:	34400515 	stw	r17,20(r6)
 4029270:	34400415 	stw	r17,16(r6)
 4029274:	10c00054 	ori	r3,r2,1
 4029278:	8a000315 	stw	r8,12(r17)
 402927c:	8a000215 	stw	r8,8(r17)
 4029280:	88c00115 	stw	r3,4(r17)
 4029284:	88a3883a 	add	r17,r17,r2
 4029288:	88800015 	stw	r2,0(r17)
 402928c:	9009883a 	mov	r4,r18
 4029290:	40309ec0 	call	40309ec <__malloc_unlock>
 4029294:	80800204 	addi	r2,r16,8
 4029298:	003f3c06 	br	4028f8c <__alt_data_end+0xfffe8f8c>
 402929c:	30c00117 	ldw	r3,4(r6)
 40292a0:	003ee706 	br	4028e40 <__alt_data_end+0xfffe8e40>
 40292a4:	5ac00044 	addi	r11,r11,1
 40292a8:	588000cc 	andi	r2,r11,3
 40292ac:	31800204 	addi	r6,r6,8
 40292b0:	103efd1e 	bne	r2,zero,4028ea8 <__alt_data_end+0xfffe8ea8>
 40292b4:	00002406 	br	4029348 <_malloc_r+0x660>
 40292b8:	14000317 	ldw	r16,12(r2)
 40292bc:	143f251e 	bne	r2,r16,4028f54 <__alt_data_end+0xfffe8f54>
 40292c0:	21000084 	addi	r4,r4,2
 40292c4:	003ebc06 	br	4028db8 <__alt_data_end+0xfffe8db8>
 40292c8:	8085883a 	add	r2,r16,r2
 40292cc:	10c00117 	ldw	r3,4(r2)
 40292d0:	81000317 	ldw	r4,12(r16)
 40292d4:	81400217 	ldw	r5,8(r16)
 40292d8:	18c00054 	ori	r3,r3,1
 40292dc:	10c00115 	stw	r3,4(r2)
 40292e0:	29000315 	stw	r4,12(r5)
 40292e4:	21400215 	stw	r5,8(r4)
 40292e8:	9009883a 	mov	r4,r18
 40292ec:	40309ec0 	call	40309ec <__malloc_unlock>
 40292f0:	80800204 	addi	r2,r16,8
 40292f4:	003f2506 	br	4028f8c <__alt_data_end+0xfffe8f8c>
 40292f8:	12001704 	addi	r8,r2,92
 40292fc:	11c016c4 	addi	r7,r2,91
 4029300:	4209883a 	add	r4,r8,r8
 4029304:	003e9606 	br	4028d60 <__alt_data_end+0xfffe8d60>
 4029308:	3804d1ba 	srli	r2,r7,6
 402930c:	11400e44 	addi	r5,r2,57
 4029310:	10c00e04 	addi	r3,r2,56
 4029314:	294b883a 	add	r5,r5,r5
 4029318:	003fbc06 	br	402920c <__alt_data_end+0xfffe920c>
 402931c:	84ff5926 	beq	r16,r19,4029084 <__alt_data_end+0xfffe9084>
 4029320:	008100f4 	movhi	r2,1027
 4029324:	108b1004 	addi	r2,r2,11328
 4029328:	14000217 	ldw	r16,8(r2)
 402932c:	00bfff04 	movi	r2,-4
 4029330:	80c00117 	ldw	r3,4(r16)
 4029334:	1886703a 	and	r3,r3,r2
 4029338:	003f9106 	br	4029180 <__alt_data_end+0xfffe9180>
 402933c:	60800217 	ldw	r2,8(r12)
 4029340:	213fffc4 	addi	r4,r4,-1
 4029344:	1300651e 	bne	r2,r12,40294dc <_malloc_r+0x7f4>
 4029348:	208000cc 	andi	r2,r4,3
 402934c:	633ffe04 	addi	r12,r12,-8
 4029350:	103ffa1e 	bne	r2,zero,402933c <__alt_data_end+0xfffe933c>
 4029354:	98800117 	ldw	r2,4(r19)
 4029358:	0146303a 	nor	r3,zero,r5
 402935c:	1884703a 	and	r2,r3,r2
 4029360:	98800115 	stw	r2,4(r19)
 4029364:	294b883a 	add	r5,r5,r5
 4029368:	117f2836 	bltu	r2,r5,402900c <__alt_data_end+0xfffe900c>
 402936c:	283f2726 	beq	r5,zero,402900c <__alt_data_end+0xfffe900c>
 4029370:	2886703a 	and	r3,r5,r2
 4029374:	5809883a 	mov	r4,r11
 4029378:	183ec31e 	bne	r3,zero,4028e88 <__alt_data_end+0xfffe8e88>
 402937c:	294b883a 	add	r5,r5,r5
 4029380:	2886703a 	and	r3,r5,r2
 4029384:	21000104 	addi	r4,r4,4
 4029388:	183ffc26 	beq	r3,zero,402937c <__alt_data_end+0xfffe937c>
 402938c:	003ebe06 	br	4028e88 <__alt_data_end+0xfffe8e88>
 4029390:	00c05504 	movi	r3,340
 4029394:	18801236 	bltu	r3,r2,40293e0 <_malloc_r+0x6f8>
 4029398:	8804d3fa 	srli	r2,r17,15
 402939c:	12001e04 	addi	r8,r2,120
 40293a0:	11c01dc4 	addi	r7,r2,119
 40293a4:	4209883a 	add	r4,r8,r8
 40293a8:	003e6d06 	br	4028d60 <__alt_data_end+0xfffe8d60>
 40293ac:	00c40004 	movi	r3,4096
 40293b0:	003f4606 	br	40290cc <__alt_data_end+0xfffe90cc>
 40293b4:	00800044 	movi	r2,1
 40293b8:	a0800115 	stw	r2,4(r20)
 40293bc:	003f7406 	br	4029190 <__alt_data_end+0xfffe9190>
 40293c0:	1805d0ba 	srai	r2,r3,2
 40293c4:	01c00044 	movi	r7,1
 40293c8:	30c00117 	ldw	r3,4(r6)
 40293cc:	388e983a 	sll	r7,r7,r2
 40293d0:	2805883a 	mov	r2,r5
 40293d4:	38c6b03a 	or	r3,r7,r3
 40293d8:	30c00115 	stw	r3,4(r6)
 40293dc:	003f9b06 	br	402924c <__alt_data_end+0xfffe924c>
 40293e0:	00c15504 	movi	r3,1364
 40293e4:	18801a36 	bltu	r3,r2,4029450 <_malloc_r+0x768>
 40293e8:	8804d4ba 	srli	r2,r17,18
 40293ec:	12001f44 	addi	r8,r2,125
 40293f0:	11c01f04 	addi	r7,r2,124
 40293f4:	4209883a 	add	r4,r8,r8
 40293f8:	003e5906 	br	4028d60 <__alt_data_end+0xfffe8d60>
 40293fc:	ad400404 	addi	r21,r21,16
 4029400:	003f1706 	br	4029060 <__alt_data_end+0xfffe9060>
 4029404:	00c01504 	movi	r3,84
 4029408:	18802336 	bltu	r3,r2,4029498 <_malloc_r+0x7b0>
 402940c:	3804d33a 	srli	r2,r7,12
 4029410:	11401bc4 	addi	r5,r2,111
 4029414:	10c01b84 	addi	r3,r2,110
 4029418:	294b883a 	add	r5,r5,r5
 402941c:	003f7b06 	br	402920c <__alt_data_end+0xfffe920c>
 4029420:	9c000217 	ldw	r16,8(r19)
 4029424:	00bfff04 	movi	r2,-4
 4029428:	80c00117 	ldw	r3,4(r16)
 402942c:	1886703a 	and	r3,r3,r2
 4029430:	003f5306 	br	4029180 <__alt_data_end+0xfffe9180>
 4029434:	3083ffcc 	andi	r2,r6,4095
 4029438:	103f181e 	bne	r2,zero,402909c <__alt_data_end+0xfffe909c>
 402943c:	99000217 	ldw	r4,8(r19)
 4029440:	b545883a 	add	r2,r22,r21
 4029444:	10800054 	ori	r2,r2,1
 4029448:	20800115 	stw	r2,4(r4)
 402944c:	003f3e06 	br	4029148 <__alt_data_end+0xfffe9148>
 4029450:	01003f84 	movi	r4,254
 4029454:	02001fc4 	movi	r8,127
 4029458:	01c01f84 	movi	r7,126
 402945c:	003e4006 	br	4028d60 <__alt_data_end+0xfffe8d60>
 4029460:	008100f4 	movhi	r2,1027
 4029464:	108c2004 	addi	r2,r2,12416
 4029468:	15000015 	stw	r20,0(r2)
 402946c:	003f1106 	br	40290b4 <__alt_data_end+0xfffe90b4>
 4029470:	00800044 	movi	r2,1
 4029474:	002b883a 	mov	r21,zero
 4029478:	003f1f06 	br	40290f8 <__alt_data_end+0xfffe90f8>
 402947c:	81400204 	addi	r5,r16,8
 4029480:	9009883a 	mov	r4,r18
 4029484:	40285b80 	call	40285b8 <_free_r>
 4029488:	008100f4 	movhi	r2,1027
 402948c:	10932e04 	addi	r2,r2,19640
 4029490:	10c00017 	ldw	r3,0(r2)
 4029494:	003f2c06 	br	4029148 <__alt_data_end+0xfffe9148>
 4029498:	00c05504 	movi	r3,340
 402949c:	18800536 	bltu	r3,r2,40294b4 <_malloc_r+0x7cc>
 40294a0:	3804d3fa 	srli	r2,r7,15
 40294a4:	11401e04 	addi	r5,r2,120
 40294a8:	10c01dc4 	addi	r3,r2,119
 40294ac:	294b883a 	add	r5,r5,r5
 40294b0:	003f5606 	br	402920c <__alt_data_end+0xfffe920c>
 40294b4:	00c15504 	movi	r3,1364
 40294b8:	18800536 	bltu	r3,r2,40294d0 <_malloc_r+0x7e8>
 40294bc:	3804d4ba 	srli	r2,r7,18
 40294c0:	11401f44 	addi	r5,r2,125
 40294c4:	10c01f04 	addi	r3,r2,124
 40294c8:	294b883a 	add	r5,r5,r5
 40294cc:	003f4f06 	br	402920c <__alt_data_end+0xfffe920c>
 40294d0:	01403f84 	movi	r5,254
 40294d4:	00c01f84 	movi	r3,126
 40294d8:	003f4c06 	br	402920c <__alt_data_end+0xfffe920c>
 40294dc:	98800117 	ldw	r2,4(r19)
 40294e0:	003fa006 	br	4029364 <__alt_data_end+0xfffe9364>
 40294e4:	8808d0fa 	srli	r4,r17,3
 40294e8:	20800044 	addi	r2,r4,1
 40294ec:	1085883a 	add	r2,r2,r2
 40294f0:	003e9006 	br	4028f34 <__alt_data_end+0xfffe8f34>

040294f4 <memchr>:
 40294f4:	208000cc 	andi	r2,r4,3
 40294f8:	280f883a 	mov	r7,r5
 40294fc:	10003426 	beq	r2,zero,40295d0 <memchr+0xdc>
 4029500:	30bfffc4 	addi	r2,r6,-1
 4029504:	30001a26 	beq	r6,zero,4029570 <memchr+0x7c>
 4029508:	20c00003 	ldbu	r3,0(r4)
 402950c:	29803fcc 	andi	r6,r5,255
 4029510:	30c0051e 	bne	r6,r3,4029528 <memchr+0x34>
 4029514:	00001806 	br	4029578 <memchr+0x84>
 4029518:	10001526 	beq	r2,zero,4029570 <memchr+0x7c>
 402951c:	20c00003 	ldbu	r3,0(r4)
 4029520:	10bfffc4 	addi	r2,r2,-1
 4029524:	30c01426 	beq	r6,r3,4029578 <memchr+0x84>
 4029528:	21000044 	addi	r4,r4,1
 402952c:	20c000cc 	andi	r3,r4,3
 4029530:	183ff91e 	bne	r3,zero,4029518 <__alt_data_end+0xfffe9518>
 4029534:	020000c4 	movi	r8,3
 4029538:	40801136 	bltu	r8,r2,4029580 <memchr+0x8c>
 402953c:	10000c26 	beq	r2,zero,4029570 <memchr+0x7c>
 4029540:	20c00003 	ldbu	r3,0(r4)
 4029544:	29403fcc 	andi	r5,r5,255
 4029548:	28c00b26 	beq	r5,r3,4029578 <memchr+0x84>
 402954c:	20c00044 	addi	r3,r4,1
 4029550:	39803fcc 	andi	r6,r7,255
 4029554:	2089883a 	add	r4,r4,r2
 4029558:	00000306 	br	4029568 <memchr+0x74>
 402955c:	18c00044 	addi	r3,r3,1
 4029560:	197fffc3 	ldbu	r5,-1(r3)
 4029564:	31400526 	beq	r6,r5,402957c <memchr+0x88>
 4029568:	1805883a 	mov	r2,r3
 402956c:	20fffb1e 	bne	r4,r3,402955c <__alt_data_end+0xfffe955c>
 4029570:	0005883a 	mov	r2,zero
 4029574:	f800283a 	ret
 4029578:	2005883a 	mov	r2,r4
 402957c:	f800283a 	ret
 4029580:	28c03fcc 	andi	r3,r5,255
 4029584:	1812923a 	slli	r9,r3,8
 4029588:	02ffbff4 	movhi	r11,65279
 402958c:	02a02074 	movhi	r10,32897
 4029590:	48d2b03a 	or	r9,r9,r3
 4029594:	4806943a 	slli	r3,r9,16
 4029598:	5affbfc4 	addi	r11,r11,-257
 402959c:	52a02004 	addi	r10,r10,-32640
 40295a0:	48d2b03a 	or	r9,r9,r3
 40295a4:	20c00017 	ldw	r3,0(r4)
 40295a8:	48c6f03a 	xor	r3,r9,r3
 40295ac:	1acd883a 	add	r6,r3,r11
 40295b0:	00c6303a 	nor	r3,zero,r3
 40295b4:	30c6703a 	and	r3,r6,r3
 40295b8:	1a86703a 	and	r3,r3,r10
 40295bc:	183fe01e 	bne	r3,zero,4029540 <__alt_data_end+0xfffe9540>
 40295c0:	10bfff04 	addi	r2,r2,-4
 40295c4:	21000104 	addi	r4,r4,4
 40295c8:	40bff636 	bltu	r8,r2,40295a4 <__alt_data_end+0xfffe95a4>
 40295cc:	003fdb06 	br	402953c <__alt_data_end+0xfffe953c>
 40295d0:	3005883a 	mov	r2,r6
 40295d4:	003fd706 	br	4029534 <__alt_data_end+0xfffe9534>

040295d8 <memset>:
 40295d8:	20c000cc 	andi	r3,r4,3
 40295dc:	2005883a 	mov	r2,r4
 40295e0:	18004426 	beq	r3,zero,40296f4 <memset+0x11c>
 40295e4:	31ffffc4 	addi	r7,r6,-1
 40295e8:	30004026 	beq	r6,zero,40296ec <memset+0x114>
 40295ec:	2813883a 	mov	r9,r5
 40295f0:	200d883a 	mov	r6,r4
 40295f4:	2007883a 	mov	r3,r4
 40295f8:	00000406 	br	402960c <memset+0x34>
 40295fc:	3a3fffc4 	addi	r8,r7,-1
 4029600:	31800044 	addi	r6,r6,1
 4029604:	38003926 	beq	r7,zero,40296ec <memset+0x114>
 4029608:	400f883a 	mov	r7,r8
 402960c:	18c00044 	addi	r3,r3,1
 4029610:	32400005 	stb	r9,0(r6)
 4029614:	1a0000cc 	andi	r8,r3,3
 4029618:	403ff81e 	bne	r8,zero,40295fc <__alt_data_end+0xfffe95fc>
 402961c:	010000c4 	movi	r4,3
 4029620:	21c02d2e 	bgeu	r4,r7,40296d8 <memset+0x100>
 4029624:	29003fcc 	andi	r4,r5,255
 4029628:	200c923a 	slli	r6,r4,8
 402962c:	3108b03a 	or	r4,r6,r4
 4029630:	200c943a 	slli	r6,r4,16
 4029634:	218cb03a 	or	r6,r4,r6
 4029638:	010003c4 	movi	r4,15
 402963c:	21c0182e 	bgeu	r4,r7,40296a0 <memset+0xc8>
 4029640:	3b3ffc04 	addi	r12,r7,-16
 4029644:	6018d13a 	srli	r12,r12,4
 4029648:	1a000104 	addi	r8,r3,4
 402964c:	1ac00204 	addi	r11,r3,8
 4029650:	6008913a 	slli	r4,r12,4
 4029654:	1a800304 	addi	r10,r3,12
 4029658:	1813883a 	mov	r9,r3
 402965c:	21000504 	addi	r4,r4,20
 4029660:	1909883a 	add	r4,r3,r4
 4029664:	49800015 	stw	r6,0(r9)
 4029668:	41800015 	stw	r6,0(r8)
 402966c:	59800015 	stw	r6,0(r11)
 4029670:	51800015 	stw	r6,0(r10)
 4029674:	42000404 	addi	r8,r8,16
 4029678:	4a400404 	addi	r9,r9,16
 402967c:	5ac00404 	addi	r11,r11,16
 4029680:	52800404 	addi	r10,r10,16
 4029684:	413ff71e 	bne	r8,r4,4029664 <__alt_data_end+0xfffe9664>
 4029688:	63000044 	addi	r12,r12,1
 402968c:	6018913a 	slli	r12,r12,4
 4029690:	39c003cc 	andi	r7,r7,15
 4029694:	010000c4 	movi	r4,3
 4029698:	1b07883a 	add	r3,r3,r12
 402969c:	21c00e2e 	bgeu	r4,r7,40296d8 <memset+0x100>
 40296a0:	1813883a 	mov	r9,r3
 40296a4:	3811883a 	mov	r8,r7
 40296a8:	010000c4 	movi	r4,3
 40296ac:	49800015 	stw	r6,0(r9)
 40296b0:	423fff04 	addi	r8,r8,-4
 40296b4:	4a400104 	addi	r9,r9,4
 40296b8:	223ffc36 	bltu	r4,r8,40296ac <__alt_data_end+0xfffe96ac>
 40296bc:	393fff04 	addi	r4,r7,-4
 40296c0:	2008d0ba 	srli	r4,r4,2
 40296c4:	39c000cc 	andi	r7,r7,3
 40296c8:	21000044 	addi	r4,r4,1
 40296cc:	2109883a 	add	r4,r4,r4
 40296d0:	2109883a 	add	r4,r4,r4
 40296d4:	1907883a 	add	r3,r3,r4
 40296d8:	38000526 	beq	r7,zero,40296f0 <memset+0x118>
 40296dc:	19cf883a 	add	r7,r3,r7
 40296e0:	19400005 	stb	r5,0(r3)
 40296e4:	18c00044 	addi	r3,r3,1
 40296e8:	38fffd1e 	bne	r7,r3,40296e0 <__alt_data_end+0xfffe96e0>
 40296ec:	f800283a 	ret
 40296f0:	f800283a 	ret
 40296f4:	2007883a 	mov	r3,r4
 40296f8:	300f883a 	mov	r7,r6
 40296fc:	003fc706 	br	402961c <__alt_data_end+0xfffe961c>

04029700 <_Balloc>:
 4029700:	20801317 	ldw	r2,76(r4)
 4029704:	defffc04 	addi	sp,sp,-16
 4029708:	dc400115 	stw	r17,4(sp)
 402970c:	dc000015 	stw	r16,0(sp)
 4029710:	dfc00315 	stw	ra,12(sp)
 4029714:	dc800215 	stw	r18,8(sp)
 4029718:	2023883a 	mov	r17,r4
 402971c:	2821883a 	mov	r16,r5
 4029720:	10000f26 	beq	r2,zero,4029760 <_Balloc+0x60>
 4029724:	8407883a 	add	r3,r16,r16
 4029728:	18c7883a 	add	r3,r3,r3
 402972c:	10c7883a 	add	r3,r2,r3
 4029730:	18800017 	ldw	r2,0(r3)
 4029734:	10001126 	beq	r2,zero,402977c <_Balloc+0x7c>
 4029738:	11000017 	ldw	r4,0(r2)
 402973c:	19000015 	stw	r4,0(r3)
 4029740:	10000415 	stw	zero,16(r2)
 4029744:	10000315 	stw	zero,12(r2)
 4029748:	dfc00317 	ldw	ra,12(sp)
 402974c:	dc800217 	ldw	r18,8(sp)
 4029750:	dc400117 	ldw	r17,4(sp)
 4029754:	dc000017 	ldw	r16,0(sp)
 4029758:	dec00404 	addi	sp,sp,16
 402975c:	f800283a 	ret
 4029760:	01800844 	movi	r6,33
 4029764:	01400104 	movi	r5,4
 4029768:	402c0d80 	call	402c0d8 <_calloc_r>
 402976c:	88801315 	stw	r2,76(r17)
 4029770:	103fec1e 	bne	r2,zero,4029724 <__alt_data_end+0xfffe9724>
 4029774:	0005883a 	mov	r2,zero
 4029778:	003ff306 	br	4029748 <__alt_data_end+0xfffe9748>
 402977c:	01400044 	movi	r5,1
 4029780:	2c24983a 	sll	r18,r5,r16
 4029784:	8809883a 	mov	r4,r17
 4029788:	91800144 	addi	r6,r18,5
 402978c:	318d883a 	add	r6,r6,r6
 4029790:	318d883a 	add	r6,r6,r6
 4029794:	402c0d80 	call	402c0d8 <_calloc_r>
 4029798:	103ff626 	beq	r2,zero,4029774 <__alt_data_end+0xfffe9774>
 402979c:	14000115 	stw	r16,4(r2)
 40297a0:	14800215 	stw	r18,8(r2)
 40297a4:	003fe606 	br	4029740 <__alt_data_end+0xfffe9740>

040297a8 <_Bfree>:
 40297a8:	28000826 	beq	r5,zero,40297cc <_Bfree+0x24>
 40297ac:	28c00117 	ldw	r3,4(r5)
 40297b0:	20801317 	ldw	r2,76(r4)
 40297b4:	18c7883a 	add	r3,r3,r3
 40297b8:	18c7883a 	add	r3,r3,r3
 40297bc:	10c5883a 	add	r2,r2,r3
 40297c0:	10c00017 	ldw	r3,0(r2)
 40297c4:	28c00015 	stw	r3,0(r5)
 40297c8:	11400015 	stw	r5,0(r2)
 40297cc:	f800283a 	ret

040297d0 <__multadd>:
 40297d0:	defffa04 	addi	sp,sp,-24
 40297d4:	dc800315 	stw	r18,12(sp)
 40297d8:	dc400215 	stw	r17,8(sp)
 40297dc:	dc000115 	stw	r16,4(sp)
 40297e0:	2823883a 	mov	r17,r5
 40297e4:	2c000417 	ldw	r16,16(r5)
 40297e8:	dfc00515 	stw	ra,20(sp)
 40297ec:	dcc00415 	stw	r19,16(sp)
 40297f0:	2025883a 	mov	r18,r4
 40297f4:	29400504 	addi	r5,r5,20
 40297f8:	0011883a 	mov	r8,zero
 40297fc:	28c00017 	ldw	r3,0(r5)
 4029800:	29400104 	addi	r5,r5,4
 4029804:	42000044 	addi	r8,r8,1
 4029808:	18bfffcc 	andi	r2,r3,65535
 402980c:	1185383a 	mul	r2,r2,r6
 4029810:	1806d43a 	srli	r3,r3,16
 4029814:	11cf883a 	add	r7,r2,r7
 4029818:	3808d43a 	srli	r4,r7,16
 402981c:	1987383a 	mul	r3,r3,r6
 4029820:	38bfffcc 	andi	r2,r7,65535
 4029824:	1907883a 	add	r3,r3,r4
 4029828:	1808943a 	slli	r4,r3,16
 402982c:	180ed43a 	srli	r7,r3,16
 4029830:	2085883a 	add	r2,r4,r2
 4029834:	28bfff15 	stw	r2,-4(r5)
 4029838:	443ff016 	blt	r8,r16,40297fc <__alt_data_end+0xfffe97fc>
 402983c:	38000926 	beq	r7,zero,4029864 <__multadd+0x94>
 4029840:	88800217 	ldw	r2,8(r17)
 4029844:	80800f0e 	bge	r16,r2,4029884 <__multadd+0xb4>
 4029848:	80800144 	addi	r2,r16,5
 402984c:	1085883a 	add	r2,r2,r2
 4029850:	1085883a 	add	r2,r2,r2
 4029854:	8885883a 	add	r2,r17,r2
 4029858:	11c00015 	stw	r7,0(r2)
 402985c:	84000044 	addi	r16,r16,1
 4029860:	8c000415 	stw	r16,16(r17)
 4029864:	8805883a 	mov	r2,r17
 4029868:	dfc00517 	ldw	ra,20(sp)
 402986c:	dcc00417 	ldw	r19,16(sp)
 4029870:	dc800317 	ldw	r18,12(sp)
 4029874:	dc400217 	ldw	r17,8(sp)
 4029878:	dc000117 	ldw	r16,4(sp)
 402987c:	dec00604 	addi	sp,sp,24
 4029880:	f800283a 	ret
 4029884:	89400117 	ldw	r5,4(r17)
 4029888:	9009883a 	mov	r4,r18
 402988c:	d9c00015 	stw	r7,0(sp)
 4029890:	29400044 	addi	r5,r5,1
 4029894:	40297000 	call	4029700 <_Balloc>
 4029898:	89800417 	ldw	r6,16(r17)
 402989c:	89400304 	addi	r5,r17,12
 40298a0:	11000304 	addi	r4,r2,12
 40298a4:	31800084 	addi	r6,r6,2
 40298a8:	318d883a 	add	r6,r6,r6
 40298ac:	318d883a 	add	r6,r6,r6
 40298b0:	1027883a 	mov	r19,r2
 40298b4:	40239fc0 	call	40239fc <memcpy>
 40298b8:	d9c00017 	ldw	r7,0(sp)
 40298bc:	88000a26 	beq	r17,zero,40298e8 <__multadd+0x118>
 40298c0:	88c00117 	ldw	r3,4(r17)
 40298c4:	90801317 	ldw	r2,76(r18)
 40298c8:	18c7883a 	add	r3,r3,r3
 40298cc:	18c7883a 	add	r3,r3,r3
 40298d0:	10c5883a 	add	r2,r2,r3
 40298d4:	10c00017 	ldw	r3,0(r2)
 40298d8:	88c00015 	stw	r3,0(r17)
 40298dc:	14400015 	stw	r17,0(r2)
 40298e0:	9823883a 	mov	r17,r19
 40298e4:	003fd806 	br	4029848 <__alt_data_end+0xfffe9848>
 40298e8:	9823883a 	mov	r17,r19
 40298ec:	003fd606 	br	4029848 <__alt_data_end+0xfffe9848>

040298f0 <__s2b>:
 40298f0:	defff904 	addi	sp,sp,-28
 40298f4:	dc400115 	stw	r17,4(sp)
 40298f8:	dc000015 	stw	r16,0(sp)
 40298fc:	2023883a 	mov	r17,r4
 4029900:	2821883a 	mov	r16,r5
 4029904:	39000204 	addi	r4,r7,8
 4029908:	01400244 	movi	r5,9
 402990c:	dcc00315 	stw	r19,12(sp)
 4029910:	dc800215 	stw	r18,8(sp)
 4029914:	dfc00615 	stw	ra,24(sp)
 4029918:	dd400515 	stw	r21,20(sp)
 402991c:	dd000415 	stw	r20,16(sp)
 4029920:	3825883a 	mov	r18,r7
 4029924:	3027883a 	mov	r19,r6
 4029928:	402de9c0 	call	402de9c <__divsi3>
 402992c:	00c00044 	movi	r3,1
 4029930:	000b883a 	mov	r5,zero
 4029934:	1880030e 	bge	r3,r2,4029944 <__s2b+0x54>
 4029938:	18c7883a 	add	r3,r3,r3
 402993c:	29400044 	addi	r5,r5,1
 4029940:	18bffd16 	blt	r3,r2,4029938 <__alt_data_end+0xfffe9938>
 4029944:	8809883a 	mov	r4,r17
 4029948:	40297000 	call	4029700 <_Balloc>
 402994c:	d8c00717 	ldw	r3,28(sp)
 4029950:	10c00515 	stw	r3,20(r2)
 4029954:	00c00044 	movi	r3,1
 4029958:	10c00415 	stw	r3,16(r2)
 402995c:	00c00244 	movi	r3,9
 4029960:	1cc0210e 	bge	r3,r19,40299e8 <__s2b+0xf8>
 4029964:	80eb883a 	add	r21,r16,r3
 4029968:	a829883a 	mov	r20,r21
 402996c:	84e1883a 	add	r16,r16,r19
 4029970:	a1c00007 	ldb	r7,0(r20)
 4029974:	01800284 	movi	r6,10
 4029978:	a5000044 	addi	r20,r20,1
 402997c:	100b883a 	mov	r5,r2
 4029980:	39fff404 	addi	r7,r7,-48
 4029984:	8809883a 	mov	r4,r17
 4029988:	40297d00 	call	40297d0 <__multadd>
 402998c:	a43ff81e 	bne	r20,r16,4029970 <__alt_data_end+0xfffe9970>
 4029990:	ace1883a 	add	r16,r21,r19
 4029994:	843ffe04 	addi	r16,r16,-8
 4029998:	9c800a0e 	bge	r19,r18,40299c4 <__s2b+0xd4>
 402999c:	94e5c83a 	sub	r18,r18,r19
 40299a0:	84a5883a 	add	r18,r16,r18
 40299a4:	81c00007 	ldb	r7,0(r16)
 40299a8:	01800284 	movi	r6,10
 40299ac:	84000044 	addi	r16,r16,1
 40299b0:	100b883a 	mov	r5,r2
 40299b4:	39fff404 	addi	r7,r7,-48
 40299b8:	8809883a 	mov	r4,r17
 40299bc:	40297d00 	call	40297d0 <__multadd>
 40299c0:	84bff81e 	bne	r16,r18,40299a4 <__alt_data_end+0xfffe99a4>
 40299c4:	dfc00617 	ldw	ra,24(sp)
 40299c8:	dd400517 	ldw	r21,20(sp)
 40299cc:	dd000417 	ldw	r20,16(sp)
 40299d0:	dcc00317 	ldw	r19,12(sp)
 40299d4:	dc800217 	ldw	r18,8(sp)
 40299d8:	dc400117 	ldw	r17,4(sp)
 40299dc:	dc000017 	ldw	r16,0(sp)
 40299e0:	dec00704 	addi	sp,sp,28
 40299e4:	f800283a 	ret
 40299e8:	84000284 	addi	r16,r16,10
 40299ec:	1827883a 	mov	r19,r3
 40299f0:	003fe906 	br	4029998 <__alt_data_end+0xfffe9998>

040299f4 <__hi0bits>:
 40299f4:	20bfffec 	andhi	r2,r4,65535
 40299f8:	1000141e 	bne	r2,zero,4029a4c <__hi0bits+0x58>
 40299fc:	2008943a 	slli	r4,r4,16
 4029a00:	00800404 	movi	r2,16
 4029a04:	20ffc02c 	andhi	r3,r4,65280
 4029a08:	1800021e 	bne	r3,zero,4029a14 <__hi0bits+0x20>
 4029a0c:	2008923a 	slli	r4,r4,8
 4029a10:	10800204 	addi	r2,r2,8
 4029a14:	20fc002c 	andhi	r3,r4,61440
 4029a18:	1800021e 	bne	r3,zero,4029a24 <__hi0bits+0x30>
 4029a1c:	2008913a 	slli	r4,r4,4
 4029a20:	10800104 	addi	r2,r2,4
 4029a24:	20f0002c 	andhi	r3,r4,49152
 4029a28:	1800031e 	bne	r3,zero,4029a38 <__hi0bits+0x44>
 4029a2c:	2109883a 	add	r4,r4,r4
 4029a30:	10800084 	addi	r2,r2,2
 4029a34:	2109883a 	add	r4,r4,r4
 4029a38:	20000316 	blt	r4,zero,4029a48 <__hi0bits+0x54>
 4029a3c:	2110002c 	andhi	r4,r4,16384
 4029a40:	2000041e 	bne	r4,zero,4029a54 <__hi0bits+0x60>
 4029a44:	00800804 	movi	r2,32
 4029a48:	f800283a 	ret
 4029a4c:	0005883a 	mov	r2,zero
 4029a50:	003fec06 	br	4029a04 <__alt_data_end+0xfffe9a04>
 4029a54:	10800044 	addi	r2,r2,1
 4029a58:	f800283a 	ret

04029a5c <__lo0bits>:
 4029a5c:	20c00017 	ldw	r3,0(r4)
 4029a60:	188001cc 	andi	r2,r3,7
 4029a64:	10000826 	beq	r2,zero,4029a88 <__lo0bits+0x2c>
 4029a68:	1880004c 	andi	r2,r3,1
 4029a6c:	1000211e 	bne	r2,zero,4029af4 <__lo0bits+0x98>
 4029a70:	1880008c 	andi	r2,r3,2
 4029a74:	1000211e 	bne	r2,zero,4029afc <__lo0bits+0xa0>
 4029a78:	1806d0ba 	srli	r3,r3,2
 4029a7c:	00800084 	movi	r2,2
 4029a80:	20c00015 	stw	r3,0(r4)
 4029a84:	f800283a 	ret
 4029a88:	18bfffcc 	andi	r2,r3,65535
 4029a8c:	10001326 	beq	r2,zero,4029adc <__lo0bits+0x80>
 4029a90:	0005883a 	mov	r2,zero
 4029a94:	19403fcc 	andi	r5,r3,255
 4029a98:	2800021e 	bne	r5,zero,4029aa4 <__lo0bits+0x48>
 4029a9c:	1806d23a 	srli	r3,r3,8
 4029aa0:	10800204 	addi	r2,r2,8
 4029aa4:	194003cc 	andi	r5,r3,15
 4029aa8:	2800021e 	bne	r5,zero,4029ab4 <__lo0bits+0x58>
 4029aac:	1806d13a 	srli	r3,r3,4
 4029ab0:	10800104 	addi	r2,r2,4
 4029ab4:	194000cc 	andi	r5,r3,3
 4029ab8:	2800021e 	bne	r5,zero,4029ac4 <__lo0bits+0x68>
 4029abc:	1806d0ba 	srli	r3,r3,2
 4029ac0:	10800084 	addi	r2,r2,2
 4029ac4:	1940004c 	andi	r5,r3,1
 4029ac8:	2800081e 	bne	r5,zero,4029aec <__lo0bits+0x90>
 4029acc:	1806d07a 	srli	r3,r3,1
 4029ad0:	1800051e 	bne	r3,zero,4029ae8 <__lo0bits+0x8c>
 4029ad4:	00800804 	movi	r2,32
 4029ad8:	f800283a 	ret
 4029adc:	1806d43a 	srli	r3,r3,16
 4029ae0:	00800404 	movi	r2,16
 4029ae4:	003feb06 	br	4029a94 <__alt_data_end+0xfffe9a94>
 4029ae8:	10800044 	addi	r2,r2,1
 4029aec:	20c00015 	stw	r3,0(r4)
 4029af0:	f800283a 	ret
 4029af4:	0005883a 	mov	r2,zero
 4029af8:	f800283a 	ret
 4029afc:	1806d07a 	srli	r3,r3,1
 4029b00:	00800044 	movi	r2,1
 4029b04:	20c00015 	stw	r3,0(r4)
 4029b08:	f800283a 	ret

04029b0c <__i2b>:
 4029b0c:	defffd04 	addi	sp,sp,-12
 4029b10:	dc000015 	stw	r16,0(sp)
 4029b14:	04000044 	movi	r16,1
 4029b18:	dc400115 	stw	r17,4(sp)
 4029b1c:	2823883a 	mov	r17,r5
 4029b20:	800b883a 	mov	r5,r16
 4029b24:	dfc00215 	stw	ra,8(sp)
 4029b28:	40297000 	call	4029700 <_Balloc>
 4029b2c:	14400515 	stw	r17,20(r2)
 4029b30:	14000415 	stw	r16,16(r2)
 4029b34:	dfc00217 	ldw	ra,8(sp)
 4029b38:	dc400117 	ldw	r17,4(sp)
 4029b3c:	dc000017 	ldw	r16,0(sp)
 4029b40:	dec00304 	addi	sp,sp,12
 4029b44:	f800283a 	ret

04029b48 <__multiply>:
 4029b48:	defffa04 	addi	sp,sp,-24
 4029b4c:	dcc00315 	stw	r19,12(sp)
 4029b50:	dc800215 	stw	r18,8(sp)
 4029b54:	34c00417 	ldw	r19,16(r6)
 4029b58:	2c800417 	ldw	r18,16(r5)
 4029b5c:	dd000415 	stw	r20,16(sp)
 4029b60:	dc400115 	stw	r17,4(sp)
 4029b64:	dfc00515 	stw	ra,20(sp)
 4029b68:	dc000015 	stw	r16,0(sp)
 4029b6c:	2829883a 	mov	r20,r5
 4029b70:	3023883a 	mov	r17,r6
 4029b74:	94c0050e 	bge	r18,r19,4029b8c <__multiply+0x44>
 4029b78:	9007883a 	mov	r3,r18
 4029b7c:	3029883a 	mov	r20,r6
 4029b80:	9825883a 	mov	r18,r19
 4029b84:	2823883a 	mov	r17,r5
 4029b88:	1827883a 	mov	r19,r3
 4029b8c:	a0800217 	ldw	r2,8(r20)
 4029b90:	94e1883a 	add	r16,r18,r19
 4029b94:	a1400117 	ldw	r5,4(r20)
 4029b98:	1400010e 	bge	r2,r16,4029ba0 <__multiply+0x58>
 4029b9c:	29400044 	addi	r5,r5,1
 4029ba0:	40297000 	call	4029700 <_Balloc>
 4029ba4:	8415883a 	add	r10,r16,r16
 4029ba8:	12c00504 	addi	r11,r2,20
 4029bac:	5295883a 	add	r10,r10,r10
 4029bb0:	5a95883a 	add	r10,r11,r10
 4029bb4:	5807883a 	mov	r3,r11
 4029bb8:	5a80032e 	bgeu	r11,r10,4029bc8 <__multiply+0x80>
 4029bbc:	18000015 	stw	zero,0(r3)
 4029bc0:	18c00104 	addi	r3,r3,4
 4029bc4:	1abffd36 	bltu	r3,r10,4029bbc <__alt_data_end+0xfffe9bbc>
 4029bc8:	9ce7883a 	add	r19,r19,r19
 4029bcc:	94a5883a 	add	r18,r18,r18
 4029bd0:	89800504 	addi	r6,r17,20
 4029bd4:	9ce7883a 	add	r19,r19,r19
 4029bd8:	a3400504 	addi	r13,r20,20
 4029bdc:	94a5883a 	add	r18,r18,r18
 4029be0:	34d9883a 	add	r12,r6,r19
 4029be4:	6c93883a 	add	r9,r13,r18
 4029be8:	3300422e 	bgeu	r6,r12,4029cf4 <__multiply+0x1ac>
 4029bec:	37c00017 	ldw	ra,0(r6)
 4029bf0:	fbffffcc 	andi	r15,ra,65535
 4029bf4:	78001b26 	beq	r15,zero,4029c64 <__multiply+0x11c>
 4029bf8:	5811883a 	mov	r8,r11
 4029bfc:	681d883a 	mov	r14,r13
 4029c00:	000f883a 	mov	r7,zero
 4029c04:	71000017 	ldw	r4,0(r14)
 4029c08:	40c00017 	ldw	r3,0(r8)
 4029c0c:	73800104 	addi	r14,r14,4
 4029c10:	217fffcc 	andi	r5,r4,65535
 4029c14:	2bcb383a 	mul	r5,r5,r15
 4029c18:	2008d43a 	srli	r4,r4,16
 4029c1c:	1c7fffcc 	andi	r17,r3,65535
 4029c20:	2c4b883a 	add	r5,r5,r17
 4029c24:	29cb883a 	add	r5,r5,r7
 4029c28:	23c9383a 	mul	r4,r4,r15
 4029c2c:	1806d43a 	srli	r3,r3,16
 4029c30:	280ed43a 	srli	r7,r5,16
 4029c34:	297fffcc 	andi	r5,r5,65535
 4029c38:	20c7883a 	add	r3,r4,r3
 4029c3c:	19c7883a 	add	r3,r3,r7
 4029c40:	1808943a 	slli	r4,r3,16
 4029c44:	4023883a 	mov	r17,r8
 4029c48:	180ed43a 	srli	r7,r3,16
 4029c4c:	214ab03a 	or	r5,r4,r5
 4029c50:	41400015 	stw	r5,0(r8)
 4029c54:	42000104 	addi	r8,r8,4
 4029c58:	727fea36 	bltu	r14,r9,4029c04 <__alt_data_end+0xfffe9c04>
 4029c5c:	89c00115 	stw	r7,4(r17)
 4029c60:	37c00017 	ldw	ra,0(r6)
 4029c64:	f83ed43a 	srli	ra,ra,16
 4029c68:	f8001f26 	beq	ra,zero,4029ce8 <__multiply+0x1a0>
 4029c6c:	58c00017 	ldw	r3,0(r11)
 4029c70:	681d883a 	mov	r14,r13
 4029c74:	581f883a 	mov	r15,r11
 4029c78:	1811883a 	mov	r8,r3
 4029c7c:	5825883a 	mov	r18,r11
 4029c80:	000f883a 	mov	r7,zero
 4029c84:	00000106 	br	4029c8c <__multiply+0x144>
 4029c88:	8825883a 	mov	r18,r17
 4029c8c:	7140000b 	ldhu	r5,0(r14)
 4029c90:	4010d43a 	srli	r8,r8,16
 4029c94:	193fffcc 	andi	r4,r3,65535
 4029c98:	2fcb383a 	mul	r5,r5,ra
 4029c9c:	7bc00104 	addi	r15,r15,4
 4029ca0:	73800104 	addi	r14,r14,4
 4029ca4:	2a0b883a 	add	r5,r5,r8
 4029ca8:	29cb883a 	add	r5,r5,r7
 4029cac:	2806943a 	slli	r3,r5,16
 4029cb0:	94400104 	addi	r17,r18,4
 4029cb4:	280ad43a 	srli	r5,r5,16
 4029cb8:	1908b03a 	or	r4,r3,r4
 4029cbc:	793fff15 	stw	r4,-4(r15)
 4029cc0:	70ffff17 	ldw	r3,-4(r14)
 4029cc4:	8a000017 	ldw	r8,0(r17)
 4029cc8:	1806d43a 	srli	r3,r3,16
 4029ccc:	413fffcc 	andi	r4,r8,65535
 4029cd0:	1fc7383a 	mul	r3,r3,ra
 4029cd4:	1907883a 	add	r3,r3,r4
 4029cd8:	1947883a 	add	r3,r3,r5
 4029cdc:	180ed43a 	srli	r7,r3,16
 4029ce0:	727fe936 	bltu	r14,r9,4029c88 <__alt_data_end+0xfffe9c88>
 4029ce4:	90c00115 	stw	r3,4(r18)
 4029ce8:	31800104 	addi	r6,r6,4
 4029cec:	5ac00104 	addi	r11,r11,4
 4029cf0:	333fbe36 	bltu	r6,r12,4029bec <__alt_data_end+0xfffe9bec>
 4029cf4:	0400090e 	bge	zero,r16,4029d1c <__multiply+0x1d4>
 4029cf8:	50ffff17 	ldw	r3,-4(r10)
 4029cfc:	52bfff04 	addi	r10,r10,-4
 4029d00:	18000326 	beq	r3,zero,4029d10 <__multiply+0x1c8>
 4029d04:	00000506 	br	4029d1c <__multiply+0x1d4>
 4029d08:	50c00017 	ldw	r3,0(r10)
 4029d0c:	1800031e 	bne	r3,zero,4029d1c <__multiply+0x1d4>
 4029d10:	843fffc4 	addi	r16,r16,-1
 4029d14:	52bfff04 	addi	r10,r10,-4
 4029d18:	803ffb1e 	bne	r16,zero,4029d08 <__alt_data_end+0xfffe9d08>
 4029d1c:	14000415 	stw	r16,16(r2)
 4029d20:	dfc00517 	ldw	ra,20(sp)
 4029d24:	dd000417 	ldw	r20,16(sp)
 4029d28:	dcc00317 	ldw	r19,12(sp)
 4029d2c:	dc800217 	ldw	r18,8(sp)
 4029d30:	dc400117 	ldw	r17,4(sp)
 4029d34:	dc000017 	ldw	r16,0(sp)
 4029d38:	dec00604 	addi	sp,sp,24
 4029d3c:	f800283a 	ret

04029d40 <__pow5mult>:
 4029d40:	defffa04 	addi	sp,sp,-24
 4029d44:	dcc00315 	stw	r19,12(sp)
 4029d48:	dc000015 	stw	r16,0(sp)
 4029d4c:	dfc00515 	stw	ra,20(sp)
 4029d50:	dd000415 	stw	r20,16(sp)
 4029d54:	dc800215 	stw	r18,8(sp)
 4029d58:	dc400115 	stw	r17,4(sp)
 4029d5c:	308000cc 	andi	r2,r6,3
 4029d60:	3021883a 	mov	r16,r6
 4029d64:	2027883a 	mov	r19,r4
 4029d68:	10002f1e 	bne	r2,zero,4029e28 <__pow5mult+0xe8>
 4029d6c:	2825883a 	mov	r18,r5
 4029d70:	8021d0ba 	srai	r16,r16,2
 4029d74:	80001a26 	beq	r16,zero,4029de0 <__pow5mult+0xa0>
 4029d78:	9c401217 	ldw	r17,72(r19)
 4029d7c:	8800061e 	bne	r17,zero,4029d98 <__pow5mult+0x58>
 4029d80:	00003406 	br	4029e54 <__pow5mult+0x114>
 4029d84:	8021d07a 	srai	r16,r16,1
 4029d88:	80001526 	beq	r16,zero,4029de0 <__pow5mult+0xa0>
 4029d8c:	88800017 	ldw	r2,0(r17)
 4029d90:	10001c26 	beq	r2,zero,4029e04 <__pow5mult+0xc4>
 4029d94:	1023883a 	mov	r17,r2
 4029d98:	8080004c 	andi	r2,r16,1
 4029d9c:	103ff926 	beq	r2,zero,4029d84 <__alt_data_end+0xfffe9d84>
 4029da0:	880d883a 	mov	r6,r17
 4029da4:	900b883a 	mov	r5,r18
 4029da8:	9809883a 	mov	r4,r19
 4029dac:	4029b480 	call	4029b48 <__multiply>
 4029db0:	90001b26 	beq	r18,zero,4029e20 <__pow5mult+0xe0>
 4029db4:	91000117 	ldw	r4,4(r18)
 4029db8:	98c01317 	ldw	r3,76(r19)
 4029dbc:	8021d07a 	srai	r16,r16,1
 4029dc0:	2109883a 	add	r4,r4,r4
 4029dc4:	2109883a 	add	r4,r4,r4
 4029dc8:	1907883a 	add	r3,r3,r4
 4029dcc:	19000017 	ldw	r4,0(r3)
 4029dd0:	91000015 	stw	r4,0(r18)
 4029dd4:	1c800015 	stw	r18,0(r3)
 4029dd8:	1025883a 	mov	r18,r2
 4029ddc:	803feb1e 	bne	r16,zero,4029d8c <__alt_data_end+0xfffe9d8c>
 4029de0:	9005883a 	mov	r2,r18
 4029de4:	dfc00517 	ldw	ra,20(sp)
 4029de8:	dd000417 	ldw	r20,16(sp)
 4029dec:	dcc00317 	ldw	r19,12(sp)
 4029df0:	dc800217 	ldw	r18,8(sp)
 4029df4:	dc400117 	ldw	r17,4(sp)
 4029df8:	dc000017 	ldw	r16,0(sp)
 4029dfc:	dec00604 	addi	sp,sp,24
 4029e00:	f800283a 	ret
 4029e04:	880d883a 	mov	r6,r17
 4029e08:	880b883a 	mov	r5,r17
 4029e0c:	9809883a 	mov	r4,r19
 4029e10:	4029b480 	call	4029b48 <__multiply>
 4029e14:	88800015 	stw	r2,0(r17)
 4029e18:	10000015 	stw	zero,0(r2)
 4029e1c:	003fdd06 	br	4029d94 <__alt_data_end+0xfffe9d94>
 4029e20:	1025883a 	mov	r18,r2
 4029e24:	003fd706 	br	4029d84 <__alt_data_end+0xfffe9d84>
 4029e28:	10bfffc4 	addi	r2,r2,-1
 4029e2c:	1085883a 	add	r2,r2,r2
 4029e30:	00c100f4 	movhi	r3,1027
 4029e34:	18c49c04 	addi	r3,r3,4720
 4029e38:	1085883a 	add	r2,r2,r2
 4029e3c:	1885883a 	add	r2,r3,r2
 4029e40:	11800017 	ldw	r6,0(r2)
 4029e44:	000f883a 	mov	r7,zero
 4029e48:	40297d00 	call	40297d0 <__multadd>
 4029e4c:	1025883a 	mov	r18,r2
 4029e50:	003fc706 	br	4029d70 <__alt_data_end+0xfffe9d70>
 4029e54:	05000044 	movi	r20,1
 4029e58:	a00b883a 	mov	r5,r20
 4029e5c:	9809883a 	mov	r4,r19
 4029e60:	40297000 	call	4029700 <_Balloc>
 4029e64:	1023883a 	mov	r17,r2
 4029e68:	00809c44 	movi	r2,625
 4029e6c:	88800515 	stw	r2,20(r17)
 4029e70:	8d000415 	stw	r20,16(r17)
 4029e74:	9c401215 	stw	r17,72(r19)
 4029e78:	88000015 	stw	zero,0(r17)
 4029e7c:	003fc606 	br	4029d98 <__alt_data_end+0xfffe9d98>

04029e80 <__lshift>:
 4029e80:	defff904 	addi	sp,sp,-28
 4029e84:	dd400515 	stw	r21,20(sp)
 4029e88:	dcc00315 	stw	r19,12(sp)
 4029e8c:	302bd17a 	srai	r21,r6,5
 4029e90:	2cc00417 	ldw	r19,16(r5)
 4029e94:	28800217 	ldw	r2,8(r5)
 4029e98:	dd000415 	stw	r20,16(sp)
 4029e9c:	ace7883a 	add	r19,r21,r19
 4029ea0:	dc800215 	stw	r18,8(sp)
 4029ea4:	dc400115 	stw	r17,4(sp)
 4029ea8:	dc000015 	stw	r16,0(sp)
 4029eac:	dfc00615 	stw	ra,24(sp)
 4029eb0:	9c000044 	addi	r16,r19,1
 4029eb4:	2823883a 	mov	r17,r5
 4029eb8:	3029883a 	mov	r20,r6
 4029ebc:	2025883a 	mov	r18,r4
 4029ec0:	29400117 	ldw	r5,4(r5)
 4029ec4:	1400030e 	bge	r2,r16,4029ed4 <__lshift+0x54>
 4029ec8:	1085883a 	add	r2,r2,r2
 4029ecc:	29400044 	addi	r5,r5,1
 4029ed0:	143ffd16 	blt	r2,r16,4029ec8 <__alt_data_end+0xfffe9ec8>
 4029ed4:	9009883a 	mov	r4,r18
 4029ed8:	40297000 	call	4029700 <_Balloc>
 4029edc:	10c00504 	addi	r3,r2,20
 4029ee0:	0540070e 	bge	zero,r21,4029f00 <__lshift+0x80>
 4029ee4:	ad6b883a 	add	r21,r21,r21
 4029ee8:	ad6b883a 	add	r21,r21,r21
 4029eec:	1809883a 	mov	r4,r3
 4029ef0:	1d47883a 	add	r3,r3,r21
 4029ef4:	20000015 	stw	zero,0(r4)
 4029ef8:	21000104 	addi	r4,r4,4
 4029efc:	193ffd1e 	bne	r3,r4,4029ef4 <__alt_data_end+0xfffe9ef4>
 4029f00:	8a000417 	ldw	r8,16(r17)
 4029f04:	89000504 	addi	r4,r17,20
 4029f08:	a18007cc 	andi	r6,r20,31
 4029f0c:	4211883a 	add	r8,r8,r8
 4029f10:	4211883a 	add	r8,r8,r8
 4029f14:	2211883a 	add	r8,r4,r8
 4029f18:	30002326 	beq	r6,zero,4029fa8 <__lshift+0x128>
 4029f1c:	02400804 	movi	r9,32
 4029f20:	4993c83a 	sub	r9,r9,r6
 4029f24:	000b883a 	mov	r5,zero
 4029f28:	21c00017 	ldw	r7,0(r4)
 4029f2c:	1815883a 	mov	r10,r3
 4029f30:	18c00104 	addi	r3,r3,4
 4029f34:	398e983a 	sll	r7,r7,r6
 4029f38:	21000104 	addi	r4,r4,4
 4029f3c:	394ab03a 	or	r5,r7,r5
 4029f40:	197fff15 	stw	r5,-4(r3)
 4029f44:	217fff17 	ldw	r5,-4(r4)
 4029f48:	2a4ad83a 	srl	r5,r5,r9
 4029f4c:	223ff636 	bltu	r4,r8,4029f28 <__alt_data_end+0xfffe9f28>
 4029f50:	51400115 	stw	r5,4(r10)
 4029f54:	28001a1e 	bne	r5,zero,4029fc0 <__lshift+0x140>
 4029f58:	843fffc4 	addi	r16,r16,-1
 4029f5c:	14000415 	stw	r16,16(r2)
 4029f60:	88000826 	beq	r17,zero,4029f84 <__lshift+0x104>
 4029f64:	89000117 	ldw	r4,4(r17)
 4029f68:	90c01317 	ldw	r3,76(r18)
 4029f6c:	2109883a 	add	r4,r4,r4
 4029f70:	2109883a 	add	r4,r4,r4
 4029f74:	1907883a 	add	r3,r3,r4
 4029f78:	19000017 	ldw	r4,0(r3)
 4029f7c:	89000015 	stw	r4,0(r17)
 4029f80:	1c400015 	stw	r17,0(r3)
 4029f84:	dfc00617 	ldw	ra,24(sp)
 4029f88:	dd400517 	ldw	r21,20(sp)
 4029f8c:	dd000417 	ldw	r20,16(sp)
 4029f90:	dcc00317 	ldw	r19,12(sp)
 4029f94:	dc800217 	ldw	r18,8(sp)
 4029f98:	dc400117 	ldw	r17,4(sp)
 4029f9c:	dc000017 	ldw	r16,0(sp)
 4029fa0:	dec00704 	addi	sp,sp,28
 4029fa4:	f800283a 	ret
 4029fa8:	21400017 	ldw	r5,0(r4)
 4029fac:	18c00104 	addi	r3,r3,4
 4029fb0:	21000104 	addi	r4,r4,4
 4029fb4:	197fff15 	stw	r5,-4(r3)
 4029fb8:	223ffb36 	bltu	r4,r8,4029fa8 <__alt_data_end+0xfffe9fa8>
 4029fbc:	003fe606 	br	4029f58 <__alt_data_end+0xfffe9f58>
 4029fc0:	9c000084 	addi	r16,r19,2
 4029fc4:	003fe406 	br	4029f58 <__alt_data_end+0xfffe9f58>

04029fc8 <__mcmp>:
 4029fc8:	20800417 	ldw	r2,16(r4)
 4029fcc:	28c00417 	ldw	r3,16(r5)
 4029fd0:	10c5c83a 	sub	r2,r2,r3
 4029fd4:	1000111e 	bne	r2,zero,402a01c <__mcmp+0x54>
 4029fd8:	18c7883a 	add	r3,r3,r3
 4029fdc:	18c7883a 	add	r3,r3,r3
 4029fe0:	21000504 	addi	r4,r4,20
 4029fe4:	29400504 	addi	r5,r5,20
 4029fe8:	20c5883a 	add	r2,r4,r3
 4029fec:	28cb883a 	add	r5,r5,r3
 4029ff0:	00000106 	br	4029ff8 <__mcmp+0x30>
 4029ff4:	20800a2e 	bgeu	r4,r2,402a020 <__mcmp+0x58>
 4029ff8:	10bfff04 	addi	r2,r2,-4
 4029ffc:	297fff04 	addi	r5,r5,-4
 402a000:	11800017 	ldw	r6,0(r2)
 402a004:	28c00017 	ldw	r3,0(r5)
 402a008:	30fffa26 	beq	r6,r3,4029ff4 <__alt_data_end+0xfffe9ff4>
 402a00c:	30c00236 	bltu	r6,r3,402a018 <__mcmp+0x50>
 402a010:	00800044 	movi	r2,1
 402a014:	f800283a 	ret
 402a018:	00bfffc4 	movi	r2,-1
 402a01c:	f800283a 	ret
 402a020:	0005883a 	mov	r2,zero
 402a024:	f800283a 	ret

0402a028 <__mdiff>:
 402a028:	28c00417 	ldw	r3,16(r5)
 402a02c:	30800417 	ldw	r2,16(r6)
 402a030:	defffa04 	addi	sp,sp,-24
 402a034:	dcc00315 	stw	r19,12(sp)
 402a038:	dc800215 	stw	r18,8(sp)
 402a03c:	dfc00515 	stw	ra,20(sp)
 402a040:	dd000415 	stw	r20,16(sp)
 402a044:	dc400115 	stw	r17,4(sp)
 402a048:	dc000015 	stw	r16,0(sp)
 402a04c:	1887c83a 	sub	r3,r3,r2
 402a050:	2825883a 	mov	r18,r5
 402a054:	3027883a 	mov	r19,r6
 402a058:	1800141e 	bne	r3,zero,402a0ac <__mdiff+0x84>
 402a05c:	1085883a 	add	r2,r2,r2
 402a060:	1085883a 	add	r2,r2,r2
 402a064:	2a000504 	addi	r8,r5,20
 402a068:	34000504 	addi	r16,r6,20
 402a06c:	4087883a 	add	r3,r8,r2
 402a070:	8085883a 	add	r2,r16,r2
 402a074:	00000106 	br	402a07c <__mdiff+0x54>
 402a078:	40c0592e 	bgeu	r8,r3,402a1e0 <__mdiff+0x1b8>
 402a07c:	18ffff04 	addi	r3,r3,-4
 402a080:	10bfff04 	addi	r2,r2,-4
 402a084:	19c00017 	ldw	r7,0(r3)
 402a088:	11400017 	ldw	r5,0(r2)
 402a08c:	397ffa26 	beq	r7,r5,402a078 <__alt_data_end+0xfffea078>
 402a090:	3940592e 	bgeu	r7,r5,402a1f8 <__mdiff+0x1d0>
 402a094:	9005883a 	mov	r2,r18
 402a098:	4023883a 	mov	r17,r8
 402a09c:	9825883a 	mov	r18,r19
 402a0a0:	05000044 	movi	r20,1
 402a0a4:	1027883a 	mov	r19,r2
 402a0a8:	00000406 	br	402a0bc <__mdiff+0x94>
 402a0ac:	18005616 	blt	r3,zero,402a208 <__mdiff+0x1e0>
 402a0b0:	34400504 	addi	r17,r6,20
 402a0b4:	2c000504 	addi	r16,r5,20
 402a0b8:	0029883a 	mov	r20,zero
 402a0bc:	91400117 	ldw	r5,4(r18)
 402a0c0:	40297000 	call	4029700 <_Balloc>
 402a0c4:	92400417 	ldw	r9,16(r18)
 402a0c8:	9b000417 	ldw	r12,16(r19)
 402a0cc:	12c00504 	addi	r11,r2,20
 402a0d0:	4a51883a 	add	r8,r9,r9
 402a0d4:	6319883a 	add	r12,r12,r12
 402a0d8:	4211883a 	add	r8,r8,r8
 402a0dc:	6319883a 	add	r12,r12,r12
 402a0e0:	15000315 	stw	r20,12(r2)
 402a0e4:	8211883a 	add	r8,r16,r8
 402a0e8:	8b19883a 	add	r12,r17,r12
 402a0ec:	0007883a 	mov	r3,zero
 402a0f0:	81400017 	ldw	r5,0(r16)
 402a0f4:	89c00017 	ldw	r7,0(r17)
 402a0f8:	59800104 	addi	r6,r11,4
 402a0fc:	293fffcc 	andi	r4,r5,65535
 402a100:	20c7883a 	add	r3,r4,r3
 402a104:	393fffcc 	andi	r4,r7,65535
 402a108:	1909c83a 	sub	r4,r3,r4
 402a10c:	280ad43a 	srli	r5,r5,16
 402a110:	380ed43a 	srli	r7,r7,16
 402a114:	2007d43a 	srai	r3,r4,16
 402a118:	213fffcc 	andi	r4,r4,65535
 402a11c:	29cbc83a 	sub	r5,r5,r7
 402a120:	28c7883a 	add	r3,r5,r3
 402a124:	180a943a 	slli	r5,r3,16
 402a128:	8c400104 	addi	r17,r17,4
 402a12c:	84000104 	addi	r16,r16,4
 402a130:	2908b03a 	or	r4,r5,r4
 402a134:	59000015 	stw	r4,0(r11)
 402a138:	1807d43a 	srai	r3,r3,16
 402a13c:	3015883a 	mov	r10,r6
 402a140:	3017883a 	mov	r11,r6
 402a144:	8b3fea36 	bltu	r17,r12,402a0f0 <__alt_data_end+0xfffea0f0>
 402a148:	8200162e 	bgeu	r16,r8,402a1a4 <__mdiff+0x17c>
 402a14c:	8017883a 	mov	r11,r16
 402a150:	59400017 	ldw	r5,0(r11)
 402a154:	31800104 	addi	r6,r6,4
 402a158:	5ac00104 	addi	r11,r11,4
 402a15c:	293fffcc 	andi	r4,r5,65535
 402a160:	20c7883a 	add	r3,r4,r3
 402a164:	280ed43a 	srli	r7,r5,16
 402a168:	180bd43a 	srai	r5,r3,16
 402a16c:	193fffcc 	andi	r4,r3,65535
 402a170:	3947883a 	add	r3,r7,r5
 402a174:	180a943a 	slli	r5,r3,16
 402a178:	1807d43a 	srai	r3,r3,16
 402a17c:	2908b03a 	or	r4,r5,r4
 402a180:	313fff15 	stw	r4,-4(r6)
 402a184:	5a3ff236 	bltu	r11,r8,402a150 <__alt_data_end+0xfffea150>
 402a188:	0406303a 	nor	r3,zero,r16
 402a18c:	1a07883a 	add	r3,r3,r8
 402a190:	1806d0ba 	srli	r3,r3,2
 402a194:	18c00044 	addi	r3,r3,1
 402a198:	18c7883a 	add	r3,r3,r3
 402a19c:	18c7883a 	add	r3,r3,r3
 402a1a0:	50d5883a 	add	r10,r10,r3
 402a1a4:	50ffff04 	addi	r3,r10,-4
 402a1a8:	2000041e 	bne	r4,zero,402a1bc <__mdiff+0x194>
 402a1ac:	18ffff04 	addi	r3,r3,-4
 402a1b0:	19000017 	ldw	r4,0(r3)
 402a1b4:	4a7fffc4 	addi	r9,r9,-1
 402a1b8:	203ffc26 	beq	r4,zero,402a1ac <__alt_data_end+0xfffea1ac>
 402a1bc:	12400415 	stw	r9,16(r2)
 402a1c0:	dfc00517 	ldw	ra,20(sp)
 402a1c4:	dd000417 	ldw	r20,16(sp)
 402a1c8:	dcc00317 	ldw	r19,12(sp)
 402a1cc:	dc800217 	ldw	r18,8(sp)
 402a1d0:	dc400117 	ldw	r17,4(sp)
 402a1d4:	dc000017 	ldw	r16,0(sp)
 402a1d8:	dec00604 	addi	sp,sp,24
 402a1dc:	f800283a 	ret
 402a1e0:	000b883a 	mov	r5,zero
 402a1e4:	40297000 	call	4029700 <_Balloc>
 402a1e8:	00c00044 	movi	r3,1
 402a1ec:	10c00415 	stw	r3,16(r2)
 402a1f0:	10000515 	stw	zero,20(r2)
 402a1f4:	003ff206 	br	402a1c0 <__alt_data_end+0xfffea1c0>
 402a1f8:	8023883a 	mov	r17,r16
 402a1fc:	0029883a 	mov	r20,zero
 402a200:	4021883a 	mov	r16,r8
 402a204:	003fad06 	br	402a0bc <__alt_data_end+0xfffea0bc>
 402a208:	9005883a 	mov	r2,r18
 402a20c:	94400504 	addi	r17,r18,20
 402a210:	9c000504 	addi	r16,r19,20
 402a214:	9825883a 	mov	r18,r19
 402a218:	05000044 	movi	r20,1
 402a21c:	1027883a 	mov	r19,r2
 402a220:	003fa606 	br	402a0bc <__alt_data_end+0xfffea0bc>

0402a224 <__ulp>:
 402a224:	295ffc2c 	andhi	r5,r5,32752
 402a228:	00bf3034 	movhi	r2,64704
 402a22c:	2887883a 	add	r3,r5,r2
 402a230:	00c0020e 	bge	zero,r3,402a23c <__ulp+0x18>
 402a234:	0005883a 	mov	r2,zero
 402a238:	f800283a 	ret
 402a23c:	00c7c83a 	sub	r3,zero,r3
 402a240:	1807d53a 	srai	r3,r3,20
 402a244:	008004c4 	movi	r2,19
 402a248:	10c00b0e 	bge	r2,r3,402a278 <__ulp+0x54>
 402a24c:	18bffb04 	addi	r2,r3,-20
 402a250:	01000784 	movi	r4,30
 402a254:	0007883a 	mov	r3,zero
 402a258:	20800516 	blt	r4,r2,402a270 <__ulp+0x4c>
 402a25c:	010007c4 	movi	r4,31
 402a260:	2089c83a 	sub	r4,r4,r2
 402a264:	00800044 	movi	r2,1
 402a268:	1104983a 	sll	r2,r2,r4
 402a26c:	f800283a 	ret
 402a270:	00800044 	movi	r2,1
 402a274:	f800283a 	ret
 402a278:	01400234 	movhi	r5,8
 402a27c:	28c7d83a 	sra	r3,r5,r3
 402a280:	0005883a 	mov	r2,zero
 402a284:	f800283a 	ret

0402a288 <__b2d>:
 402a288:	defffa04 	addi	sp,sp,-24
 402a28c:	dc000015 	stw	r16,0(sp)
 402a290:	24000417 	ldw	r16,16(r4)
 402a294:	dc400115 	stw	r17,4(sp)
 402a298:	24400504 	addi	r17,r4,20
 402a29c:	8421883a 	add	r16,r16,r16
 402a2a0:	8421883a 	add	r16,r16,r16
 402a2a4:	8c21883a 	add	r16,r17,r16
 402a2a8:	dc800215 	stw	r18,8(sp)
 402a2ac:	84bfff17 	ldw	r18,-4(r16)
 402a2b0:	dd000415 	stw	r20,16(sp)
 402a2b4:	dcc00315 	stw	r19,12(sp)
 402a2b8:	9009883a 	mov	r4,r18
 402a2bc:	2829883a 	mov	r20,r5
 402a2c0:	dfc00515 	stw	ra,20(sp)
 402a2c4:	40299f40 	call	40299f4 <__hi0bits>
 402a2c8:	00c00804 	movi	r3,32
 402a2cc:	1889c83a 	sub	r4,r3,r2
 402a2d0:	a1000015 	stw	r4,0(r20)
 402a2d4:	01000284 	movi	r4,10
 402a2d8:	84ffff04 	addi	r19,r16,-4
 402a2dc:	20801216 	blt	r4,r2,402a328 <__b2d+0xa0>
 402a2e0:	018002c4 	movi	r6,11
 402a2e4:	308dc83a 	sub	r6,r6,r2
 402a2e8:	9186d83a 	srl	r3,r18,r6
 402a2ec:	18cffc34 	orhi	r3,r3,16368
 402a2f0:	8cc0212e 	bgeu	r17,r19,402a378 <__b2d+0xf0>
 402a2f4:	813ffe17 	ldw	r4,-8(r16)
 402a2f8:	218cd83a 	srl	r6,r4,r6
 402a2fc:	10800544 	addi	r2,r2,21
 402a300:	9084983a 	sll	r2,r18,r2
 402a304:	1184b03a 	or	r2,r2,r6
 402a308:	dfc00517 	ldw	ra,20(sp)
 402a30c:	dd000417 	ldw	r20,16(sp)
 402a310:	dcc00317 	ldw	r19,12(sp)
 402a314:	dc800217 	ldw	r18,8(sp)
 402a318:	dc400117 	ldw	r17,4(sp)
 402a31c:	dc000017 	ldw	r16,0(sp)
 402a320:	dec00604 	addi	sp,sp,24
 402a324:	f800283a 	ret
 402a328:	8cc00f2e 	bgeu	r17,r19,402a368 <__b2d+0xe0>
 402a32c:	117ffd44 	addi	r5,r2,-11
 402a330:	80bffe17 	ldw	r2,-8(r16)
 402a334:	28000e26 	beq	r5,zero,402a370 <__b2d+0xe8>
 402a338:	1949c83a 	sub	r4,r3,r5
 402a33c:	9164983a 	sll	r18,r18,r5
 402a340:	1106d83a 	srl	r3,r2,r4
 402a344:	81bffe04 	addi	r6,r16,-8
 402a348:	948ffc34 	orhi	r18,r18,16368
 402a34c:	90c6b03a 	or	r3,r18,r3
 402a350:	89800e2e 	bgeu	r17,r6,402a38c <__b2d+0x104>
 402a354:	81bffd17 	ldw	r6,-12(r16)
 402a358:	1144983a 	sll	r2,r2,r5
 402a35c:	310ad83a 	srl	r5,r6,r4
 402a360:	2884b03a 	or	r2,r5,r2
 402a364:	003fe806 	br	402a308 <__alt_data_end+0xfffea308>
 402a368:	10bffd44 	addi	r2,r2,-11
 402a36c:	1000041e 	bne	r2,zero,402a380 <__b2d+0xf8>
 402a370:	90cffc34 	orhi	r3,r18,16368
 402a374:	003fe406 	br	402a308 <__alt_data_end+0xfffea308>
 402a378:	000d883a 	mov	r6,zero
 402a37c:	003fdf06 	br	402a2fc <__alt_data_end+0xfffea2fc>
 402a380:	90a4983a 	sll	r18,r18,r2
 402a384:	0005883a 	mov	r2,zero
 402a388:	003ff906 	br	402a370 <__alt_data_end+0xfffea370>
 402a38c:	1144983a 	sll	r2,r2,r5
 402a390:	003fdd06 	br	402a308 <__alt_data_end+0xfffea308>

0402a394 <__d2b>:
 402a394:	defff804 	addi	sp,sp,-32
 402a398:	dc000215 	stw	r16,8(sp)
 402a39c:	3021883a 	mov	r16,r6
 402a3a0:	dc400315 	stw	r17,12(sp)
 402a3a4:	8022907a 	slli	r17,r16,1
 402a3a8:	dd000615 	stw	r20,24(sp)
 402a3ac:	2829883a 	mov	r20,r5
 402a3b0:	01400044 	movi	r5,1
 402a3b4:	dcc00515 	stw	r19,20(sp)
 402a3b8:	dc800415 	stw	r18,16(sp)
 402a3bc:	dfc00715 	stw	ra,28(sp)
 402a3c0:	3825883a 	mov	r18,r7
 402a3c4:	8822d57a 	srli	r17,r17,21
 402a3c8:	40297000 	call	4029700 <_Balloc>
 402a3cc:	1027883a 	mov	r19,r2
 402a3d0:	00800434 	movhi	r2,16
 402a3d4:	10bfffc4 	addi	r2,r2,-1
 402a3d8:	808c703a 	and	r6,r16,r2
 402a3dc:	88000126 	beq	r17,zero,402a3e4 <__d2b+0x50>
 402a3e0:	31800434 	orhi	r6,r6,16
 402a3e4:	d9800015 	stw	r6,0(sp)
 402a3e8:	a0002426 	beq	r20,zero,402a47c <__d2b+0xe8>
 402a3ec:	d9000104 	addi	r4,sp,4
 402a3f0:	dd000115 	stw	r20,4(sp)
 402a3f4:	4029a5c0 	call	4029a5c <__lo0bits>
 402a3f8:	d8c00017 	ldw	r3,0(sp)
 402a3fc:	10002f1e 	bne	r2,zero,402a4bc <__d2b+0x128>
 402a400:	d9000117 	ldw	r4,4(sp)
 402a404:	99000515 	stw	r4,20(r19)
 402a408:	1821003a 	cmpeq	r16,r3,zero
 402a40c:	01000084 	movi	r4,2
 402a410:	2421c83a 	sub	r16,r4,r16
 402a414:	98c00615 	stw	r3,24(r19)
 402a418:	9c000415 	stw	r16,16(r19)
 402a41c:	88001f1e 	bne	r17,zero,402a49c <__d2b+0x108>
 402a420:	10bef384 	addi	r2,r2,-1074
 402a424:	90800015 	stw	r2,0(r18)
 402a428:	00900034 	movhi	r2,16384
 402a42c:	10bfffc4 	addi	r2,r2,-1
 402a430:	8085883a 	add	r2,r16,r2
 402a434:	1085883a 	add	r2,r2,r2
 402a438:	1085883a 	add	r2,r2,r2
 402a43c:	9885883a 	add	r2,r19,r2
 402a440:	11000517 	ldw	r4,20(r2)
 402a444:	8020917a 	slli	r16,r16,5
 402a448:	40299f40 	call	40299f4 <__hi0bits>
 402a44c:	d8c00817 	ldw	r3,32(sp)
 402a450:	8085c83a 	sub	r2,r16,r2
 402a454:	18800015 	stw	r2,0(r3)
 402a458:	9805883a 	mov	r2,r19
 402a45c:	dfc00717 	ldw	ra,28(sp)
 402a460:	dd000617 	ldw	r20,24(sp)
 402a464:	dcc00517 	ldw	r19,20(sp)
 402a468:	dc800417 	ldw	r18,16(sp)
 402a46c:	dc400317 	ldw	r17,12(sp)
 402a470:	dc000217 	ldw	r16,8(sp)
 402a474:	dec00804 	addi	sp,sp,32
 402a478:	f800283a 	ret
 402a47c:	d809883a 	mov	r4,sp
 402a480:	4029a5c0 	call	4029a5c <__lo0bits>
 402a484:	d8c00017 	ldw	r3,0(sp)
 402a488:	04000044 	movi	r16,1
 402a48c:	9c000415 	stw	r16,16(r19)
 402a490:	98c00515 	stw	r3,20(r19)
 402a494:	10800804 	addi	r2,r2,32
 402a498:	883fe126 	beq	r17,zero,402a420 <__alt_data_end+0xfffea420>
 402a49c:	00c00d44 	movi	r3,53
 402a4a0:	8c7ef344 	addi	r17,r17,-1075
 402a4a4:	88a3883a 	add	r17,r17,r2
 402a4a8:	1885c83a 	sub	r2,r3,r2
 402a4ac:	d8c00817 	ldw	r3,32(sp)
 402a4b0:	94400015 	stw	r17,0(r18)
 402a4b4:	18800015 	stw	r2,0(r3)
 402a4b8:	003fe706 	br	402a458 <__alt_data_end+0xfffea458>
 402a4bc:	01000804 	movi	r4,32
 402a4c0:	2089c83a 	sub	r4,r4,r2
 402a4c4:	1908983a 	sll	r4,r3,r4
 402a4c8:	d9400117 	ldw	r5,4(sp)
 402a4cc:	1886d83a 	srl	r3,r3,r2
 402a4d0:	2148b03a 	or	r4,r4,r5
 402a4d4:	99000515 	stw	r4,20(r19)
 402a4d8:	d8c00015 	stw	r3,0(sp)
 402a4dc:	003fca06 	br	402a408 <__alt_data_end+0xfffea408>

0402a4e0 <__ratio>:
 402a4e0:	defff904 	addi	sp,sp,-28
 402a4e4:	dc400315 	stw	r17,12(sp)
 402a4e8:	2823883a 	mov	r17,r5
 402a4ec:	d9400104 	addi	r5,sp,4
 402a4f0:	dfc00615 	stw	ra,24(sp)
 402a4f4:	dcc00515 	stw	r19,20(sp)
 402a4f8:	dc800415 	stw	r18,16(sp)
 402a4fc:	2027883a 	mov	r19,r4
 402a500:	dc000215 	stw	r16,8(sp)
 402a504:	402a2880 	call	402a288 <__b2d>
 402a508:	d80b883a 	mov	r5,sp
 402a50c:	8809883a 	mov	r4,r17
 402a510:	1025883a 	mov	r18,r2
 402a514:	1821883a 	mov	r16,r3
 402a518:	402a2880 	call	402a288 <__b2d>
 402a51c:	8a000417 	ldw	r8,16(r17)
 402a520:	99000417 	ldw	r4,16(r19)
 402a524:	d9400117 	ldw	r5,4(sp)
 402a528:	2209c83a 	sub	r4,r4,r8
 402a52c:	2010917a 	slli	r8,r4,5
 402a530:	d9000017 	ldw	r4,0(sp)
 402a534:	2909c83a 	sub	r4,r5,r4
 402a538:	4109883a 	add	r4,r8,r4
 402a53c:	01000e0e 	bge	zero,r4,402a578 <__ratio+0x98>
 402a540:	2008953a 	slli	r4,r4,20
 402a544:	2421883a 	add	r16,r4,r16
 402a548:	100d883a 	mov	r6,r2
 402a54c:	180f883a 	mov	r7,r3
 402a550:	9009883a 	mov	r4,r18
 402a554:	800b883a 	mov	r5,r16
 402a558:	402e8fc0 	call	402e8fc <__divdf3>
 402a55c:	dfc00617 	ldw	ra,24(sp)
 402a560:	dcc00517 	ldw	r19,20(sp)
 402a564:	dc800417 	ldw	r18,16(sp)
 402a568:	dc400317 	ldw	r17,12(sp)
 402a56c:	dc000217 	ldw	r16,8(sp)
 402a570:	dec00704 	addi	sp,sp,28
 402a574:	f800283a 	ret
 402a578:	2008953a 	slli	r4,r4,20
 402a57c:	1907c83a 	sub	r3,r3,r4
 402a580:	003ff106 	br	402a548 <__alt_data_end+0xfffea548>

0402a584 <_mprec_log10>:
 402a584:	defffe04 	addi	sp,sp,-8
 402a588:	dc000015 	stw	r16,0(sp)
 402a58c:	dfc00115 	stw	ra,4(sp)
 402a590:	008005c4 	movi	r2,23
 402a594:	2021883a 	mov	r16,r4
 402a598:	11000d0e 	bge	r2,r4,402a5d0 <_mprec_log10+0x4c>
 402a59c:	0005883a 	mov	r2,zero
 402a5a0:	00cffc34 	movhi	r3,16368
 402a5a4:	843fffc4 	addi	r16,r16,-1
 402a5a8:	000d883a 	mov	r6,zero
 402a5ac:	01d00934 	movhi	r7,16420
 402a5b0:	1009883a 	mov	r4,r2
 402a5b4:	180b883a 	mov	r5,r3
 402a5b8:	402f43c0 	call	402f43c <__muldf3>
 402a5bc:	803ff91e 	bne	r16,zero,402a5a4 <__alt_data_end+0xfffea5a4>
 402a5c0:	dfc00117 	ldw	ra,4(sp)
 402a5c4:	dc000017 	ldw	r16,0(sp)
 402a5c8:	dec00204 	addi	sp,sp,8
 402a5cc:	f800283a 	ret
 402a5d0:	202090fa 	slli	r16,r4,3
 402a5d4:	008100f4 	movhi	r2,1027
 402a5d8:	1084b304 	addi	r2,r2,4812
 402a5dc:	1421883a 	add	r16,r2,r16
 402a5e0:	80800017 	ldw	r2,0(r16)
 402a5e4:	80c00117 	ldw	r3,4(r16)
 402a5e8:	dfc00117 	ldw	ra,4(sp)
 402a5ec:	dc000017 	ldw	r16,0(sp)
 402a5f0:	dec00204 	addi	sp,sp,8
 402a5f4:	f800283a 	ret

0402a5f8 <__copybits>:
 402a5f8:	297fffc4 	addi	r5,r5,-1
 402a5fc:	280fd17a 	srai	r7,r5,5
 402a600:	30c00417 	ldw	r3,16(r6)
 402a604:	30800504 	addi	r2,r6,20
 402a608:	39c00044 	addi	r7,r7,1
 402a60c:	18c7883a 	add	r3,r3,r3
 402a610:	39cf883a 	add	r7,r7,r7
 402a614:	18c7883a 	add	r3,r3,r3
 402a618:	39cf883a 	add	r7,r7,r7
 402a61c:	10c7883a 	add	r3,r2,r3
 402a620:	21cf883a 	add	r7,r4,r7
 402a624:	10c00d2e 	bgeu	r2,r3,402a65c <__copybits+0x64>
 402a628:	200b883a 	mov	r5,r4
 402a62c:	12000017 	ldw	r8,0(r2)
 402a630:	29400104 	addi	r5,r5,4
 402a634:	10800104 	addi	r2,r2,4
 402a638:	2a3fff15 	stw	r8,-4(r5)
 402a63c:	10fffb36 	bltu	r2,r3,402a62c <__alt_data_end+0xfffea62c>
 402a640:	1985c83a 	sub	r2,r3,r6
 402a644:	10bffac4 	addi	r2,r2,-21
 402a648:	1004d0ba 	srli	r2,r2,2
 402a64c:	10800044 	addi	r2,r2,1
 402a650:	1085883a 	add	r2,r2,r2
 402a654:	1085883a 	add	r2,r2,r2
 402a658:	2089883a 	add	r4,r4,r2
 402a65c:	21c0032e 	bgeu	r4,r7,402a66c <__copybits+0x74>
 402a660:	20000015 	stw	zero,0(r4)
 402a664:	21000104 	addi	r4,r4,4
 402a668:	21fffd36 	bltu	r4,r7,402a660 <__alt_data_end+0xfffea660>
 402a66c:	f800283a 	ret

0402a670 <__any_on>:
 402a670:	20c00417 	ldw	r3,16(r4)
 402a674:	2805d17a 	srai	r2,r5,5
 402a678:	21000504 	addi	r4,r4,20
 402a67c:	18800d0e 	bge	r3,r2,402a6b4 <__any_on+0x44>
 402a680:	18c7883a 	add	r3,r3,r3
 402a684:	18c7883a 	add	r3,r3,r3
 402a688:	20c7883a 	add	r3,r4,r3
 402a68c:	20c0192e 	bgeu	r4,r3,402a6f4 <__any_on+0x84>
 402a690:	18bfff17 	ldw	r2,-4(r3)
 402a694:	18ffff04 	addi	r3,r3,-4
 402a698:	1000041e 	bne	r2,zero,402a6ac <__any_on+0x3c>
 402a69c:	20c0142e 	bgeu	r4,r3,402a6f0 <__any_on+0x80>
 402a6a0:	18ffff04 	addi	r3,r3,-4
 402a6a4:	19400017 	ldw	r5,0(r3)
 402a6a8:	283ffc26 	beq	r5,zero,402a69c <__alt_data_end+0xfffea69c>
 402a6ac:	00800044 	movi	r2,1
 402a6b0:	f800283a 	ret
 402a6b4:	10c00a0e 	bge	r2,r3,402a6e0 <__any_on+0x70>
 402a6b8:	1085883a 	add	r2,r2,r2
 402a6bc:	1085883a 	add	r2,r2,r2
 402a6c0:	294007cc 	andi	r5,r5,31
 402a6c4:	2087883a 	add	r3,r4,r2
 402a6c8:	283ff026 	beq	r5,zero,402a68c <__alt_data_end+0xfffea68c>
 402a6cc:	19800017 	ldw	r6,0(r3)
 402a6d0:	3144d83a 	srl	r2,r6,r5
 402a6d4:	114a983a 	sll	r5,r2,r5
 402a6d8:	317ff41e 	bne	r6,r5,402a6ac <__alt_data_end+0xfffea6ac>
 402a6dc:	003feb06 	br	402a68c <__alt_data_end+0xfffea68c>
 402a6e0:	1085883a 	add	r2,r2,r2
 402a6e4:	1085883a 	add	r2,r2,r2
 402a6e8:	2087883a 	add	r3,r4,r2
 402a6ec:	003fe706 	br	402a68c <__alt_data_end+0xfffea68c>
 402a6f0:	f800283a 	ret
 402a6f4:	0005883a 	mov	r2,zero
 402a6f8:	f800283a 	ret

0402a6fc <__fpclassifyd>:
 402a6fc:	00a00034 	movhi	r2,32768
 402a700:	10bfffc4 	addi	r2,r2,-1
 402a704:	2884703a 	and	r2,r5,r2
 402a708:	10000726 	beq	r2,zero,402a728 <__fpclassifyd+0x2c>
 402a70c:	00fffc34 	movhi	r3,65520
 402a710:	019ff834 	movhi	r6,32736
 402a714:	28c7883a 	add	r3,r5,r3
 402a718:	31bfffc4 	addi	r6,r6,-1
 402a71c:	30c00536 	bltu	r6,r3,402a734 <__fpclassifyd+0x38>
 402a720:	00800104 	movi	r2,4
 402a724:	f800283a 	ret
 402a728:	2000021e 	bne	r4,zero,402a734 <__fpclassifyd+0x38>
 402a72c:	00800084 	movi	r2,2
 402a730:	f800283a 	ret
 402a734:	00dffc34 	movhi	r3,32752
 402a738:	019ff834 	movhi	r6,32736
 402a73c:	28cb883a 	add	r5,r5,r3
 402a740:	31bfffc4 	addi	r6,r6,-1
 402a744:	317ff62e 	bgeu	r6,r5,402a720 <__alt_data_end+0xfffea720>
 402a748:	01400434 	movhi	r5,16
 402a74c:	297fffc4 	addi	r5,r5,-1
 402a750:	28800236 	bltu	r5,r2,402a75c <__fpclassifyd+0x60>
 402a754:	008000c4 	movi	r2,3
 402a758:	f800283a 	ret
 402a75c:	10c00226 	beq	r2,r3,402a768 <__fpclassifyd+0x6c>
 402a760:	0005883a 	mov	r2,zero
 402a764:	f800283a 	ret
 402a768:	2005003a 	cmpeq	r2,r4,zero
 402a76c:	f800283a 	ret

0402a770 <_sbrk_r>:
 402a770:	defffd04 	addi	sp,sp,-12
 402a774:	dc000015 	stw	r16,0(sp)
 402a778:	040100f4 	movhi	r16,1027
 402a77c:	dc400115 	stw	r17,4(sp)
 402a780:	84132704 	addi	r16,r16,19612
 402a784:	2023883a 	mov	r17,r4
 402a788:	2809883a 	mov	r4,r5
 402a78c:	dfc00215 	stw	ra,8(sp)
 402a790:	80000015 	stw	zero,0(r16)
 402a794:	4030b480 	call	4030b48 <sbrk>
 402a798:	00ffffc4 	movi	r3,-1
 402a79c:	10c00526 	beq	r2,r3,402a7b4 <_sbrk_r+0x44>
 402a7a0:	dfc00217 	ldw	ra,8(sp)
 402a7a4:	dc400117 	ldw	r17,4(sp)
 402a7a8:	dc000017 	ldw	r16,0(sp)
 402a7ac:	dec00304 	addi	sp,sp,12
 402a7b0:	f800283a 	ret
 402a7b4:	80c00017 	ldw	r3,0(r16)
 402a7b8:	183ff926 	beq	r3,zero,402a7a0 <__alt_data_end+0xfffea7a0>
 402a7bc:	88c00015 	stw	r3,0(r17)
 402a7c0:	003ff706 	br	402a7a0 <__alt_data_end+0xfffea7a0>

0402a7c4 <__sread>:
 402a7c4:	defffe04 	addi	sp,sp,-8
 402a7c8:	dc000015 	stw	r16,0(sp)
 402a7cc:	2821883a 	mov	r16,r5
 402a7d0:	2940038f 	ldh	r5,14(r5)
 402a7d4:	dfc00115 	stw	ra,4(sp)
 402a7d8:	402cbd00 	call	402cbd0 <_read_r>
 402a7dc:	10000716 	blt	r2,zero,402a7fc <__sread+0x38>
 402a7e0:	80c01417 	ldw	r3,80(r16)
 402a7e4:	1887883a 	add	r3,r3,r2
 402a7e8:	80c01415 	stw	r3,80(r16)
 402a7ec:	dfc00117 	ldw	ra,4(sp)
 402a7f0:	dc000017 	ldw	r16,0(sp)
 402a7f4:	dec00204 	addi	sp,sp,8
 402a7f8:	f800283a 	ret
 402a7fc:	80c0030b 	ldhu	r3,12(r16)
 402a800:	18fbffcc 	andi	r3,r3,61439
 402a804:	80c0030d 	sth	r3,12(r16)
 402a808:	dfc00117 	ldw	ra,4(sp)
 402a80c:	dc000017 	ldw	r16,0(sp)
 402a810:	dec00204 	addi	sp,sp,8
 402a814:	f800283a 	ret

0402a818 <__seofread>:
 402a818:	0005883a 	mov	r2,zero
 402a81c:	f800283a 	ret

0402a820 <__swrite>:
 402a820:	2880030b 	ldhu	r2,12(r5)
 402a824:	defffb04 	addi	sp,sp,-20
 402a828:	dcc00315 	stw	r19,12(sp)
 402a82c:	dc800215 	stw	r18,8(sp)
 402a830:	dc400115 	stw	r17,4(sp)
 402a834:	dc000015 	stw	r16,0(sp)
 402a838:	dfc00415 	stw	ra,16(sp)
 402a83c:	10c0400c 	andi	r3,r2,256
 402a840:	2821883a 	mov	r16,r5
 402a844:	2023883a 	mov	r17,r4
 402a848:	3025883a 	mov	r18,r6
 402a84c:	3827883a 	mov	r19,r7
 402a850:	18000526 	beq	r3,zero,402a868 <__swrite+0x48>
 402a854:	2940038f 	ldh	r5,14(r5)
 402a858:	01c00084 	movi	r7,2
 402a85c:	000d883a 	mov	r6,zero
 402a860:	402ca140 	call	402ca14 <_lseek_r>
 402a864:	8080030b 	ldhu	r2,12(r16)
 402a868:	8140038f 	ldh	r5,14(r16)
 402a86c:	10bbffcc 	andi	r2,r2,61439
 402a870:	980f883a 	mov	r7,r19
 402a874:	900d883a 	mov	r6,r18
 402a878:	8809883a 	mov	r4,r17
 402a87c:	8080030d 	sth	r2,12(r16)
 402a880:	dfc00417 	ldw	ra,16(sp)
 402a884:	dcc00317 	ldw	r19,12(sp)
 402a888:	dc800217 	ldw	r18,8(sp)
 402a88c:	dc400117 	ldw	r17,4(sp)
 402a890:	dc000017 	ldw	r16,0(sp)
 402a894:	dec00504 	addi	sp,sp,20
 402a898:	402c0241 	jmpi	402c024 <_write_r>

0402a89c <__sseek>:
 402a89c:	defffe04 	addi	sp,sp,-8
 402a8a0:	dc000015 	stw	r16,0(sp)
 402a8a4:	2821883a 	mov	r16,r5
 402a8a8:	2940038f 	ldh	r5,14(r5)
 402a8ac:	dfc00115 	stw	ra,4(sp)
 402a8b0:	402ca140 	call	402ca14 <_lseek_r>
 402a8b4:	00ffffc4 	movi	r3,-1
 402a8b8:	10c00826 	beq	r2,r3,402a8dc <__sseek+0x40>
 402a8bc:	80c0030b 	ldhu	r3,12(r16)
 402a8c0:	80801415 	stw	r2,80(r16)
 402a8c4:	18c40014 	ori	r3,r3,4096
 402a8c8:	80c0030d 	sth	r3,12(r16)
 402a8cc:	dfc00117 	ldw	ra,4(sp)
 402a8d0:	dc000017 	ldw	r16,0(sp)
 402a8d4:	dec00204 	addi	sp,sp,8
 402a8d8:	f800283a 	ret
 402a8dc:	80c0030b 	ldhu	r3,12(r16)
 402a8e0:	18fbffcc 	andi	r3,r3,61439
 402a8e4:	80c0030d 	sth	r3,12(r16)
 402a8e8:	dfc00117 	ldw	ra,4(sp)
 402a8ec:	dc000017 	ldw	r16,0(sp)
 402a8f0:	dec00204 	addi	sp,sp,8
 402a8f4:	f800283a 	ret

0402a8f8 <__sclose>:
 402a8f8:	2940038f 	ldh	r5,14(r5)
 402a8fc:	402c0841 	jmpi	402c084 <_close_r>

0402a900 <strcmp>:
 402a900:	2144b03a 	or	r2,r4,r5
 402a904:	108000cc 	andi	r2,r2,3
 402a908:	1000171e 	bne	r2,zero,402a968 <strcmp+0x68>
 402a90c:	20800017 	ldw	r2,0(r4)
 402a910:	28c00017 	ldw	r3,0(r5)
 402a914:	10c0141e 	bne	r2,r3,402a968 <strcmp+0x68>
 402a918:	027fbff4 	movhi	r9,65279
 402a91c:	4a7fbfc4 	addi	r9,r9,-257
 402a920:	0086303a 	nor	r3,zero,r2
 402a924:	02202074 	movhi	r8,32897
 402a928:	1245883a 	add	r2,r2,r9
 402a92c:	42202004 	addi	r8,r8,-32640
 402a930:	10c4703a 	and	r2,r2,r3
 402a934:	1204703a 	and	r2,r2,r8
 402a938:	10000226 	beq	r2,zero,402a944 <strcmp+0x44>
 402a93c:	00002306 	br	402a9cc <strcmp+0xcc>
 402a940:	1000221e 	bne	r2,zero,402a9cc <strcmp+0xcc>
 402a944:	21000104 	addi	r4,r4,4
 402a948:	20c00017 	ldw	r3,0(r4)
 402a94c:	29400104 	addi	r5,r5,4
 402a950:	29800017 	ldw	r6,0(r5)
 402a954:	1a4f883a 	add	r7,r3,r9
 402a958:	00c4303a 	nor	r2,zero,r3
 402a95c:	3884703a 	and	r2,r7,r2
 402a960:	1204703a 	and	r2,r2,r8
 402a964:	19bff626 	beq	r3,r6,402a940 <__alt_data_end+0xfffea940>
 402a968:	20800003 	ldbu	r2,0(r4)
 402a96c:	10c03fcc 	andi	r3,r2,255
 402a970:	18c0201c 	xori	r3,r3,128
 402a974:	18ffe004 	addi	r3,r3,-128
 402a978:	18000c26 	beq	r3,zero,402a9ac <strcmp+0xac>
 402a97c:	29800007 	ldb	r6,0(r5)
 402a980:	19800326 	beq	r3,r6,402a990 <strcmp+0x90>
 402a984:	00001306 	br	402a9d4 <strcmp+0xd4>
 402a988:	29800007 	ldb	r6,0(r5)
 402a98c:	11800b1e 	bne	r2,r6,402a9bc <strcmp+0xbc>
 402a990:	21000044 	addi	r4,r4,1
 402a994:	20c00003 	ldbu	r3,0(r4)
 402a998:	29400044 	addi	r5,r5,1
 402a99c:	18803fcc 	andi	r2,r3,255
 402a9a0:	1080201c 	xori	r2,r2,128
 402a9a4:	10bfe004 	addi	r2,r2,-128
 402a9a8:	103ff71e 	bne	r2,zero,402a988 <__alt_data_end+0xfffea988>
 402a9ac:	0007883a 	mov	r3,zero
 402a9b0:	28800003 	ldbu	r2,0(r5)
 402a9b4:	1885c83a 	sub	r2,r3,r2
 402a9b8:	f800283a 	ret
 402a9bc:	28800003 	ldbu	r2,0(r5)
 402a9c0:	18c03fcc 	andi	r3,r3,255
 402a9c4:	1885c83a 	sub	r2,r3,r2
 402a9c8:	f800283a 	ret
 402a9cc:	0005883a 	mov	r2,zero
 402a9d0:	f800283a 	ret
 402a9d4:	10c03fcc 	andi	r3,r2,255
 402a9d8:	003ff506 	br	402a9b0 <__alt_data_end+0xfffea9b0>

0402a9dc <__sprint_r.part.0>:
 402a9dc:	28801917 	ldw	r2,100(r5)
 402a9e0:	defff604 	addi	sp,sp,-40
 402a9e4:	dd400515 	stw	r21,20(sp)
 402a9e8:	dfc00915 	stw	ra,36(sp)
 402a9ec:	df000815 	stw	fp,32(sp)
 402a9f0:	ddc00715 	stw	r23,28(sp)
 402a9f4:	dd800615 	stw	r22,24(sp)
 402a9f8:	dd000415 	stw	r20,16(sp)
 402a9fc:	dcc00315 	stw	r19,12(sp)
 402aa00:	dc800215 	stw	r18,8(sp)
 402aa04:	dc400115 	stw	r17,4(sp)
 402aa08:	dc000015 	stw	r16,0(sp)
 402aa0c:	1088000c 	andi	r2,r2,8192
 402aa10:	302b883a 	mov	r21,r6
 402aa14:	10002e26 	beq	r2,zero,402aad0 <__sprint_r.part.0+0xf4>
 402aa18:	30800217 	ldw	r2,8(r6)
 402aa1c:	35800017 	ldw	r22,0(r6)
 402aa20:	10002926 	beq	r2,zero,402aac8 <__sprint_r.part.0+0xec>
 402aa24:	2827883a 	mov	r19,r5
 402aa28:	2029883a 	mov	r20,r4
 402aa2c:	b5c00104 	addi	r23,r22,4
 402aa30:	04bfffc4 	movi	r18,-1
 402aa34:	bc400017 	ldw	r17,0(r23)
 402aa38:	b4000017 	ldw	r16,0(r22)
 402aa3c:	0039883a 	mov	fp,zero
 402aa40:	8822d0ba 	srli	r17,r17,2
 402aa44:	8800031e 	bne	r17,zero,402aa54 <__sprint_r.part.0+0x78>
 402aa48:	00001806 	br	402aaac <__sprint_r.part.0+0xd0>
 402aa4c:	84000104 	addi	r16,r16,4
 402aa50:	8f001526 	beq	r17,fp,402aaa8 <__sprint_r.part.0+0xcc>
 402aa54:	81400017 	ldw	r5,0(r16)
 402aa58:	980d883a 	mov	r6,r19
 402aa5c:	a009883a 	mov	r4,r20
 402aa60:	402c4040 	call	402c404 <_fputwc_r>
 402aa64:	e7000044 	addi	fp,fp,1
 402aa68:	14bff81e 	bne	r2,r18,402aa4c <__alt_data_end+0xfffeaa4c>
 402aa6c:	9005883a 	mov	r2,r18
 402aa70:	a8000215 	stw	zero,8(r21)
 402aa74:	a8000115 	stw	zero,4(r21)
 402aa78:	dfc00917 	ldw	ra,36(sp)
 402aa7c:	df000817 	ldw	fp,32(sp)
 402aa80:	ddc00717 	ldw	r23,28(sp)
 402aa84:	dd800617 	ldw	r22,24(sp)
 402aa88:	dd400517 	ldw	r21,20(sp)
 402aa8c:	dd000417 	ldw	r20,16(sp)
 402aa90:	dcc00317 	ldw	r19,12(sp)
 402aa94:	dc800217 	ldw	r18,8(sp)
 402aa98:	dc400117 	ldw	r17,4(sp)
 402aa9c:	dc000017 	ldw	r16,0(sp)
 402aaa0:	dec00a04 	addi	sp,sp,40
 402aaa4:	f800283a 	ret
 402aaa8:	a8800217 	ldw	r2,8(r21)
 402aaac:	8c63883a 	add	r17,r17,r17
 402aab0:	8c63883a 	add	r17,r17,r17
 402aab4:	1445c83a 	sub	r2,r2,r17
 402aab8:	a8800215 	stw	r2,8(r21)
 402aabc:	b5800204 	addi	r22,r22,8
 402aac0:	bdc00204 	addi	r23,r23,8
 402aac4:	103fdb1e 	bne	r2,zero,402aa34 <__alt_data_end+0xfffeaa34>
 402aac8:	0005883a 	mov	r2,zero
 402aacc:	003fe806 	br	402aa70 <__alt_data_end+0xfffeaa70>
 402aad0:	402c5040 	call	402c504 <__sfvwrite_r>
 402aad4:	003fe606 	br	402aa70 <__alt_data_end+0xfffeaa70>

0402aad8 <__sprint_r>:
 402aad8:	30c00217 	ldw	r3,8(r6)
 402aadc:	18000126 	beq	r3,zero,402aae4 <__sprint_r+0xc>
 402aae0:	402a9dc1 	jmpi	402a9dc <__sprint_r.part.0>
 402aae4:	30000115 	stw	zero,4(r6)
 402aae8:	0005883a 	mov	r2,zero
 402aaec:	f800283a 	ret

0402aaf0 <___vfiprintf_internal_r>:
 402aaf0:	deffc904 	addi	sp,sp,-220
 402aaf4:	df003515 	stw	fp,212(sp)
 402aaf8:	dd003115 	stw	r20,196(sp)
 402aafc:	dfc03615 	stw	ra,216(sp)
 402ab00:	ddc03415 	stw	r23,208(sp)
 402ab04:	dd803315 	stw	r22,204(sp)
 402ab08:	dd403215 	stw	r21,200(sp)
 402ab0c:	dcc03015 	stw	r19,192(sp)
 402ab10:	dc802f15 	stw	r18,188(sp)
 402ab14:	dc402e15 	stw	r17,184(sp)
 402ab18:	dc002d15 	stw	r16,180(sp)
 402ab1c:	d9002015 	stw	r4,128(sp)
 402ab20:	d9c02215 	stw	r7,136(sp)
 402ab24:	2829883a 	mov	r20,r5
 402ab28:	3039883a 	mov	fp,r6
 402ab2c:	20000226 	beq	r4,zero,402ab38 <___vfiprintf_internal_r+0x48>
 402ab30:	20800e17 	ldw	r2,56(r4)
 402ab34:	1000cf26 	beq	r2,zero,402ae74 <___vfiprintf_internal_r+0x384>
 402ab38:	a080030b 	ldhu	r2,12(r20)
 402ab3c:	10c8000c 	andi	r3,r2,8192
 402ab40:	1800061e 	bne	r3,zero,402ab5c <___vfiprintf_internal_r+0x6c>
 402ab44:	a1001917 	ldw	r4,100(r20)
 402ab48:	00f7ffc4 	movi	r3,-8193
 402ab4c:	10880014 	ori	r2,r2,8192
 402ab50:	20c6703a 	and	r3,r4,r3
 402ab54:	a080030d 	sth	r2,12(r20)
 402ab58:	a0c01915 	stw	r3,100(r20)
 402ab5c:	10c0020c 	andi	r3,r2,8
 402ab60:	1800a926 	beq	r3,zero,402ae08 <___vfiprintf_internal_r+0x318>
 402ab64:	a0c00417 	ldw	r3,16(r20)
 402ab68:	1800a726 	beq	r3,zero,402ae08 <___vfiprintf_internal_r+0x318>
 402ab6c:	1080068c 	andi	r2,r2,26
 402ab70:	00c00284 	movi	r3,10
 402ab74:	10c0ac26 	beq	r2,r3,402ae28 <___vfiprintf_internal_r+0x338>
 402ab78:	da801a04 	addi	r10,sp,104
 402ab7c:	da801e15 	stw	r10,120(sp)
 402ab80:	d8801e17 	ldw	r2,120(sp)
 402ab84:	da8019c4 	addi	r10,sp,103
 402ab88:	058100f4 	movhi	r22,1027
 402ab8c:	05c100f4 	movhi	r23,1027
 402ab90:	da801f15 	stw	r10,124(sp)
 402ab94:	1295c83a 	sub	r10,r2,r10
 402ab98:	b584e904 	addi	r22,r22,5028
 402ab9c:	bdc4e504 	addi	r23,r23,5012
 402aba0:	dec01a15 	stw	sp,104(sp)
 402aba4:	d8001c15 	stw	zero,112(sp)
 402aba8:	d8001b15 	stw	zero,108(sp)
 402abac:	d8002615 	stw	zero,152(sp)
 402abb0:	d8002315 	stw	zero,140(sp)
 402abb4:	da802715 	stw	r10,156(sp)
 402abb8:	d811883a 	mov	r8,sp
 402abbc:	dd002115 	stw	r20,132(sp)
 402abc0:	e021883a 	mov	r16,fp
 402abc4:	80800007 	ldb	r2,0(r16)
 402abc8:	1003ea26 	beq	r2,zero,402bb74 <___vfiprintf_internal_r+0x1084>
 402abcc:	00c00944 	movi	r3,37
 402abd0:	8025883a 	mov	r18,r16
 402abd4:	10c0021e 	bne	r2,r3,402abe0 <___vfiprintf_internal_r+0xf0>
 402abd8:	00001606 	br	402ac34 <___vfiprintf_internal_r+0x144>
 402abdc:	10c00326 	beq	r2,r3,402abec <___vfiprintf_internal_r+0xfc>
 402abe0:	94800044 	addi	r18,r18,1
 402abe4:	90800007 	ldb	r2,0(r18)
 402abe8:	103ffc1e 	bne	r2,zero,402abdc <__alt_data_end+0xfffeabdc>
 402abec:	9423c83a 	sub	r17,r18,r16
 402abf0:	88001026 	beq	r17,zero,402ac34 <___vfiprintf_internal_r+0x144>
 402abf4:	d8c01c17 	ldw	r3,112(sp)
 402abf8:	d8801b17 	ldw	r2,108(sp)
 402abfc:	44000015 	stw	r16,0(r8)
 402ac00:	88c7883a 	add	r3,r17,r3
 402ac04:	10800044 	addi	r2,r2,1
 402ac08:	44400115 	stw	r17,4(r8)
 402ac0c:	d8c01c15 	stw	r3,112(sp)
 402ac10:	d8801b15 	stw	r2,108(sp)
 402ac14:	010001c4 	movi	r4,7
 402ac18:	2080760e 	bge	r4,r2,402adf4 <___vfiprintf_internal_r+0x304>
 402ac1c:	1803821e 	bne	r3,zero,402ba28 <___vfiprintf_internal_r+0xf38>
 402ac20:	da802317 	ldw	r10,140(sp)
 402ac24:	d8001b15 	stw	zero,108(sp)
 402ac28:	d811883a 	mov	r8,sp
 402ac2c:	5455883a 	add	r10,r10,r17
 402ac30:	da802315 	stw	r10,140(sp)
 402ac34:	90800007 	ldb	r2,0(r18)
 402ac38:	10044626 	beq	r2,zero,402bd54 <___vfiprintf_internal_r+0x1264>
 402ac3c:	90c00047 	ldb	r3,1(r18)
 402ac40:	94000044 	addi	r16,r18,1
 402ac44:	d8001d85 	stb	zero,118(sp)
 402ac48:	0009883a 	mov	r4,zero
 402ac4c:	000f883a 	mov	r7,zero
 402ac50:	027fffc4 	movi	r9,-1
 402ac54:	0023883a 	mov	r17,zero
 402ac58:	0029883a 	mov	r20,zero
 402ac5c:	01401604 	movi	r5,88
 402ac60:	01800244 	movi	r6,9
 402ac64:	03400a84 	movi	r13,42
 402ac68:	03001b04 	movi	r12,108
 402ac6c:	84000044 	addi	r16,r16,1
 402ac70:	18bff804 	addi	r2,r3,-32
 402ac74:	28827336 	bltu	r5,r2,402b644 <___vfiprintf_internal_r+0xb54>
 402ac78:	100490ba 	slli	r2,r2,2
 402ac7c:	028100f4 	movhi	r10,1027
 402ac80:	52ab2404 	addi	r10,r10,-21360
 402ac84:	1285883a 	add	r2,r2,r10
 402ac88:	10800017 	ldw	r2,0(r2)
 402ac8c:	1000683a 	jmp	r2
 402ac90:	0402b378 	rdprs	r16,zero,2765
 402ac94:	0402b644 	movi	r16,2777
 402ac98:	0402b644 	movi	r16,2777
 402ac9c:	0402b398 	cmpnei	r16,zero,2766
 402aca0:	0402b644 	movi	r16,2777
 402aca4:	0402b644 	movi	r16,2777
 402aca8:	0402b644 	movi	r16,2777
 402acac:	0402b644 	movi	r16,2777
 402acb0:	0402b644 	movi	r16,2777
 402acb4:	0402b644 	movi	r16,2777
 402acb8:	0402b580 	call	402b58 <__alt_mem_sdram_controller_2+0x402b58>
 402acbc:	0402b59c 	xori	r16,zero,2774
 402acc0:	0402b644 	movi	r16,2777
 402acc4:	0402ae84 	movi	r16,2746
 402acc8:	0402b5ac 	andhi	r16,zero,2774
 402accc:	0402b644 	movi	r16,2777
 402acd0:	0402b3a4 	muli	r16,zero,2766
 402acd4:	0402b3b0 	cmpltui	r16,zero,2766
 402acd8:	0402b3b0 	cmpltui	r16,zero,2766
 402acdc:	0402b3b0 	cmpltui	r16,zero,2766
 402ace0:	0402b3b0 	cmpltui	r16,zero,2766
 402ace4:	0402b3b0 	cmpltui	r16,zero,2766
 402ace8:	0402b3b0 	cmpltui	r16,zero,2766
 402acec:	0402b3b0 	cmpltui	r16,zero,2766
 402acf0:	0402b3b0 	cmpltui	r16,zero,2766
 402acf4:	0402b3b0 	cmpltui	r16,zero,2766
 402acf8:	0402b644 	movi	r16,2777
 402acfc:	0402b644 	movi	r16,2777
 402ad00:	0402b644 	movi	r16,2777
 402ad04:	0402b644 	movi	r16,2777
 402ad08:	0402b644 	movi	r16,2777
 402ad0c:	0402b644 	movi	r16,2777
 402ad10:	0402b644 	movi	r16,2777
 402ad14:	0402b644 	movi	r16,2777
 402ad18:	0402b644 	movi	r16,2777
 402ad1c:	0402b644 	movi	r16,2777
 402ad20:	0402b3dc 	xori	r16,zero,2767
 402ad24:	0402b644 	movi	r16,2777
 402ad28:	0402b644 	movi	r16,2777
 402ad2c:	0402b644 	movi	r16,2777
 402ad30:	0402b644 	movi	r16,2777
 402ad34:	0402b644 	movi	r16,2777
 402ad38:	0402b644 	movi	r16,2777
 402ad3c:	0402b644 	movi	r16,2777
 402ad40:	0402b644 	movi	r16,2777
 402ad44:	0402b644 	movi	r16,2777
 402ad48:	0402b644 	movi	r16,2777
 402ad4c:	0402b414 	movui	r16,2768
 402ad50:	0402b644 	movi	r16,2777
 402ad54:	0402b644 	movi	r16,2777
 402ad58:	0402b644 	movi	r16,2777
 402ad5c:	0402b644 	movi	r16,2777
 402ad60:	0402b644 	movi	r16,2777
 402ad64:	0402b46c 	andhi	r16,zero,2769
 402ad68:	0402b644 	movi	r16,2777
 402ad6c:	0402b644 	movi	r16,2777
 402ad70:	0402b4dc 	xori	r16,zero,2771
 402ad74:	0402b644 	movi	r16,2777
 402ad78:	0402b644 	movi	r16,2777
 402ad7c:	0402b644 	movi	r16,2777
 402ad80:	0402b644 	movi	r16,2777
 402ad84:	0402b644 	movi	r16,2777
 402ad88:	0402b644 	movi	r16,2777
 402ad8c:	0402b644 	movi	r16,2777
 402ad90:	0402b644 	movi	r16,2777
 402ad94:	0402b644 	movi	r16,2777
 402ad98:	0402b644 	movi	r16,2777
 402ad9c:	0402b288 	cmpgei	r16,zero,2762
 402ada0:	0402b2b4 	movhi	r16,2762
 402ada4:	0402b644 	movi	r16,2777
 402ada8:	0402b644 	movi	r16,2777
 402adac:	0402b644 	movi	r16,2777
 402adb0:	0402b5ec 	andhi	r16,zero,2775
 402adb4:	0402b2b4 	movhi	r16,2762
 402adb8:	0402b644 	movi	r16,2777
 402adbc:	0402b644 	movi	r16,2777
 402adc0:	0402b148 	cmpgei	r16,zero,2757
 402adc4:	0402b644 	movi	r16,2777
 402adc8:	0402b158 	cmpnei	r16,zero,2757
 402adcc:	0402b194 	movui	r16,2758
 402add0:	0402ae90 	cmplti	r16,zero,2746
 402add4:	0402b13c 	xorhi	r16,zero,2756
 402add8:	0402b644 	movi	r16,2777
 402addc:	0402b518 	cmpnei	r16,zero,2772
 402ade0:	0402b644 	movi	r16,2777
 402ade4:	0402b570 	cmpltui	r16,zero,2773
 402ade8:	0402b644 	movi	r16,2777
 402adec:	0402b644 	movi	r16,2777
 402adf0:	0402b234 	movhi	r16,2760
 402adf4:	42000204 	addi	r8,r8,8
 402adf8:	da802317 	ldw	r10,140(sp)
 402adfc:	5455883a 	add	r10,r10,r17
 402ae00:	da802315 	stw	r10,140(sp)
 402ae04:	003f8b06 	br	402ac34 <__alt_data_end+0xfffeac34>
 402ae08:	d9002017 	ldw	r4,128(sp)
 402ae0c:	a00b883a 	mov	r5,r20
 402ae10:	40261d80 	call	40261d8 <__swsetup_r>
 402ae14:	1003b11e 	bne	r2,zero,402bcdc <___vfiprintf_internal_r+0x11ec>
 402ae18:	a080030b 	ldhu	r2,12(r20)
 402ae1c:	00c00284 	movi	r3,10
 402ae20:	1080068c 	andi	r2,r2,26
 402ae24:	10ff541e 	bne	r2,r3,402ab78 <__alt_data_end+0xfffeab78>
 402ae28:	a080038f 	ldh	r2,14(r20)
 402ae2c:	103f5216 	blt	r2,zero,402ab78 <__alt_data_end+0xfffeab78>
 402ae30:	d9c02217 	ldw	r7,136(sp)
 402ae34:	d9002017 	ldw	r4,128(sp)
 402ae38:	e00d883a 	mov	r6,fp
 402ae3c:	a00b883a 	mov	r5,r20
 402ae40:	402bf680 	call	402bf68 <__sbprintf>
 402ae44:	dfc03617 	ldw	ra,216(sp)
 402ae48:	df003517 	ldw	fp,212(sp)
 402ae4c:	ddc03417 	ldw	r23,208(sp)
 402ae50:	dd803317 	ldw	r22,204(sp)
 402ae54:	dd403217 	ldw	r21,200(sp)
 402ae58:	dd003117 	ldw	r20,196(sp)
 402ae5c:	dcc03017 	ldw	r19,192(sp)
 402ae60:	dc802f17 	ldw	r18,188(sp)
 402ae64:	dc402e17 	ldw	r17,184(sp)
 402ae68:	dc002d17 	ldw	r16,180(sp)
 402ae6c:	dec03704 	addi	sp,sp,220
 402ae70:	f800283a 	ret
 402ae74:	40284440 	call	4028444 <__sinit>
 402ae78:	003f2f06 	br	402ab38 <__alt_data_end+0xfffeab38>
 402ae7c:	0463c83a 	sub	r17,zero,r17
 402ae80:	d8802215 	stw	r2,136(sp)
 402ae84:	a5000114 	ori	r20,r20,4
 402ae88:	80c00007 	ldb	r3,0(r16)
 402ae8c:	003f7706 	br	402ac6c <__alt_data_end+0xfffeac6c>
 402ae90:	00800c04 	movi	r2,48
 402ae94:	da802217 	ldw	r10,136(sp)
 402ae98:	d8801d05 	stb	r2,116(sp)
 402ae9c:	00801e04 	movi	r2,120
 402aea0:	d8801d45 	stb	r2,117(sp)
 402aea4:	d8001d85 	stb	zero,118(sp)
 402aea8:	50c00104 	addi	r3,r10,4
 402aeac:	54800017 	ldw	r18,0(r10)
 402aeb0:	0027883a 	mov	r19,zero
 402aeb4:	a0800094 	ori	r2,r20,2
 402aeb8:	48030b16 	blt	r9,zero,402bae8 <___vfiprintf_internal_r+0xff8>
 402aebc:	00bfdfc4 	movi	r2,-129
 402aec0:	a096703a 	and	r11,r20,r2
 402aec4:	d8c02215 	stw	r3,136(sp)
 402aec8:	5d000094 	ori	r20,r11,2
 402aecc:	90032b1e 	bne	r18,zero,402bb7c <___vfiprintf_internal_r+0x108c>
 402aed0:	008100f4 	movhi	r2,1027
 402aed4:	10848504 	addi	r2,r2,4628
 402aed8:	d8802615 	stw	r2,152(sp)
 402aedc:	0039883a 	mov	fp,zero
 402aee0:	48017b1e 	bne	r9,zero,402b4d0 <___vfiprintf_internal_r+0x9e0>
 402aee4:	0013883a 	mov	r9,zero
 402aee8:	0027883a 	mov	r19,zero
 402aeec:	dd401a04 	addi	r21,sp,104
 402aef0:	4825883a 	mov	r18,r9
 402aef4:	4cc0010e 	bge	r9,r19,402aefc <___vfiprintf_internal_r+0x40c>
 402aef8:	9825883a 	mov	r18,r19
 402aefc:	e7003fcc 	andi	fp,fp,255
 402af00:	e700201c 	xori	fp,fp,128
 402af04:	e73fe004 	addi	fp,fp,-128
 402af08:	e0000126 	beq	fp,zero,402af10 <___vfiprintf_internal_r+0x420>
 402af0c:	94800044 	addi	r18,r18,1
 402af10:	a380008c 	andi	r14,r20,2
 402af14:	70000126 	beq	r14,zero,402af1c <___vfiprintf_internal_r+0x42c>
 402af18:	94800084 	addi	r18,r18,2
 402af1c:	a700210c 	andi	fp,r20,132
 402af20:	e001df1e 	bne	fp,zero,402b6a0 <___vfiprintf_internal_r+0xbb0>
 402af24:	8c87c83a 	sub	r3,r17,r18
 402af28:	00c1dd0e 	bge	zero,r3,402b6a0 <___vfiprintf_internal_r+0xbb0>
 402af2c:	01c00404 	movi	r7,16
 402af30:	d8801c17 	ldw	r2,112(sp)
 402af34:	38c3ad0e 	bge	r7,r3,402bdec <___vfiprintf_internal_r+0x12fc>
 402af38:	028100f4 	movhi	r10,1027
 402af3c:	5284e904 	addi	r10,r10,5028
 402af40:	dc002915 	stw	r16,164(sp)
 402af44:	d9801b17 	ldw	r6,108(sp)
 402af48:	da802415 	stw	r10,144(sp)
 402af4c:	03c001c4 	movi	r15,7
 402af50:	da402515 	stw	r9,148(sp)
 402af54:	db802815 	stw	r14,160(sp)
 402af58:	1821883a 	mov	r16,r3
 402af5c:	00000506 	br	402af74 <___vfiprintf_internal_r+0x484>
 402af60:	31400084 	addi	r5,r6,2
 402af64:	42000204 	addi	r8,r8,8
 402af68:	200d883a 	mov	r6,r4
 402af6c:	843ffc04 	addi	r16,r16,-16
 402af70:	3c000d0e 	bge	r7,r16,402afa8 <___vfiprintf_internal_r+0x4b8>
 402af74:	10800404 	addi	r2,r2,16
 402af78:	31000044 	addi	r4,r6,1
 402af7c:	45800015 	stw	r22,0(r8)
 402af80:	41c00115 	stw	r7,4(r8)
 402af84:	d8801c15 	stw	r2,112(sp)
 402af88:	d9001b15 	stw	r4,108(sp)
 402af8c:	793ff40e 	bge	r15,r4,402af60 <__alt_data_end+0xfffeaf60>
 402af90:	1001b51e 	bne	r2,zero,402b668 <___vfiprintf_internal_r+0xb78>
 402af94:	843ffc04 	addi	r16,r16,-16
 402af98:	000d883a 	mov	r6,zero
 402af9c:	01400044 	movi	r5,1
 402afa0:	d811883a 	mov	r8,sp
 402afa4:	3c3ff316 	blt	r7,r16,402af74 <__alt_data_end+0xfffeaf74>
 402afa8:	8007883a 	mov	r3,r16
 402afac:	da402517 	ldw	r9,148(sp)
 402afb0:	db802817 	ldw	r14,160(sp)
 402afb4:	dc002917 	ldw	r16,164(sp)
 402afb8:	da802417 	ldw	r10,144(sp)
 402afbc:	1885883a 	add	r2,r3,r2
 402afc0:	40c00115 	stw	r3,4(r8)
 402afc4:	42800015 	stw	r10,0(r8)
 402afc8:	d8801c15 	stw	r2,112(sp)
 402afcc:	d9401b15 	stw	r5,108(sp)
 402afd0:	00c001c4 	movi	r3,7
 402afd4:	19426016 	blt	r3,r5,402b958 <___vfiprintf_internal_r+0xe68>
 402afd8:	d8c01d87 	ldb	r3,118(sp)
 402afdc:	42000204 	addi	r8,r8,8
 402afe0:	29000044 	addi	r4,r5,1
 402afe4:	1801b31e 	bne	r3,zero,402b6b4 <___vfiprintf_internal_r+0xbc4>
 402afe8:	7001c026 	beq	r14,zero,402b6ec <___vfiprintf_internal_r+0xbfc>
 402afec:	d8c01d04 	addi	r3,sp,116
 402aff0:	10800084 	addi	r2,r2,2
 402aff4:	40c00015 	stw	r3,0(r8)
 402aff8:	00c00084 	movi	r3,2
 402affc:	40c00115 	stw	r3,4(r8)
 402b000:	d8801c15 	stw	r2,112(sp)
 402b004:	d9001b15 	stw	r4,108(sp)
 402b008:	00c001c4 	movi	r3,7
 402b00c:	1902650e 	bge	r3,r4,402b9a4 <___vfiprintf_internal_r+0xeb4>
 402b010:	10029a1e 	bne	r2,zero,402ba7c <___vfiprintf_internal_r+0xf8c>
 402b014:	00c02004 	movi	r3,128
 402b018:	01000044 	movi	r4,1
 402b01c:	000b883a 	mov	r5,zero
 402b020:	d811883a 	mov	r8,sp
 402b024:	e0c1b31e 	bne	fp,r3,402b6f4 <___vfiprintf_internal_r+0xc04>
 402b028:	8cb9c83a 	sub	fp,r17,r18
 402b02c:	0701b10e 	bge	zero,fp,402b6f4 <___vfiprintf_internal_r+0xc04>
 402b030:	01c00404 	movi	r7,16
 402b034:	3f03890e 	bge	r7,fp,402be5c <___vfiprintf_internal_r+0x136c>
 402b038:	00c100f4 	movhi	r3,1027
 402b03c:	18c4e504 	addi	r3,r3,5012
 402b040:	d8c02415 	stw	r3,144(sp)
 402b044:	8007883a 	mov	r3,r16
 402b048:	034001c4 	movi	r13,7
 402b04c:	e021883a 	mov	r16,fp
 402b050:	da402515 	stw	r9,148(sp)
 402b054:	1839883a 	mov	fp,r3
 402b058:	00000506 	br	402b070 <___vfiprintf_internal_r+0x580>
 402b05c:	29800084 	addi	r6,r5,2
 402b060:	42000204 	addi	r8,r8,8
 402b064:	180b883a 	mov	r5,r3
 402b068:	843ffc04 	addi	r16,r16,-16
 402b06c:	3c000d0e 	bge	r7,r16,402b0a4 <___vfiprintf_internal_r+0x5b4>
 402b070:	10800404 	addi	r2,r2,16
 402b074:	28c00044 	addi	r3,r5,1
 402b078:	45c00015 	stw	r23,0(r8)
 402b07c:	41c00115 	stw	r7,4(r8)
 402b080:	d8801c15 	stw	r2,112(sp)
 402b084:	d8c01b15 	stw	r3,108(sp)
 402b088:	68fff40e 	bge	r13,r3,402b05c <__alt_data_end+0xfffeb05c>
 402b08c:	1002241e 	bne	r2,zero,402b920 <___vfiprintf_internal_r+0xe30>
 402b090:	843ffc04 	addi	r16,r16,-16
 402b094:	01800044 	movi	r6,1
 402b098:	000b883a 	mov	r5,zero
 402b09c:	d811883a 	mov	r8,sp
 402b0a0:	3c3ff316 	blt	r7,r16,402b070 <__alt_data_end+0xfffeb070>
 402b0a4:	da402517 	ldw	r9,148(sp)
 402b0a8:	e007883a 	mov	r3,fp
 402b0ac:	8039883a 	mov	fp,r16
 402b0b0:	1821883a 	mov	r16,r3
 402b0b4:	d8c02417 	ldw	r3,144(sp)
 402b0b8:	1705883a 	add	r2,r2,fp
 402b0bc:	47000115 	stw	fp,4(r8)
 402b0c0:	40c00015 	stw	r3,0(r8)
 402b0c4:	d8801c15 	stw	r2,112(sp)
 402b0c8:	d9801b15 	stw	r6,108(sp)
 402b0cc:	00c001c4 	movi	r3,7
 402b0d0:	19827616 	blt	r3,r6,402baac <___vfiprintf_internal_r+0xfbc>
 402b0d4:	4cf9c83a 	sub	fp,r9,r19
 402b0d8:	42000204 	addi	r8,r8,8
 402b0dc:	31000044 	addi	r4,r6,1
 402b0e0:	300b883a 	mov	r5,r6
 402b0e4:	07018516 	blt	zero,fp,402b6fc <___vfiprintf_internal_r+0xc0c>
 402b0e8:	9885883a 	add	r2,r19,r2
 402b0ec:	45400015 	stw	r21,0(r8)
 402b0f0:	44c00115 	stw	r19,4(r8)
 402b0f4:	d8801c15 	stw	r2,112(sp)
 402b0f8:	d9001b15 	stw	r4,108(sp)
 402b0fc:	00c001c4 	movi	r3,7
 402b100:	1901dd0e 	bge	r3,r4,402b878 <___vfiprintf_internal_r+0xd88>
 402b104:	1002401e 	bne	r2,zero,402ba08 <___vfiprintf_internal_r+0xf18>
 402b108:	d8001b15 	stw	zero,108(sp)
 402b10c:	a2c0010c 	andi	r11,r20,4
 402b110:	58000226 	beq	r11,zero,402b11c <___vfiprintf_internal_r+0x62c>
 402b114:	8ca7c83a 	sub	r19,r17,r18
 402b118:	04c2f216 	blt	zero,r19,402bce4 <___vfiprintf_internal_r+0x11f4>
 402b11c:	8c80010e 	bge	r17,r18,402b124 <___vfiprintf_internal_r+0x634>
 402b120:	9023883a 	mov	r17,r18
 402b124:	da802317 	ldw	r10,140(sp)
 402b128:	5455883a 	add	r10,r10,r17
 402b12c:	da802315 	stw	r10,140(sp)
 402b130:	d8001b15 	stw	zero,108(sp)
 402b134:	d811883a 	mov	r8,sp
 402b138:	003ea206 	br	402abc4 <__alt_data_end+0xfffeabc4>
 402b13c:	a5000814 	ori	r20,r20,32
 402b140:	80c00007 	ldb	r3,0(r16)
 402b144:	003ec906 	br	402ac6c <__alt_data_end+0xfffeac6c>
 402b148:	80c00007 	ldb	r3,0(r16)
 402b14c:	1b030926 	beq	r3,r12,402bd74 <___vfiprintf_internal_r+0x1284>
 402b150:	a5000414 	ori	r20,r20,16
 402b154:	003ec506 	br	402ac6c <__alt_data_end+0xfffeac6c>
 402b158:	21003fcc 	andi	r4,r4,255
 402b15c:	20035e1e 	bne	r4,zero,402bed8 <___vfiprintf_internal_r+0x13e8>
 402b160:	a080080c 	andi	r2,r20,32
 402b164:	1002a526 	beq	r2,zero,402bbfc <___vfiprintf_internal_r+0x110c>
 402b168:	da802217 	ldw	r10,136(sp)
 402b16c:	50800017 	ldw	r2,0(r10)
 402b170:	da802317 	ldw	r10,140(sp)
 402b174:	5007d7fa 	srai	r3,r10,31
 402b178:	da802217 	ldw	r10,136(sp)
 402b17c:	10c00115 	stw	r3,4(r2)
 402b180:	52800104 	addi	r10,r10,4
 402b184:	da802215 	stw	r10,136(sp)
 402b188:	da802317 	ldw	r10,140(sp)
 402b18c:	12800015 	stw	r10,0(r2)
 402b190:	003e8c06 	br	402abc4 <__alt_data_end+0xfffeabc4>
 402b194:	21003fcc 	andi	r4,r4,255
 402b198:	2003511e 	bne	r4,zero,402bee0 <___vfiprintf_internal_r+0x13f0>
 402b19c:	a080080c 	andi	r2,r20,32
 402b1a0:	1000a126 	beq	r2,zero,402b428 <___vfiprintf_internal_r+0x938>
 402b1a4:	da802217 	ldw	r10,136(sp)
 402b1a8:	d8001d85 	stb	zero,118(sp)
 402b1ac:	50800204 	addi	r2,r10,8
 402b1b0:	54800017 	ldw	r18,0(r10)
 402b1b4:	54c00117 	ldw	r19,4(r10)
 402b1b8:	4802b416 	blt	r9,zero,402bc8c <___vfiprintf_internal_r+0x119c>
 402b1bc:	013fdfc4 	movi	r4,-129
 402b1c0:	94c6b03a 	or	r3,r18,r19
 402b1c4:	d8802215 	stw	r2,136(sp)
 402b1c8:	a128703a 	and	r20,r20,r4
 402b1cc:	1800a226 	beq	r3,zero,402b458 <___vfiprintf_internal_r+0x968>
 402b1d0:	0039883a 	mov	fp,zero
 402b1d4:	dd401a04 	addi	r21,sp,104
 402b1d8:	9006d0fa 	srli	r3,r18,3
 402b1dc:	9808977a 	slli	r4,r19,29
 402b1e0:	9826d0fa 	srli	r19,r19,3
 402b1e4:	948001cc 	andi	r18,r18,7
 402b1e8:	90800c04 	addi	r2,r18,48
 402b1ec:	ad7fffc4 	addi	r21,r21,-1
 402b1f0:	20e4b03a 	or	r18,r4,r3
 402b1f4:	a8800005 	stb	r2,0(r21)
 402b1f8:	94c6b03a 	or	r3,r18,r19
 402b1fc:	183ff61e 	bne	r3,zero,402b1d8 <__alt_data_end+0xfffeb1d8>
 402b200:	a0c0004c 	andi	r3,r20,1
 402b204:	18005926 	beq	r3,zero,402b36c <___vfiprintf_internal_r+0x87c>
 402b208:	10803fcc 	andi	r2,r2,255
 402b20c:	1080201c 	xori	r2,r2,128
 402b210:	10bfe004 	addi	r2,r2,-128
 402b214:	00c00c04 	movi	r3,48
 402b218:	10c05426 	beq	r2,r3,402b36c <___vfiprintf_internal_r+0x87c>
 402b21c:	da801e17 	ldw	r10,120(sp)
 402b220:	a8bfffc4 	addi	r2,r21,-1
 402b224:	a8ffffc5 	stb	r3,-1(r21)
 402b228:	50a7c83a 	sub	r19,r10,r2
 402b22c:	102b883a 	mov	r21,r2
 402b230:	003f2f06 	br	402aef0 <__alt_data_end+0xfffeaef0>
 402b234:	21003fcc 	andi	r4,r4,255
 402b238:	2003421e 	bne	r4,zero,402bf44 <___vfiprintf_internal_r+0x1454>
 402b23c:	008100f4 	movhi	r2,1027
 402b240:	10848504 	addi	r2,r2,4628
 402b244:	d8802615 	stw	r2,152(sp)
 402b248:	a080080c 	andi	r2,r20,32
 402b24c:	1000aa26 	beq	r2,zero,402b4f8 <___vfiprintf_internal_r+0xa08>
 402b250:	da802217 	ldw	r10,136(sp)
 402b254:	54800017 	ldw	r18,0(r10)
 402b258:	54c00117 	ldw	r19,4(r10)
 402b25c:	52800204 	addi	r10,r10,8
 402b260:	da802215 	stw	r10,136(sp)
 402b264:	a080004c 	andi	r2,r20,1
 402b268:	1001d226 	beq	r2,zero,402b9b4 <___vfiprintf_internal_r+0xec4>
 402b26c:	94c4b03a 	or	r2,r18,r19
 402b270:	1002351e 	bne	r2,zero,402bb48 <___vfiprintf_internal_r+0x1058>
 402b274:	d8001d85 	stb	zero,118(sp)
 402b278:	48022216 	blt	r9,zero,402bb04 <___vfiprintf_internal_r+0x1014>
 402b27c:	00bfdfc4 	movi	r2,-129
 402b280:	a0a8703a 	and	r20,r20,r2
 402b284:	003f1506 	br	402aedc <__alt_data_end+0xfffeaedc>
 402b288:	da802217 	ldw	r10,136(sp)
 402b28c:	04800044 	movi	r18,1
 402b290:	d8001d85 	stb	zero,118(sp)
 402b294:	50800017 	ldw	r2,0(r10)
 402b298:	52800104 	addi	r10,r10,4
 402b29c:	da802215 	stw	r10,136(sp)
 402b2a0:	d8801005 	stb	r2,64(sp)
 402b2a4:	9027883a 	mov	r19,r18
 402b2a8:	dd401004 	addi	r21,sp,64
 402b2ac:	0013883a 	mov	r9,zero
 402b2b0:	003f1706 	br	402af10 <__alt_data_end+0xfffeaf10>
 402b2b4:	21003fcc 	andi	r4,r4,255
 402b2b8:	2003201e 	bne	r4,zero,402bf3c <___vfiprintf_internal_r+0x144c>
 402b2bc:	a080080c 	andi	r2,r20,32
 402b2c0:	10004b26 	beq	r2,zero,402b3f0 <___vfiprintf_internal_r+0x900>
 402b2c4:	da802217 	ldw	r10,136(sp)
 402b2c8:	50800117 	ldw	r2,4(r10)
 402b2cc:	54800017 	ldw	r18,0(r10)
 402b2d0:	52800204 	addi	r10,r10,8
 402b2d4:	da802215 	stw	r10,136(sp)
 402b2d8:	1027883a 	mov	r19,r2
 402b2dc:	10022c16 	blt	r2,zero,402bb90 <___vfiprintf_internal_r+0x10a0>
 402b2e0:	df001d83 	ldbu	fp,118(sp)
 402b2e4:	48007216 	blt	r9,zero,402b4b0 <___vfiprintf_internal_r+0x9c0>
 402b2e8:	00ffdfc4 	movi	r3,-129
 402b2ec:	94c4b03a 	or	r2,r18,r19
 402b2f0:	a0e8703a 	and	r20,r20,r3
 402b2f4:	1000cc26 	beq	r2,zero,402b628 <___vfiprintf_internal_r+0xb38>
 402b2f8:	98021026 	beq	r19,zero,402bb3c <___vfiprintf_internal_r+0x104c>
 402b2fc:	dc402415 	stw	r17,144(sp)
 402b300:	dc002515 	stw	r16,148(sp)
 402b304:	9823883a 	mov	r17,r19
 402b308:	9021883a 	mov	r16,r18
 402b30c:	dd401a04 	addi	r21,sp,104
 402b310:	4825883a 	mov	r18,r9
 402b314:	4027883a 	mov	r19,r8
 402b318:	8009883a 	mov	r4,r16
 402b31c:	880b883a 	mov	r5,r17
 402b320:	01800284 	movi	r6,10
 402b324:	000f883a 	mov	r7,zero
 402b328:	402d9640 	call	402d964 <__umoddi3>
 402b32c:	10800c04 	addi	r2,r2,48
 402b330:	ad7fffc4 	addi	r21,r21,-1
 402b334:	8009883a 	mov	r4,r16
 402b338:	880b883a 	mov	r5,r17
 402b33c:	a8800005 	stb	r2,0(r21)
 402b340:	01800284 	movi	r6,10
 402b344:	000f883a 	mov	r7,zero
 402b348:	402d3ec0 	call	402d3ec <__udivdi3>
 402b34c:	1021883a 	mov	r16,r2
 402b350:	10c4b03a 	or	r2,r2,r3
 402b354:	1823883a 	mov	r17,r3
 402b358:	103fef1e 	bne	r2,zero,402b318 <__alt_data_end+0xfffeb318>
 402b35c:	dc402417 	ldw	r17,144(sp)
 402b360:	dc002517 	ldw	r16,148(sp)
 402b364:	9013883a 	mov	r9,r18
 402b368:	9811883a 	mov	r8,r19
 402b36c:	da801e17 	ldw	r10,120(sp)
 402b370:	5567c83a 	sub	r19,r10,r21
 402b374:	003ede06 	br	402aef0 <__alt_data_end+0xfffeaef0>
 402b378:	38803fcc 	andi	r2,r7,255
 402b37c:	1080201c 	xori	r2,r2,128
 402b380:	10bfe004 	addi	r2,r2,-128
 402b384:	1002371e 	bne	r2,zero,402bc64 <___vfiprintf_internal_r+0x1174>
 402b388:	01000044 	movi	r4,1
 402b38c:	01c00804 	movi	r7,32
 402b390:	80c00007 	ldb	r3,0(r16)
 402b394:	003e3506 	br	402ac6c <__alt_data_end+0xfffeac6c>
 402b398:	a5000054 	ori	r20,r20,1
 402b39c:	80c00007 	ldb	r3,0(r16)
 402b3a0:	003e3206 	br	402ac6c <__alt_data_end+0xfffeac6c>
 402b3a4:	a5002014 	ori	r20,r20,128
 402b3a8:	80c00007 	ldb	r3,0(r16)
 402b3ac:	003e2f06 	br	402ac6c <__alt_data_end+0xfffeac6c>
 402b3b0:	8015883a 	mov	r10,r16
 402b3b4:	0023883a 	mov	r17,zero
 402b3b8:	18bff404 	addi	r2,r3,-48
 402b3bc:	50c00007 	ldb	r3,0(r10)
 402b3c0:	8c4002a4 	muli	r17,r17,10
 402b3c4:	84000044 	addi	r16,r16,1
 402b3c8:	8015883a 	mov	r10,r16
 402b3cc:	1463883a 	add	r17,r2,r17
 402b3d0:	18bff404 	addi	r2,r3,-48
 402b3d4:	30bff92e 	bgeu	r6,r2,402b3bc <__alt_data_end+0xfffeb3bc>
 402b3d8:	003e2506 	br	402ac70 <__alt_data_end+0xfffeac70>
 402b3dc:	21003fcc 	andi	r4,r4,255
 402b3e0:	2002d41e 	bne	r4,zero,402bf34 <___vfiprintf_internal_r+0x1444>
 402b3e4:	a5000414 	ori	r20,r20,16
 402b3e8:	a080080c 	andi	r2,r20,32
 402b3ec:	103fb51e 	bne	r2,zero,402b2c4 <__alt_data_end+0xfffeb2c4>
 402b3f0:	a080040c 	andi	r2,r20,16
 402b3f4:	1001f826 	beq	r2,zero,402bbd8 <___vfiprintf_internal_r+0x10e8>
 402b3f8:	da802217 	ldw	r10,136(sp)
 402b3fc:	54800017 	ldw	r18,0(r10)
 402b400:	52800104 	addi	r10,r10,4
 402b404:	da802215 	stw	r10,136(sp)
 402b408:	9027d7fa 	srai	r19,r18,31
 402b40c:	9805883a 	mov	r2,r19
 402b410:	003fb206 	br	402b2dc <__alt_data_end+0xfffeb2dc>
 402b414:	21003fcc 	andi	r4,r4,255
 402b418:	2002c41e 	bne	r4,zero,402bf2c <___vfiprintf_internal_r+0x143c>
 402b41c:	a5000414 	ori	r20,r20,16
 402b420:	a080080c 	andi	r2,r20,32
 402b424:	103f5f1e 	bne	r2,zero,402b1a4 <__alt_data_end+0xfffeb1a4>
 402b428:	a080040c 	andi	r2,r20,16
 402b42c:	10020f26 	beq	r2,zero,402bc6c <___vfiprintf_internal_r+0x117c>
 402b430:	da802217 	ldw	r10,136(sp)
 402b434:	d8001d85 	stb	zero,118(sp)
 402b438:	0027883a 	mov	r19,zero
 402b43c:	50800104 	addi	r2,r10,4
 402b440:	54800017 	ldw	r18,0(r10)
 402b444:	48021116 	blt	r9,zero,402bc8c <___vfiprintf_internal_r+0x119c>
 402b448:	00ffdfc4 	movi	r3,-129
 402b44c:	d8802215 	stw	r2,136(sp)
 402b450:	a0e8703a 	and	r20,r20,r3
 402b454:	903f5e1e 	bne	r18,zero,402b1d0 <__alt_data_end+0xfffeb1d0>
 402b458:	0039883a 	mov	fp,zero
 402b45c:	4802a626 	beq	r9,zero,402bef8 <___vfiprintf_internal_r+0x1408>
 402b460:	0025883a 	mov	r18,zero
 402b464:	0027883a 	mov	r19,zero
 402b468:	003f5a06 	br	402b1d4 <__alt_data_end+0xfffeb1d4>
 402b46c:	21003fcc 	andi	r4,r4,255
 402b470:	20029f1e 	bne	r4,zero,402bef0 <___vfiprintf_internal_r+0x1400>
 402b474:	a5000414 	ori	r20,r20,16
 402b478:	a080080c 	andi	r2,r20,32
 402b47c:	10005e1e 	bne	r2,zero,402b5f8 <___vfiprintf_internal_r+0xb08>
 402b480:	a080040c 	andi	r2,r20,16
 402b484:	1001a21e 	bne	r2,zero,402bb10 <___vfiprintf_internal_r+0x1020>
 402b488:	a080100c 	andi	r2,r20,64
 402b48c:	d8001d85 	stb	zero,118(sp)
 402b490:	da802217 	ldw	r10,136(sp)
 402b494:	1002231e 	bne	r2,zero,402bd24 <___vfiprintf_internal_r+0x1234>
 402b498:	50800104 	addi	r2,r10,4
 402b49c:	54800017 	ldw	r18,0(r10)
 402b4a0:	0027883a 	mov	r19,zero
 402b4a4:	4801a00e 	bge	r9,zero,402bb28 <___vfiprintf_internal_r+0x1038>
 402b4a8:	d8802215 	stw	r2,136(sp)
 402b4ac:	0039883a 	mov	fp,zero
 402b4b0:	94c4b03a 	or	r2,r18,r19
 402b4b4:	103f901e 	bne	r2,zero,402b2f8 <__alt_data_end+0xfffeb2f8>
 402b4b8:	00800044 	movi	r2,1
 402b4bc:	10803fcc 	andi	r2,r2,255
 402b4c0:	00c00044 	movi	r3,1
 402b4c4:	10c05926 	beq	r2,r3,402b62c <___vfiprintf_internal_r+0xb3c>
 402b4c8:	00c00084 	movi	r3,2
 402b4cc:	10ffe41e 	bne	r2,r3,402b460 <__alt_data_end+0xfffeb460>
 402b4d0:	0025883a 	mov	r18,zero
 402b4d4:	0027883a 	mov	r19,zero
 402b4d8:	00013d06 	br	402b9d0 <___vfiprintf_internal_r+0xee0>
 402b4dc:	21003fcc 	andi	r4,r4,255
 402b4e0:	2002811e 	bne	r4,zero,402bee8 <___vfiprintf_internal_r+0x13f8>
 402b4e4:	008100f4 	movhi	r2,1027
 402b4e8:	10848004 	addi	r2,r2,4608
 402b4ec:	d8802615 	stw	r2,152(sp)
 402b4f0:	a080080c 	andi	r2,r20,32
 402b4f4:	103f561e 	bne	r2,zero,402b250 <__alt_data_end+0xfffeb250>
 402b4f8:	a080040c 	andi	r2,r20,16
 402b4fc:	1001d126 	beq	r2,zero,402bc44 <___vfiprintf_internal_r+0x1154>
 402b500:	da802217 	ldw	r10,136(sp)
 402b504:	0027883a 	mov	r19,zero
 402b508:	54800017 	ldw	r18,0(r10)
 402b50c:	52800104 	addi	r10,r10,4
 402b510:	da802215 	stw	r10,136(sp)
 402b514:	003f5306 	br	402b264 <__alt_data_end+0xfffeb264>
 402b518:	da802217 	ldw	r10,136(sp)
 402b51c:	d8001d85 	stb	zero,118(sp)
 402b520:	55400017 	ldw	r21,0(r10)
 402b524:	50c00104 	addi	r3,r10,4
 402b528:	a8024226 	beq	r21,zero,402be34 <___vfiprintf_internal_r+0x1344>
 402b52c:	48021816 	blt	r9,zero,402bd90 <___vfiprintf_internal_r+0x12a0>
 402b530:	480d883a 	mov	r6,r9
 402b534:	000b883a 	mov	r5,zero
 402b538:	a809883a 	mov	r4,r21
 402b53c:	d8c02a15 	stw	r3,168(sp)
 402b540:	da002b15 	stw	r8,172(sp)
 402b544:	da402c15 	stw	r9,176(sp)
 402b548:	40294f40 	call	40294f4 <memchr>
 402b54c:	d8c02a17 	ldw	r3,168(sp)
 402b550:	da002b17 	ldw	r8,172(sp)
 402b554:	da402c17 	ldw	r9,176(sp)
 402b558:	10024826 	beq	r2,zero,402be7c <___vfiprintf_internal_r+0x138c>
 402b55c:	1567c83a 	sub	r19,r2,r21
 402b560:	df001d83 	ldbu	fp,118(sp)
 402b564:	d8c02215 	stw	r3,136(sp)
 402b568:	0013883a 	mov	r9,zero
 402b56c:	003e6006 	br	402aef0 <__alt_data_end+0xfffeaef0>
 402b570:	21003fcc 	andi	r4,r4,255
 402b574:	203fc026 	beq	r4,zero,402b478 <__alt_data_end+0xfffeb478>
 402b578:	d9c01d85 	stb	r7,118(sp)
 402b57c:	003fbe06 	br	402b478 <__alt_data_end+0xfffeb478>
 402b580:	da802217 	ldw	r10,136(sp)
 402b584:	54400017 	ldw	r17,0(r10)
 402b588:	50800104 	addi	r2,r10,4
 402b58c:	883e3b16 	blt	r17,zero,402ae7c <__alt_data_end+0xfffeae7c>
 402b590:	d8802215 	stw	r2,136(sp)
 402b594:	80c00007 	ldb	r3,0(r16)
 402b598:	003db406 	br	402ac6c <__alt_data_end+0xfffeac6c>
 402b59c:	01000044 	movi	r4,1
 402b5a0:	01c00ac4 	movi	r7,43
 402b5a4:	80c00007 	ldb	r3,0(r16)
 402b5a8:	003db006 	br	402ac6c <__alt_data_end+0xfffeac6c>
 402b5ac:	80c00007 	ldb	r3,0(r16)
 402b5b0:	82800044 	addi	r10,r16,1
 402b5b4:	1b423c26 	beq	r3,r13,402bea8 <___vfiprintf_internal_r+0x13b8>
 402b5b8:	18bff404 	addi	r2,r3,-48
 402b5bc:	0013883a 	mov	r9,zero
 402b5c0:	30822b36 	bltu	r6,r2,402be70 <___vfiprintf_internal_r+0x1380>
 402b5c4:	50c00007 	ldb	r3,0(r10)
 402b5c8:	4a4002a4 	muli	r9,r9,10
 402b5cc:	54000044 	addi	r16,r10,1
 402b5d0:	8015883a 	mov	r10,r16
 402b5d4:	4893883a 	add	r9,r9,r2
 402b5d8:	18bff404 	addi	r2,r3,-48
 402b5dc:	30bff92e 	bgeu	r6,r2,402b5c4 <__alt_data_end+0xfffeb5c4>
 402b5e0:	483da30e 	bge	r9,zero,402ac70 <__alt_data_end+0xfffeac70>
 402b5e4:	027fffc4 	movi	r9,-1
 402b5e8:	003da106 	br	402ac70 <__alt_data_end+0xfffeac70>
 402b5ec:	a5001014 	ori	r20,r20,64
 402b5f0:	80c00007 	ldb	r3,0(r16)
 402b5f4:	003d9d06 	br	402ac6c <__alt_data_end+0xfffeac6c>
 402b5f8:	da802217 	ldw	r10,136(sp)
 402b5fc:	d8001d85 	stb	zero,118(sp)
 402b600:	50c00204 	addi	r3,r10,8
 402b604:	54800017 	ldw	r18,0(r10)
 402b608:	54c00117 	ldw	r19,4(r10)
 402b60c:	4801ca16 	blt	r9,zero,402bd38 <___vfiprintf_internal_r+0x1248>
 402b610:	013fdfc4 	movi	r4,-129
 402b614:	94c4b03a 	or	r2,r18,r19
 402b618:	d8c02215 	stw	r3,136(sp)
 402b61c:	a128703a 	and	r20,r20,r4
 402b620:	0039883a 	mov	fp,zero
 402b624:	103f341e 	bne	r2,zero,402b2f8 <__alt_data_end+0xfffeb2f8>
 402b628:	483e2e26 	beq	r9,zero,402aee4 <__alt_data_end+0xfffeaee4>
 402b62c:	0025883a 	mov	r18,zero
 402b630:	94800c04 	addi	r18,r18,48
 402b634:	dc8019c5 	stb	r18,103(sp)
 402b638:	dcc02717 	ldw	r19,156(sp)
 402b63c:	dd4019c4 	addi	r21,sp,103
 402b640:	003e2b06 	br	402aef0 <__alt_data_end+0xfffeaef0>
 402b644:	21003fcc 	andi	r4,r4,255
 402b648:	2002361e 	bne	r4,zero,402bf24 <___vfiprintf_internal_r+0x1434>
 402b64c:	1801c126 	beq	r3,zero,402bd54 <___vfiprintf_internal_r+0x1264>
 402b650:	04800044 	movi	r18,1
 402b654:	d8c01005 	stb	r3,64(sp)
 402b658:	d8001d85 	stb	zero,118(sp)
 402b65c:	9027883a 	mov	r19,r18
 402b660:	dd401004 	addi	r21,sp,64
 402b664:	003f1106 	br	402b2ac <__alt_data_end+0xfffeb2ac>
 402b668:	d9402117 	ldw	r5,132(sp)
 402b66c:	d9002017 	ldw	r4,128(sp)
 402b670:	d9801a04 	addi	r6,sp,104
 402b674:	d9c02b15 	stw	r7,172(sp)
 402b678:	dbc02a15 	stw	r15,168(sp)
 402b67c:	402a9dc0 	call	402a9dc <__sprint_r.part.0>
 402b680:	d9c02b17 	ldw	r7,172(sp)
 402b684:	dbc02a17 	ldw	r15,168(sp)
 402b688:	10006d1e 	bne	r2,zero,402b840 <___vfiprintf_internal_r+0xd50>
 402b68c:	d9801b17 	ldw	r6,108(sp)
 402b690:	d8801c17 	ldw	r2,112(sp)
 402b694:	d811883a 	mov	r8,sp
 402b698:	31400044 	addi	r5,r6,1
 402b69c:	003e3306 	br	402af6c <__alt_data_end+0xfffeaf6c>
 402b6a0:	d9401b17 	ldw	r5,108(sp)
 402b6a4:	d8801c17 	ldw	r2,112(sp)
 402b6a8:	29000044 	addi	r4,r5,1
 402b6ac:	d8c01d87 	ldb	r3,118(sp)
 402b6b0:	183e4d26 	beq	r3,zero,402afe8 <__alt_data_end+0xfffeafe8>
 402b6b4:	00c00044 	movi	r3,1
 402b6b8:	d9401d84 	addi	r5,sp,118
 402b6bc:	10c5883a 	add	r2,r2,r3
 402b6c0:	41400015 	stw	r5,0(r8)
 402b6c4:	40c00115 	stw	r3,4(r8)
 402b6c8:	d8801c15 	stw	r2,112(sp)
 402b6cc:	d9001b15 	stw	r4,108(sp)
 402b6d0:	014001c4 	movi	r5,7
 402b6d4:	2900a90e 	bge	r5,r4,402b97c <___vfiprintf_internal_r+0xe8c>
 402b6d8:	1000da1e 	bne	r2,zero,402ba44 <___vfiprintf_internal_r+0xf54>
 402b6dc:	7000ab1e 	bne	r14,zero,402b98c <___vfiprintf_internal_r+0xe9c>
 402b6e0:	000b883a 	mov	r5,zero
 402b6e4:	1809883a 	mov	r4,r3
 402b6e8:	d811883a 	mov	r8,sp
 402b6ec:	00c02004 	movi	r3,128
 402b6f0:	e0fe4d26 	beq	fp,r3,402b028 <__alt_data_end+0xfffeb028>
 402b6f4:	4cf9c83a 	sub	fp,r9,r19
 402b6f8:	073e7b0e 	bge	zero,fp,402b0e8 <__alt_data_end+0xfffeb0e8>
 402b6fc:	01c00404 	movi	r7,16
 402b700:	3f01900e 	bge	r7,fp,402bd44 <___vfiprintf_internal_r+0x1254>
 402b704:	00c100f4 	movhi	r3,1027
 402b708:	18c4e504 	addi	r3,r3,5012
 402b70c:	d8c02415 	stw	r3,144(sp)
 402b710:	034001c4 	movi	r13,7
 402b714:	00000506 	br	402b72c <___vfiprintf_internal_r+0xc3c>
 402b718:	29000084 	addi	r4,r5,2
 402b71c:	42000204 	addi	r8,r8,8
 402b720:	180b883a 	mov	r5,r3
 402b724:	e73ffc04 	addi	fp,fp,-16
 402b728:	3f000d0e 	bge	r7,fp,402b760 <___vfiprintf_internal_r+0xc70>
 402b72c:	10800404 	addi	r2,r2,16
 402b730:	28c00044 	addi	r3,r5,1
 402b734:	45c00015 	stw	r23,0(r8)
 402b738:	41c00115 	stw	r7,4(r8)
 402b73c:	d8801c15 	stw	r2,112(sp)
 402b740:	d8c01b15 	stw	r3,108(sp)
 402b744:	68fff40e 	bge	r13,r3,402b718 <__alt_data_end+0xfffeb718>
 402b748:	1000101e 	bne	r2,zero,402b78c <___vfiprintf_internal_r+0xc9c>
 402b74c:	e73ffc04 	addi	fp,fp,-16
 402b750:	01000044 	movi	r4,1
 402b754:	000b883a 	mov	r5,zero
 402b758:	d811883a 	mov	r8,sp
 402b75c:	3f3ff316 	blt	r7,fp,402b72c <__alt_data_end+0xfffeb72c>
 402b760:	da802417 	ldw	r10,144(sp)
 402b764:	1705883a 	add	r2,r2,fp
 402b768:	47000115 	stw	fp,4(r8)
 402b76c:	42800015 	stw	r10,0(r8)
 402b770:	d8801c15 	stw	r2,112(sp)
 402b774:	d9001b15 	stw	r4,108(sp)
 402b778:	00c001c4 	movi	r3,7
 402b77c:	19003616 	blt	r3,r4,402b858 <___vfiprintf_internal_r+0xd68>
 402b780:	42000204 	addi	r8,r8,8
 402b784:	21000044 	addi	r4,r4,1
 402b788:	003e5706 	br	402b0e8 <__alt_data_end+0xfffeb0e8>
 402b78c:	d9402117 	ldw	r5,132(sp)
 402b790:	d9002017 	ldw	r4,128(sp)
 402b794:	d9801a04 	addi	r6,sp,104
 402b798:	d9c02b15 	stw	r7,172(sp)
 402b79c:	db402a15 	stw	r13,168(sp)
 402b7a0:	402a9dc0 	call	402a9dc <__sprint_r.part.0>
 402b7a4:	d9c02b17 	ldw	r7,172(sp)
 402b7a8:	db402a17 	ldw	r13,168(sp)
 402b7ac:	1000241e 	bne	r2,zero,402b840 <___vfiprintf_internal_r+0xd50>
 402b7b0:	d9401b17 	ldw	r5,108(sp)
 402b7b4:	d8801c17 	ldw	r2,112(sp)
 402b7b8:	d811883a 	mov	r8,sp
 402b7bc:	29000044 	addi	r4,r5,1
 402b7c0:	003fd806 	br	402b724 <__alt_data_end+0xfffeb724>
 402b7c4:	d9401b17 	ldw	r5,108(sp)
 402b7c8:	00c100f4 	movhi	r3,1027
 402b7cc:	18c4e904 	addi	r3,r3,5028
 402b7d0:	d8c02415 	stw	r3,144(sp)
 402b7d4:	29400044 	addi	r5,r5,1
 402b7d8:	d8c02417 	ldw	r3,144(sp)
 402b7dc:	14c5883a 	add	r2,r2,r19
 402b7e0:	44c00115 	stw	r19,4(r8)
 402b7e4:	40c00015 	stw	r3,0(r8)
 402b7e8:	d8801c15 	stw	r2,112(sp)
 402b7ec:	d9401b15 	stw	r5,108(sp)
 402b7f0:	00c001c4 	movi	r3,7
 402b7f4:	1940070e 	bge	r3,r5,402b814 <___vfiprintf_internal_r+0xd24>
 402b7f8:	103e4826 	beq	r2,zero,402b11c <__alt_data_end+0xfffeb11c>
 402b7fc:	d9402117 	ldw	r5,132(sp)
 402b800:	d9002017 	ldw	r4,128(sp)
 402b804:	d9801a04 	addi	r6,sp,104
 402b808:	402a9dc0 	call	402a9dc <__sprint_r.part.0>
 402b80c:	10000c1e 	bne	r2,zero,402b840 <___vfiprintf_internal_r+0xd50>
 402b810:	d8801c17 	ldw	r2,112(sp)
 402b814:	8c80010e 	bge	r17,r18,402b81c <___vfiprintf_internal_r+0xd2c>
 402b818:	9023883a 	mov	r17,r18
 402b81c:	da802317 	ldw	r10,140(sp)
 402b820:	5455883a 	add	r10,r10,r17
 402b824:	da802315 	stw	r10,140(sp)
 402b828:	103e4126 	beq	r2,zero,402b130 <__alt_data_end+0xfffeb130>
 402b82c:	d9402117 	ldw	r5,132(sp)
 402b830:	d9002017 	ldw	r4,128(sp)
 402b834:	d9801a04 	addi	r6,sp,104
 402b838:	402a9dc0 	call	402a9dc <__sprint_r.part.0>
 402b83c:	103e3c26 	beq	r2,zero,402b130 <__alt_data_end+0xfffeb130>
 402b840:	dd002117 	ldw	r20,132(sp)
 402b844:	a080030b 	ldhu	r2,12(r20)
 402b848:	1080100c 	andi	r2,r2,64
 402b84c:	1001231e 	bne	r2,zero,402bcdc <___vfiprintf_internal_r+0x11ec>
 402b850:	d8802317 	ldw	r2,140(sp)
 402b854:	003d7b06 	br	402ae44 <__alt_data_end+0xfffeae44>
 402b858:	1000991e 	bne	r2,zero,402bac0 <___vfiprintf_internal_r+0xfd0>
 402b85c:	00c00044 	movi	r3,1
 402b860:	9805883a 	mov	r2,r19
 402b864:	dd400015 	stw	r21,0(sp)
 402b868:	dcc00115 	stw	r19,4(sp)
 402b86c:	dcc01c15 	stw	r19,112(sp)
 402b870:	d8c01b15 	stw	r3,108(sp)
 402b874:	d811883a 	mov	r8,sp
 402b878:	42000204 	addi	r8,r8,8
 402b87c:	a2c0010c 	andi	r11,r20,4
 402b880:	583fe426 	beq	r11,zero,402b814 <__alt_data_end+0xfffeb814>
 402b884:	8ca7c83a 	sub	r19,r17,r18
 402b888:	04ffe20e 	bge	zero,r19,402b814 <__alt_data_end+0xfffeb814>
 402b88c:	01c00404 	movi	r7,16
 402b890:	3cffcc0e 	bge	r7,r19,402b7c4 <__alt_data_end+0xfffeb7c4>
 402b894:	028100f4 	movhi	r10,1027
 402b898:	5284e904 	addi	r10,r10,5028
 402b89c:	d9001b17 	ldw	r4,108(sp)
 402b8a0:	da802415 	stw	r10,144(sp)
 402b8a4:	382b883a 	mov	r21,r7
 402b8a8:	050001c4 	movi	r20,7
 402b8ac:	df002017 	ldw	fp,128(sp)
 402b8b0:	00000506 	br	402b8c8 <___vfiprintf_internal_r+0xdd8>
 402b8b4:	21400084 	addi	r5,r4,2
 402b8b8:	42000204 	addi	r8,r8,8
 402b8bc:	1809883a 	mov	r4,r3
 402b8c0:	9cfffc04 	addi	r19,r19,-16
 402b8c4:	acffc40e 	bge	r21,r19,402b7d8 <__alt_data_end+0xfffeb7d8>
 402b8c8:	10800404 	addi	r2,r2,16
 402b8cc:	20c00044 	addi	r3,r4,1
 402b8d0:	45800015 	stw	r22,0(r8)
 402b8d4:	45400115 	stw	r21,4(r8)
 402b8d8:	d8801c15 	stw	r2,112(sp)
 402b8dc:	d8c01b15 	stw	r3,108(sp)
 402b8e0:	a0fff40e 	bge	r20,r3,402b8b4 <__alt_data_end+0xfffeb8b4>
 402b8e4:	1000041e 	bne	r2,zero,402b8f8 <___vfiprintf_internal_r+0xe08>
 402b8e8:	01400044 	movi	r5,1
 402b8ec:	0009883a 	mov	r4,zero
 402b8f0:	d811883a 	mov	r8,sp
 402b8f4:	003ff206 	br	402b8c0 <__alt_data_end+0xfffeb8c0>
 402b8f8:	d9402117 	ldw	r5,132(sp)
 402b8fc:	d9801a04 	addi	r6,sp,104
 402b900:	e009883a 	mov	r4,fp
 402b904:	402a9dc0 	call	402a9dc <__sprint_r.part.0>
 402b908:	103fcd1e 	bne	r2,zero,402b840 <__alt_data_end+0xfffeb840>
 402b90c:	d9001b17 	ldw	r4,108(sp)
 402b910:	d8801c17 	ldw	r2,112(sp)
 402b914:	d811883a 	mov	r8,sp
 402b918:	21400044 	addi	r5,r4,1
 402b91c:	003fe806 	br	402b8c0 <__alt_data_end+0xfffeb8c0>
 402b920:	d9402117 	ldw	r5,132(sp)
 402b924:	d9002017 	ldw	r4,128(sp)
 402b928:	d9801a04 	addi	r6,sp,104
 402b92c:	d9c02b15 	stw	r7,172(sp)
 402b930:	db402a15 	stw	r13,168(sp)
 402b934:	402a9dc0 	call	402a9dc <__sprint_r.part.0>
 402b938:	d9c02b17 	ldw	r7,172(sp)
 402b93c:	db402a17 	ldw	r13,168(sp)
 402b940:	103fbf1e 	bne	r2,zero,402b840 <__alt_data_end+0xfffeb840>
 402b944:	d9401b17 	ldw	r5,108(sp)
 402b948:	d8801c17 	ldw	r2,112(sp)
 402b94c:	d811883a 	mov	r8,sp
 402b950:	29800044 	addi	r6,r5,1
 402b954:	003dc406 	br	402b068 <__alt_data_end+0xfffeb068>
 402b958:	1000d21e 	bne	r2,zero,402bca4 <___vfiprintf_internal_r+0x11b4>
 402b95c:	d8c01d87 	ldb	r3,118(sp)
 402b960:	18009526 	beq	r3,zero,402bbb8 <___vfiprintf_internal_r+0x10c8>
 402b964:	00800044 	movi	r2,1
 402b968:	d8c01d84 	addi	r3,sp,118
 402b96c:	1009883a 	mov	r4,r2
 402b970:	d8c00015 	stw	r3,0(sp)
 402b974:	d8800115 	stw	r2,4(sp)
 402b978:	d811883a 	mov	r8,sp
 402b97c:	200b883a 	mov	r5,r4
 402b980:	42000204 	addi	r8,r8,8
 402b984:	21000044 	addi	r4,r4,1
 402b988:	003d9706 	br	402afe8 <__alt_data_end+0xfffeafe8>
 402b98c:	d9001d04 	addi	r4,sp,116
 402b990:	00800084 	movi	r2,2
 402b994:	d9000015 	stw	r4,0(sp)
 402b998:	d8800115 	stw	r2,4(sp)
 402b99c:	1809883a 	mov	r4,r3
 402b9a0:	d811883a 	mov	r8,sp
 402b9a4:	200b883a 	mov	r5,r4
 402b9a8:	42000204 	addi	r8,r8,8
 402b9ac:	21000044 	addi	r4,r4,1
 402b9b0:	003f4e06 	br	402b6ec <__alt_data_end+0xfffeb6ec>
 402b9b4:	d8001d85 	stb	zero,118(sp)
 402b9b8:	48005016 	blt	r9,zero,402bafc <___vfiprintf_internal_r+0x100c>
 402b9bc:	00ffdfc4 	movi	r3,-129
 402b9c0:	94c4b03a 	or	r2,r18,r19
 402b9c4:	a0e8703a 	and	r20,r20,r3
 402b9c8:	103d4426 	beq	r2,zero,402aedc <__alt_data_end+0xfffeaedc>
 402b9cc:	0039883a 	mov	fp,zero
 402b9d0:	d9002617 	ldw	r4,152(sp)
 402b9d4:	dd401a04 	addi	r21,sp,104
 402b9d8:	908003cc 	andi	r2,r18,15
 402b9dc:	9806973a 	slli	r3,r19,28
 402b9e0:	2085883a 	add	r2,r4,r2
 402b9e4:	9024d13a 	srli	r18,r18,4
 402b9e8:	10800003 	ldbu	r2,0(r2)
 402b9ec:	9826d13a 	srli	r19,r19,4
 402b9f0:	ad7fffc4 	addi	r21,r21,-1
 402b9f4:	1ca4b03a 	or	r18,r3,r18
 402b9f8:	a8800005 	stb	r2,0(r21)
 402b9fc:	94c4b03a 	or	r2,r18,r19
 402ba00:	103ff51e 	bne	r2,zero,402b9d8 <__alt_data_end+0xfffeb9d8>
 402ba04:	003e5906 	br	402b36c <__alt_data_end+0xfffeb36c>
 402ba08:	d9402117 	ldw	r5,132(sp)
 402ba0c:	d9002017 	ldw	r4,128(sp)
 402ba10:	d9801a04 	addi	r6,sp,104
 402ba14:	402a9dc0 	call	402a9dc <__sprint_r.part.0>
 402ba18:	103f891e 	bne	r2,zero,402b840 <__alt_data_end+0xfffeb840>
 402ba1c:	d8801c17 	ldw	r2,112(sp)
 402ba20:	d811883a 	mov	r8,sp
 402ba24:	003f9506 	br	402b87c <__alt_data_end+0xfffeb87c>
 402ba28:	d9402117 	ldw	r5,132(sp)
 402ba2c:	d9002017 	ldw	r4,128(sp)
 402ba30:	d9801a04 	addi	r6,sp,104
 402ba34:	402a9dc0 	call	402a9dc <__sprint_r.part.0>
 402ba38:	103f811e 	bne	r2,zero,402b840 <__alt_data_end+0xfffeb840>
 402ba3c:	d811883a 	mov	r8,sp
 402ba40:	003ced06 	br	402adf8 <__alt_data_end+0xfffeadf8>
 402ba44:	d9402117 	ldw	r5,132(sp)
 402ba48:	d9002017 	ldw	r4,128(sp)
 402ba4c:	d9801a04 	addi	r6,sp,104
 402ba50:	da402c15 	stw	r9,176(sp)
 402ba54:	db802a15 	stw	r14,168(sp)
 402ba58:	402a9dc0 	call	402a9dc <__sprint_r.part.0>
 402ba5c:	da402c17 	ldw	r9,176(sp)
 402ba60:	db802a17 	ldw	r14,168(sp)
 402ba64:	103f761e 	bne	r2,zero,402b840 <__alt_data_end+0xfffeb840>
 402ba68:	d9401b17 	ldw	r5,108(sp)
 402ba6c:	d8801c17 	ldw	r2,112(sp)
 402ba70:	d811883a 	mov	r8,sp
 402ba74:	29000044 	addi	r4,r5,1
 402ba78:	003d5b06 	br	402afe8 <__alt_data_end+0xfffeafe8>
 402ba7c:	d9402117 	ldw	r5,132(sp)
 402ba80:	d9002017 	ldw	r4,128(sp)
 402ba84:	d9801a04 	addi	r6,sp,104
 402ba88:	da402c15 	stw	r9,176(sp)
 402ba8c:	402a9dc0 	call	402a9dc <__sprint_r.part.0>
 402ba90:	da402c17 	ldw	r9,176(sp)
 402ba94:	103f6a1e 	bne	r2,zero,402b840 <__alt_data_end+0xfffeb840>
 402ba98:	d9401b17 	ldw	r5,108(sp)
 402ba9c:	d8801c17 	ldw	r2,112(sp)
 402baa0:	d811883a 	mov	r8,sp
 402baa4:	29000044 	addi	r4,r5,1
 402baa8:	003f1006 	br	402b6ec <__alt_data_end+0xfffeb6ec>
 402baac:	1000c31e 	bne	r2,zero,402bdbc <___vfiprintf_internal_r+0x12cc>
 402bab0:	01000044 	movi	r4,1
 402bab4:	000b883a 	mov	r5,zero
 402bab8:	d811883a 	mov	r8,sp
 402babc:	003f0d06 	br	402b6f4 <__alt_data_end+0xfffeb6f4>
 402bac0:	d9402117 	ldw	r5,132(sp)
 402bac4:	d9002017 	ldw	r4,128(sp)
 402bac8:	d9801a04 	addi	r6,sp,104
 402bacc:	402a9dc0 	call	402a9dc <__sprint_r.part.0>
 402bad0:	103f5b1e 	bne	r2,zero,402b840 <__alt_data_end+0xfffeb840>
 402bad4:	d9001b17 	ldw	r4,108(sp)
 402bad8:	d8801c17 	ldw	r2,112(sp)
 402badc:	d811883a 	mov	r8,sp
 402bae0:	21000044 	addi	r4,r4,1
 402bae4:	003d8006 	br	402b0e8 <__alt_data_end+0xfffeb0e8>
 402bae8:	010100f4 	movhi	r4,1027
 402baec:	21048504 	addi	r4,r4,4628
 402baf0:	d9002615 	stw	r4,152(sp)
 402baf4:	d8c02215 	stw	r3,136(sp)
 402baf8:	1029883a 	mov	r20,r2
 402bafc:	94c4b03a 	or	r2,r18,r19
 402bb00:	103fb21e 	bne	r2,zero,402b9cc <__alt_data_end+0xfffeb9cc>
 402bb04:	0039883a 	mov	fp,zero
 402bb08:	00800084 	movi	r2,2
 402bb0c:	003e6b06 	br	402b4bc <__alt_data_end+0xfffeb4bc>
 402bb10:	da802217 	ldw	r10,136(sp)
 402bb14:	d8001d85 	stb	zero,118(sp)
 402bb18:	0027883a 	mov	r19,zero
 402bb1c:	50800104 	addi	r2,r10,4
 402bb20:	54800017 	ldw	r18,0(r10)
 402bb24:	483e6016 	blt	r9,zero,402b4a8 <__alt_data_end+0xfffeb4a8>
 402bb28:	00ffdfc4 	movi	r3,-129
 402bb2c:	d8802215 	stw	r2,136(sp)
 402bb30:	a0e8703a 	and	r20,r20,r3
 402bb34:	0039883a 	mov	fp,zero
 402bb38:	903ebb26 	beq	r18,zero,402b628 <__alt_data_end+0xfffeb628>
 402bb3c:	00800244 	movi	r2,9
 402bb40:	14bdee36 	bltu	r2,r18,402b2fc <__alt_data_end+0xfffeb2fc>
 402bb44:	003eba06 	br	402b630 <__alt_data_end+0xfffeb630>
 402bb48:	00800c04 	movi	r2,48
 402bb4c:	d8c01d45 	stb	r3,117(sp)
 402bb50:	d8801d05 	stb	r2,116(sp)
 402bb54:	d8001d85 	stb	zero,118(sp)
 402bb58:	a0c00094 	ori	r3,r20,2
 402bb5c:	4800a916 	blt	r9,zero,402be04 <___vfiprintf_internal_r+0x1314>
 402bb60:	00bfdfc4 	movi	r2,-129
 402bb64:	a096703a 	and	r11,r20,r2
 402bb68:	5d000094 	ori	r20,r11,2
 402bb6c:	0039883a 	mov	fp,zero
 402bb70:	003f9706 	br	402b9d0 <__alt_data_end+0xfffeb9d0>
 402bb74:	8025883a 	mov	r18,r16
 402bb78:	003c2e06 	br	402ac34 <__alt_data_end+0xfffeac34>
 402bb7c:	008100f4 	movhi	r2,1027
 402bb80:	10848504 	addi	r2,r2,4628
 402bb84:	0039883a 	mov	fp,zero
 402bb88:	d8802615 	stw	r2,152(sp)
 402bb8c:	003f9006 	br	402b9d0 <__alt_data_end+0xfffeb9d0>
 402bb90:	04a5c83a 	sub	r18,zero,r18
 402bb94:	07000b44 	movi	fp,45
 402bb98:	9004c03a 	cmpne	r2,r18,zero
 402bb9c:	04e7c83a 	sub	r19,zero,r19
 402bba0:	df001d85 	stb	fp,118(sp)
 402bba4:	98a7c83a 	sub	r19,r19,r2
 402bba8:	48009f16 	blt	r9,zero,402be28 <___vfiprintf_internal_r+0x1338>
 402bbac:	00bfdfc4 	movi	r2,-129
 402bbb0:	a0a8703a 	and	r20,r20,r2
 402bbb4:	003dd006 	br	402b2f8 <__alt_data_end+0xfffeb2f8>
 402bbb8:	70004c26 	beq	r14,zero,402bcec <___vfiprintf_internal_r+0x11fc>
 402bbbc:	00800084 	movi	r2,2
 402bbc0:	d8c01d04 	addi	r3,sp,116
 402bbc4:	d8c00015 	stw	r3,0(sp)
 402bbc8:	d8800115 	stw	r2,4(sp)
 402bbcc:	01000044 	movi	r4,1
 402bbd0:	d811883a 	mov	r8,sp
 402bbd4:	003f7306 	br	402b9a4 <__alt_data_end+0xfffeb9a4>
 402bbd8:	a080100c 	andi	r2,r20,64
 402bbdc:	da802217 	ldw	r10,136(sp)
 402bbe0:	103e0626 	beq	r2,zero,402b3fc <__alt_data_end+0xfffeb3fc>
 402bbe4:	5480000f 	ldh	r18,0(r10)
 402bbe8:	52800104 	addi	r10,r10,4
 402bbec:	da802215 	stw	r10,136(sp)
 402bbf0:	9027d7fa 	srai	r19,r18,31
 402bbf4:	9805883a 	mov	r2,r19
 402bbf8:	003db806 	br	402b2dc <__alt_data_end+0xfffeb2dc>
 402bbfc:	a080040c 	andi	r2,r20,16
 402bc00:	1000091e 	bne	r2,zero,402bc28 <___vfiprintf_internal_r+0x1138>
 402bc04:	a2c0100c 	andi	r11,r20,64
 402bc08:	58000726 	beq	r11,zero,402bc28 <___vfiprintf_internal_r+0x1138>
 402bc0c:	da802217 	ldw	r10,136(sp)
 402bc10:	50800017 	ldw	r2,0(r10)
 402bc14:	52800104 	addi	r10,r10,4
 402bc18:	da802215 	stw	r10,136(sp)
 402bc1c:	da802317 	ldw	r10,140(sp)
 402bc20:	1280000d 	sth	r10,0(r2)
 402bc24:	003be706 	br	402abc4 <__alt_data_end+0xfffeabc4>
 402bc28:	da802217 	ldw	r10,136(sp)
 402bc2c:	50800017 	ldw	r2,0(r10)
 402bc30:	52800104 	addi	r10,r10,4
 402bc34:	da802215 	stw	r10,136(sp)
 402bc38:	da802317 	ldw	r10,140(sp)
 402bc3c:	12800015 	stw	r10,0(r2)
 402bc40:	003be006 	br	402abc4 <__alt_data_end+0xfffeabc4>
 402bc44:	a080100c 	andi	r2,r20,64
 402bc48:	da802217 	ldw	r10,136(sp)
 402bc4c:	10003026 	beq	r2,zero,402bd10 <___vfiprintf_internal_r+0x1220>
 402bc50:	5480000b 	ldhu	r18,0(r10)
 402bc54:	52800104 	addi	r10,r10,4
 402bc58:	0027883a 	mov	r19,zero
 402bc5c:	da802215 	stw	r10,136(sp)
 402bc60:	003d8006 	br	402b264 <__alt_data_end+0xfffeb264>
 402bc64:	80c00007 	ldb	r3,0(r16)
 402bc68:	003c0006 	br	402ac6c <__alt_data_end+0xfffeac6c>
 402bc6c:	a080100c 	andi	r2,r20,64
 402bc70:	d8001d85 	stb	zero,118(sp)
 402bc74:	da802217 	ldw	r10,136(sp)
 402bc78:	1000201e 	bne	r2,zero,402bcfc <___vfiprintf_internal_r+0x120c>
 402bc7c:	50800104 	addi	r2,r10,4
 402bc80:	54800017 	ldw	r18,0(r10)
 402bc84:	0027883a 	mov	r19,zero
 402bc88:	483def0e 	bge	r9,zero,402b448 <__alt_data_end+0xfffeb448>
 402bc8c:	94c6b03a 	or	r3,r18,r19
 402bc90:	d8802215 	stw	r2,136(sp)
 402bc94:	183d4e1e 	bne	r3,zero,402b1d0 <__alt_data_end+0xfffeb1d0>
 402bc98:	0039883a 	mov	fp,zero
 402bc9c:	0005883a 	mov	r2,zero
 402bca0:	003e0606 	br	402b4bc <__alt_data_end+0xfffeb4bc>
 402bca4:	d9402117 	ldw	r5,132(sp)
 402bca8:	d9002017 	ldw	r4,128(sp)
 402bcac:	d9801a04 	addi	r6,sp,104
 402bcb0:	da402c15 	stw	r9,176(sp)
 402bcb4:	db802a15 	stw	r14,168(sp)
 402bcb8:	402a9dc0 	call	402a9dc <__sprint_r.part.0>
 402bcbc:	da402c17 	ldw	r9,176(sp)
 402bcc0:	db802a17 	ldw	r14,168(sp)
 402bcc4:	103ede1e 	bne	r2,zero,402b840 <__alt_data_end+0xfffeb840>
 402bcc8:	d9401b17 	ldw	r5,108(sp)
 402bccc:	d8801c17 	ldw	r2,112(sp)
 402bcd0:	d811883a 	mov	r8,sp
 402bcd4:	29000044 	addi	r4,r5,1
 402bcd8:	003e7406 	br	402b6ac <__alt_data_end+0xfffeb6ac>
 402bcdc:	00bfffc4 	movi	r2,-1
 402bce0:	003c5806 	br	402ae44 <__alt_data_end+0xfffeae44>
 402bce4:	d811883a 	mov	r8,sp
 402bce8:	003ee806 	br	402b88c <__alt_data_end+0xfffeb88c>
 402bcec:	000b883a 	mov	r5,zero
 402bcf0:	01000044 	movi	r4,1
 402bcf4:	d811883a 	mov	r8,sp
 402bcf8:	003e7c06 	br	402b6ec <__alt_data_end+0xfffeb6ec>
 402bcfc:	50800104 	addi	r2,r10,4
 402bd00:	5480000b 	ldhu	r18,0(r10)
 402bd04:	0027883a 	mov	r19,zero
 402bd08:	483dcf0e 	bge	r9,zero,402b448 <__alt_data_end+0xfffeb448>
 402bd0c:	003fdf06 	br	402bc8c <__alt_data_end+0xfffebc8c>
 402bd10:	54800017 	ldw	r18,0(r10)
 402bd14:	52800104 	addi	r10,r10,4
 402bd18:	0027883a 	mov	r19,zero
 402bd1c:	da802215 	stw	r10,136(sp)
 402bd20:	003d5006 	br	402b264 <__alt_data_end+0xfffeb264>
 402bd24:	50800104 	addi	r2,r10,4
 402bd28:	5480000b 	ldhu	r18,0(r10)
 402bd2c:	0027883a 	mov	r19,zero
 402bd30:	483f7d0e 	bge	r9,zero,402bb28 <__alt_data_end+0xfffebb28>
 402bd34:	003ddc06 	br	402b4a8 <__alt_data_end+0xfffeb4a8>
 402bd38:	d8c02215 	stw	r3,136(sp)
 402bd3c:	0039883a 	mov	fp,zero
 402bd40:	003ddb06 	br	402b4b0 <__alt_data_end+0xfffeb4b0>
 402bd44:	028100f4 	movhi	r10,1027
 402bd48:	5284e504 	addi	r10,r10,5012
 402bd4c:	da802415 	stw	r10,144(sp)
 402bd50:	003e8306 	br	402b760 <__alt_data_end+0xfffeb760>
 402bd54:	d8801c17 	ldw	r2,112(sp)
 402bd58:	dd002117 	ldw	r20,132(sp)
 402bd5c:	103eb926 	beq	r2,zero,402b844 <__alt_data_end+0xfffeb844>
 402bd60:	d9002017 	ldw	r4,128(sp)
 402bd64:	d9801a04 	addi	r6,sp,104
 402bd68:	a00b883a 	mov	r5,r20
 402bd6c:	402a9dc0 	call	402a9dc <__sprint_r.part.0>
 402bd70:	003eb406 	br	402b844 <__alt_data_end+0xfffeb844>
 402bd74:	80c00043 	ldbu	r3,1(r16)
 402bd78:	a5000814 	ori	r20,r20,32
 402bd7c:	84000044 	addi	r16,r16,1
 402bd80:	18c03fcc 	andi	r3,r3,255
 402bd84:	18c0201c 	xori	r3,r3,128
 402bd88:	18ffe004 	addi	r3,r3,-128
 402bd8c:	003bb706 	br	402ac6c <__alt_data_end+0xfffeac6c>
 402bd90:	a809883a 	mov	r4,r21
 402bd94:	d8c02a15 	stw	r3,168(sp)
 402bd98:	da002b15 	stw	r8,172(sp)
 402bd9c:	4023d180 	call	4023d18 <strlen>
 402bda0:	d8c02a17 	ldw	r3,168(sp)
 402bda4:	1027883a 	mov	r19,r2
 402bda8:	df001d83 	ldbu	fp,118(sp)
 402bdac:	d8c02215 	stw	r3,136(sp)
 402bdb0:	0013883a 	mov	r9,zero
 402bdb4:	da002b17 	ldw	r8,172(sp)
 402bdb8:	003c4d06 	br	402aef0 <__alt_data_end+0xfffeaef0>
 402bdbc:	d9402117 	ldw	r5,132(sp)
 402bdc0:	d9002017 	ldw	r4,128(sp)
 402bdc4:	d9801a04 	addi	r6,sp,104
 402bdc8:	da402c15 	stw	r9,176(sp)
 402bdcc:	402a9dc0 	call	402a9dc <__sprint_r.part.0>
 402bdd0:	da402c17 	ldw	r9,176(sp)
 402bdd4:	103e9a1e 	bne	r2,zero,402b840 <__alt_data_end+0xfffeb840>
 402bdd8:	d9401b17 	ldw	r5,108(sp)
 402bddc:	d8801c17 	ldw	r2,112(sp)
 402bde0:	d811883a 	mov	r8,sp
 402bde4:	29000044 	addi	r4,r5,1
 402bde8:	003e4206 	br	402b6f4 <__alt_data_end+0xfffeb6f4>
 402bdec:	d9401b17 	ldw	r5,108(sp)
 402bdf0:	010100f4 	movhi	r4,1027
 402bdf4:	2104e904 	addi	r4,r4,5028
 402bdf8:	d9002415 	stw	r4,144(sp)
 402bdfc:	29400044 	addi	r5,r5,1
 402be00:	003c6d06 	br	402afb8 <__alt_data_end+0xfffeafb8>
 402be04:	0039883a 	mov	fp,zero
 402be08:	00800084 	movi	r2,2
 402be0c:	10803fcc 	andi	r2,r2,255
 402be10:	01000044 	movi	r4,1
 402be14:	11001e26 	beq	r2,r4,402be90 <___vfiprintf_internal_r+0x13a0>
 402be18:	01000084 	movi	r4,2
 402be1c:	11001e1e 	bne	r2,r4,402be98 <___vfiprintf_internal_r+0x13a8>
 402be20:	1829883a 	mov	r20,r3
 402be24:	003eea06 	br	402b9d0 <__alt_data_end+0xfffeb9d0>
 402be28:	a007883a 	mov	r3,r20
 402be2c:	00800044 	movi	r2,1
 402be30:	003ff606 	br	402be0c <__alt_data_end+0xfffebe0c>
 402be34:	00800184 	movi	r2,6
 402be38:	1240012e 	bgeu	r2,r9,402be40 <___vfiprintf_internal_r+0x1350>
 402be3c:	1013883a 	mov	r9,r2
 402be40:	4827883a 	mov	r19,r9
 402be44:	4825883a 	mov	r18,r9
 402be48:	48001516 	blt	r9,zero,402bea0 <___vfiprintf_internal_r+0x13b0>
 402be4c:	054100f4 	movhi	r21,1027
 402be50:	d8c02215 	stw	r3,136(sp)
 402be54:	ad448a04 	addi	r21,r21,4648
 402be58:	003d1406 	br	402b2ac <__alt_data_end+0xfffeb2ac>
 402be5c:	028100f4 	movhi	r10,1027
 402be60:	5284e504 	addi	r10,r10,5012
 402be64:	da802415 	stw	r10,144(sp)
 402be68:	200d883a 	mov	r6,r4
 402be6c:	003c9106 	br	402b0b4 <__alt_data_end+0xfffeb0b4>
 402be70:	5021883a 	mov	r16,r10
 402be74:	0013883a 	mov	r9,zero
 402be78:	003b7d06 	br	402ac70 <__alt_data_end+0xfffeac70>
 402be7c:	4827883a 	mov	r19,r9
 402be80:	df001d83 	ldbu	fp,118(sp)
 402be84:	d8c02215 	stw	r3,136(sp)
 402be88:	0013883a 	mov	r9,zero
 402be8c:	003c1806 	br	402aef0 <__alt_data_end+0xfffeaef0>
 402be90:	1829883a 	mov	r20,r3
 402be94:	003d1806 	br	402b2f8 <__alt_data_end+0xfffeb2f8>
 402be98:	1829883a 	mov	r20,r3
 402be9c:	003ccd06 	br	402b1d4 <__alt_data_end+0xfffeb1d4>
 402bea0:	0025883a 	mov	r18,zero
 402bea4:	003fe906 	br	402be4c <__alt_data_end+0xfffebe4c>
 402bea8:	d8802217 	ldw	r2,136(sp)
 402beac:	80c00043 	ldbu	r3,1(r16)
 402beb0:	5021883a 	mov	r16,r10
 402beb4:	12400017 	ldw	r9,0(r2)
 402beb8:	10800104 	addi	r2,r2,4
 402bebc:	d8802215 	stw	r2,136(sp)
 402bec0:	483faf0e 	bge	r9,zero,402bd80 <__alt_data_end+0xfffebd80>
 402bec4:	18c03fcc 	andi	r3,r3,255
 402bec8:	18c0201c 	xori	r3,r3,128
 402becc:	027fffc4 	movi	r9,-1
 402bed0:	18ffe004 	addi	r3,r3,-128
 402bed4:	003b6506 	br	402ac6c <__alt_data_end+0xfffeac6c>
 402bed8:	d9c01d85 	stb	r7,118(sp)
 402bedc:	003ca006 	br	402b160 <__alt_data_end+0xfffeb160>
 402bee0:	d9c01d85 	stb	r7,118(sp)
 402bee4:	003cad06 	br	402b19c <__alt_data_end+0xfffeb19c>
 402bee8:	d9c01d85 	stb	r7,118(sp)
 402beec:	003d7d06 	br	402b4e4 <__alt_data_end+0xfffeb4e4>
 402bef0:	d9c01d85 	stb	r7,118(sp)
 402bef4:	003d5f06 	br	402b474 <__alt_data_end+0xfffeb474>
 402bef8:	a080004c 	andi	r2,r20,1
 402befc:	0039883a 	mov	fp,zero
 402bf00:	10000526 	beq	r2,zero,402bf18 <___vfiprintf_internal_r+0x1428>
 402bf04:	00800c04 	movi	r2,48
 402bf08:	d88019c5 	stb	r2,103(sp)
 402bf0c:	dcc02717 	ldw	r19,156(sp)
 402bf10:	dd4019c4 	addi	r21,sp,103
 402bf14:	003bf606 	br	402aef0 <__alt_data_end+0xfffeaef0>
 402bf18:	0027883a 	mov	r19,zero
 402bf1c:	dd401a04 	addi	r21,sp,104
 402bf20:	003bf306 	br	402aef0 <__alt_data_end+0xfffeaef0>
 402bf24:	d9c01d85 	stb	r7,118(sp)
 402bf28:	003dc806 	br	402b64c <__alt_data_end+0xfffeb64c>
 402bf2c:	d9c01d85 	stb	r7,118(sp)
 402bf30:	003d3a06 	br	402b41c <__alt_data_end+0xfffeb41c>
 402bf34:	d9c01d85 	stb	r7,118(sp)
 402bf38:	003d2a06 	br	402b3e4 <__alt_data_end+0xfffeb3e4>
 402bf3c:	d9c01d85 	stb	r7,118(sp)
 402bf40:	003cde06 	br	402b2bc <__alt_data_end+0xfffeb2bc>
 402bf44:	d9c01d85 	stb	r7,118(sp)
 402bf48:	003cbc06 	br	402b23c <__alt_data_end+0xfffeb23c>

0402bf4c <__vfiprintf_internal>:
 402bf4c:	008100f4 	movhi	r2,1027
 402bf50:	108c1e04 	addi	r2,r2,12408
 402bf54:	300f883a 	mov	r7,r6
 402bf58:	280d883a 	mov	r6,r5
 402bf5c:	200b883a 	mov	r5,r4
 402bf60:	11000017 	ldw	r4,0(r2)
 402bf64:	402aaf01 	jmpi	402aaf0 <___vfiprintf_internal_r>

0402bf68 <__sbprintf>:
 402bf68:	2880030b 	ldhu	r2,12(r5)
 402bf6c:	2ac01917 	ldw	r11,100(r5)
 402bf70:	2a80038b 	ldhu	r10,14(r5)
 402bf74:	2a400717 	ldw	r9,28(r5)
 402bf78:	2a000917 	ldw	r8,36(r5)
 402bf7c:	defee204 	addi	sp,sp,-1144
 402bf80:	00c10004 	movi	r3,1024
 402bf84:	dc011a15 	stw	r16,1128(sp)
 402bf88:	10bfff4c 	andi	r2,r2,65533
 402bf8c:	2821883a 	mov	r16,r5
 402bf90:	d8cb883a 	add	r5,sp,r3
 402bf94:	dc811c15 	stw	r18,1136(sp)
 402bf98:	dc411b15 	stw	r17,1132(sp)
 402bf9c:	dfc11d15 	stw	ra,1140(sp)
 402bfa0:	2025883a 	mov	r18,r4
 402bfa4:	d881030d 	sth	r2,1036(sp)
 402bfa8:	dac11915 	stw	r11,1124(sp)
 402bfac:	da81038d 	sth	r10,1038(sp)
 402bfb0:	da410715 	stw	r9,1052(sp)
 402bfb4:	da010915 	stw	r8,1060(sp)
 402bfb8:	dec10015 	stw	sp,1024(sp)
 402bfbc:	dec10415 	stw	sp,1040(sp)
 402bfc0:	d8c10215 	stw	r3,1032(sp)
 402bfc4:	d8c10515 	stw	r3,1044(sp)
 402bfc8:	d8010615 	stw	zero,1048(sp)
 402bfcc:	402aaf00 	call	402aaf0 <___vfiprintf_internal_r>
 402bfd0:	1023883a 	mov	r17,r2
 402bfd4:	10000416 	blt	r2,zero,402bfe8 <__sbprintf+0x80>
 402bfd8:	d9410004 	addi	r5,sp,1024
 402bfdc:	9009883a 	mov	r4,r18
 402bfe0:	40280680 	call	4028068 <_fflush_r>
 402bfe4:	10000d1e 	bne	r2,zero,402c01c <__sbprintf+0xb4>
 402bfe8:	d881030b 	ldhu	r2,1036(sp)
 402bfec:	1080100c 	andi	r2,r2,64
 402bff0:	10000326 	beq	r2,zero,402c000 <__sbprintf+0x98>
 402bff4:	8080030b 	ldhu	r2,12(r16)
 402bff8:	10801014 	ori	r2,r2,64
 402bffc:	8080030d 	sth	r2,12(r16)
 402c000:	8805883a 	mov	r2,r17
 402c004:	dfc11d17 	ldw	ra,1140(sp)
 402c008:	dc811c17 	ldw	r18,1136(sp)
 402c00c:	dc411b17 	ldw	r17,1132(sp)
 402c010:	dc011a17 	ldw	r16,1128(sp)
 402c014:	dec11e04 	addi	sp,sp,1144
 402c018:	f800283a 	ret
 402c01c:	047fffc4 	movi	r17,-1
 402c020:	003ff106 	br	402bfe8 <__alt_data_end+0xfffebfe8>

0402c024 <_write_r>:
 402c024:	defffd04 	addi	sp,sp,-12
 402c028:	2805883a 	mov	r2,r5
 402c02c:	dc000015 	stw	r16,0(sp)
 402c030:	040100f4 	movhi	r16,1027
 402c034:	dc400115 	stw	r17,4(sp)
 402c038:	300b883a 	mov	r5,r6
 402c03c:	84132704 	addi	r16,r16,19612
 402c040:	2023883a 	mov	r17,r4
 402c044:	380d883a 	mov	r6,r7
 402c048:	1009883a 	mov	r4,r2
 402c04c:	dfc00215 	stw	ra,8(sp)
 402c050:	80000015 	stw	zero,0(r16)
 402c054:	4030c340 	call	4030c34 <write>
 402c058:	00ffffc4 	movi	r3,-1
 402c05c:	10c00526 	beq	r2,r3,402c074 <_write_r+0x50>
 402c060:	dfc00217 	ldw	ra,8(sp)
 402c064:	dc400117 	ldw	r17,4(sp)
 402c068:	dc000017 	ldw	r16,0(sp)
 402c06c:	dec00304 	addi	sp,sp,12
 402c070:	f800283a 	ret
 402c074:	80c00017 	ldw	r3,0(r16)
 402c078:	183ff926 	beq	r3,zero,402c060 <__alt_data_end+0xfffec060>
 402c07c:	88c00015 	stw	r3,0(r17)
 402c080:	003ff706 	br	402c060 <__alt_data_end+0xfffec060>

0402c084 <_close_r>:
 402c084:	defffd04 	addi	sp,sp,-12
 402c088:	dc000015 	stw	r16,0(sp)
 402c08c:	040100f4 	movhi	r16,1027
 402c090:	dc400115 	stw	r17,4(sp)
 402c094:	84132704 	addi	r16,r16,19612
 402c098:	2023883a 	mov	r17,r4
 402c09c:	2809883a 	mov	r4,r5
 402c0a0:	dfc00215 	stw	ra,8(sp)
 402c0a4:	80000015 	stw	zero,0(r16)
 402c0a8:	4022d3c0 	call	4022d3c <close>
 402c0ac:	00ffffc4 	movi	r3,-1
 402c0b0:	10c00526 	beq	r2,r3,402c0c8 <_close_r+0x44>
 402c0b4:	dfc00217 	ldw	ra,8(sp)
 402c0b8:	dc400117 	ldw	r17,4(sp)
 402c0bc:	dc000017 	ldw	r16,0(sp)
 402c0c0:	dec00304 	addi	sp,sp,12
 402c0c4:	f800283a 	ret
 402c0c8:	80c00017 	ldw	r3,0(r16)
 402c0cc:	183ff926 	beq	r3,zero,402c0b4 <__alt_data_end+0xfffec0b4>
 402c0d0:	88c00015 	stw	r3,0(r17)
 402c0d4:	003ff706 	br	402c0b4 <__alt_data_end+0xfffec0b4>

0402c0d8 <_calloc_r>:
 402c0d8:	298b383a 	mul	r5,r5,r6
 402c0dc:	defffe04 	addi	sp,sp,-8
 402c0e0:	dfc00115 	stw	ra,4(sp)
 402c0e4:	dc000015 	stw	r16,0(sp)
 402c0e8:	4028ce80 	call	4028ce8 <_malloc_r>
 402c0ec:	10002926 	beq	r2,zero,402c194 <_calloc_r+0xbc>
 402c0f0:	11bfff17 	ldw	r6,-4(r2)
 402c0f4:	1021883a 	mov	r16,r2
 402c0f8:	00bfff04 	movi	r2,-4
 402c0fc:	308c703a 	and	r6,r6,r2
 402c100:	00c00904 	movi	r3,36
 402c104:	308d883a 	add	r6,r6,r2
 402c108:	19801636 	bltu	r3,r6,402c164 <_calloc_r+0x8c>
 402c10c:	008004c4 	movi	r2,19
 402c110:	11800b2e 	bgeu	r2,r6,402c140 <_calloc_r+0x68>
 402c114:	80000015 	stw	zero,0(r16)
 402c118:	80000115 	stw	zero,4(r16)
 402c11c:	008006c4 	movi	r2,27
 402c120:	11801a2e 	bgeu	r2,r6,402c18c <_calloc_r+0xb4>
 402c124:	80000215 	stw	zero,8(r16)
 402c128:	80000315 	stw	zero,12(r16)
 402c12c:	30c0151e 	bne	r6,r3,402c184 <_calloc_r+0xac>
 402c130:	80000415 	stw	zero,16(r16)
 402c134:	80800604 	addi	r2,r16,24
 402c138:	80000515 	stw	zero,20(r16)
 402c13c:	00000106 	br	402c144 <_calloc_r+0x6c>
 402c140:	8005883a 	mov	r2,r16
 402c144:	10000015 	stw	zero,0(r2)
 402c148:	10000115 	stw	zero,4(r2)
 402c14c:	10000215 	stw	zero,8(r2)
 402c150:	8005883a 	mov	r2,r16
 402c154:	dfc00117 	ldw	ra,4(sp)
 402c158:	dc000017 	ldw	r16,0(sp)
 402c15c:	dec00204 	addi	sp,sp,8
 402c160:	f800283a 	ret
 402c164:	000b883a 	mov	r5,zero
 402c168:	8009883a 	mov	r4,r16
 402c16c:	40295d80 	call	40295d8 <memset>
 402c170:	8005883a 	mov	r2,r16
 402c174:	dfc00117 	ldw	ra,4(sp)
 402c178:	dc000017 	ldw	r16,0(sp)
 402c17c:	dec00204 	addi	sp,sp,8
 402c180:	f800283a 	ret
 402c184:	80800404 	addi	r2,r16,16
 402c188:	003fee06 	br	402c144 <__alt_data_end+0xfffec144>
 402c18c:	80800204 	addi	r2,r16,8
 402c190:	003fec06 	br	402c144 <__alt_data_end+0xfffec144>
 402c194:	0005883a 	mov	r2,zero
 402c198:	003fee06 	br	402c154 <__alt_data_end+0xfffec154>

0402c19c <_fclose_r>:
 402c19c:	28003926 	beq	r5,zero,402c284 <_fclose_r+0xe8>
 402c1a0:	defffc04 	addi	sp,sp,-16
 402c1a4:	dc400115 	stw	r17,4(sp)
 402c1a8:	dc000015 	stw	r16,0(sp)
 402c1ac:	dfc00315 	stw	ra,12(sp)
 402c1b0:	dc800215 	stw	r18,8(sp)
 402c1b4:	2023883a 	mov	r17,r4
 402c1b8:	2821883a 	mov	r16,r5
 402c1bc:	20000226 	beq	r4,zero,402c1c8 <_fclose_r+0x2c>
 402c1c0:	20800e17 	ldw	r2,56(r4)
 402c1c4:	10002726 	beq	r2,zero,402c264 <_fclose_r+0xc8>
 402c1c8:	8080030f 	ldh	r2,12(r16)
 402c1cc:	1000071e 	bne	r2,zero,402c1ec <_fclose_r+0x50>
 402c1d0:	0005883a 	mov	r2,zero
 402c1d4:	dfc00317 	ldw	ra,12(sp)
 402c1d8:	dc800217 	ldw	r18,8(sp)
 402c1dc:	dc400117 	ldw	r17,4(sp)
 402c1e0:	dc000017 	ldw	r16,0(sp)
 402c1e4:	dec00404 	addi	sp,sp,16
 402c1e8:	f800283a 	ret
 402c1ec:	800b883a 	mov	r5,r16
 402c1f0:	8809883a 	mov	r4,r17
 402c1f4:	4027e4c0 	call	4027e4c <__sflush_r>
 402c1f8:	1025883a 	mov	r18,r2
 402c1fc:	80800b17 	ldw	r2,44(r16)
 402c200:	10000426 	beq	r2,zero,402c214 <_fclose_r+0x78>
 402c204:	81400717 	ldw	r5,28(r16)
 402c208:	8809883a 	mov	r4,r17
 402c20c:	103ee83a 	callr	r2
 402c210:	10001616 	blt	r2,zero,402c26c <_fclose_r+0xd0>
 402c214:	8080030b 	ldhu	r2,12(r16)
 402c218:	1080200c 	andi	r2,r2,128
 402c21c:	1000151e 	bne	r2,zero,402c274 <_fclose_r+0xd8>
 402c220:	81400c17 	ldw	r5,48(r16)
 402c224:	28000526 	beq	r5,zero,402c23c <_fclose_r+0xa0>
 402c228:	80801004 	addi	r2,r16,64
 402c22c:	28800226 	beq	r5,r2,402c238 <_fclose_r+0x9c>
 402c230:	8809883a 	mov	r4,r17
 402c234:	40285b80 	call	40285b8 <_free_r>
 402c238:	80000c15 	stw	zero,48(r16)
 402c23c:	81401117 	ldw	r5,68(r16)
 402c240:	28000326 	beq	r5,zero,402c250 <_fclose_r+0xb4>
 402c244:	8809883a 	mov	r4,r17
 402c248:	40285b80 	call	40285b8 <_free_r>
 402c24c:	80001115 	stw	zero,68(r16)
 402c250:	40284540 	call	4028454 <__sfp_lock_acquire>
 402c254:	8000030d 	sth	zero,12(r16)
 402c258:	40284580 	call	4028458 <__sfp_lock_release>
 402c25c:	9005883a 	mov	r2,r18
 402c260:	003fdc06 	br	402c1d4 <__alt_data_end+0xfffec1d4>
 402c264:	40284440 	call	4028444 <__sinit>
 402c268:	003fd706 	br	402c1c8 <__alt_data_end+0xfffec1c8>
 402c26c:	04bfffc4 	movi	r18,-1
 402c270:	003fe806 	br	402c214 <__alt_data_end+0xfffec214>
 402c274:	81400417 	ldw	r5,16(r16)
 402c278:	8809883a 	mov	r4,r17
 402c27c:	40285b80 	call	40285b8 <_free_r>
 402c280:	003fe706 	br	402c220 <__alt_data_end+0xfffec220>
 402c284:	0005883a 	mov	r2,zero
 402c288:	f800283a 	ret

0402c28c <fclose>:
 402c28c:	008100f4 	movhi	r2,1027
 402c290:	108c1e04 	addi	r2,r2,12408
 402c294:	200b883a 	mov	r5,r4
 402c298:	11000017 	ldw	r4,0(r2)
 402c29c:	402c19c1 	jmpi	402c19c <_fclose_r>

0402c2a0 <__fputwc>:
 402c2a0:	defff804 	addi	sp,sp,-32
 402c2a4:	dcc00415 	stw	r19,16(sp)
 402c2a8:	dc800315 	stw	r18,12(sp)
 402c2ac:	dc000115 	stw	r16,4(sp)
 402c2b0:	dfc00715 	stw	ra,28(sp)
 402c2b4:	dd400615 	stw	r21,24(sp)
 402c2b8:	dd000515 	stw	r20,20(sp)
 402c2bc:	dc400215 	stw	r17,8(sp)
 402c2c0:	2027883a 	mov	r19,r4
 402c2c4:	2825883a 	mov	r18,r5
 402c2c8:	3021883a 	mov	r16,r6
 402c2cc:	4028ad80 	call	4028ad8 <__locale_mb_cur_max>
 402c2d0:	00c00044 	movi	r3,1
 402c2d4:	10c03e26 	beq	r2,r3,402c3d0 <__fputwc+0x130>
 402c2d8:	81c01704 	addi	r7,r16,92
 402c2dc:	900d883a 	mov	r6,r18
 402c2e0:	d80b883a 	mov	r5,sp
 402c2e4:	9809883a 	mov	r4,r19
 402c2e8:	402d1940 	call	402d194 <_wcrtomb_r>
 402c2ec:	1029883a 	mov	r20,r2
 402c2f0:	00bfffc4 	movi	r2,-1
 402c2f4:	a0802026 	beq	r20,r2,402c378 <__fputwc+0xd8>
 402c2f8:	d9400003 	ldbu	r5,0(sp)
 402c2fc:	a0001c26 	beq	r20,zero,402c370 <__fputwc+0xd0>
 402c300:	0023883a 	mov	r17,zero
 402c304:	05400284 	movi	r21,10
 402c308:	00000906 	br	402c330 <__fputwc+0x90>
 402c30c:	80800017 	ldw	r2,0(r16)
 402c310:	11400005 	stb	r5,0(r2)
 402c314:	80c00017 	ldw	r3,0(r16)
 402c318:	18c00044 	addi	r3,r3,1
 402c31c:	80c00015 	stw	r3,0(r16)
 402c320:	8c400044 	addi	r17,r17,1
 402c324:	dc45883a 	add	r2,sp,r17
 402c328:	8d00112e 	bgeu	r17,r20,402c370 <__fputwc+0xd0>
 402c32c:	11400003 	ldbu	r5,0(r2)
 402c330:	80c00217 	ldw	r3,8(r16)
 402c334:	18ffffc4 	addi	r3,r3,-1
 402c338:	80c00215 	stw	r3,8(r16)
 402c33c:	183ff30e 	bge	r3,zero,402c30c <__alt_data_end+0xfffec30c>
 402c340:	80800617 	ldw	r2,24(r16)
 402c344:	18801916 	blt	r3,r2,402c3ac <__fputwc+0x10c>
 402c348:	80800017 	ldw	r2,0(r16)
 402c34c:	11400005 	stb	r5,0(r2)
 402c350:	80800017 	ldw	r2,0(r16)
 402c354:	10c00003 	ldbu	r3,0(r2)
 402c358:	10800044 	addi	r2,r2,1
 402c35c:	1d402326 	beq	r3,r21,402c3ec <__fputwc+0x14c>
 402c360:	80800015 	stw	r2,0(r16)
 402c364:	8c400044 	addi	r17,r17,1
 402c368:	dc45883a 	add	r2,sp,r17
 402c36c:	8d3fef36 	bltu	r17,r20,402c32c <__alt_data_end+0xfffec32c>
 402c370:	9005883a 	mov	r2,r18
 402c374:	00000406 	br	402c388 <__fputwc+0xe8>
 402c378:	80c0030b 	ldhu	r3,12(r16)
 402c37c:	a005883a 	mov	r2,r20
 402c380:	18c01014 	ori	r3,r3,64
 402c384:	80c0030d 	sth	r3,12(r16)
 402c388:	dfc00717 	ldw	ra,28(sp)
 402c38c:	dd400617 	ldw	r21,24(sp)
 402c390:	dd000517 	ldw	r20,20(sp)
 402c394:	dcc00417 	ldw	r19,16(sp)
 402c398:	dc800317 	ldw	r18,12(sp)
 402c39c:	dc400217 	ldw	r17,8(sp)
 402c3a0:	dc000117 	ldw	r16,4(sp)
 402c3a4:	dec00804 	addi	sp,sp,32
 402c3a8:	f800283a 	ret
 402c3ac:	800d883a 	mov	r6,r16
 402c3b0:	29403fcc 	andi	r5,r5,255
 402c3b4:	9809883a 	mov	r4,r19
 402c3b8:	40260800 	call	4026080 <__swbuf_r>
 402c3bc:	10bfffe0 	cmpeqi	r2,r2,-1
 402c3c0:	10803fcc 	andi	r2,r2,255
 402c3c4:	103fd626 	beq	r2,zero,402c320 <__alt_data_end+0xfffec320>
 402c3c8:	00bfffc4 	movi	r2,-1
 402c3cc:	003fee06 	br	402c388 <__alt_data_end+0xfffec388>
 402c3d0:	90ffffc4 	addi	r3,r18,-1
 402c3d4:	01003f84 	movi	r4,254
 402c3d8:	20ffbf36 	bltu	r4,r3,402c2d8 <__alt_data_end+0xfffec2d8>
 402c3dc:	900b883a 	mov	r5,r18
 402c3e0:	dc800005 	stb	r18,0(sp)
 402c3e4:	1029883a 	mov	r20,r2
 402c3e8:	003fc506 	br	402c300 <__alt_data_end+0xfffec300>
 402c3ec:	800d883a 	mov	r6,r16
 402c3f0:	a80b883a 	mov	r5,r21
 402c3f4:	9809883a 	mov	r4,r19
 402c3f8:	40260800 	call	4026080 <__swbuf_r>
 402c3fc:	10bfffe0 	cmpeqi	r2,r2,-1
 402c400:	003fef06 	br	402c3c0 <__alt_data_end+0xfffec3c0>

0402c404 <_fputwc_r>:
 402c404:	3080030b 	ldhu	r2,12(r6)
 402c408:	10c8000c 	andi	r3,r2,8192
 402c40c:	1800051e 	bne	r3,zero,402c424 <_fputwc_r+0x20>
 402c410:	30c01917 	ldw	r3,100(r6)
 402c414:	10880014 	ori	r2,r2,8192
 402c418:	3080030d 	sth	r2,12(r6)
 402c41c:	18880014 	ori	r2,r3,8192
 402c420:	30801915 	stw	r2,100(r6)
 402c424:	402c2a01 	jmpi	402c2a0 <__fputwc>

0402c428 <fputwc>:
 402c428:	008100f4 	movhi	r2,1027
 402c42c:	defffc04 	addi	sp,sp,-16
 402c430:	108c1e04 	addi	r2,r2,12408
 402c434:	dc000115 	stw	r16,4(sp)
 402c438:	14000017 	ldw	r16,0(r2)
 402c43c:	dc400215 	stw	r17,8(sp)
 402c440:	dfc00315 	stw	ra,12(sp)
 402c444:	2023883a 	mov	r17,r4
 402c448:	80000226 	beq	r16,zero,402c454 <fputwc+0x2c>
 402c44c:	80800e17 	ldw	r2,56(r16)
 402c450:	10001026 	beq	r2,zero,402c494 <fputwc+0x6c>
 402c454:	2880030b 	ldhu	r2,12(r5)
 402c458:	10c8000c 	andi	r3,r2,8192
 402c45c:	1800051e 	bne	r3,zero,402c474 <fputwc+0x4c>
 402c460:	28c01917 	ldw	r3,100(r5)
 402c464:	10880014 	ori	r2,r2,8192
 402c468:	2880030d 	sth	r2,12(r5)
 402c46c:	18880014 	ori	r2,r3,8192
 402c470:	28801915 	stw	r2,100(r5)
 402c474:	280d883a 	mov	r6,r5
 402c478:	8009883a 	mov	r4,r16
 402c47c:	880b883a 	mov	r5,r17
 402c480:	dfc00317 	ldw	ra,12(sp)
 402c484:	dc400217 	ldw	r17,8(sp)
 402c488:	dc000117 	ldw	r16,4(sp)
 402c48c:	dec00404 	addi	sp,sp,16
 402c490:	402c2a01 	jmpi	402c2a0 <__fputwc>
 402c494:	8009883a 	mov	r4,r16
 402c498:	d9400015 	stw	r5,0(sp)
 402c49c:	40284440 	call	4028444 <__sinit>
 402c4a0:	d9400017 	ldw	r5,0(sp)
 402c4a4:	003feb06 	br	402c454 <__alt_data_end+0xfffec454>

0402c4a8 <_fstat_r>:
 402c4a8:	defffd04 	addi	sp,sp,-12
 402c4ac:	2805883a 	mov	r2,r5
 402c4b0:	dc000015 	stw	r16,0(sp)
 402c4b4:	040100f4 	movhi	r16,1027
 402c4b8:	dc400115 	stw	r17,4(sp)
 402c4bc:	84132704 	addi	r16,r16,19612
 402c4c0:	2023883a 	mov	r17,r4
 402c4c4:	300b883a 	mov	r5,r6
 402c4c8:	1009883a 	mov	r4,r2
 402c4cc:	dfc00215 	stw	ra,8(sp)
 402c4d0:	80000015 	stw	zero,0(r16)
 402c4d4:	40307280 	call	4030728 <fstat>
 402c4d8:	00ffffc4 	movi	r3,-1
 402c4dc:	10c00526 	beq	r2,r3,402c4f4 <_fstat_r+0x4c>
 402c4e0:	dfc00217 	ldw	ra,8(sp)
 402c4e4:	dc400117 	ldw	r17,4(sp)
 402c4e8:	dc000017 	ldw	r16,0(sp)
 402c4ec:	dec00304 	addi	sp,sp,12
 402c4f0:	f800283a 	ret
 402c4f4:	80c00017 	ldw	r3,0(r16)
 402c4f8:	183ff926 	beq	r3,zero,402c4e0 <__alt_data_end+0xfffec4e0>
 402c4fc:	88c00015 	stw	r3,0(r17)
 402c500:	003ff706 	br	402c4e0 <__alt_data_end+0xfffec4e0>

0402c504 <__sfvwrite_r>:
 402c504:	30800217 	ldw	r2,8(r6)
 402c508:	10006726 	beq	r2,zero,402c6a8 <__sfvwrite_r+0x1a4>
 402c50c:	28c0030b 	ldhu	r3,12(r5)
 402c510:	defff404 	addi	sp,sp,-48
 402c514:	dd400715 	stw	r21,28(sp)
 402c518:	dd000615 	stw	r20,24(sp)
 402c51c:	dc000215 	stw	r16,8(sp)
 402c520:	dfc00b15 	stw	ra,44(sp)
 402c524:	df000a15 	stw	fp,40(sp)
 402c528:	ddc00915 	stw	r23,36(sp)
 402c52c:	dd800815 	stw	r22,32(sp)
 402c530:	dcc00515 	stw	r19,20(sp)
 402c534:	dc800415 	stw	r18,16(sp)
 402c538:	dc400315 	stw	r17,12(sp)
 402c53c:	1880020c 	andi	r2,r3,8
 402c540:	2821883a 	mov	r16,r5
 402c544:	202b883a 	mov	r21,r4
 402c548:	3029883a 	mov	r20,r6
 402c54c:	10002726 	beq	r2,zero,402c5ec <__sfvwrite_r+0xe8>
 402c550:	28800417 	ldw	r2,16(r5)
 402c554:	10002526 	beq	r2,zero,402c5ec <__sfvwrite_r+0xe8>
 402c558:	1880008c 	andi	r2,r3,2
 402c55c:	a4400017 	ldw	r17,0(r20)
 402c560:	10002a26 	beq	r2,zero,402c60c <__sfvwrite_r+0x108>
 402c564:	05a00034 	movhi	r22,32768
 402c568:	0027883a 	mov	r19,zero
 402c56c:	0025883a 	mov	r18,zero
 402c570:	b5bf0004 	addi	r22,r22,-1024
 402c574:	980d883a 	mov	r6,r19
 402c578:	a809883a 	mov	r4,r21
 402c57c:	90004626 	beq	r18,zero,402c698 <__sfvwrite_r+0x194>
 402c580:	900f883a 	mov	r7,r18
 402c584:	b480022e 	bgeu	r22,r18,402c590 <__sfvwrite_r+0x8c>
 402c588:	01e00034 	movhi	r7,32768
 402c58c:	39ff0004 	addi	r7,r7,-1024
 402c590:	80800917 	ldw	r2,36(r16)
 402c594:	81400717 	ldw	r5,28(r16)
 402c598:	103ee83a 	callr	r2
 402c59c:	0080570e 	bge	zero,r2,402c6fc <__sfvwrite_r+0x1f8>
 402c5a0:	a0c00217 	ldw	r3,8(r20)
 402c5a4:	98a7883a 	add	r19,r19,r2
 402c5a8:	90a5c83a 	sub	r18,r18,r2
 402c5ac:	1885c83a 	sub	r2,r3,r2
 402c5b0:	a0800215 	stw	r2,8(r20)
 402c5b4:	103fef1e 	bne	r2,zero,402c574 <__alt_data_end+0xfffec574>
 402c5b8:	0005883a 	mov	r2,zero
 402c5bc:	dfc00b17 	ldw	ra,44(sp)
 402c5c0:	df000a17 	ldw	fp,40(sp)
 402c5c4:	ddc00917 	ldw	r23,36(sp)
 402c5c8:	dd800817 	ldw	r22,32(sp)
 402c5cc:	dd400717 	ldw	r21,28(sp)
 402c5d0:	dd000617 	ldw	r20,24(sp)
 402c5d4:	dcc00517 	ldw	r19,20(sp)
 402c5d8:	dc800417 	ldw	r18,16(sp)
 402c5dc:	dc400317 	ldw	r17,12(sp)
 402c5e0:	dc000217 	ldw	r16,8(sp)
 402c5e4:	dec00c04 	addi	sp,sp,48
 402c5e8:	f800283a 	ret
 402c5ec:	800b883a 	mov	r5,r16
 402c5f0:	a809883a 	mov	r4,r21
 402c5f4:	40261d80 	call	40261d8 <__swsetup_r>
 402c5f8:	1000eb1e 	bne	r2,zero,402c9a8 <__sfvwrite_r+0x4a4>
 402c5fc:	80c0030b 	ldhu	r3,12(r16)
 402c600:	a4400017 	ldw	r17,0(r20)
 402c604:	1880008c 	andi	r2,r3,2
 402c608:	103fd61e 	bne	r2,zero,402c564 <__alt_data_end+0xfffec564>
 402c60c:	1880004c 	andi	r2,r3,1
 402c610:	10003f1e 	bne	r2,zero,402c710 <__sfvwrite_r+0x20c>
 402c614:	0039883a 	mov	fp,zero
 402c618:	0025883a 	mov	r18,zero
 402c61c:	90001a26 	beq	r18,zero,402c688 <__sfvwrite_r+0x184>
 402c620:	1880800c 	andi	r2,r3,512
 402c624:	84c00217 	ldw	r19,8(r16)
 402c628:	10002126 	beq	r2,zero,402c6b0 <__sfvwrite_r+0x1ac>
 402c62c:	982f883a 	mov	r23,r19
 402c630:	94c09336 	bltu	r18,r19,402c880 <__sfvwrite_r+0x37c>
 402c634:	1881200c 	andi	r2,r3,1152
 402c638:	10009e1e 	bne	r2,zero,402c8b4 <__sfvwrite_r+0x3b0>
 402c63c:	81000017 	ldw	r4,0(r16)
 402c640:	b80d883a 	mov	r6,r23
 402c644:	e00b883a 	mov	r5,fp
 402c648:	402ca740 	call	402ca74 <memmove>
 402c64c:	80c00217 	ldw	r3,8(r16)
 402c650:	81000017 	ldw	r4,0(r16)
 402c654:	9005883a 	mov	r2,r18
 402c658:	1ce7c83a 	sub	r19,r3,r19
 402c65c:	25cf883a 	add	r7,r4,r23
 402c660:	84c00215 	stw	r19,8(r16)
 402c664:	81c00015 	stw	r7,0(r16)
 402c668:	a0c00217 	ldw	r3,8(r20)
 402c66c:	e0b9883a 	add	fp,fp,r2
 402c670:	90a5c83a 	sub	r18,r18,r2
 402c674:	18a7c83a 	sub	r19,r3,r2
 402c678:	a4c00215 	stw	r19,8(r20)
 402c67c:	983fce26 	beq	r19,zero,402c5b8 <__alt_data_end+0xfffec5b8>
 402c680:	80c0030b 	ldhu	r3,12(r16)
 402c684:	903fe61e 	bne	r18,zero,402c620 <__alt_data_end+0xfffec620>
 402c688:	8f000017 	ldw	fp,0(r17)
 402c68c:	8c800117 	ldw	r18,4(r17)
 402c690:	8c400204 	addi	r17,r17,8
 402c694:	003fe106 	br	402c61c <__alt_data_end+0xfffec61c>
 402c698:	8cc00017 	ldw	r19,0(r17)
 402c69c:	8c800117 	ldw	r18,4(r17)
 402c6a0:	8c400204 	addi	r17,r17,8
 402c6a4:	003fb306 	br	402c574 <__alt_data_end+0xfffec574>
 402c6a8:	0005883a 	mov	r2,zero
 402c6ac:	f800283a 	ret
 402c6b0:	81000017 	ldw	r4,0(r16)
 402c6b4:	80800417 	ldw	r2,16(r16)
 402c6b8:	11005736 	bltu	r2,r4,402c818 <__sfvwrite_r+0x314>
 402c6bc:	85c00517 	ldw	r23,20(r16)
 402c6c0:	95c05536 	bltu	r18,r23,402c818 <__sfvwrite_r+0x314>
 402c6c4:	00a00034 	movhi	r2,32768
 402c6c8:	10bfffc4 	addi	r2,r2,-1
 402c6cc:	9009883a 	mov	r4,r18
 402c6d0:	1480012e 	bgeu	r2,r18,402c6d8 <__sfvwrite_r+0x1d4>
 402c6d4:	1009883a 	mov	r4,r2
 402c6d8:	b80b883a 	mov	r5,r23
 402c6dc:	402de9c0 	call	402de9c <__divsi3>
 402c6e0:	15cf383a 	mul	r7,r2,r23
 402c6e4:	81400717 	ldw	r5,28(r16)
 402c6e8:	80800917 	ldw	r2,36(r16)
 402c6ec:	e00d883a 	mov	r6,fp
 402c6f0:	a809883a 	mov	r4,r21
 402c6f4:	103ee83a 	callr	r2
 402c6f8:	00bfdb16 	blt	zero,r2,402c668 <__alt_data_end+0xfffec668>
 402c6fc:	8080030b 	ldhu	r2,12(r16)
 402c700:	10801014 	ori	r2,r2,64
 402c704:	8080030d 	sth	r2,12(r16)
 402c708:	00bfffc4 	movi	r2,-1
 402c70c:	003fab06 	br	402c5bc <__alt_data_end+0xfffec5bc>
 402c710:	0027883a 	mov	r19,zero
 402c714:	0011883a 	mov	r8,zero
 402c718:	0039883a 	mov	fp,zero
 402c71c:	0025883a 	mov	r18,zero
 402c720:	90001f26 	beq	r18,zero,402c7a0 <__sfvwrite_r+0x29c>
 402c724:	40005a26 	beq	r8,zero,402c890 <__sfvwrite_r+0x38c>
 402c728:	982d883a 	mov	r22,r19
 402c72c:	94c0012e 	bgeu	r18,r19,402c734 <__sfvwrite_r+0x230>
 402c730:	902d883a 	mov	r22,r18
 402c734:	81000017 	ldw	r4,0(r16)
 402c738:	80800417 	ldw	r2,16(r16)
 402c73c:	b02f883a 	mov	r23,r22
 402c740:	81c00517 	ldw	r7,20(r16)
 402c744:	1100032e 	bgeu	r2,r4,402c754 <__sfvwrite_r+0x250>
 402c748:	80c00217 	ldw	r3,8(r16)
 402c74c:	38c7883a 	add	r3,r7,r3
 402c750:	1d801816 	blt	r3,r22,402c7b4 <__sfvwrite_r+0x2b0>
 402c754:	b1c03e16 	blt	r22,r7,402c850 <__sfvwrite_r+0x34c>
 402c758:	80800917 	ldw	r2,36(r16)
 402c75c:	81400717 	ldw	r5,28(r16)
 402c760:	e00d883a 	mov	r6,fp
 402c764:	da000115 	stw	r8,4(sp)
 402c768:	a809883a 	mov	r4,r21
 402c76c:	103ee83a 	callr	r2
 402c770:	102f883a 	mov	r23,r2
 402c774:	da000117 	ldw	r8,4(sp)
 402c778:	00bfe00e 	bge	zero,r2,402c6fc <__alt_data_end+0xfffec6fc>
 402c77c:	9de7c83a 	sub	r19,r19,r23
 402c780:	98001f26 	beq	r19,zero,402c800 <__sfvwrite_r+0x2fc>
 402c784:	a0800217 	ldw	r2,8(r20)
 402c788:	e5f9883a 	add	fp,fp,r23
 402c78c:	95e5c83a 	sub	r18,r18,r23
 402c790:	15efc83a 	sub	r23,r2,r23
 402c794:	a5c00215 	stw	r23,8(r20)
 402c798:	b83f8726 	beq	r23,zero,402c5b8 <__alt_data_end+0xfffec5b8>
 402c79c:	903fe11e 	bne	r18,zero,402c724 <__alt_data_end+0xfffec724>
 402c7a0:	8f000017 	ldw	fp,0(r17)
 402c7a4:	8c800117 	ldw	r18,4(r17)
 402c7a8:	0011883a 	mov	r8,zero
 402c7ac:	8c400204 	addi	r17,r17,8
 402c7b0:	003fdb06 	br	402c720 <__alt_data_end+0xfffec720>
 402c7b4:	180d883a 	mov	r6,r3
 402c7b8:	e00b883a 	mov	r5,fp
 402c7bc:	da000115 	stw	r8,4(sp)
 402c7c0:	d8c00015 	stw	r3,0(sp)
 402c7c4:	402ca740 	call	402ca74 <memmove>
 402c7c8:	d8c00017 	ldw	r3,0(sp)
 402c7cc:	80800017 	ldw	r2,0(r16)
 402c7d0:	800b883a 	mov	r5,r16
 402c7d4:	a809883a 	mov	r4,r21
 402c7d8:	10c5883a 	add	r2,r2,r3
 402c7dc:	80800015 	stw	r2,0(r16)
 402c7e0:	d8c00015 	stw	r3,0(sp)
 402c7e4:	40280680 	call	4028068 <_fflush_r>
 402c7e8:	d8c00017 	ldw	r3,0(sp)
 402c7ec:	da000117 	ldw	r8,4(sp)
 402c7f0:	103fc21e 	bne	r2,zero,402c6fc <__alt_data_end+0xfffec6fc>
 402c7f4:	182f883a 	mov	r23,r3
 402c7f8:	9de7c83a 	sub	r19,r19,r23
 402c7fc:	983fe11e 	bne	r19,zero,402c784 <__alt_data_end+0xfffec784>
 402c800:	800b883a 	mov	r5,r16
 402c804:	a809883a 	mov	r4,r21
 402c808:	40280680 	call	4028068 <_fflush_r>
 402c80c:	103fbb1e 	bne	r2,zero,402c6fc <__alt_data_end+0xfffec6fc>
 402c810:	0011883a 	mov	r8,zero
 402c814:	003fdb06 	br	402c784 <__alt_data_end+0xfffec784>
 402c818:	94c0012e 	bgeu	r18,r19,402c820 <__sfvwrite_r+0x31c>
 402c81c:	9027883a 	mov	r19,r18
 402c820:	980d883a 	mov	r6,r19
 402c824:	e00b883a 	mov	r5,fp
 402c828:	402ca740 	call	402ca74 <memmove>
 402c82c:	80800217 	ldw	r2,8(r16)
 402c830:	80c00017 	ldw	r3,0(r16)
 402c834:	14c5c83a 	sub	r2,r2,r19
 402c838:	1cc7883a 	add	r3,r3,r19
 402c83c:	80800215 	stw	r2,8(r16)
 402c840:	80c00015 	stw	r3,0(r16)
 402c844:	10004326 	beq	r2,zero,402c954 <__sfvwrite_r+0x450>
 402c848:	9805883a 	mov	r2,r19
 402c84c:	003f8606 	br	402c668 <__alt_data_end+0xfffec668>
 402c850:	b00d883a 	mov	r6,r22
 402c854:	e00b883a 	mov	r5,fp
 402c858:	da000115 	stw	r8,4(sp)
 402c85c:	402ca740 	call	402ca74 <memmove>
 402c860:	80800217 	ldw	r2,8(r16)
 402c864:	80c00017 	ldw	r3,0(r16)
 402c868:	da000117 	ldw	r8,4(sp)
 402c86c:	1585c83a 	sub	r2,r2,r22
 402c870:	1dad883a 	add	r22,r3,r22
 402c874:	80800215 	stw	r2,8(r16)
 402c878:	85800015 	stw	r22,0(r16)
 402c87c:	003fbf06 	br	402c77c <__alt_data_end+0xfffec77c>
 402c880:	81000017 	ldw	r4,0(r16)
 402c884:	9027883a 	mov	r19,r18
 402c888:	902f883a 	mov	r23,r18
 402c88c:	003f6c06 	br	402c640 <__alt_data_end+0xfffec640>
 402c890:	900d883a 	mov	r6,r18
 402c894:	01400284 	movi	r5,10
 402c898:	e009883a 	mov	r4,fp
 402c89c:	40294f40 	call	40294f4 <memchr>
 402c8a0:	10003e26 	beq	r2,zero,402c99c <__sfvwrite_r+0x498>
 402c8a4:	10800044 	addi	r2,r2,1
 402c8a8:	1727c83a 	sub	r19,r2,fp
 402c8ac:	02000044 	movi	r8,1
 402c8b0:	003f9d06 	br	402c728 <__alt_data_end+0xfffec728>
 402c8b4:	80800517 	ldw	r2,20(r16)
 402c8b8:	81400417 	ldw	r5,16(r16)
 402c8bc:	81c00017 	ldw	r7,0(r16)
 402c8c0:	10a7883a 	add	r19,r2,r2
 402c8c4:	9885883a 	add	r2,r19,r2
 402c8c8:	1026d7fa 	srli	r19,r2,31
 402c8cc:	396dc83a 	sub	r22,r7,r5
 402c8d0:	b1000044 	addi	r4,r22,1
 402c8d4:	9885883a 	add	r2,r19,r2
 402c8d8:	1027d07a 	srai	r19,r2,1
 402c8dc:	2485883a 	add	r2,r4,r18
 402c8e0:	980d883a 	mov	r6,r19
 402c8e4:	9880022e 	bgeu	r19,r2,402c8f0 <__sfvwrite_r+0x3ec>
 402c8e8:	1027883a 	mov	r19,r2
 402c8ec:	100d883a 	mov	r6,r2
 402c8f0:	18c1000c 	andi	r3,r3,1024
 402c8f4:	18001c26 	beq	r3,zero,402c968 <__sfvwrite_r+0x464>
 402c8f8:	300b883a 	mov	r5,r6
 402c8fc:	a809883a 	mov	r4,r21
 402c900:	4028ce80 	call	4028ce8 <_malloc_r>
 402c904:	102f883a 	mov	r23,r2
 402c908:	10002926 	beq	r2,zero,402c9b0 <__sfvwrite_r+0x4ac>
 402c90c:	81400417 	ldw	r5,16(r16)
 402c910:	b00d883a 	mov	r6,r22
 402c914:	1009883a 	mov	r4,r2
 402c918:	40239fc0 	call	40239fc <memcpy>
 402c91c:	8080030b 	ldhu	r2,12(r16)
 402c920:	00fedfc4 	movi	r3,-1153
 402c924:	10c4703a 	and	r2,r2,r3
 402c928:	10802014 	ori	r2,r2,128
 402c92c:	8080030d 	sth	r2,12(r16)
 402c930:	bd89883a 	add	r4,r23,r22
 402c934:	9d8fc83a 	sub	r7,r19,r22
 402c938:	85c00415 	stw	r23,16(r16)
 402c93c:	84c00515 	stw	r19,20(r16)
 402c940:	81000015 	stw	r4,0(r16)
 402c944:	9027883a 	mov	r19,r18
 402c948:	81c00215 	stw	r7,8(r16)
 402c94c:	902f883a 	mov	r23,r18
 402c950:	003f3b06 	br	402c640 <__alt_data_end+0xfffec640>
 402c954:	800b883a 	mov	r5,r16
 402c958:	a809883a 	mov	r4,r21
 402c95c:	40280680 	call	4028068 <_fflush_r>
 402c960:	103fb926 	beq	r2,zero,402c848 <__alt_data_end+0xfffec848>
 402c964:	003f6506 	br	402c6fc <__alt_data_end+0xfffec6fc>
 402c968:	a809883a 	mov	r4,r21
 402c96c:	402cc300 	call	402cc30 <_realloc_r>
 402c970:	102f883a 	mov	r23,r2
 402c974:	103fee1e 	bne	r2,zero,402c930 <__alt_data_end+0xfffec930>
 402c978:	81400417 	ldw	r5,16(r16)
 402c97c:	a809883a 	mov	r4,r21
 402c980:	40285b80 	call	40285b8 <_free_r>
 402c984:	8080030b 	ldhu	r2,12(r16)
 402c988:	00ffdfc4 	movi	r3,-129
 402c98c:	1884703a 	and	r2,r3,r2
 402c990:	00c00304 	movi	r3,12
 402c994:	a8c00015 	stw	r3,0(r21)
 402c998:	003f5906 	br	402c700 <__alt_data_end+0xfffec700>
 402c99c:	94c00044 	addi	r19,r18,1
 402c9a0:	02000044 	movi	r8,1
 402c9a4:	003f6006 	br	402c728 <__alt_data_end+0xfffec728>
 402c9a8:	00bfffc4 	movi	r2,-1
 402c9ac:	003f0306 	br	402c5bc <__alt_data_end+0xfffec5bc>
 402c9b0:	00800304 	movi	r2,12
 402c9b4:	a8800015 	stw	r2,0(r21)
 402c9b8:	8080030b 	ldhu	r2,12(r16)
 402c9bc:	003f5006 	br	402c700 <__alt_data_end+0xfffec700>

0402c9c0 <_isatty_r>:
 402c9c0:	defffd04 	addi	sp,sp,-12
 402c9c4:	dc000015 	stw	r16,0(sp)
 402c9c8:	040100f4 	movhi	r16,1027
 402c9cc:	dc400115 	stw	r17,4(sp)
 402c9d0:	84132704 	addi	r16,r16,19612
 402c9d4:	2023883a 	mov	r17,r4
 402c9d8:	2809883a 	mov	r4,r5
 402c9dc:	dfc00215 	stw	ra,8(sp)
 402c9e0:	80000015 	stw	zero,0(r16)
 402c9e4:	40308140 	call	4030814 <isatty>
 402c9e8:	00ffffc4 	movi	r3,-1
 402c9ec:	10c00526 	beq	r2,r3,402ca04 <_isatty_r+0x44>
 402c9f0:	dfc00217 	ldw	ra,8(sp)
 402c9f4:	dc400117 	ldw	r17,4(sp)
 402c9f8:	dc000017 	ldw	r16,0(sp)
 402c9fc:	dec00304 	addi	sp,sp,12
 402ca00:	f800283a 	ret
 402ca04:	80c00017 	ldw	r3,0(r16)
 402ca08:	183ff926 	beq	r3,zero,402c9f0 <__alt_data_end+0xfffec9f0>
 402ca0c:	88c00015 	stw	r3,0(r17)
 402ca10:	003ff706 	br	402c9f0 <__alt_data_end+0xfffec9f0>

0402ca14 <_lseek_r>:
 402ca14:	defffd04 	addi	sp,sp,-12
 402ca18:	2805883a 	mov	r2,r5
 402ca1c:	dc000015 	stw	r16,0(sp)
 402ca20:	040100f4 	movhi	r16,1027
 402ca24:	dc400115 	stw	r17,4(sp)
 402ca28:	300b883a 	mov	r5,r6
 402ca2c:	84132704 	addi	r16,r16,19612
 402ca30:	2023883a 	mov	r17,r4
 402ca34:	380d883a 	mov	r6,r7
 402ca38:	1009883a 	mov	r4,r2
 402ca3c:	dfc00215 	stw	ra,8(sp)
 402ca40:	80000015 	stw	zero,0(r16)
 402ca44:	40308f40 	call	40308f4 <lseek>
 402ca48:	00ffffc4 	movi	r3,-1
 402ca4c:	10c00526 	beq	r2,r3,402ca64 <_lseek_r+0x50>
 402ca50:	dfc00217 	ldw	ra,8(sp)
 402ca54:	dc400117 	ldw	r17,4(sp)
 402ca58:	dc000017 	ldw	r16,0(sp)
 402ca5c:	dec00304 	addi	sp,sp,12
 402ca60:	f800283a 	ret
 402ca64:	80c00017 	ldw	r3,0(r16)
 402ca68:	183ff926 	beq	r3,zero,402ca50 <__alt_data_end+0xfffeca50>
 402ca6c:	88c00015 	stw	r3,0(r17)
 402ca70:	003ff706 	br	402ca50 <__alt_data_end+0xfffeca50>

0402ca74 <memmove>:
 402ca74:	2005883a 	mov	r2,r4
 402ca78:	29000b2e 	bgeu	r5,r4,402caa8 <memmove+0x34>
 402ca7c:	298f883a 	add	r7,r5,r6
 402ca80:	21c0092e 	bgeu	r4,r7,402caa8 <memmove+0x34>
 402ca84:	2187883a 	add	r3,r4,r6
 402ca88:	198bc83a 	sub	r5,r3,r6
 402ca8c:	30004826 	beq	r6,zero,402cbb0 <memmove+0x13c>
 402ca90:	39ffffc4 	addi	r7,r7,-1
 402ca94:	39000003 	ldbu	r4,0(r7)
 402ca98:	18ffffc4 	addi	r3,r3,-1
 402ca9c:	19000005 	stb	r4,0(r3)
 402caa0:	28fffb1e 	bne	r5,r3,402ca90 <__alt_data_end+0xfffeca90>
 402caa4:	f800283a 	ret
 402caa8:	00c003c4 	movi	r3,15
 402caac:	1980412e 	bgeu	r3,r6,402cbb4 <memmove+0x140>
 402cab0:	2886b03a 	or	r3,r5,r2
 402cab4:	18c000cc 	andi	r3,r3,3
 402cab8:	1800401e 	bne	r3,zero,402cbbc <memmove+0x148>
 402cabc:	33fffc04 	addi	r15,r6,-16
 402cac0:	781ed13a 	srli	r15,r15,4
 402cac4:	28c00104 	addi	r3,r5,4
 402cac8:	13400104 	addi	r13,r2,4
 402cacc:	781c913a 	slli	r14,r15,4
 402cad0:	2b000204 	addi	r12,r5,8
 402cad4:	12c00204 	addi	r11,r2,8
 402cad8:	73800504 	addi	r14,r14,20
 402cadc:	2a800304 	addi	r10,r5,12
 402cae0:	12400304 	addi	r9,r2,12
 402cae4:	2b9d883a 	add	r14,r5,r14
 402cae8:	2811883a 	mov	r8,r5
 402caec:	100f883a 	mov	r7,r2
 402caf0:	41000017 	ldw	r4,0(r8)
 402caf4:	39c00404 	addi	r7,r7,16
 402caf8:	18c00404 	addi	r3,r3,16
 402cafc:	393ffc15 	stw	r4,-16(r7)
 402cb00:	193ffc17 	ldw	r4,-16(r3)
 402cb04:	6b400404 	addi	r13,r13,16
 402cb08:	5ac00404 	addi	r11,r11,16
 402cb0c:	693ffc15 	stw	r4,-16(r13)
 402cb10:	61000017 	ldw	r4,0(r12)
 402cb14:	4a400404 	addi	r9,r9,16
 402cb18:	42000404 	addi	r8,r8,16
 402cb1c:	593ffc15 	stw	r4,-16(r11)
 402cb20:	51000017 	ldw	r4,0(r10)
 402cb24:	63000404 	addi	r12,r12,16
 402cb28:	52800404 	addi	r10,r10,16
 402cb2c:	493ffc15 	stw	r4,-16(r9)
 402cb30:	1bbfef1e 	bne	r3,r14,402caf0 <__alt_data_end+0xfffecaf0>
 402cb34:	79000044 	addi	r4,r15,1
 402cb38:	2008913a 	slli	r4,r4,4
 402cb3c:	328003cc 	andi	r10,r6,15
 402cb40:	02c000c4 	movi	r11,3
 402cb44:	1107883a 	add	r3,r2,r4
 402cb48:	290b883a 	add	r5,r5,r4
 402cb4c:	5a801e2e 	bgeu	r11,r10,402cbc8 <memmove+0x154>
 402cb50:	1813883a 	mov	r9,r3
 402cb54:	2811883a 	mov	r8,r5
 402cb58:	500f883a 	mov	r7,r10
 402cb5c:	41000017 	ldw	r4,0(r8)
 402cb60:	4a400104 	addi	r9,r9,4
 402cb64:	39ffff04 	addi	r7,r7,-4
 402cb68:	493fff15 	stw	r4,-4(r9)
 402cb6c:	42000104 	addi	r8,r8,4
 402cb70:	59fffa36 	bltu	r11,r7,402cb5c <__alt_data_end+0xfffecb5c>
 402cb74:	513fff04 	addi	r4,r10,-4
 402cb78:	2008d0ba 	srli	r4,r4,2
 402cb7c:	318000cc 	andi	r6,r6,3
 402cb80:	21000044 	addi	r4,r4,1
 402cb84:	2109883a 	add	r4,r4,r4
 402cb88:	2109883a 	add	r4,r4,r4
 402cb8c:	1907883a 	add	r3,r3,r4
 402cb90:	290b883a 	add	r5,r5,r4
 402cb94:	30000b26 	beq	r6,zero,402cbc4 <memmove+0x150>
 402cb98:	198d883a 	add	r6,r3,r6
 402cb9c:	29c00003 	ldbu	r7,0(r5)
 402cba0:	18c00044 	addi	r3,r3,1
 402cba4:	29400044 	addi	r5,r5,1
 402cba8:	19ffffc5 	stb	r7,-1(r3)
 402cbac:	19bffb1e 	bne	r3,r6,402cb9c <__alt_data_end+0xfffecb9c>
 402cbb0:	f800283a 	ret
 402cbb4:	1007883a 	mov	r3,r2
 402cbb8:	003ff606 	br	402cb94 <__alt_data_end+0xfffecb94>
 402cbbc:	1007883a 	mov	r3,r2
 402cbc0:	003ff506 	br	402cb98 <__alt_data_end+0xfffecb98>
 402cbc4:	f800283a 	ret
 402cbc8:	500d883a 	mov	r6,r10
 402cbcc:	003ff106 	br	402cb94 <__alt_data_end+0xfffecb94>

0402cbd0 <_read_r>:
 402cbd0:	defffd04 	addi	sp,sp,-12
 402cbd4:	2805883a 	mov	r2,r5
 402cbd8:	dc000015 	stw	r16,0(sp)
 402cbdc:	040100f4 	movhi	r16,1027
 402cbe0:	dc400115 	stw	r17,4(sp)
 402cbe4:	300b883a 	mov	r5,r6
 402cbe8:	84132704 	addi	r16,r16,19612
 402cbec:	2023883a 	mov	r17,r4
 402cbf0:	380d883a 	mov	r6,r7
 402cbf4:	1009883a 	mov	r4,r2
 402cbf8:	dfc00215 	stw	ra,8(sp)
 402cbfc:	80000015 	stw	zero,0(r16)
 402cc00:	4030a4c0 	call	4030a4c <read>
 402cc04:	00ffffc4 	movi	r3,-1
 402cc08:	10c00526 	beq	r2,r3,402cc20 <_read_r+0x50>
 402cc0c:	dfc00217 	ldw	ra,8(sp)
 402cc10:	dc400117 	ldw	r17,4(sp)
 402cc14:	dc000017 	ldw	r16,0(sp)
 402cc18:	dec00304 	addi	sp,sp,12
 402cc1c:	f800283a 	ret
 402cc20:	80c00017 	ldw	r3,0(r16)
 402cc24:	183ff926 	beq	r3,zero,402cc0c <__alt_data_end+0xfffecc0c>
 402cc28:	88c00015 	stw	r3,0(r17)
 402cc2c:	003ff706 	br	402cc0c <__alt_data_end+0xfffecc0c>

0402cc30 <_realloc_r>:
 402cc30:	defff604 	addi	sp,sp,-40
 402cc34:	dc800215 	stw	r18,8(sp)
 402cc38:	dfc00915 	stw	ra,36(sp)
 402cc3c:	df000815 	stw	fp,32(sp)
 402cc40:	ddc00715 	stw	r23,28(sp)
 402cc44:	dd800615 	stw	r22,24(sp)
 402cc48:	dd400515 	stw	r21,20(sp)
 402cc4c:	dd000415 	stw	r20,16(sp)
 402cc50:	dcc00315 	stw	r19,12(sp)
 402cc54:	dc400115 	stw	r17,4(sp)
 402cc58:	dc000015 	stw	r16,0(sp)
 402cc5c:	3025883a 	mov	r18,r6
 402cc60:	2800b726 	beq	r5,zero,402cf40 <_realloc_r+0x310>
 402cc64:	282b883a 	mov	r21,r5
 402cc68:	2029883a 	mov	r20,r4
 402cc6c:	40309c80 	call	40309c8 <__malloc_lock>
 402cc70:	a8bfff17 	ldw	r2,-4(r21)
 402cc74:	043fff04 	movi	r16,-4
 402cc78:	90c002c4 	addi	r3,r18,11
 402cc7c:	01000584 	movi	r4,22
 402cc80:	acfffe04 	addi	r19,r21,-8
 402cc84:	1420703a 	and	r16,r2,r16
 402cc88:	20c0332e 	bgeu	r4,r3,402cd58 <_realloc_r+0x128>
 402cc8c:	047ffe04 	movi	r17,-8
 402cc90:	1c62703a 	and	r17,r3,r17
 402cc94:	8807883a 	mov	r3,r17
 402cc98:	88005816 	blt	r17,zero,402cdfc <_realloc_r+0x1cc>
 402cc9c:	8c805736 	bltu	r17,r18,402cdfc <_realloc_r+0x1cc>
 402cca0:	80c0300e 	bge	r16,r3,402cd64 <_realloc_r+0x134>
 402cca4:	070100f4 	movhi	fp,1027
 402cca8:	e70b1004 	addi	fp,fp,11328
 402ccac:	e1c00217 	ldw	r7,8(fp)
 402ccb0:	9c09883a 	add	r4,r19,r16
 402ccb4:	22000117 	ldw	r8,4(r4)
 402ccb8:	21c06326 	beq	r4,r7,402ce48 <_realloc_r+0x218>
 402ccbc:	017fff84 	movi	r5,-2
 402ccc0:	414a703a 	and	r5,r8,r5
 402ccc4:	214b883a 	add	r5,r4,r5
 402ccc8:	29800117 	ldw	r6,4(r5)
 402cccc:	3180004c 	andi	r6,r6,1
 402ccd0:	30003f26 	beq	r6,zero,402cdd0 <_realloc_r+0x1a0>
 402ccd4:	1080004c 	andi	r2,r2,1
 402ccd8:	10008326 	beq	r2,zero,402cee8 <_realloc_r+0x2b8>
 402ccdc:	900b883a 	mov	r5,r18
 402cce0:	a009883a 	mov	r4,r20
 402cce4:	4028ce80 	call	4028ce8 <_malloc_r>
 402cce8:	1025883a 	mov	r18,r2
 402ccec:	10011e26 	beq	r2,zero,402d168 <_realloc_r+0x538>
 402ccf0:	a93fff17 	ldw	r4,-4(r21)
 402ccf4:	10fffe04 	addi	r3,r2,-8
 402ccf8:	00bfff84 	movi	r2,-2
 402ccfc:	2084703a 	and	r2,r4,r2
 402cd00:	9885883a 	add	r2,r19,r2
 402cd04:	1880ee26 	beq	r3,r2,402d0c0 <_realloc_r+0x490>
 402cd08:	81bfff04 	addi	r6,r16,-4
 402cd0c:	00800904 	movi	r2,36
 402cd10:	1180b836 	bltu	r2,r6,402cff4 <_realloc_r+0x3c4>
 402cd14:	00c004c4 	movi	r3,19
 402cd18:	19809636 	bltu	r3,r6,402cf74 <_realloc_r+0x344>
 402cd1c:	9005883a 	mov	r2,r18
 402cd20:	a807883a 	mov	r3,r21
 402cd24:	19000017 	ldw	r4,0(r3)
 402cd28:	11000015 	stw	r4,0(r2)
 402cd2c:	19000117 	ldw	r4,4(r3)
 402cd30:	11000115 	stw	r4,4(r2)
 402cd34:	18c00217 	ldw	r3,8(r3)
 402cd38:	10c00215 	stw	r3,8(r2)
 402cd3c:	a80b883a 	mov	r5,r21
 402cd40:	a009883a 	mov	r4,r20
 402cd44:	40285b80 	call	40285b8 <_free_r>
 402cd48:	a009883a 	mov	r4,r20
 402cd4c:	40309ec0 	call	40309ec <__malloc_unlock>
 402cd50:	9005883a 	mov	r2,r18
 402cd54:	00001206 	br	402cda0 <_realloc_r+0x170>
 402cd58:	00c00404 	movi	r3,16
 402cd5c:	1823883a 	mov	r17,r3
 402cd60:	003fce06 	br	402cc9c <__alt_data_end+0xfffecc9c>
 402cd64:	a825883a 	mov	r18,r21
 402cd68:	8445c83a 	sub	r2,r16,r17
 402cd6c:	00c003c4 	movi	r3,15
 402cd70:	18802636 	bltu	r3,r2,402ce0c <_realloc_r+0x1dc>
 402cd74:	99800117 	ldw	r6,4(r19)
 402cd78:	9c07883a 	add	r3,r19,r16
 402cd7c:	3180004c 	andi	r6,r6,1
 402cd80:	3420b03a 	or	r16,r6,r16
 402cd84:	9c000115 	stw	r16,4(r19)
 402cd88:	18800117 	ldw	r2,4(r3)
 402cd8c:	10800054 	ori	r2,r2,1
 402cd90:	18800115 	stw	r2,4(r3)
 402cd94:	a009883a 	mov	r4,r20
 402cd98:	40309ec0 	call	40309ec <__malloc_unlock>
 402cd9c:	9005883a 	mov	r2,r18
 402cda0:	dfc00917 	ldw	ra,36(sp)
 402cda4:	df000817 	ldw	fp,32(sp)
 402cda8:	ddc00717 	ldw	r23,28(sp)
 402cdac:	dd800617 	ldw	r22,24(sp)
 402cdb0:	dd400517 	ldw	r21,20(sp)
 402cdb4:	dd000417 	ldw	r20,16(sp)
 402cdb8:	dcc00317 	ldw	r19,12(sp)
 402cdbc:	dc800217 	ldw	r18,8(sp)
 402cdc0:	dc400117 	ldw	r17,4(sp)
 402cdc4:	dc000017 	ldw	r16,0(sp)
 402cdc8:	dec00a04 	addi	sp,sp,40
 402cdcc:	f800283a 	ret
 402cdd0:	017fff04 	movi	r5,-4
 402cdd4:	414a703a 	and	r5,r8,r5
 402cdd8:	814d883a 	add	r6,r16,r5
 402cddc:	30c01f16 	blt	r6,r3,402ce5c <_realloc_r+0x22c>
 402cde0:	20800317 	ldw	r2,12(r4)
 402cde4:	20c00217 	ldw	r3,8(r4)
 402cde8:	a825883a 	mov	r18,r21
 402cdec:	3021883a 	mov	r16,r6
 402cdf0:	18800315 	stw	r2,12(r3)
 402cdf4:	10c00215 	stw	r3,8(r2)
 402cdf8:	003fdb06 	br	402cd68 <__alt_data_end+0xfffecd68>
 402cdfc:	00800304 	movi	r2,12
 402ce00:	a0800015 	stw	r2,0(r20)
 402ce04:	0005883a 	mov	r2,zero
 402ce08:	003fe506 	br	402cda0 <__alt_data_end+0xfffecda0>
 402ce0c:	98c00117 	ldw	r3,4(r19)
 402ce10:	9c4b883a 	add	r5,r19,r17
 402ce14:	11000054 	ori	r4,r2,1
 402ce18:	18c0004c 	andi	r3,r3,1
 402ce1c:	1c62b03a 	or	r17,r3,r17
 402ce20:	9c400115 	stw	r17,4(r19)
 402ce24:	29000115 	stw	r4,4(r5)
 402ce28:	2885883a 	add	r2,r5,r2
 402ce2c:	10c00117 	ldw	r3,4(r2)
 402ce30:	29400204 	addi	r5,r5,8
 402ce34:	a009883a 	mov	r4,r20
 402ce38:	18c00054 	ori	r3,r3,1
 402ce3c:	10c00115 	stw	r3,4(r2)
 402ce40:	40285b80 	call	40285b8 <_free_r>
 402ce44:	003fd306 	br	402cd94 <__alt_data_end+0xfffecd94>
 402ce48:	017fff04 	movi	r5,-4
 402ce4c:	414a703a 	and	r5,r8,r5
 402ce50:	89800404 	addi	r6,r17,16
 402ce54:	8151883a 	add	r8,r16,r5
 402ce58:	4180590e 	bge	r8,r6,402cfc0 <_realloc_r+0x390>
 402ce5c:	1080004c 	andi	r2,r2,1
 402ce60:	103f9e1e 	bne	r2,zero,402ccdc <__alt_data_end+0xfffeccdc>
 402ce64:	adbffe17 	ldw	r22,-8(r21)
 402ce68:	00bfff04 	movi	r2,-4
 402ce6c:	9dadc83a 	sub	r22,r19,r22
 402ce70:	b1800117 	ldw	r6,4(r22)
 402ce74:	3084703a 	and	r2,r6,r2
 402ce78:	20002026 	beq	r4,zero,402cefc <_realloc_r+0x2cc>
 402ce7c:	80af883a 	add	r23,r16,r2
 402ce80:	b96f883a 	add	r23,r23,r5
 402ce84:	21c05f26 	beq	r4,r7,402d004 <_realloc_r+0x3d4>
 402ce88:	b8c01c16 	blt	r23,r3,402cefc <_realloc_r+0x2cc>
 402ce8c:	20800317 	ldw	r2,12(r4)
 402ce90:	20c00217 	ldw	r3,8(r4)
 402ce94:	81bfff04 	addi	r6,r16,-4
 402ce98:	01000904 	movi	r4,36
 402ce9c:	18800315 	stw	r2,12(r3)
 402cea0:	10c00215 	stw	r3,8(r2)
 402cea4:	b0c00217 	ldw	r3,8(r22)
 402cea8:	b0800317 	ldw	r2,12(r22)
 402ceac:	b4800204 	addi	r18,r22,8
 402ceb0:	18800315 	stw	r2,12(r3)
 402ceb4:	10c00215 	stw	r3,8(r2)
 402ceb8:	21801b36 	bltu	r4,r6,402cf28 <_realloc_r+0x2f8>
 402cebc:	008004c4 	movi	r2,19
 402cec0:	1180352e 	bgeu	r2,r6,402cf98 <_realloc_r+0x368>
 402cec4:	a8800017 	ldw	r2,0(r21)
 402cec8:	b0800215 	stw	r2,8(r22)
 402cecc:	a8800117 	ldw	r2,4(r21)
 402ced0:	b0800315 	stw	r2,12(r22)
 402ced4:	008006c4 	movi	r2,27
 402ced8:	11807f36 	bltu	r2,r6,402d0d8 <_realloc_r+0x4a8>
 402cedc:	b0800404 	addi	r2,r22,16
 402cee0:	ad400204 	addi	r21,r21,8
 402cee4:	00002d06 	br	402cf9c <_realloc_r+0x36c>
 402cee8:	adbffe17 	ldw	r22,-8(r21)
 402ceec:	00bfff04 	movi	r2,-4
 402cef0:	9dadc83a 	sub	r22,r19,r22
 402cef4:	b1000117 	ldw	r4,4(r22)
 402cef8:	2084703a 	and	r2,r4,r2
 402cefc:	b03f7726 	beq	r22,zero,402ccdc <__alt_data_end+0xfffeccdc>
 402cf00:	80af883a 	add	r23,r16,r2
 402cf04:	b8ff7516 	blt	r23,r3,402ccdc <__alt_data_end+0xfffeccdc>
 402cf08:	b0800317 	ldw	r2,12(r22)
 402cf0c:	b0c00217 	ldw	r3,8(r22)
 402cf10:	81bfff04 	addi	r6,r16,-4
 402cf14:	01000904 	movi	r4,36
 402cf18:	18800315 	stw	r2,12(r3)
 402cf1c:	10c00215 	stw	r3,8(r2)
 402cf20:	b4800204 	addi	r18,r22,8
 402cf24:	21bfe52e 	bgeu	r4,r6,402cebc <__alt_data_end+0xfffecebc>
 402cf28:	a80b883a 	mov	r5,r21
 402cf2c:	9009883a 	mov	r4,r18
 402cf30:	402ca740 	call	402ca74 <memmove>
 402cf34:	b821883a 	mov	r16,r23
 402cf38:	b027883a 	mov	r19,r22
 402cf3c:	003f8a06 	br	402cd68 <__alt_data_end+0xfffecd68>
 402cf40:	300b883a 	mov	r5,r6
 402cf44:	dfc00917 	ldw	ra,36(sp)
 402cf48:	df000817 	ldw	fp,32(sp)
 402cf4c:	ddc00717 	ldw	r23,28(sp)
 402cf50:	dd800617 	ldw	r22,24(sp)
 402cf54:	dd400517 	ldw	r21,20(sp)
 402cf58:	dd000417 	ldw	r20,16(sp)
 402cf5c:	dcc00317 	ldw	r19,12(sp)
 402cf60:	dc800217 	ldw	r18,8(sp)
 402cf64:	dc400117 	ldw	r17,4(sp)
 402cf68:	dc000017 	ldw	r16,0(sp)
 402cf6c:	dec00a04 	addi	sp,sp,40
 402cf70:	4028ce81 	jmpi	4028ce8 <_malloc_r>
 402cf74:	a8c00017 	ldw	r3,0(r21)
 402cf78:	90c00015 	stw	r3,0(r18)
 402cf7c:	a8c00117 	ldw	r3,4(r21)
 402cf80:	90c00115 	stw	r3,4(r18)
 402cf84:	00c006c4 	movi	r3,27
 402cf88:	19804536 	bltu	r3,r6,402d0a0 <_realloc_r+0x470>
 402cf8c:	90800204 	addi	r2,r18,8
 402cf90:	a8c00204 	addi	r3,r21,8
 402cf94:	003f6306 	br	402cd24 <__alt_data_end+0xfffecd24>
 402cf98:	9005883a 	mov	r2,r18
 402cf9c:	a8c00017 	ldw	r3,0(r21)
 402cfa0:	b821883a 	mov	r16,r23
 402cfa4:	b027883a 	mov	r19,r22
 402cfa8:	10c00015 	stw	r3,0(r2)
 402cfac:	a8c00117 	ldw	r3,4(r21)
 402cfb0:	10c00115 	stw	r3,4(r2)
 402cfb4:	a8c00217 	ldw	r3,8(r21)
 402cfb8:	10c00215 	stw	r3,8(r2)
 402cfbc:	003f6a06 	br	402cd68 <__alt_data_end+0xfffecd68>
 402cfc0:	9c67883a 	add	r19,r19,r17
 402cfc4:	4445c83a 	sub	r2,r8,r17
 402cfc8:	e4c00215 	stw	r19,8(fp)
 402cfcc:	10800054 	ori	r2,r2,1
 402cfd0:	98800115 	stw	r2,4(r19)
 402cfd4:	a8bfff17 	ldw	r2,-4(r21)
 402cfd8:	a009883a 	mov	r4,r20
 402cfdc:	1080004c 	andi	r2,r2,1
 402cfe0:	1462b03a 	or	r17,r2,r17
 402cfe4:	ac7fff15 	stw	r17,-4(r21)
 402cfe8:	40309ec0 	call	40309ec <__malloc_unlock>
 402cfec:	a805883a 	mov	r2,r21
 402cff0:	003f6b06 	br	402cda0 <__alt_data_end+0xfffecda0>
 402cff4:	a80b883a 	mov	r5,r21
 402cff8:	9009883a 	mov	r4,r18
 402cffc:	402ca740 	call	402ca74 <memmove>
 402d000:	003f4e06 	br	402cd3c <__alt_data_end+0xfffecd3c>
 402d004:	89000404 	addi	r4,r17,16
 402d008:	b93fbc16 	blt	r23,r4,402cefc <__alt_data_end+0xfffecefc>
 402d00c:	b0800317 	ldw	r2,12(r22)
 402d010:	b0c00217 	ldw	r3,8(r22)
 402d014:	81bfff04 	addi	r6,r16,-4
 402d018:	01000904 	movi	r4,36
 402d01c:	18800315 	stw	r2,12(r3)
 402d020:	10c00215 	stw	r3,8(r2)
 402d024:	b4800204 	addi	r18,r22,8
 402d028:	21804336 	bltu	r4,r6,402d138 <_realloc_r+0x508>
 402d02c:	008004c4 	movi	r2,19
 402d030:	11803f2e 	bgeu	r2,r6,402d130 <_realloc_r+0x500>
 402d034:	a8800017 	ldw	r2,0(r21)
 402d038:	b0800215 	stw	r2,8(r22)
 402d03c:	a8800117 	ldw	r2,4(r21)
 402d040:	b0800315 	stw	r2,12(r22)
 402d044:	008006c4 	movi	r2,27
 402d048:	11803f36 	bltu	r2,r6,402d148 <_realloc_r+0x518>
 402d04c:	b0800404 	addi	r2,r22,16
 402d050:	ad400204 	addi	r21,r21,8
 402d054:	a8c00017 	ldw	r3,0(r21)
 402d058:	10c00015 	stw	r3,0(r2)
 402d05c:	a8c00117 	ldw	r3,4(r21)
 402d060:	10c00115 	stw	r3,4(r2)
 402d064:	a8c00217 	ldw	r3,8(r21)
 402d068:	10c00215 	stw	r3,8(r2)
 402d06c:	b447883a 	add	r3,r22,r17
 402d070:	bc45c83a 	sub	r2,r23,r17
 402d074:	e0c00215 	stw	r3,8(fp)
 402d078:	10800054 	ori	r2,r2,1
 402d07c:	18800115 	stw	r2,4(r3)
 402d080:	b0800117 	ldw	r2,4(r22)
 402d084:	a009883a 	mov	r4,r20
 402d088:	1080004c 	andi	r2,r2,1
 402d08c:	1462b03a 	or	r17,r2,r17
 402d090:	b4400115 	stw	r17,4(r22)
 402d094:	40309ec0 	call	40309ec <__malloc_unlock>
 402d098:	9005883a 	mov	r2,r18
 402d09c:	003f4006 	br	402cda0 <__alt_data_end+0xfffecda0>
 402d0a0:	a8c00217 	ldw	r3,8(r21)
 402d0a4:	90c00215 	stw	r3,8(r18)
 402d0a8:	a8c00317 	ldw	r3,12(r21)
 402d0ac:	90c00315 	stw	r3,12(r18)
 402d0b0:	30801126 	beq	r6,r2,402d0f8 <_realloc_r+0x4c8>
 402d0b4:	90800404 	addi	r2,r18,16
 402d0b8:	a8c00404 	addi	r3,r21,16
 402d0bc:	003f1906 	br	402cd24 <__alt_data_end+0xfffecd24>
 402d0c0:	90ffff17 	ldw	r3,-4(r18)
 402d0c4:	00bfff04 	movi	r2,-4
 402d0c8:	a825883a 	mov	r18,r21
 402d0cc:	1884703a 	and	r2,r3,r2
 402d0d0:	80a1883a 	add	r16,r16,r2
 402d0d4:	003f2406 	br	402cd68 <__alt_data_end+0xfffecd68>
 402d0d8:	a8800217 	ldw	r2,8(r21)
 402d0dc:	b0800415 	stw	r2,16(r22)
 402d0e0:	a8800317 	ldw	r2,12(r21)
 402d0e4:	b0800515 	stw	r2,20(r22)
 402d0e8:	31000a26 	beq	r6,r4,402d114 <_realloc_r+0x4e4>
 402d0ec:	b0800604 	addi	r2,r22,24
 402d0f0:	ad400404 	addi	r21,r21,16
 402d0f4:	003fa906 	br	402cf9c <__alt_data_end+0xfffecf9c>
 402d0f8:	a9000417 	ldw	r4,16(r21)
 402d0fc:	90800604 	addi	r2,r18,24
 402d100:	a8c00604 	addi	r3,r21,24
 402d104:	91000415 	stw	r4,16(r18)
 402d108:	a9000517 	ldw	r4,20(r21)
 402d10c:	91000515 	stw	r4,20(r18)
 402d110:	003f0406 	br	402cd24 <__alt_data_end+0xfffecd24>
 402d114:	a8c00417 	ldw	r3,16(r21)
 402d118:	ad400604 	addi	r21,r21,24
 402d11c:	b0800804 	addi	r2,r22,32
 402d120:	b0c00615 	stw	r3,24(r22)
 402d124:	a8ffff17 	ldw	r3,-4(r21)
 402d128:	b0c00715 	stw	r3,28(r22)
 402d12c:	003f9b06 	br	402cf9c <__alt_data_end+0xfffecf9c>
 402d130:	9005883a 	mov	r2,r18
 402d134:	003fc706 	br	402d054 <__alt_data_end+0xfffed054>
 402d138:	a80b883a 	mov	r5,r21
 402d13c:	9009883a 	mov	r4,r18
 402d140:	402ca740 	call	402ca74 <memmove>
 402d144:	003fc906 	br	402d06c <__alt_data_end+0xfffed06c>
 402d148:	a8800217 	ldw	r2,8(r21)
 402d14c:	b0800415 	stw	r2,16(r22)
 402d150:	a8800317 	ldw	r2,12(r21)
 402d154:	b0800515 	stw	r2,20(r22)
 402d158:	31000726 	beq	r6,r4,402d178 <_realloc_r+0x548>
 402d15c:	b0800604 	addi	r2,r22,24
 402d160:	ad400404 	addi	r21,r21,16
 402d164:	003fbb06 	br	402d054 <__alt_data_end+0xfffed054>
 402d168:	a009883a 	mov	r4,r20
 402d16c:	40309ec0 	call	40309ec <__malloc_unlock>
 402d170:	0005883a 	mov	r2,zero
 402d174:	003f0a06 	br	402cda0 <__alt_data_end+0xfffecda0>
 402d178:	a8c00417 	ldw	r3,16(r21)
 402d17c:	ad400604 	addi	r21,r21,24
 402d180:	b0800804 	addi	r2,r22,32
 402d184:	b0c00615 	stw	r3,24(r22)
 402d188:	a8ffff17 	ldw	r3,-4(r21)
 402d18c:	b0c00715 	stw	r3,28(r22)
 402d190:	003fb006 	br	402d054 <__alt_data_end+0xfffed054>

0402d194 <_wcrtomb_r>:
 402d194:	defff604 	addi	sp,sp,-40
 402d198:	008100f4 	movhi	r2,1027
 402d19c:	dc800815 	stw	r18,32(sp)
 402d1a0:	dc400715 	stw	r17,28(sp)
 402d1a4:	dc000615 	stw	r16,24(sp)
 402d1a8:	108c2204 	addi	r2,r2,12424
 402d1ac:	dfc00915 	stw	ra,36(sp)
 402d1b0:	2021883a 	mov	r16,r4
 402d1b4:	3823883a 	mov	r17,r7
 402d1b8:	14800017 	ldw	r18,0(r2)
 402d1bc:	28001426 	beq	r5,zero,402d210 <_wcrtomb_r+0x7c>
 402d1c0:	d9400415 	stw	r5,16(sp)
 402d1c4:	d9800515 	stw	r6,20(sp)
 402d1c8:	4028acc0 	call	4028acc <__locale_charset>
 402d1cc:	d9800517 	ldw	r6,20(sp)
 402d1d0:	d9400417 	ldw	r5,16(sp)
 402d1d4:	100f883a 	mov	r7,r2
 402d1d8:	dc400015 	stw	r17,0(sp)
 402d1dc:	8009883a 	mov	r4,r16
 402d1e0:	903ee83a 	callr	r18
 402d1e4:	00ffffc4 	movi	r3,-1
 402d1e8:	10c0031e 	bne	r2,r3,402d1f8 <_wcrtomb_r+0x64>
 402d1ec:	88000015 	stw	zero,0(r17)
 402d1f0:	00c02284 	movi	r3,138
 402d1f4:	80c00015 	stw	r3,0(r16)
 402d1f8:	dfc00917 	ldw	ra,36(sp)
 402d1fc:	dc800817 	ldw	r18,32(sp)
 402d200:	dc400717 	ldw	r17,28(sp)
 402d204:	dc000617 	ldw	r16,24(sp)
 402d208:	dec00a04 	addi	sp,sp,40
 402d20c:	f800283a 	ret
 402d210:	4028acc0 	call	4028acc <__locale_charset>
 402d214:	100f883a 	mov	r7,r2
 402d218:	dc400015 	stw	r17,0(sp)
 402d21c:	000d883a 	mov	r6,zero
 402d220:	d9400104 	addi	r5,sp,4
 402d224:	8009883a 	mov	r4,r16
 402d228:	903ee83a 	callr	r18
 402d22c:	003fed06 	br	402d1e4 <__alt_data_end+0xfffed1e4>

0402d230 <wcrtomb>:
 402d230:	defff604 	addi	sp,sp,-40
 402d234:	008100f4 	movhi	r2,1027
 402d238:	dc800615 	stw	r18,24(sp)
 402d23c:	dc400515 	stw	r17,20(sp)
 402d240:	108c1e04 	addi	r2,r2,12408
 402d244:	dfc00915 	stw	ra,36(sp)
 402d248:	dd000815 	stw	r20,32(sp)
 402d24c:	dcc00715 	stw	r19,28(sp)
 402d250:	dc000415 	stw	r16,16(sp)
 402d254:	3025883a 	mov	r18,r6
 402d258:	14400017 	ldw	r17,0(r2)
 402d25c:	20001926 	beq	r4,zero,402d2c4 <wcrtomb+0x94>
 402d260:	008100f4 	movhi	r2,1027
 402d264:	108c2204 	addi	r2,r2,12424
 402d268:	15000017 	ldw	r20,0(r2)
 402d26c:	2021883a 	mov	r16,r4
 402d270:	2827883a 	mov	r19,r5
 402d274:	4028acc0 	call	4028acc <__locale_charset>
 402d278:	100f883a 	mov	r7,r2
 402d27c:	dc800015 	stw	r18,0(sp)
 402d280:	980d883a 	mov	r6,r19
 402d284:	800b883a 	mov	r5,r16
 402d288:	8809883a 	mov	r4,r17
 402d28c:	a03ee83a 	callr	r20
 402d290:	00ffffc4 	movi	r3,-1
 402d294:	10c0031e 	bne	r2,r3,402d2a4 <wcrtomb+0x74>
 402d298:	90000015 	stw	zero,0(r18)
 402d29c:	00c02284 	movi	r3,138
 402d2a0:	88c00015 	stw	r3,0(r17)
 402d2a4:	dfc00917 	ldw	ra,36(sp)
 402d2a8:	dd000817 	ldw	r20,32(sp)
 402d2ac:	dcc00717 	ldw	r19,28(sp)
 402d2b0:	dc800617 	ldw	r18,24(sp)
 402d2b4:	dc400517 	ldw	r17,20(sp)
 402d2b8:	dc000417 	ldw	r16,16(sp)
 402d2bc:	dec00a04 	addi	sp,sp,40
 402d2c0:	f800283a 	ret
 402d2c4:	008100f4 	movhi	r2,1027
 402d2c8:	108c2204 	addi	r2,r2,12424
 402d2cc:	14000017 	ldw	r16,0(r2)
 402d2d0:	4028acc0 	call	4028acc <__locale_charset>
 402d2d4:	100f883a 	mov	r7,r2
 402d2d8:	dc800015 	stw	r18,0(sp)
 402d2dc:	000d883a 	mov	r6,zero
 402d2e0:	d9400104 	addi	r5,sp,4
 402d2e4:	8809883a 	mov	r4,r17
 402d2e8:	803ee83a 	callr	r16
 402d2ec:	003fe806 	br	402d290 <__alt_data_end+0xfffed290>

0402d2f0 <__ascii_wctomb>:
 402d2f0:	28000526 	beq	r5,zero,402d308 <__ascii_wctomb+0x18>
 402d2f4:	00803fc4 	movi	r2,255
 402d2f8:	11800536 	bltu	r2,r6,402d310 <__ascii_wctomb+0x20>
 402d2fc:	29800005 	stb	r6,0(r5)
 402d300:	00800044 	movi	r2,1
 402d304:	f800283a 	ret
 402d308:	0005883a 	mov	r2,zero
 402d30c:	f800283a 	ret
 402d310:	00802284 	movi	r2,138
 402d314:	20800015 	stw	r2,0(r4)
 402d318:	00bfffc4 	movi	r2,-1
 402d31c:	f800283a 	ret

0402d320 <_wctomb_r>:
 402d320:	008100f4 	movhi	r2,1027
 402d324:	defff904 	addi	sp,sp,-28
 402d328:	108c2204 	addi	r2,r2,12424
 402d32c:	dfc00615 	stw	ra,24(sp)
 402d330:	dc400515 	stw	r17,20(sp)
 402d334:	dc000415 	stw	r16,16(sp)
 402d338:	3823883a 	mov	r17,r7
 402d33c:	14000017 	ldw	r16,0(r2)
 402d340:	d9000115 	stw	r4,4(sp)
 402d344:	d9400215 	stw	r5,8(sp)
 402d348:	d9800315 	stw	r6,12(sp)
 402d34c:	4028acc0 	call	4028acc <__locale_charset>
 402d350:	d9800317 	ldw	r6,12(sp)
 402d354:	d9400217 	ldw	r5,8(sp)
 402d358:	d9000117 	ldw	r4,4(sp)
 402d35c:	100f883a 	mov	r7,r2
 402d360:	dc400015 	stw	r17,0(sp)
 402d364:	803ee83a 	callr	r16
 402d368:	dfc00617 	ldw	ra,24(sp)
 402d36c:	dc400517 	ldw	r17,20(sp)
 402d370:	dc000417 	ldw	r16,16(sp)
 402d374:	dec00704 	addi	sp,sp,28
 402d378:	f800283a 	ret

0402d37c <__floatundidf>:
 402d37c:	defffc04 	addi	sp,sp,-16
 402d380:	dc800215 	stw	r18,8(sp)
 402d384:	2025883a 	mov	r18,r4
 402d388:	2809883a 	mov	r4,r5
 402d38c:	dfc00315 	stw	ra,12(sp)
 402d390:	dc400115 	stw	r17,4(sp)
 402d394:	dc000015 	stw	r16,0(sp)
 402d398:	40305ac0 	call	40305ac <__floatunsidf>
 402d39c:	000d883a 	mov	r6,zero
 402d3a0:	01d07c34 	movhi	r7,16880
 402d3a4:	180b883a 	mov	r5,r3
 402d3a8:	1009883a 	mov	r4,r2
 402d3ac:	402f43c0 	call	402f43c <__muldf3>
 402d3b0:	9009883a 	mov	r4,r18
 402d3b4:	1023883a 	mov	r17,r2
 402d3b8:	1821883a 	mov	r16,r3
 402d3bc:	40305ac0 	call	40305ac <__floatunsidf>
 402d3c0:	880d883a 	mov	r6,r17
 402d3c4:	800f883a 	mov	r7,r16
 402d3c8:	1009883a 	mov	r4,r2
 402d3cc:	180b883a 	mov	r5,r3
 402d3d0:	402e0500 	call	402e050 <__adddf3>
 402d3d4:	dfc00317 	ldw	ra,12(sp)
 402d3d8:	dc800217 	ldw	r18,8(sp)
 402d3dc:	dc400117 	ldw	r17,4(sp)
 402d3e0:	dc000017 	ldw	r16,0(sp)
 402d3e4:	dec00404 	addi	sp,sp,16
 402d3e8:	f800283a 	ret

0402d3ec <__udivdi3>:
 402d3ec:	defff504 	addi	sp,sp,-44
 402d3f0:	dcc00415 	stw	r19,16(sp)
 402d3f4:	dc000115 	stw	r16,4(sp)
 402d3f8:	dfc00a15 	stw	ra,40(sp)
 402d3fc:	df000915 	stw	fp,36(sp)
 402d400:	ddc00815 	stw	r23,32(sp)
 402d404:	dd800715 	stw	r22,28(sp)
 402d408:	dd400615 	stw	r21,24(sp)
 402d40c:	dd000515 	stw	r20,20(sp)
 402d410:	dc800315 	stw	r18,12(sp)
 402d414:	dc400215 	stw	r17,8(sp)
 402d418:	2027883a 	mov	r19,r4
 402d41c:	2821883a 	mov	r16,r5
 402d420:	3800411e 	bne	r7,zero,402d528 <__udivdi3+0x13c>
 402d424:	3023883a 	mov	r17,r6
 402d428:	2025883a 	mov	r18,r4
 402d42c:	2980522e 	bgeu	r5,r6,402d578 <__udivdi3+0x18c>
 402d430:	00bfffd4 	movui	r2,65535
 402d434:	282d883a 	mov	r22,r5
 402d438:	1180a836 	bltu	r2,r6,402d6dc <__udivdi3+0x2f0>
 402d43c:	00803fc4 	movi	r2,255
 402d440:	1185803a 	cmpltu	r2,r2,r6
 402d444:	100490fa 	slli	r2,r2,3
 402d448:	3086d83a 	srl	r3,r6,r2
 402d44c:	010100f4 	movhi	r4,1027
 402d450:	2104ed04 	addi	r4,r4,5044
 402d454:	20c7883a 	add	r3,r4,r3
 402d458:	18c00003 	ldbu	r3,0(r3)
 402d45c:	1885883a 	add	r2,r3,r2
 402d460:	00c00804 	movi	r3,32
 402d464:	1887c83a 	sub	r3,r3,r2
 402d468:	18000526 	beq	r3,zero,402d480 <__udivdi3+0x94>
 402d46c:	80e0983a 	sll	r16,r16,r3
 402d470:	9884d83a 	srl	r2,r19,r2
 402d474:	30e2983a 	sll	r17,r6,r3
 402d478:	98e4983a 	sll	r18,r19,r3
 402d47c:	142cb03a 	or	r22,r2,r16
 402d480:	882ad43a 	srli	r21,r17,16
 402d484:	b009883a 	mov	r4,r22
 402d488:	8d3fffcc 	andi	r20,r17,65535
 402d48c:	a80b883a 	mov	r5,r21
 402d490:	402dff80 	call	402dff8 <__umodsi3>
 402d494:	b009883a 	mov	r4,r22
 402d498:	a80b883a 	mov	r5,r21
 402d49c:	1027883a 	mov	r19,r2
 402d4a0:	402df940 	call	402df94 <__udivsi3>
 402d4a4:	102d883a 	mov	r22,r2
 402d4a8:	9826943a 	slli	r19,r19,16
 402d4ac:	9004d43a 	srli	r2,r18,16
 402d4b0:	a5a1383a 	mul	r16,r20,r22
 402d4b4:	14c4b03a 	or	r2,r2,r19
 402d4b8:	1400052e 	bgeu	r2,r16,402d4d0 <__udivdi3+0xe4>
 402d4bc:	1445883a 	add	r2,r2,r17
 402d4c0:	b0ffffc4 	addi	r3,r22,-1
 402d4c4:	14400136 	bltu	r2,r17,402d4cc <__udivdi3+0xe0>
 402d4c8:	14012336 	bltu	r2,r16,402d958 <__udivdi3+0x56c>
 402d4cc:	182d883a 	mov	r22,r3
 402d4d0:	1421c83a 	sub	r16,r2,r16
 402d4d4:	a80b883a 	mov	r5,r21
 402d4d8:	8009883a 	mov	r4,r16
 402d4dc:	402dff80 	call	402dff8 <__umodsi3>
 402d4e0:	1027883a 	mov	r19,r2
 402d4e4:	a80b883a 	mov	r5,r21
 402d4e8:	8009883a 	mov	r4,r16
 402d4ec:	402df940 	call	402df94 <__udivsi3>
 402d4f0:	9826943a 	slli	r19,r19,16
 402d4f4:	a0a9383a 	mul	r20,r20,r2
 402d4f8:	94bfffcc 	andi	r18,r18,65535
 402d4fc:	94e4b03a 	or	r18,r18,r19
 402d500:	9500052e 	bgeu	r18,r20,402d518 <__udivdi3+0x12c>
 402d504:	8ca5883a 	add	r18,r17,r18
 402d508:	10ffffc4 	addi	r3,r2,-1
 402d50c:	9440f136 	bltu	r18,r17,402d8d4 <__udivdi3+0x4e8>
 402d510:	9500f02e 	bgeu	r18,r20,402d8d4 <__udivdi3+0x4e8>
 402d514:	10bfff84 	addi	r2,r2,-2
 402d518:	b00c943a 	slli	r6,r22,16
 402d51c:	0007883a 	mov	r3,zero
 402d520:	3084b03a 	or	r2,r6,r2
 402d524:	00005906 	br	402d68c <__udivdi3+0x2a0>
 402d528:	29c05636 	bltu	r5,r7,402d684 <__udivdi3+0x298>
 402d52c:	00bfffd4 	movui	r2,65535
 402d530:	11c0622e 	bgeu	r2,r7,402d6bc <__udivdi3+0x2d0>
 402d534:	00804034 	movhi	r2,256
 402d538:	10bfffc4 	addi	r2,r2,-1
 402d53c:	11c0ee36 	bltu	r2,r7,402d8f8 <__udivdi3+0x50c>
 402d540:	00800404 	movi	r2,16
 402d544:	3886d83a 	srl	r3,r7,r2
 402d548:	010100f4 	movhi	r4,1027
 402d54c:	2104ed04 	addi	r4,r4,5044
 402d550:	20c7883a 	add	r3,r4,r3
 402d554:	18c00003 	ldbu	r3,0(r3)
 402d558:	05400804 	movi	r21,32
 402d55c:	1885883a 	add	r2,r3,r2
 402d560:	a8abc83a 	sub	r21,r21,r2
 402d564:	a800621e 	bne	r21,zero,402d6f0 <__udivdi3+0x304>
 402d568:	3c00e936 	bltu	r7,r16,402d910 <__udivdi3+0x524>
 402d56c:	9985403a 	cmpgeu	r2,r19,r6
 402d570:	0007883a 	mov	r3,zero
 402d574:	00004506 	br	402d68c <__udivdi3+0x2a0>
 402d578:	3000041e 	bne	r6,zero,402d58c <__udivdi3+0x1a0>
 402d57c:	000b883a 	mov	r5,zero
 402d580:	01000044 	movi	r4,1
 402d584:	402df940 	call	402df94 <__udivsi3>
 402d588:	1023883a 	mov	r17,r2
 402d58c:	00bfffd4 	movui	r2,65535
 402d590:	14404e2e 	bgeu	r2,r17,402d6cc <__udivdi3+0x2e0>
 402d594:	00804034 	movhi	r2,256
 402d598:	10bfffc4 	addi	r2,r2,-1
 402d59c:	1440d836 	bltu	r2,r17,402d900 <__udivdi3+0x514>
 402d5a0:	00800404 	movi	r2,16
 402d5a4:	8886d83a 	srl	r3,r17,r2
 402d5a8:	010100f4 	movhi	r4,1027
 402d5ac:	2104ed04 	addi	r4,r4,5044
 402d5b0:	20c7883a 	add	r3,r4,r3
 402d5b4:	18c00003 	ldbu	r3,0(r3)
 402d5b8:	1885883a 	add	r2,r3,r2
 402d5bc:	00c00804 	movi	r3,32
 402d5c0:	1887c83a 	sub	r3,r3,r2
 402d5c4:	18008f1e 	bne	r3,zero,402d804 <__udivdi3+0x418>
 402d5c8:	882ad43a 	srli	r21,r17,16
 402d5cc:	8461c83a 	sub	r16,r16,r17
 402d5d0:	8d3fffcc 	andi	r20,r17,65535
 402d5d4:	00c00044 	movi	r3,1
 402d5d8:	8009883a 	mov	r4,r16
 402d5dc:	a80b883a 	mov	r5,r21
 402d5e0:	d8c00015 	stw	r3,0(sp)
 402d5e4:	402dff80 	call	402dff8 <__umodsi3>
 402d5e8:	8009883a 	mov	r4,r16
 402d5ec:	a80b883a 	mov	r5,r21
 402d5f0:	1027883a 	mov	r19,r2
 402d5f4:	402df940 	call	402df94 <__udivsi3>
 402d5f8:	9826943a 	slli	r19,r19,16
 402d5fc:	9008d43a 	srli	r4,r18,16
 402d600:	1521383a 	mul	r16,r2,r20
 402d604:	102d883a 	mov	r22,r2
 402d608:	24c8b03a 	or	r4,r4,r19
 402d60c:	d8c00017 	ldw	r3,0(sp)
 402d610:	2400052e 	bgeu	r4,r16,402d628 <__udivdi3+0x23c>
 402d614:	2449883a 	add	r4,r4,r17
 402d618:	b0bfffc4 	addi	r2,r22,-1
 402d61c:	24400136 	bltu	r4,r17,402d624 <__udivdi3+0x238>
 402d620:	2400ca36 	bltu	r4,r16,402d94c <__udivdi3+0x560>
 402d624:	102d883a 	mov	r22,r2
 402d628:	2421c83a 	sub	r16,r4,r16
 402d62c:	a80b883a 	mov	r5,r21
 402d630:	8009883a 	mov	r4,r16
 402d634:	d8c00015 	stw	r3,0(sp)
 402d638:	402dff80 	call	402dff8 <__umodsi3>
 402d63c:	1027883a 	mov	r19,r2
 402d640:	a80b883a 	mov	r5,r21
 402d644:	8009883a 	mov	r4,r16
 402d648:	402df940 	call	402df94 <__udivsi3>
 402d64c:	9826943a 	slli	r19,r19,16
 402d650:	1529383a 	mul	r20,r2,r20
 402d654:	94bfffcc 	andi	r18,r18,65535
 402d658:	94e4b03a 	or	r18,r18,r19
 402d65c:	d8c00017 	ldw	r3,0(sp)
 402d660:	9500052e 	bgeu	r18,r20,402d678 <__udivdi3+0x28c>
 402d664:	8ca5883a 	add	r18,r17,r18
 402d668:	113fffc4 	addi	r4,r2,-1
 402d66c:	94409736 	bltu	r18,r17,402d8cc <__udivdi3+0x4e0>
 402d670:	9500962e 	bgeu	r18,r20,402d8cc <__udivdi3+0x4e0>
 402d674:	10bfff84 	addi	r2,r2,-2
 402d678:	b00c943a 	slli	r6,r22,16
 402d67c:	3084b03a 	or	r2,r6,r2
 402d680:	00000206 	br	402d68c <__udivdi3+0x2a0>
 402d684:	0007883a 	mov	r3,zero
 402d688:	0005883a 	mov	r2,zero
 402d68c:	dfc00a17 	ldw	ra,40(sp)
 402d690:	df000917 	ldw	fp,36(sp)
 402d694:	ddc00817 	ldw	r23,32(sp)
 402d698:	dd800717 	ldw	r22,28(sp)
 402d69c:	dd400617 	ldw	r21,24(sp)
 402d6a0:	dd000517 	ldw	r20,20(sp)
 402d6a4:	dcc00417 	ldw	r19,16(sp)
 402d6a8:	dc800317 	ldw	r18,12(sp)
 402d6ac:	dc400217 	ldw	r17,8(sp)
 402d6b0:	dc000117 	ldw	r16,4(sp)
 402d6b4:	dec00b04 	addi	sp,sp,44
 402d6b8:	f800283a 	ret
 402d6bc:	00803fc4 	movi	r2,255
 402d6c0:	11c5803a 	cmpltu	r2,r2,r7
 402d6c4:	100490fa 	slli	r2,r2,3
 402d6c8:	003f9e06 	br	402d544 <__alt_data_end+0xfffed544>
 402d6cc:	00803fc4 	movi	r2,255
 402d6d0:	1445803a 	cmpltu	r2,r2,r17
 402d6d4:	100490fa 	slli	r2,r2,3
 402d6d8:	003fb206 	br	402d5a4 <__alt_data_end+0xfffed5a4>
 402d6dc:	00804034 	movhi	r2,256
 402d6e0:	10bfffc4 	addi	r2,r2,-1
 402d6e4:	11808836 	bltu	r2,r6,402d908 <__udivdi3+0x51c>
 402d6e8:	00800404 	movi	r2,16
 402d6ec:	003f5606 	br	402d448 <__alt_data_end+0xfffed448>
 402d6f0:	30aed83a 	srl	r23,r6,r2
 402d6f4:	3d4e983a 	sll	r7,r7,r21
 402d6f8:	80acd83a 	srl	r22,r16,r2
 402d6fc:	9884d83a 	srl	r2,r19,r2
 402d700:	3deeb03a 	or	r23,r7,r23
 402d704:	b824d43a 	srli	r18,r23,16
 402d708:	8560983a 	sll	r16,r16,r21
 402d70c:	b009883a 	mov	r4,r22
 402d710:	900b883a 	mov	r5,r18
 402d714:	3568983a 	sll	r20,r6,r21
 402d718:	1420b03a 	or	r16,r2,r16
 402d71c:	402dff80 	call	402dff8 <__umodsi3>
 402d720:	b009883a 	mov	r4,r22
 402d724:	900b883a 	mov	r5,r18
 402d728:	1023883a 	mov	r17,r2
 402d72c:	402df940 	call	402df94 <__udivsi3>
 402d730:	8808943a 	slli	r4,r17,16
 402d734:	bf3fffcc 	andi	fp,r23,65535
 402d738:	8006d43a 	srli	r3,r16,16
 402d73c:	e0a3383a 	mul	r17,fp,r2
 402d740:	100d883a 	mov	r6,r2
 402d744:	1906b03a 	or	r3,r3,r4
 402d748:	1c40042e 	bgeu	r3,r17,402d75c <__udivdi3+0x370>
 402d74c:	1dc7883a 	add	r3,r3,r23
 402d750:	10bfffc4 	addi	r2,r2,-1
 402d754:	1dc0752e 	bgeu	r3,r23,402d92c <__udivdi3+0x540>
 402d758:	100d883a 	mov	r6,r2
 402d75c:	1c63c83a 	sub	r17,r3,r17
 402d760:	900b883a 	mov	r5,r18
 402d764:	8809883a 	mov	r4,r17
 402d768:	d9800015 	stw	r6,0(sp)
 402d76c:	402dff80 	call	402dff8 <__umodsi3>
 402d770:	102d883a 	mov	r22,r2
 402d774:	8809883a 	mov	r4,r17
 402d778:	900b883a 	mov	r5,r18
 402d77c:	402df940 	call	402df94 <__udivsi3>
 402d780:	b02c943a 	slli	r22,r22,16
 402d784:	e089383a 	mul	r4,fp,r2
 402d788:	843fffcc 	andi	r16,r16,65535
 402d78c:	85a0b03a 	or	r16,r16,r22
 402d790:	d9800017 	ldw	r6,0(sp)
 402d794:	8100042e 	bgeu	r16,r4,402d7a8 <__udivdi3+0x3bc>
 402d798:	85e1883a 	add	r16,r16,r23
 402d79c:	10ffffc4 	addi	r3,r2,-1
 402d7a0:	85c05e2e 	bgeu	r16,r23,402d91c <__udivdi3+0x530>
 402d7a4:	1805883a 	mov	r2,r3
 402d7a8:	300c943a 	slli	r6,r6,16
 402d7ac:	a17fffcc 	andi	r5,r20,65535
 402d7b0:	a028d43a 	srli	r20,r20,16
 402d7b4:	3084b03a 	or	r2,r6,r2
 402d7b8:	10ffffcc 	andi	r3,r2,65535
 402d7bc:	100cd43a 	srli	r6,r2,16
 402d7c0:	194f383a 	mul	r7,r3,r5
 402d7c4:	1d07383a 	mul	r3,r3,r20
 402d7c8:	314b383a 	mul	r5,r6,r5
 402d7cc:	3810d43a 	srli	r8,r7,16
 402d7d0:	8121c83a 	sub	r16,r16,r4
 402d7d4:	1947883a 	add	r3,r3,r5
 402d7d8:	40c7883a 	add	r3,r8,r3
 402d7dc:	350d383a 	mul	r6,r6,r20
 402d7e0:	1940022e 	bgeu	r3,r5,402d7ec <__udivdi3+0x400>
 402d7e4:	01000074 	movhi	r4,1
 402d7e8:	310d883a 	add	r6,r6,r4
 402d7ec:	1828d43a 	srli	r20,r3,16
 402d7f0:	a18d883a 	add	r6,r20,r6
 402d7f4:	81803e36 	bltu	r16,r6,402d8f0 <__udivdi3+0x504>
 402d7f8:	81803826 	beq	r16,r6,402d8dc <__udivdi3+0x4f0>
 402d7fc:	0007883a 	mov	r3,zero
 402d800:	003fa206 	br	402d68c <__alt_data_end+0xfffed68c>
 402d804:	88e2983a 	sll	r17,r17,r3
 402d808:	80a8d83a 	srl	r20,r16,r2
 402d80c:	80e0983a 	sll	r16,r16,r3
 402d810:	882ad43a 	srli	r21,r17,16
 402d814:	9884d83a 	srl	r2,r19,r2
 402d818:	a009883a 	mov	r4,r20
 402d81c:	a80b883a 	mov	r5,r21
 402d820:	142eb03a 	or	r23,r2,r16
 402d824:	98e4983a 	sll	r18,r19,r3
 402d828:	402dff80 	call	402dff8 <__umodsi3>
 402d82c:	a009883a 	mov	r4,r20
 402d830:	a80b883a 	mov	r5,r21
 402d834:	1021883a 	mov	r16,r2
 402d838:	402df940 	call	402df94 <__udivsi3>
 402d83c:	1039883a 	mov	fp,r2
 402d840:	8d3fffcc 	andi	r20,r17,65535
 402d844:	8020943a 	slli	r16,r16,16
 402d848:	b804d43a 	srli	r2,r23,16
 402d84c:	a72d383a 	mul	r22,r20,fp
 402d850:	1404b03a 	or	r2,r2,r16
 402d854:	1580062e 	bgeu	r2,r22,402d870 <__udivdi3+0x484>
 402d858:	1445883a 	add	r2,r2,r17
 402d85c:	e0ffffc4 	addi	r3,fp,-1
 402d860:	14403836 	bltu	r2,r17,402d944 <__udivdi3+0x558>
 402d864:	1580372e 	bgeu	r2,r22,402d944 <__udivdi3+0x558>
 402d868:	e73fff84 	addi	fp,fp,-2
 402d86c:	1445883a 	add	r2,r2,r17
 402d870:	15adc83a 	sub	r22,r2,r22
 402d874:	a80b883a 	mov	r5,r21
 402d878:	b009883a 	mov	r4,r22
 402d87c:	402dff80 	call	402dff8 <__umodsi3>
 402d880:	1027883a 	mov	r19,r2
 402d884:	b009883a 	mov	r4,r22
 402d888:	a80b883a 	mov	r5,r21
 402d88c:	402df940 	call	402df94 <__udivsi3>
 402d890:	9826943a 	slli	r19,r19,16
 402d894:	a0a1383a 	mul	r16,r20,r2
 402d898:	b93fffcc 	andi	r4,r23,65535
 402d89c:	24c8b03a 	or	r4,r4,r19
 402d8a0:	2400062e 	bgeu	r4,r16,402d8bc <__udivdi3+0x4d0>
 402d8a4:	2449883a 	add	r4,r4,r17
 402d8a8:	10ffffc4 	addi	r3,r2,-1
 402d8ac:	24402336 	bltu	r4,r17,402d93c <__udivdi3+0x550>
 402d8b0:	2400222e 	bgeu	r4,r16,402d93c <__udivdi3+0x550>
 402d8b4:	10bfff84 	addi	r2,r2,-2
 402d8b8:	2449883a 	add	r4,r4,r17
 402d8bc:	e038943a 	slli	fp,fp,16
 402d8c0:	2421c83a 	sub	r16,r4,r16
 402d8c4:	e086b03a 	or	r3,fp,r2
 402d8c8:	003f4306 	br	402d5d8 <__alt_data_end+0xfffed5d8>
 402d8cc:	2005883a 	mov	r2,r4
 402d8d0:	003f6906 	br	402d678 <__alt_data_end+0xfffed678>
 402d8d4:	1805883a 	mov	r2,r3
 402d8d8:	003f0f06 	br	402d518 <__alt_data_end+0xfffed518>
 402d8dc:	1806943a 	slli	r3,r3,16
 402d8e0:	9d66983a 	sll	r19,r19,r21
 402d8e4:	39ffffcc 	andi	r7,r7,65535
 402d8e8:	19c7883a 	add	r3,r3,r7
 402d8ec:	98ffc32e 	bgeu	r19,r3,402d7fc <__alt_data_end+0xfffed7fc>
 402d8f0:	10bfffc4 	addi	r2,r2,-1
 402d8f4:	003fc106 	br	402d7fc <__alt_data_end+0xfffed7fc>
 402d8f8:	00800604 	movi	r2,24
 402d8fc:	003f1106 	br	402d544 <__alt_data_end+0xfffed544>
 402d900:	00800604 	movi	r2,24
 402d904:	003f2706 	br	402d5a4 <__alt_data_end+0xfffed5a4>
 402d908:	00800604 	movi	r2,24
 402d90c:	003ece06 	br	402d448 <__alt_data_end+0xfffed448>
 402d910:	0007883a 	mov	r3,zero
 402d914:	00800044 	movi	r2,1
 402d918:	003f5c06 	br	402d68c <__alt_data_end+0xfffed68c>
 402d91c:	813fa12e 	bgeu	r16,r4,402d7a4 <__alt_data_end+0xfffed7a4>
 402d920:	10bfff84 	addi	r2,r2,-2
 402d924:	85e1883a 	add	r16,r16,r23
 402d928:	003f9f06 	br	402d7a8 <__alt_data_end+0xfffed7a8>
 402d92c:	1c7f8a2e 	bgeu	r3,r17,402d758 <__alt_data_end+0xfffed758>
 402d930:	31bfff84 	addi	r6,r6,-2
 402d934:	1dc7883a 	add	r3,r3,r23
 402d938:	003f8806 	br	402d75c <__alt_data_end+0xfffed75c>
 402d93c:	1805883a 	mov	r2,r3
 402d940:	003fde06 	br	402d8bc <__alt_data_end+0xfffed8bc>
 402d944:	1839883a 	mov	fp,r3
 402d948:	003fc906 	br	402d870 <__alt_data_end+0xfffed870>
 402d94c:	b5bfff84 	addi	r22,r22,-2
 402d950:	2449883a 	add	r4,r4,r17
 402d954:	003f3406 	br	402d628 <__alt_data_end+0xfffed628>
 402d958:	b5bfff84 	addi	r22,r22,-2
 402d95c:	1445883a 	add	r2,r2,r17
 402d960:	003edb06 	br	402d4d0 <__alt_data_end+0xfffed4d0>

0402d964 <__umoddi3>:
 402d964:	defff404 	addi	sp,sp,-48
 402d968:	df000a15 	stw	fp,40(sp)
 402d96c:	dc400315 	stw	r17,12(sp)
 402d970:	dc000215 	stw	r16,8(sp)
 402d974:	dfc00b15 	stw	ra,44(sp)
 402d978:	ddc00915 	stw	r23,36(sp)
 402d97c:	dd800815 	stw	r22,32(sp)
 402d980:	dd400715 	stw	r21,28(sp)
 402d984:	dd000615 	stw	r20,24(sp)
 402d988:	dcc00515 	stw	r19,20(sp)
 402d98c:	dc800415 	stw	r18,16(sp)
 402d990:	2021883a 	mov	r16,r4
 402d994:	2823883a 	mov	r17,r5
 402d998:	2839883a 	mov	fp,r5
 402d99c:	38003c1e 	bne	r7,zero,402da90 <__umoddi3+0x12c>
 402d9a0:	3027883a 	mov	r19,r6
 402d9a4:	2029883a 	mov	r20,r4
 402d9a8:	2980512e 	bgeu	r5,r6,402daf0 <__umoddi3+0x18c>
 402d9ac:	00bfffd4 	movui	r2,65535
 402d9b0:	11809a36 	bltu	r2,r6,402dc1c <__umoddi3+0x2b8>
 402d9b4:	01003fc4 	movi	r4,255
 402d9b8:	2189803a 	cmpltu	r4,r4,r6
 402d9bc:	200890fa 	slli	r4,r4,3
 402d9c0:	3104d83a 	srl	r2,r6,r4
 402d9c4:	00c100f4 	movhi	r3,1027
 402d9c8:	18c4ed04 	addi	r3,r3,5044
 402d9cc:	1885883a 	add	r2,r3,r2
 402d9d0:	10c00003 	ldbu	r3,0(r2)
 402d9d4:	00800804 	movi	r2,32
 402d9d8:	1909883a 	add	r4,r3,r4
 402d9dc:	1125c83a 	sub	r18,r2,r4
 402d9e0:	90000526 	beq	r18,zero,402d9f8 <__umoddi3+0x94>
 402d9e4:	8ca2983a 	sll	r17,r17,r18
 402d9e8:	8108d83a 	srl	r4,r16,r4
 402d9ec:	34a6983a 	sll	r19,r6,r18
 402d9f0:	84a8983a 	sll	r20,r16,r18
 402d9f4:	2478b03a 	or	fp,r4,r17
 402d9f8:	982ed43a 	srli	r23,r19,16
 402d9fc:	e009883a 	mov	r4,fp
 402da00:	9dbfffcc 	andi	r22,r19,65535
 402da04:	b80b883a 	mov	r5,r23
 402da08:	402dff80 	call	402dff8 <__umodsi3>
 402da0c:	e009883a 	mov	r4,fp
 402da10:	b80b883a 	mov	r5,r23
 402da14:	102b883a 	mov	r21,r2
 402da18:	402df940 	call	402df94 <__udivsi3>
 402da1c:	a806943a 	slli	r3,r21,16
 402da20:	a008d43a 	srli	r4,r20,16
 402da24:	b085383a 	mul	r2,r22,r2
 402da28:	20c8b03a 	or	r4,r4,r3
 402da2c:	2080032e 	bgeu	r4,r2,402da3c <__umoddi3+0xd8>
 402da30:	24c9883a 	add	r4,r4,r19
 402da34:	24c00136 	bltu	r4,r19,402da3c <__umoddi3+0xd8>
 402da38:	20811036 	bltu	r4,r2,402de7c <__umoddi3+0x518>
 402da3c:	20abc83a 	sub	r21,r4,r2
 402da40:	b80b883a 	mov	r5,r23
 402da44:	a809883a 	mov	r4,r21
 402da48:	402dff80 	call	402dff8 <__umodsi3>
 402da4c:	1023883a 	mov	r17,r2
 402da50:	b80b883a 	mov	r5,r23
 402da54:	a809883a 	mov	r4,r21
 402da58:	402df940 	call	402df94 <__udivsi3>
 402da5c:	8822943a 	slli	r17,r17,16
 402da60:	b085383a 	mul	r2,r22,r2
 402da64:	a0ffffcc 	andi	r3,r20,65535
 402da68:	1c46b03a 	or	r3,r3,r17
 402da6c:	1880042e 	bgeu	r3,r2,402da80 <__umoddi3+0x11c>
 402da70:	1cc7883a 	add	r3,r3,r19
 402da74:	1cc00236 	bltu	r3,r19,402da80 <__umoddi3+0x11c>
 402da78:	1880012e 	bgeu	r3,r2,402da80 <__umoddi3+0x11c>
 402da7c:	1cc7883a 	add	r3,r3,r19
 402da80:	1885c83a 	sub	r2,r3,r2
 402da84:	1484d83a 	srl	r2,r2,r18
 402da88:	0007883a 	mov	r3,zero
 402da8c:	00004f06 	br	402dbcc <__umoddi3+0x268>
 402da90:	29c04c36 	bltu	r5,r7,402dbc4 <__umoddi3+0x260>
 402da94:	00bfffd4 	movui	r2,65535
 402da98:	11c0582e 	bgeu	r2,r7,402dbfc <__umoddi3+0x298>
 402da9c:	00804034 	movhi	r2,256
 402daa0:	10bfffc4 	addi	r2,r2,-1
 402daa4:	11c0e736 	bltu	r2,r7,402de44 <__umoddi3+0x4e0>
 402daa8:	01000404 	movi	r4,16
 402daac:	3904d83a 	srl	r2,r7,r4
 402dab0:	00c100f4 	movhi	r3,1027
 402dab4:	18c4ed04 	addi	r3,r3,5044
 402dab8:	1885883a 	add	r2,r3,r2
 402dabc:	14c00003 	ldbu	r19,0(r2)
 402dac0:	00c00804 	movi	r3,32
 402dac4:	9927883a 	add	r19,r19,r4
 402dac8:	1ce9c83a 	sub	r20,r3,r19
 402dacc:	a000581e 	bne	r20,zero,402dc30 <__umoddi3+0x2cc>
 402dad0:	3c400136 	bltu	r7,r17,402dad8 <__umoddi3+0x174>
 402dad4:	8180eb36 	bltu	r16,r6,402de84 <__umoddi3+0x520>
 402dad8:	8185c83a 	sub	r2,r16,r6
 402dadc:	89e3c83a 	sub	r17,r17,r7
 402dae0:	8089803a 	cmpltu	r4,r16,r2
 402dae4:	8939c83a 	sub	fp,r17,r4
 402dae8:	e007883a 	mov	r3,fp
 402daec:	00003706 	br	402dbcc <__umoddi3+0x268>
 402daf0:	3000041e 	bne	r6,zero,402db04 <__umoddi3+0x1a0>
 402daf4:	000b883a 	mov	r5,zero
 402daf8:	01000044 	movi	r4,1
 402dafc:	402df940 	call	402df94 <__udivsi3>
 402db00:	1027883a 	mov	r19,r2
 402db04:	00bfffd4 	movui	r2,65535
 402db08:	14c0402e 	bgeu	r2,r19,402dc0c <__umoddi3+0x2a8>
 402db0c:	00804034 	movhi	r2,256
 402db10:	10bfffc4 	addi	r2,r2,-1
 402db14:	14c0cd36 	bltu	r2,r19,402de4c <__umoddi3+0x4e8>
 402db18:	00800404 	movi	r2,16
 402db1c:	9886d83a 	srl	r3,r19,r2
 402db20:	010100f4 	movhi	r4,1027
 402db24:	2104ed04 	addi	r4,r4,5044
 402db28:	20c7883a 	add	r3,r4,r3
 402db2c:	18c00003 	ldbu	r3,0(r3)
 402db30:	1887883a 	add	r3,r3,r2
 402db34:	00800804 	movi	r2,32
 402db38:	10e5c83a 	sub	r18,r2,r3
 402db3c:	9000901e 	bne	r18,zero,402dd80 <__umoddi3+0x41c>
 402db40:	982cd43a 	srli	r22,r19,16
 402db44:	8ce3c83a 	sub	r17,r17,r19
 402db48:	9d7fffcc 	andi	r21,r19,65535
 402db4c:	b00b883a 	mov	r5,r22
 402db50:	8809883a 	mov	r4,r17
 402db54:	402dff80 	call	402dff8 <__umodsi3>
 402db58:	8809883a 	mov	r4,r17
 402db5c:	b00b883a 	mov	r5,r22
 402db60:	1021883a 	mov	r16,r2
 402db64:	402df940 	call	402df94 <__udivsi3>
 402db68:	8006943a 	slli	r3,r16,16
 402db6c:	a008d43a 	srli	r4,r20,16
 402db70:	1545383a 	mul	r2,r2,r21
 402db74:	20c8b03a 	or	r4,r4,r3
 402db78:	2080042e 	bgeu	r4,r2,402db8c <__umoddi3+0x228>
 402db7c:	24c9883a 	add	r4,r4,r19
 402db80:	24c00236 	bltu	r4,r19,402db8c <__umoddi3+0x228>
 402db84:	2080012e 	bgeu	r4,r2,402db8c <__umoddi3+0x228>
 402db88:	24c9883a 	add	r4,r4,r19
 402db8c:	20a1c83a 	sub	r16,r4,r2
 402db90:	b00b883a 	mov	r5,r22
 402db94:	8009883a 	mov	r4,r16
 402db98:	402dff80 	call	402dff8 <__umodsi3>
 402db9c:	1023883a 	mov	r17,r2
 402dba0:	b00b883a 	mov	r5,r22
 402dba4:	8009883a 	mov	r4,r16
 402dba8:	402df940 	call	402df94 <__udivsi3>
 402dbac:	8822943a 	slli	r17,r17,16
 402dbb0:	1545383a 	mul	r2,r2,r21
 402dbb4:	a53fffcc 	andi	r20,r20,65535
 402dbb8:	a446b03a 	or	r3,r20,r17
 402dbbc:	18bfb02e 	bgeu	r3,r2,402da80 <__alt_data_end+0xfffeda80>
 402dbc0:	003fab06 	br	402da70 <__alt_data_end+0xfffeda70>
 402dbc4:	2005883a 	mov	r2,r4
 402dbc8:	2807883a 	mov	r3,r5
 402dbcc:	dfc00b17 	ldw	ra,44(sp)
 402dbd0:	df000a17 	ldw	fp,40(sp)
 402dbd4:	ddc00917 	ldw	r23,36(sp)
 402dbd8:	dd800817 	ldw	r22,32(sp)
 402dbdc:	dd400717 	ldw	r21,28(sp)
 402dbe0:	dd000617 	ldw	r20,24(sp)
 402dbe4:	dcc00517 	ldw	r19,20(sp)
 402dbe8:	dc800417 	ldw	r18,16(sp)
 402dbec:	dc400317 	ldw	r17,12(sp)
 402dbf0:	dc000217 	ldw	r16,8(sp)
 402dbf4:	dec00c04 	addi	sp,sp,48
 402dbf8:	f800283a 	ret
 402dbfc:	04c03fc4 	movi	r19,255
 402dc00:	99c9803a 	cmpltu	r4,r19,r7
 402dc04:	200890fa 	slli	r4,r4,3
 402dc08:	003fa806 	br	402daac <__alt_data_end+0xfffedaac>
 402dc0c:	00803fc4 	movi	r2,255
 402dc10:	14c5803a 	cmpltu	r2,r2,r19
 402dc14:	100490fa 	slli	r2,r2,3
 402dc18:	003fc006 	br	402db1c <__alt_data_end+0xfffedb1c>
 402dc1c:	00804034 	movhi	r2,256
 402dc20:	10bfffc4 	addi	r2,r2,-1
 402dc24:	11808b36 	bltu	r2,r6,402de54 <__umoddi3+0x4f0>
 402dc28:	01000404 	movi	r4,16
 402dc2c:	003f6406 	br	402d9c0 <__alt_data_end+0xfffed9c0>
 402dc30:	34c4d83a 	srl	r2,r6,r19
 402dc34:	3d0e983a 	sll	r7,r7,r20
 402dc38:	8cf8d83a 	srl	fp,r17,r19
 402dc3c:	8d10983a 	sll	r8,r17,r20
 402dc40:	38aab03a 	or	r21,r7,r2
 402dc44:	a82cd43a 	srli	r22,r21,16
 402dc48:	84e2d83a 	srl	r17,r16,r19
 402dc4c:	e009883a 	mov	r4,fp
 402dc50:	b00b883a 	mov	r5,r22
 402dc54:	8a22b03a 	or	r17,r17,r8
 402dc58:	3524983a 	sll	r18,r6,r20
 402dc5c:	402dff80 	call	402dff8 <__umodsi3>
 402dc60:	e009883a 	mov	r4,fp
 402dc64:	b00b883a 	mov	r5,r22
 402dc68:	102f883a 	mov	r23,r2
 402dc6c:	402df940 	call	402df94 <__udivsi3>
 402dc70:	100d883a 	mov	r6,r2
 402dc74:	b808943a 	slli	r4,r23,16
 402dc78:	aa3fffcc 	andi	r8,r21,65535
 402dc7c:	8804d43a 	srli	r2,r17,16
 402dc80:	41af383a 	mul	r23,r8,r6
 402dc84:	8520983a 	sll	r16,r16,r20
 402dc88:	1104b03a 	or	r2,r2,r4
 402dc8c:	15c0042e 	bgeu	r2,r23,402dca0 <__umoddi3+0x33c>
 402dc90:	1545883a 	add	r2,r2,r21
 402dc94:	30ffffc4 	addi	r3,r6,-1
 402dc98:	1540742e 	bgeu	r2,r21,402de6c <__umoddi3+0x508>
 402dc9c:	180d883a 	mov	r6,r3
 402dca0:	15efc83a 	sub	r23,r2,r23
 402dca4:	b00b883a 	mov	r5,r22
 402dca8:	b809883a 	mov	r4,r23
 402dcac:	d9800115 	stw	r6,4(sp)
 402dcb0:	da000015 	stw	r8,0(sp)
 402dcb4:	402dff80 	call	402dff8 <__umodsi3>
 402dcb8:	b00b883a 	mov	r5,r22
 402dcbc:	b809883a 	mov	r4,r23
 402dcc0:	1039883a 	mov	fp,r2
 402dcc4:	402df940 	call	402df94 <__udivsi3>
 402dcc8:	da000017 	ldw	r8,0(sp)
 402dccc:	e038943a 	slli	fp,fp,16
 402dcd0:	100b883a 	mov	r5,r2
 402dcd4:	4089383a 	mul	r4,r8,r2
 402dcd8:	8a3fffcc 	andi	r8,r17,65535
 402dcdc:	4710b03a 	or	r8,r8,fp
 402dce0:	d9800117 	ldw	r6,4(sp)
 402dce4:	4100042e 	bgeu	r8,r4,402dcf8 <__umoddi3+0x394>
 402dce8:	4551883a 	add	r8,r8,r21
 402dcec:	10bfffc4 	addi	r2,r2,-1
 402dcf0:	45405a2e 	bgeu	r8,r21,402de5c <__umoddi3+0x4f8>
 402dcf4:	100b883a 	mov	r5,r2
 402dcf8:	300c943a 	slli	r6,r6,16
 402dcfc:	91ffffcc 	andi	r7,r18,65535
 402dd00:	9004d43a 	srli	r2,r18,16
 402dd04:	314cb03a 	or	r6,r6,r5
 402dd08:	317fffcc 	andi	r5,r6,65535
 402dd0c:	300cd43a 	srli	r6,r6,16
 402dd10:	29d3383a 	mul	r9,r5,r7
 402dd14:	288b383a 	mul	r5,r5,r2
 402dd18:	31cf383a 	mul	r7,r6,r7
 402dd1c:	4806d43a 	srli	r3,r9,16
 402dd20:	4111c83a 	sub	r8,r8,r4
 402dd24:	29cb883a 	add	r5,r5,r7
 402dd28:	194b883a 	add	r5,r3,r5
 402dd2c:	3085383a 	mul	r2,r6,r2
 402dd30:	29c0022e 	bgeu	r5,r7,402dd3c <__umoddi3+0x3d8>
 402dd34:	00c00074 	movhi	r3,1
 402dd38:	10c5883a 	add	r2,r2,r3
 402dd3c:	2808d43a 	srli	r4,r5,16
 402dd40:	280a943a 	slli	r5,r5,16
 402dd44:	4a7fffcc 	andi	r9,r9,65535
 402dd48:	2085883a 	add	r2,r4,r2
 402dd4c:	2a4b883a 	add	r5,r5,r9
 402dd50:	40803636 	bltu	r8,r2,402de2c <__umoddi3+0x4c8>
 402dd54:	40804d26 	beq	r8,r2,402de8c <__umoddi3+0x528>
 402dd58:	4089c83a 	sub	r4,r8,r2
 402dd5c:	280f883a 	mov	r7,r5
 402dd60:	81cfc83a 	sub	r7,r16,r7
 402dd64:	81c7803a 	cmpltu	r3,r16,r7
 402dd68:	20c7c83a 	sub	r3,r4,r3
 402dd6c:	1cc4983a 	sll	r2,r3,r19
 402dd70:	3d0ed83a 	srl	r7,r7,r20
 402dd74:	1d06d83a 	srl	r3,r3,r20
 402dd78:	11c4b03a 	or	r2,r2,r7
 402dd7c:	003f9306 	br	402dbcc <__alt_data_end+0xfffedbcc>
 402dd80:	9ca6983a 	sll	r19,r19,r18
 402dd84:	88e8d83a 	srl	r20,r17,r3
 402dd88:	80c4d83a 	srl	r2,r16,r3
 402dd8c:	982cd43a 	srli	r22,r19,16
 402dd90:	8ca2983a 	sll	r17,r17,r18
 402dd94:	a009883a 	mov	r4,r20
 402dd98:	b00b883a 	mov	r5,r22
 402dd9c:	1478b03a 	or	fp,r2,r17
 402dda0:	402dff80 	call	402dff8 <__umodsi3>
 402dda4:	a009883a 	mov	r4,r20
 402dda8:	b00b883a 	mov	r5,r22
 402ddac:	1023883a 	mov	r17,r2
 402ddb0:	402df940 	call	402df94 <__udivsi3>
 402ddb4:	9d7fffcc 	andi	r21,r19,65535
 402ddb8:	880a943a 	slli	r5,r17,16
 402ddbc:	e008d43a 	srli	r4,fp,16
 402ddc0:	a885383a 	mul	r2,r21,r2
 402ddc4:	84a8983a 	sll	r20,r16,r18
 402ddc8:	2148b03a 	or	r4,r4,r5
 402ddcc:	2080042e 	bgeu	r4,r2,402dde0 <__umoddi3+0x47c>
 402ddd0:	24c9883a 	add	r4,r4,r19
 402ddd4:	24c00236 	bltu	r4,r19,402dde0 <__umoddi3+0x47c>
 402ddd8:	2080012e 	bgeu	r4,r2,402dde0 <__umoddi3+0x47c>
 402dddc:	24c9883a 	add	r4,r4,r19
 402dde0:	20a3c83a 	sub	r17,r4,r2
 402dde4:	b00b883a 	mov	r5,r22
 402dde8:	8809883a 	mov	r4,r17
 402ddec:	402dff80 	call	402dff8 <__umodsi3>
 402ddf0:	102f883a 	mov	r23,r2
 402ddf4:	8809883a 	mov	r4,r17
 402ddf8:	b00b883a 	mov	r5,r22
 402ddfc:	402df940 	call	402df94 <__udivsi3>
 402de00:	b82e943a 	slli	r23,r23,16
 402de04:	a885383a 	mul	r2,r21,r2
 402de08:	e13fffcc 	andi	r4,fp,65535
 402de0c:	25c8b03a 	or	r4,r4,r23
 402de10:	2080042e 	bgeu	r4,r2,402de24 <__umoddi3+0x4c0>
 402de14:	24c9883a 	add	r4,r4,r19
 402de18:	24c00236 	bltu	r4,r19,402de24 <__umoddi3+0x4c0>
 402de1c:	2080012e 	bgeu	r4,r2,402de24 <__umoddi3+0x4c0>
 402de20:	24c9883a 	add	r4,r4,r19
 402de24:	20a3c83a 	sub	r17,r4,r2
 402de28:	003f4806 	br	402db4c <__alt_data_end+0xfffedb4c>
 402de2c:	2c8fc83a 	sub	r7,r5,r18
 402de30:	1545c83a 	sub	r2,r2,r21
 402de34:	29cb803a 	cmpltu	r5,r5,r7
 402de38:	1145c83a 	sub	r2,r2,r5
 402de3c:	4089c83a 	sub	r4,r8,r2
 402de40:	003fc706 	br	402dd60 <__alt_data_end+0xfffedd60>
 402de44:	01000604 	movi	r4,24
 402de48:	003f1806 	br	402daac <__alt_data_end+0xfffedaac>
 402de4c:	00800604 	movi	r2,24
 402de50:	003f3206 	br	402db1c <__alt_data_end+0xfffedb1c>
 402de54:	01000604 	movi	r4,24
 402de58:	003ed906 	br	402d9c0 <__alt_data_end+0xfffed9c0>
 402de5c:	413fa52e 	bgeu	r8,r4,402dcf4 <__alt_data_end+0xfffedcf4>
 402de60:	297fff84 	addi	r5,r5,-2
 402de64:	4551883a 	add	r8,r8,r21
 402de68:	003fa306 	br	402dcf8 <__alt_data_end+0xfffedcf8>
 402de6c:	15ff8b2e 	bgeu	r2,r23,402dc9c <__alt_data_end+0xfffedc9c>
 402de70:	31bfff84 	addi	r6,r6,-2
 402de74:	1545883a 	add	r2,r2,r21
 402de78:	003f8906 	br	402dca0 <__alt_data_end+0xfffedca0>
 402de7c:	24c9883a 	add	r4,r4,r19
 402de80:	003eee06 	br	402da3c <__alt_data_end+0xfffeda3c>
 402de84:	8005883a 	mov	r2,r16
 402de88:	003f1706 	br	402dae8 <__alt_data_end+0xfffedae8>
 402de8c:	817fe736 	bltu	r16,r5,402de2c <__alt_data_end+0xfffede2c>
 402de90:	280f883a 	mov	r7,r5
 402de94:	0009883a 	mov	r4,zero
 402de98:	003fb106 	br	402dd60 <__alt_data_end+0xfffedd60>

0402de9c <__divsi3>:
 402de9c:	20001b16 	blt	r4,zero,402df0c <__divsi3+0x70>
 402dea0:	000f883a 	mov	r7,zero
 402dea4:	28001616 	blt	r5,zero,402df00 <__divsi3+0x64>
 402dea8:	200d883a 	mov	r6,r4
 402deac:	29001a2e 	bgeu	r5,r4,402df18 <__divsi3+0x7c>
 402deb0:	00800804 	movi	r2,32
 402deb4:	00c00044 	movi	r3,1
 402deb8:	00000106 	br	402dec0 <__divsi3+0x24>
 402debc:	10000d26 	beq	r2,zero,402def4 <__divsi3+0x58>
 402dec0:	294b883a 	add	r5,r5,r5
 402dec4:	10bfffc4 	addi	r2,r2,-1
 402dec8:	18c7883a 	add	r3,r3,r3
 402decc:	293ffb36 	bltu	r5,r4,402debc <__alt_data_end+0xfffedebc>
 402ded0:	0005883a 	mov	r2,zero
 402ded4:	18000726 	beq	r3,zero,402def4 <__divsi3+0x58>
 402ded8:	0005883a 	mov	r2,zero
 402dedc:	31400236 	bltu	r6,r5,402dee8 <__divsi3+0x4c>
 402dee0:	314dc83a 	sub	r6,r6,r5
 402dee4:	10c4b03a 	or	r2,r2,r3
 402dee8:	1806d07a 	srli	r3,r3,1
 402deec:	280ad07a 	srli	r5,r5,1
 402def0:	183ffa1e 	bne	r3,zero,402dedc <__alt_data_end+0xfffededc>
 402def4:	38000126 	beq	r7,zero,402defc <__divsi3+0x60>
 402def8:	0085c83a 	sub	r2,zero,r2
 402defc:	f800283a 	ret
 402df00:	014bc83a 	sub	r5,zero,r5
 402df04:	39c0005c 	xori	r7,r7,1
 402df08:	003fe706 	br	402dea8 <__alt_data_end+0xfffedea8>
 402df0c:	0109c83a 	sub	r4,zero,r4
 402df10:	01c00044 	movi	r7,1
 402df14:	003fe306 	br	402dea4 <__alt_data_end+0xfffedea4>
 402df18:	00c00044 	movi	r3,1
 402df1c:	003fee06 	br	402ded8 <__alt_data_end+0xfffeded8>

0402df20 <__modsi3>:
 402df20:	20001716 	blt	r4,zero,402df80 <__modsi3+0x60>
 402df24:	000f883a 	mov	r7,zero
 402df28:	2005883a 	mov	r2,r4
 402df2c:	28001216 	blt	r5,zero,402df78 <__modsi3+0x58>
 402df30:	2900162e 	bgeu	r5,r4,402df8c <__modsi3+0x6c>
 402df34:	01800804 	movi	r6,32
 402df38:	00c00044 	movi	r3,1
 402df3c:	00000106 	br	402df44 <__modsi3+0x24>
 402df40:	30000a26 	beq	r6,zero,402df6c <__modsi3+0x4c>
 402df44:	294b883a 	add	r5,r5,r5
 402df48:	31bfffc4 	addi	r6,r6,-1
 402df4c:	18c7883a 	add	r3,r3,r3
 402df50:	293ffb36 	bltu	r5,r4,402df40 <__alt_data_end+0xfffedf40>
 402df54:	18000526 	beq	r3,zero,402df6c <__modsi3+0x4c>
 402df58:	1806d07a 	srli	r3,r3,1
 402df5c:	11400136 	bltu	r2,r5,402df64 <__modsi3+0x44>
 402df60:	1145c83a 	sub	r2,r2,r5
 402df64:	280ad07a 	srli	r5,r5,1
 402df68:	183ffb1e 	bne	r3,zero,402df58 <__alt_data_end+0xfffedf58>
 402df6c:	38000126 	beq	r7,zero,402df74 <__modsi3+0x54>
 402df70:	0085c83a 	sub	r2,zero,r2
 402df74:	f800283a 	ret
 402df78:	014bc83a 	sub	r5,zero,r5
 402df7c:	003fec06 	br	402df30 <__alt_data_end+0xfffedf30>
 402df80:	0109c83a 	sub	r4,zero,r4
 402df84:	01c00044 	movi	r7,1
 402df88:	003fe706 	br	402df28 <__alt_data_end+0xfffedf28>
 402df8c:	00c00044 	movi	r3,1
 402df90:	003ff106 	br	402df58 <__alt_data_end+0xfffedf58>

0402df94 <__udivsi3>:
 402df94:	200d883a 	mov	r6,r4
 402df98:	2900152e 	bgeu	r5,r4,402dff0 <__udivsi3+0x5c>
 402df9c:	28001416 	blt	r5,zero,402dff0 <__udivsi3+0x5c>
 402dfa0:	00800804 	movi	r2,32
 402dfa4:	00c00044 	movi	r3,1
 402dfa8:	00000206 	br	402dfb4 <__udivsi3+0x20>
 402dfac:	10000e26 	beq	r2,zero,402dfe8 <__udivsi3+0x54>
 402dfb0:	28000516 	blt	r5,zero,402dfc8 <__udivsi3+0x34>
 402dfb4:	294b883a 	add	r5,r5,r5
 402dfb8:	10bfffc4 	addi	r2,r2,-1
 402dfbc:	18c7883a 	add	r3,r3,r3
 402dfc0:	293ffa36 	bltu	r5,r4,402dfac <__alt_data_end+0xfffedfac>
 402dfc4:	18000826 	beq	r3,zero,402dfe8 <__udivsi3+0x54>
 402dfc8:	0005883a 	mov	r2,zero
 402dfcc:	31400236 	bltu	r6,r5,402dfd8 <__udivsi3+0x44>
 402dfd0:	314dc83a 	sub	r6,r6,r5
 402dfd4:	10c4b03a 	or	r2,r2,r3
 402dfd8:	1806d07a 	srli	r3,r3,1
 402dfdc:	280ad07a 	srli	r5,r5,1
 402dfe0:	183ffa1e 	bne	r3,zero,402dfcc <__alt_data_end+0xfffedfcc>
 402dfe4:	f800283a 	ret
 402dfe8:	0005883a 	mov	r2,zero
 402dfec:	f800283a 	ret
 402dff0:	00c00044 	movi	r3,1
 402dff4:	003ff406 	br	402dfc8 <__alt_data_end+0xfffedfc8>

0402dff8 <__umodsi3>:
 402dff8:	2005883a 	mov	r2,r4
 402dffc:	2900122e 	bgeu	r5,r4,402e048 <__umodsi3+0x50>
 402e000:	28001116 	blt	r5,zero,402e048 <__umodsi3+0x50>
 402e004:	01800804 	movi	r6,32
 402e008:	00c00044 	movi	r3,1
 402e00c:	00000206 	br	402e018 <__umodsi3+0x20>
 402e010:	30000c26 	beq	r6,zero,402e044 <__umodsi3+0x4c>
 402e014:	28000516 	blt	r5,zero,402e02c <__umodsi3+0x34>
 402e018:	294b883a 	add	r5,r5,r5
 402e01c:	31bfffc4 	addi	r6,r6,-1
 402e020:	18c7883a 	add	r3,r3,r3
 402e024:	293ffa36 	bltu	r5,r4,402e010 <__alt_data_end+0xfffee010>
 402e028:	18000626 	beq	r3,zero,402e044 <__umodsi3+0x4c>
 402e02c:	1806d07a 	srli	r3,r3,1
 402e030:	11400136 	bltu	r2,r5,402e038 <__umodsi3+0x40>
 402e034:	1145c83a 	sub	r2,r2,r5
 402e038:	280ad07a 	srli	r5,r5,1
 402e03c:	183ffb1e 	bne	r3,zero,402e02c <__alt_data_end+0xfffee02c>
 402e040:	f800283a 	ret
 402e044:	f800283a 	ret
 402e048:	00c00044 	movi	r3,1
 402e04c:	003ff706 	br	402e02c <__alt_data_end+0xfffee02c>

0402e050 <__adddf3>:
 402e050:	02c00434 	movhi	r11,16
 402e054:	5affffc4 	addi	r11,r11,-1
 402e058:	2806d7fa 	srli	r3,r5,31
 402e05c:	2ad4703a 	and	r10,r5,r11
 402e060:	3ad2703a 	and	r9,r7,r11
 402e064:	3804d53a 	srli	r2,r7,20
 402e068:	3018d77a 	srli	r12,r6,29
 402e06c:	280ad53a 	srli	r5,r5,20
 402e070:	501490fa 	slli	r10,r10,3
 402e074:	2010d77a 	srli	r8,r4,29
 402e078:	481290fa 	slli	r9,r9,3
 402e07c:	380ed7fa 	srli	r7,r7,31
 402e080:	defffb04 	addi	sp,sp,-20
 402e084:	dc800215 	stw	r18,8(sp)
 402e088:	dc400115 	stw	r17,4(sp)
 402e08c:	dc000015 	stw	r16,0(sp)
 402e090:	dfc00415 	stw	ra,16(sp)
 402e094:	dcc00315 	stw	r19,12(sp)
 402e098:	1c803fcc 	andi	r18,r3,255
 402e09c:	2c01ffcc 	andi	r16,r5,2047
 402e0a0:	5210b03a 	or	r8,r10,r8
 402e0a4:	202290fa 	slli	r17,r4,3
 402e0a8:	1081ffcc 	andi	r2,r2,2047
 402e0ac:	4b12b03a 	or	r9,r9,r12
 402e0b0:	300c90fa 	slli	r6,r6,3
 402e0b4:	91c07526 	beq	r18,r7,402e28c <__adddf3+0x23c>
 402e0b8:	8087c83a 	sub	r3,r16,r2
 402e0bc:	00c0ab0e 	bge	zero,r3,402e36c <__adddf3+0x31c>
 402e0c0:	10002a1e 	bne	r2,zero,402e16c <__adddf3+0x11c>
 402e0c4:	4984b03a 	or	r2,r9,r6
 402e0c8:	1000961e 	bne	r2,zero,402e324 <__adddf3+0x2d4>
 402e0cc:	888001cc 	andi	r2,r17,7
 402e0d0:	10000726 	beq	r2,zero,402e0f0 <__adddf3+0xa0>
 402e0d4:	888003cc 	andi	r2,r17,15
 402e0d8:	00c00104 	movi	r3,4
 402e0dc:	10c00426 	beq	r2,r3,402e0f0 <__adddf3+0xa0>
 402e0e0:	88c7883a 	add	r3,r17,r3
 402e0e4:	1c63803a 	cmpltu	r17,r3,r17
 402e0e8:	4451883a 	add	r8,r8,r17
 402e0ec:	1823883a 	mov	r17,r3
 402e0f0:	4080202c 	andhi	r2,r8,128
 402e0f4:	10005926 	beq	r2,zero,402e25c <__adddf3+0x20c>
 402e0f8:	84000044 	addi	r16,r16,1
 402e0fc:	0081ffc4 	movi	r2,2047
 402e100:	8080ba26 	beq	r16,r2,402e3ec <__adddf3+0x39c>
 402e104:	00bfe034 	movhi	r2,65408
 402e108:	10bfffc4 	addi	r2,r2,-1
 402e10c:	4090703a 	and	r8,r8,r2
 402e110:	4004977a 	slli	r2,r8,29
 402e114:	4010927a 	slli	r8,r8,9
 402e118:	8822d0fa 	srli	r17,r17,3
 402e11c:	8401ffcc 	andi	r16,r16,2047
 402e120:	4010d33a 	srli	r8,r8,12
 402e124:	9007883a 	mov	r3,r18
 402e128:	1444b03a 	or	r2,r2,r17
 402e12c:	8401ffcc 	andi	r16,r16,2047
 402e130:	8020953a 	slli	r16,r16,20
 402e134:	18c03fcc 	andi	r3,r3,255
 402e138:	01000434 	movhi	r4,16
 402e13c:	213fffc4 	addi	r4,r4,-1
 402e140:	180697fa 	slli	r3,r3,31
 402e144:	4110703a 	and	r8,r8,r4
 402e148:	4410b03a 	or	r8,r8,r16
 402e14c:	40c6b03a 	or	r3,r8,r3
 402e150:	dfc00417 	ldw	ra,16(sp)
 402e154:	dcc00317 	ldw	r19,12(sp)
 402e158:	dc800217 	ldw	r18,8(sp)
 402e15c:	dc400117 	ldw	r17,4(sp)
 402e160:	dc000017 	ldw	r16,0(sp)
 402e164:	dec00504 	addi	sp,sp,20
 402e168:	f800283a 	ret
 402e16c:	0081ffc4 	movi	r2,2047
 402e170:	80bfd626 	beq	r16,r2,402e0cc <__alt_data_end+0xfffee0cc>
 402e174:	4a402034 	orhi	r9,r9,128
 402e178:	00800e04 	movi	r2,56
 402e17c:	10c09f16 	blt	r2,r3,402e3fc <__adddf3+0x3ac>
 402e180:	008007c4 	movi	r2,31
 402e184:	10c0c216 	blt	r2,r3,402e490 <__adddf3+0x440>
 402e188:	00800804 	movi	r2,32
 402e18c:	10c5c83a 	sub	r2,r2,r3
 402e190:	488a983a 	sll	r5,r9,r2
 402e194:	30c8d83a 	srl	r4,r6,r3
 402e198:	3084983a 	sll	r2,r6,r2
 402e19c:	48c6d83a 	srl	r3,r9,r3
 402e1a0:	290cb03a 	or	r6,r5,r4
 402e1a4:	1004c03a 	cmpne	r2,r2,zero
 402e1a8:	308cb03a 	or	r6,r6,r2
 402e1ac:	898dc83a 	sub	r6,r17,r6
 402e1b0:	89a3803a 	cmpltu	r17,r17,r6
 402e1b4:	40d1c83a 	sub	r8,r8,r3
 402e1b8:	4451c83a 	sub	r8,r8,r17
 402e1bc:	3023883a 	mov	r17,r6
 402e1c0:	4080202c 	andhi	r2,r8,128
 402e1c4:	10002326 	beq	r2,zero,402e254 <__adddf3+0x204>
 402e1c8:	04c02034 	movhi	r19,128
 402e1cc:	9cffffc4 	addi	r19,r19,-1
 402e1d0:	44e6703a 	and	r19,r8,r19
 402e1d4:	98007626 	beq	r19,zero,402e3b0 <__adddf3+0x360>
 402e1d8:	9809883a 	mov	r4,r19
 402e1dc:	40306540 	call	4030654 <__clzsi2>
 402e1e0:	10fffe04 	addi	r3,r2,-8
 402e1e4:	010007c4 	movi	r4,31
 402e1e8:	20c07716 	blt	r4,r3,402e3c8 <__adddf3+0x378>
 402e1ec:	00800804 	movi	r2,32
 402e1f0:	10c5c83a 	sub	r2,r2,r3
 402e1f4:	8884d83a 	srl	r2,r17,r2
 402e1f8:	98d0983a 	sll	r8,r19,r3
 402e1fc:	88e2983a 	sll	r17,r17,r3
 402e200:	1204b03a 	or	r2,r2,r8
 402e204:	1c007416 	blt	r3,r16,402e3d8 <__adddf3+0x388>
 402e208:	1c21c83a 	sub	r16,r3,r16
 402e20c:	82000044 	addi	r8,r16,1
 402e210:	00c007c4 	movi	r3,31
 402e214:	1a009116 	blt	r3,r8,402e45c <__adddf3+0x40c>
 402e218:	00c00804 	movi	r3,32
 402e21c:	1a07c83a 	sub	r3,r3,r8
 402e220:	8a08d83a 	srl	r4,r17,r8
 402e224:	88e2983a 	sll	r17,r17,r3
 402e228:	10c6983a 	sll	r3,r2,r3
 402e22c:	1210d83a 	srl	r8,r2,r8
 402e230:	8804c03a 	cmpne	r2,r17,zero
 402e234:	1906b03a 	or	r3,r3,r4
 402e238:	18a2b03a 	or	r17,r3,r2
 402e23c:	0021883a 	mov	r16,zero
 402e240:	003fa206 	br	402e0cc <__alt_data_end+0xfffee0cc>
 402e244:	1890b03a 	or	r8,r3,r2
 402e248:	40017d26 	beq	r8,zero,402e840 <__adddf3+0x7f0>
 402e24c:	1011883a 	mov	r8,r2
 402e250:	1823883a 	mov	r17,r3
 402e254:	888001cc 	andi	r2,r17,7
 402e258:	103f9e1e 	bne	r2,zero,402e0d4 <__alt_data_end+0xfffee0d4>
 402e25c:	4004977a 	slli	r2,r8,29
 402e260:	8822d0fa 	srli	r17,r17,3
 402e264:	4010d0fa 	srli	r8,r8,3
 402e268:	9007883a 	mov	r3,r18
 402e26c:	1444b03a 	or	r2,r2,r17
 402e270:	0101ffc4 	movi	r4,2047
 402e274:	81002426 	beq	r16,r4,402e308 <__adddf3+0x2b8>
 402e278:	8120703a 	and	r16,r16,r4
 402e27c:	01000434 	movhi	r4,16
 402e280:	213fffc4 	addi	r4,r4,-1
 402e284:	4110703a 	and	r8,r8,r4
 402e288:	003fa806 	br	402e12c <__alt_data_end+0xfffee12c>
 402e28c:	8089c83a 	sub	r4,r16,r2
 402e290:	01005e0e 	bge	zero,r4,402e40c <__adddf3+0x3bc>
 402e294:	10002b26 	beq	r2,zero,402e344 <__adddf3+0x2f4>
 402e298:	0081ffc4 	movi	r2,2047
 402e29c:	80bf8b26 	beq	r16,r2,402e0cc <__alt_data_end+0xfffee0cc>
 402e2a0:	4a402034 	orhi	r9,r9,128
 402e2a4:	00800e04 	movi	r2,56
 402e2a8:	1100a40e 	bge	r2,r4,402e53c <__adddf3+0x4ec>
 402e2ac:	498cb03a 	or	r6,r9,r6
 402e2b0:	300ac03a 	cmpne	r5,r6,zero
 402e2b4:	0013883a 	mov	r9,zero
 402e2b8:	2c4b883a 	add	r5,r5,r17
 402e2bc:	2c63803a 	cmpltu	r17,r5,r17
 402e2c0:	4a11883a 	add	r8,r9,r8
 402e2c4:	8a11883a 	add	r8,r17,r8
 402e2c8:	2823883a 	mov	r17,r5
 402e2cc:	4080202c 	andhi	r2,r8,128
 402e2d0:	103fe026 	beq	r2,zero,402e254 <__alt_data_end+0xfffee254>
 402e2d4:	84000044 	addi	r16,r16,1
 402e2d8:	0081ffc4 	movi	r2,2047
 402e2dc:	8080d226 	beq	r16,r2,402e628 <__adddf3+0x5d8>
 402e2e0:	00bfe034 	movhi	r2,65408
 402e2e4:	10bfffc4 	addi	r2,r2,-1
 402e2e8:	4090703a 	and	r8,r8,r2
 402e2ec:	880ad07a 	srli	r5,r17,1
 402e2f0:	400897fa 	slli	r4,r8,31
 402e2f4:	88c0004c 	andi	r3,r17,1
 402e2f8:	28e2b03a 	or	r17,r5,r3
 402e2fc:	4010d07a 	srli	r8,r8,1
 402e300:	2462b03a 	or	r17,r4,r17
 402e304:	003f7106 	br	402e0cc <__alt_data_end+0xfffee0cc>
 402e308:	4088b03a 	or	r4,r8,r2
 402e30c:	20014526 	beq	r4,zero,402e824 <__adddf3+0x7d4>
 402e310:	01000434 	movhi	r4,16
 402e314:	42000234 	orhi	r8,r8,8
 402e318:	213fffc4 	addi	r4,r4,-1
 402e31c:	4110703a 	and	r8,r8,r4
 402e320:	003f8206 	br	402e12c <__alt_data_end+0xfffee12c>
 402e324:	18ffffc4 	addi	r3,r3,-1
 402e328:	1800491e 	bne	r3,zero,402e450 <__adddf3+0x400>
 402e32c:	898bc83a 	sub	r5,r17,r6
 402e330:	8963803a 	cmpltu	r17,r17,r5
 402e334:	4251c83a 	sub	r8,r8,r9
 402e338:	4451c83a 	sub	r8,r8,r17
 402e33c:	2823883a 	mov	r17,r5
 402e340:	003f9f06 	br	402e1c0 <__alt_data_end+0xfffee1c0>
 402e344:	4984b03a 	or	r2,r9,r6
 402e348:	103f6026 	beq	r2,zero,402e0cc <__alt_data_end+0xfffee0cc>
 402e34c:	213fffc4 	addi	r4,r4,-1
 402e350:	2000931e 	bne	r4,zero,402e5a0 <__adddf3+0x550>
 402e354:	898d883a 	add	r6,r17,r6
 402e358:	3463803a 	cmpltu	r17,r6,r17
 402e35c:	4251883a 	add	r8,r8,r9
 402e360:	8a11883a 	add	r8,r17,r8
 402e364:	3023883a 	mov	r17,r6
 402e368:	003fd806 	br	402e2cc <__alt_data_end+0xfffee2cc>
 402e36c:	1800541e 	bne	r3,zero,402e4c0 <__adddf3+0x470>
 402e370:	80800044 	addi	r2,r16,1
 402e374:	1081ffcc 	andi	r2,r2,2047
 402e378:	00c00044 	movi	r3,1
 402e37c:	1880a00e 	bge	r3,r2,402e600 <__adddf3+0x5b0>
 402e380:	8989c83a 	sub	r4,r17,r6
 402e384:	8905803a 	cmpltu	r2,r17,r4
 402e388:	4267c83a 	sub	r19,r8,r9
 402e38c:	98a7c83a 	sub	r19,r19,r2
 402e390:	9880202c 	andhi	r2,r19,128
 402e394:	10006326 	beq	r2,zero,402e524 <__adddf3+0x4d4>
 402e398:	3463c83a 	sub	r17,r6,r17
 402e39c:	4a07c83a 	sub	r3,r9,r8
 402e3a0:	344d803a 	cmpltu	r6,r6,r17
 402e3a4:	19a7c83a 	sub	r19,r3,r6
 402e3a8:	3825883a 	mov	r18,r7
 402e3ac:	983f8a1e 	bne	r19,zero,402e1d8 <__alt_data_end+0xfffee1d8>
 402e3b0:	8809883a 	mov	r4,r17
 402e3b4:	40306540 	call	4030654 <__clzsi2>
 402e3b8:	10800804 	addi	r2,r2,32
 402e3bc:	10fffe04 	addi	r3,r2,-8
 402e3c0:	010007c4 	movi	r4,31
 402e3c4:	20ff890e 	bge	r4,r3,402e1ec <__alt_data_end+0xfffee1ec>
 402e3c8:	10bff604 	addi	r2,r2,-40
 402e3cc:	8884983a 	sll	r2,r17,r2
 402e3d0:	0023883a 	mov	r17,zero
 402e3d4:	1c3f8c0e 	bge	r3,r16,402e208 <__alt_data_end+0xfffee208>
 402e3d8:	023fe034 	movhi	r8,65408
 402e3dc:	423fffc4 	addi	r8,r8,-1
 402e3e0:	80e1c83a 	sub	r16,r16,r3
 402e3e4:	1210703a 	and	r8,r2,r8
 402e3e8:	003f3806 	br	402e0cc <__alt_data_end+0xfffee0cc>
 402e3ec:	9007883a 	mov	r3,r18
 402e3f0:	0011883a 	mov	r8,zero
 402e3f4:	0005883a 	mov	r2,zero
 402e3f8:	003f4c06 	br	402e12c <__alt_data_end+0xfffee12c>
 402e3fc:	498cb03a 	or	r6,r9,r6
 402e400:	300cc03a 	cmpne	r6,r6,zero
 402e404:	0007883a 	mov	r3,zero
 402e408:	003f6806 	br	402e1ac <__alt_data_end+0xfffee1ac>
 402e40c:	20009c1e 	bne	r4,zero,402e680 <__adddf3+0x630>
 402e410:	80800044 	addi	r2,r16,1
 402e414:	1141ffcc 	andi	r5,r2,2047
 402e418:	01000044 	movi	r4,1
 402e41c:	2140670e 	bge	r4,r5,402e5bc <__adddf3+0x56c>
 402e420:	0101ffc4 	movi	r4,2047
 402e424:	11007f26 	beq	r2,r4,402e624 <__adddf3+0x5d4>
 402e428:	898d883a 	add	r6,r17,r6
 402e42c:	4247883a 	add	r3,r8,r9
 402e430:	3451803a 	cmpltu	r8,r6,r17
 402e434:	40d1883a 	add	r8,r8,r3
 402e438:	402297fa 	slli	r17,r8,31
 402e43c:	300cd07a 	srli	r6,r6,1
 402e440:	4010d07a 	srli	r8,r8,1
 402e444:	1021883a 	mov	r16,r2
 402e448:	89a2b03a 	or	r17,r17,r6
 402e44c:	003f1f06 	br	402e0cc <__alt_data_end+0xfffee0cc>
 402e450:	0081ffc4 	movi	r2,2047
 402e454:	80bf481e 	bne	r16,r2,402e178 <__alt_data_end+0xfffee178>
 402e458:	003f1c06 	br	402e0cc <__alt_data_end+0xfffee0cc>
 402e45c:	843ff844 	addi	r16,r16,-31
 402e460:	01000804 	movi	r4,32
 402e464:	1406d83a 	srl	r3,r2,r16
 402e468:	41005026 	beq	r8,r4,402e5ac <__adddf3+0x55c>
 402e46c:	01001004 	movi	r4,64
 402e470:	2211c83a 	sub	r8,r4,r8
 402e474:	1204983a 	sll	r2,r2,r8
 402e478:	88a2b03a 	or	r17,r17,r2
 402e47c:	8822c03a 	cmpne	r17,r17,zero
 402e480:	1c62b03a 	or	r17,r3,r17
 402e484:	0011883a 	mov	r8,zero
 402e488:	0021883a 	mov	r16,zero
 402e48c:	003f7106 	br	402e254 <__alt_data_end+0xfffee254>
 402e490:	193ff804 	addi	r4,r3,-32
 402e494:	00800804 	movi	r2,32
 402e498:	4908d83a 	srl	r4,r9,r4
 402e49c:	18804526 	beq	r3,r2,402e5b4 <__adddf3+0x564>
 402e4a0:	00801004 	movi	r2,64
 402e4a4:	10c5c83a 	sub	r2,r2,r3
 402e4a8:	4886983a 	sll	r3,r9,r2
 402e4ac:	198cb03a 	or	r6,r3,r6
 402e4b0:	300cc03a 	cmpne	r6,r6,zero
 402e4b4:	218cb03a 	or	r6,r4,r6
 402e4b8:	0007883a 	mov	r3,zero
 402e4bc:	003f3b06 	br	402e1ac <__alt_data_end+0xfffee1ac>
 402e4c0:	80002a26 	beq	r16,zero,402e56c <__adddf3+0x51c>
 402e4c4:	0101ffc4 	movi	r4,2047
 402e4c8:	11006826 	beq	r2,r4,402e66c <__adddf3+0x61c>
 402e4cc:	00c7c83a 	sub	r3,zero,r3
 402e4d0:	42002034 	orhi	r8,r8,128
 402e4d4:	01000e04 	movi	r4,56
 402e4d8:	20c07c16 	blt	r4,r3,402e6cc <__adddf3+0x67c>
 402e4dc:	010007c4 	movi	r4,31
 402e4e0:	20c0da16 	blt	r4,r3,402e84c <__adddf3+0x7fc>
 402e4e4:	01000804 	movi	r4,32
 402e4e8:	20c9c83a 	sub	r4,r4,r3
 402e4ec:	4114983a 	sll	r10,r8,r4
 402e4f0:	88cad83a 	srl	r5,r17,r3
 402e4f4:	8908983a 	sll	r4,r17,r4
 402e4f8:	40c6d83a 	srl	r3,r8,r3
 402e4fc:	5162b03a 	or	r17,r10,r5
 402e500:	2008c03a 	cmpne	r4,r4,zero
 402e504:	8922b03a 	or	r17,r17,r4
 402e508:	3463c83a 	sub	r17,r6,r17
 402e50c:	48c7c83a 	sub	r3,r9,r3
 402e510:	344d803a 	cmpltu	r6,r6,r17
 402e514:	1991c83a 	sub	r8,r3,r6
 402e518:	1021883a 	mov	r16,r2
 402e51c:	3825883a 	mov	r18,r7
 402e520:	003f2706 	br	402e1c0 <__alt_data_end+0xfffee1c0>
 402e524:	24d0b03a 	or	r8,r4,r19
 402e528:	40001b1e 	bne	r8,zero,402e598 <__adddf3+0x548>
 402e52c:	0005883a 	mov	r2,zero
 402e530:	0007883a 	mov	r3,zero
 402e534:	0021883a 	mov	r16,zero
 402e538:	003f4d06 	br	402e270 <__alt_data_end+0xfffee270>
 402e53c:	008007c4 	movi	r2,31
 402e540:	11003c16 	blt	r2,r4,402e634 <__adddf3+0x5e4>
 402e544:	00800804 	movi	r2,32
 402e548:	1105c83a 	sub	r2,r2,r4
 402e54c:	488e983a 	sll	r7,r9,r2
 402e550:	310ad83a 	srl	r5,r6,r4
 402e554:	3084983a 	sll	r2,r6,r2
 402e558:	4912d83a 	srl	r9,r9,r4
 402e55c:	394ab03a 	or	r5,r7,r5
 402e560:	1004c03a 	cmpne	r2,r2,zero
 402e564:	288ab03a 	or	r5,r5,r2
 402e568:	003f5306 	br	402e2b8 <__alt_data_end+0xfffee2b8>
 402e56c:	4448b03a 	or	r4,r8,r17
 402e570:	20003e26 	beq	r4,zero,402e66c <__adddf3+0x61c>
 402e574:	00c6303a 	nor	r3,zero,r3
 402e578:	18003a1e 	bne	r3,zero,402e664 <__adddf3+0x614>
 402e57c:	3463c83a 	sub	r17,r6,r17
 402e580:	4a07c83a 	sub	r3,r9,r8
 402e584:	344d803a 	cmpltu	r6,r6,r17
 402e588:	1991c83a 	sub	r8,r3,r6
 402e58c:	1021883a 	mov	r16,r2
 402e590:	3825883a 	mov	r18,r7
 402e594:	003f0a06 	br	402e1c0 <__alt_data_end+0xfffee1c0>
 402e598:	2023883a 	mov	r17,r4
 402e59c:	003f0d06 	br	402e1d4 <__alt_data_end+0xfffee1d4>
 402e5a0:	0081ffc4 	movi	r2,2047
 402e5a4:	80bf3f1e 	bne	r16,r2,402e2a4 <__alt_data_end+0xfffee2a4>
 402e5a8:	003ec806 	br	402e0cc <__alt_data_end+0xfffee0cc>
 402e5ac:	0005883a 	mov	r2,zero
 402e5b0:	003fb106 	br	402e478 <__alt_data_end+0xfffee478>
 402e5b4:	0007883a 	mov	r3,zero
 402e5b8:	003fbc06 	br	402e4ac <__alt_data_end+0xfffee4ac>
 402e5bc:	4444b03a 	or	r2,r8,r17
 402e5c0:	8000871e 	bne	r16,zero,402e7e0 <__adddf3+0x790>
 402e5c4:	1000ba26 	beq	r2,zero,402e8b0 <__adddf3+0x860>
 402e5c8:	4984b03a 	or	r2,r9,r6
 402e5cc:	103ebf26 	beq	r2,zero,402e0cc <__alt_data_end+0xfffee0cc>
 402e5d0:	8985883a 	add	r2,r17,r6
 402e5d4:	4247883a 	add	r3,r8,r9
 402e5d8:	1451803a 	cmpltu	r8,r2,r17
 402e5dc:	40d1883a 	add	r8,r8,r3
 402e5e0:	40c0202c 	andhi	r3,r8,128
 402e5e4:	1023883a 	mov	r17,r2
 402e5e8:	183f1a26 	beq	r3,zero,402e254 <__alt_data_end+0xfffee254>
 402e5ec:	00bfe034 	movhi	r2,65408
 402e5f0:	10bfffc4 	addi	r2,r2,-1
 402e5f4:	2021883a 	mov	r16,r4
 402e5f8:	4090703a 	and	r8,r8,r2
 402e5fc:	003eb306 	br	402e0cc <__alt_data_end+0xfffee0cc>
 402e600:	4444b03a 	or	r2,r8,r17
 402e604:	8000291e 	bne	r16,zero,402e6ac <__adddf3+0x65c>
 402e608:	10004b1e 	bne	r2,zero,402e738 <__adddf3+0x6e8>
 402e60c:	4990b03a 	or	r8,r9,r6
 402e610:	40008b26 	beq	r8,zero,402e840 <__adddf3+0x7f0>
 402e614:	4811883a 	mov	r8,r9
 402e618:	3023883a 	mov	r17,r6
 402e61c:	3825883a 	mov	r18,r7
 402e620:	003eaa06 	br	402e0cc <__alt_data_end+0xfffee0cc>
 402e624:	1021883a 	mov	r16,r2
 402e628:	0011883a 	mov	r8,zero
 402e62c:	0005883a 	mov	r2,zero
 402e630:	003f0f06 	br	402e270 <__alt_data_end+0xfffee270>
 402e634:	217ff804 	addi	r5,r4,-32
 402e638:	00800804 	movi	r2,32
 402e63c:	494ad83a 	srl	r5,r9,r5
 402e640:	20807d26 	beq	r4,r2,402e838 <__adddf3+0x7e8>
 402e644:	00801004 	movi	r2,64
 402e648:	1109c83a 	sub	r4,r2,r4
 402e64c:	4912983a 	sll	r9,r9,r4
 402e650:	498cb03a 	or	r6,r9,r6
 402e654:	300cc03a 	cmpne	r6,r6,zero
 402e658:	298ab03a 	or	r5,r5,r6
 402e65c:	0013883a 	mov	r9,zero
 402e660:	003f1506 	br	402e2b8 <__alt_data_end+0xfffee2b8>
 402e664:	0101ffc4 	movi	r4,2047
 402e668:	113f9a1e 	bne	r2,r4,402e4d4 <__alt_data_end+0xfffee4d4>
 402e66c:	4811883a 	mov	r8,r9
 402e670:	3023883a 	mov	r17,r6
 402e674:	1021883a 	mov	r16,r2
 402e678:	3825883a 	mov	r18,r7
 402e67c:	003e9306 	br	402e0cc <__alt_data_end+0xfffee0cc>
 402e680:	8000161e 	bne	r16,zero,402e6dc <__adddf3+0x68c>
 402e684:	444ab03a 	or	r5,r8,r17
 402e688:	28005126 	beq	r5,zero,402e7d0 <__adddf3+0x780>
 402e68c:	0108303a 	nor	r4,zero,r4
 402e690:	20004d1e 	bne	r4,zero,402e7c8 <__adddf3+0x778>
 402e694:	89a3883a 	add	r17,r17,r6
 402e698:	4253883a 	add	r9,r8,r9
 402e69c:	898d803a 	cmpltu	r6,r17,r6
 402e6a0:	3251883a 	add	r8,r6,r9
 402e6a4:	1021883a 	mov	r16,r2
 402e6a8:	003f0806 	br	402e2cc <__alt_data_end+0xfffee2cc>
 402e6ac:	1000301e 	bne	r2,zero,402e770 <__adddf3+0x720>
 402e6b0:	4984b03a 	or	r2,r9,r6
 402e6b4:	10007126 	beq	r2,zero,402e87c <__adddf3+0x82c>
 402e6b8:	4811883a 	mov	r8,r9
 402e6bc:	3023883a 	mov	r17,r6
 402e6c0:	3825883a 	mov	r18,r7
 402e6c4:	0401ffc4 	movi	r16,2047
 402e6c8:	003e8006 	br	402e0cc <__alt_data_end+0xfffee0cc>
 402e6cc:	4462b03a 	or	r17,r8,r17
 402e6d0:	8822c03a 	cmpne	r17,r17,zero
 402e6d4:	0007883a 	mov	r3,zero
 402e6d8:	003f8b06 	br	402e508 <__alt_data_end+0xfffee508>
 402e6dc:	0141ffc4 	movi	r5,2047
 402e6e0:	11403b26 	beq	r2,r5,402e7d0 <__adddf3+0x780>
 402e6e4:	0109c83a 	sub	r4,zero,r4
 402e6e8:	42002034 	orhi	r8,r8,128
 402e6ec:	01400e04 	movi	r5,56
 402e6f0:	29006716 	blt	r5,r4,402e890 <__adddf3+0x840>
 402e6f4:	014007c4 	movi	r5,31
 402e6f8:	29007016 	blt	r5,r4,402e8bc <__adddf3+0x86c>
 402e6fc:	01400804 	movi	r5,32
 402e700:	290bc83a 	sub	r5,r5,r4
 402e704:	4154983a 	sll	r10,r8,r5
 402e708:	890ed83a 	srl	r7,r17,r4
 402e70c:	894a983a 	sll	r5,r17,r5
 402e710:	4108d83a 	srl	r4,r8,r4
 402e714:	51e2b03a 	or	r17,r10,r7
 402e718:	280ac03a 	cmpne	r5,r5,zero
 402e71c:	8962b03a 	or	r17,r17,r5
 402e720:	89a3883a 	add	r17,r17,r6
 402e724:	2253883a 	add	r9,r4,r9
 402e728:	898d803a 	cmpltu	r6,r17,r6
 402e72c:	3251883a 	add	r8,r6,r9
 402e730:	1021883a 	mov	r16,r2
 402e734:	003ee506 	br	402e2cc <__alt_data_end+0xfffee2cc>
 402e738:	4984b03a 	or	r2,r9,r6
 402e73c:	103e6326 	beq	r2,zero,402e0cc <__alt_data_end+0xfffee0cc>
 402e740:	8987c83a 	sub	r3,r17,r6
 402e744:	88c9803a 	cmpltu	r4,r17,r3
 402e748:	4245c83a 	sub	r2,r8,r9
 402e74c:	1105c83a 	sub	r2,r2,r4
 402e750:	1100202c 	andhi	r4,r2,128
 402e754:	203ebb26 	beq	r4,zero,402e244 <__alt_data_end+0xfffee244>
 402e758:	3463c83a 	sub	r17,r6,r17
 402e75c:	4a07c83a 	sub	r3,r9,r8
 402e760:	344d803a 	cmpltu	r6,r6,r17
 402e764:	1991c83a 	sub	r8,r3,r6
 402e768:	3825883a 	mov	r18,r7
 402e76c:	003e5706 	br	402e0cc <__alt_data_end+0xfffee0cc>
 402e770:	4984b03a 	or	r2,r9,r6
 402e774:	10002e26 	beq	r2,zero,402e830 <__adddf3+0x7e0>
 402e778:	4004d0fa 	srli	r2,r8,3
 402e77c:	8822d0fa 	srli	r17,r17,3
 402e780:	4010977a 	slli	r8,r8,29
 402e784:	10c0022c 	andhi	r3,r2,8
 402e788:	4462b03a 	or	r17,r8,r17
 402e78c:	18000826 	beq	r3,zero,402e7b0 <__adddf3+0x760>
 402e790:	4808d0fa 	srli	r4,r9,3
 402e794:	20c0022c 	andhi	r3,r4,8
 402e798:	1800051e 	bne	r3,zero,402e7b0 <__adddf3+0x760>
 402e79c:	300cd0fa 	srli	r6,r6,3
 402e7a0:	4806977a 	slli	r3,r9,29
 402e7a4:	2005883a 	mov	r2,r4
 402e7a8:	3825883a 	mov	r18,r7
 402e7ac:	19a2b03a 	or	r17,r3,r6
 402e7b0:	8810d77a 	srli	r8,r17,29
 402e7b4:	100490fa 	slli	r2,r2,3
 402e7b8:	882290fa 	slli	r17,r17,3
 402e7bc:	0401ffc4 	movi	r16,2047
 402e7c0:	4090b03a 	or	r8,r8,r2
 402e7c4:	003e4106 	br	402e0cc <__alt_data_end+0xfffee0cc>
 402e7c8:	0141ffc4 	movi	r5,2047
 402e7cc:	117fc71e 	bne	r2,r5,402e6ec <__alt_data_end+0xfffee6ec>
 402e7d0:	4811883a 	mov	r8,r9
 402e7d4:	3023883a 	mov	r17,r6
 402e7d8:	1021883a 	mov	r16,r2
 402e7dc:	003e3b06 	br	402e0cc <__alt_data_end+0xfffee0cc>
 402e7e0:	10002f26 	beq	r2,zero,402e8a0 <__adddf3+0x850>
 402e7e4:	4984b03a 	or	r2,r9,r6
 402e7e8:	10001126 	beq	r2,zero,402e830 <__adddf3+0x7e0>
 402e7ec:	4004d0fa 	srli	r2,r8,3
 402e7f0:	8822d0fa 	srli	r17,r17,3
 402e7f4:	4010977a 	slli	r8,r8,29
 402e7f8:	10c0022c 	andhi	r3,r2,8
 402e7fc:	4462b03a 	or	r17,r8,r17
 402e800:	183feb26 	beq	r3,zero,402e7b0 <__alt_data_end+0xfffee7b0>
 402e804:	4808d0fa 	srli	r4,r9,3
 402e808:	20c0022c 	andhi	r3,r4,8
 402e80c:	183fe81e 	bne	r3,zero,402e7b0 <__alt_data_end+0xfffee7b0>
 402e810:	300cd0fa 	srli	r6,r6,3
 402e814:	4806977a 	slli	r3,r9,29
 402e818:	2005883a 	mov	r2,r4
 402e81c:	19a2b03a 	or	r17,r3,r6
 402e820:	003fe306 	br	402e7b0 <__alt_data_end+0xfffee7b0>
 402e824:	0011883a 	mov	r8,zero
 402e828:	0005883a 	mov	r2,zero
 402e82c:	003e3f06 	br	402e12c <__alt_data_end+0xfffee12c>
 402e830:	0401ffc4 	movi	r16,2047
 402e834:	003e2506 	br	402e0cc <__alt_data_end+0xfffee0cc>
 402e838:	0013883a 	mov	r9,zero
 402e83c:	003f8406 	br	402e650 <__alt_data_end+0xfffee650>
 402e840:	0005883a 	mov	r2,zero
 402e844:	0007883a 	mov	r3,zero
 402e848:	003e8906 	br	402e270 <__alt_data_end+0xfffee270>
 402e84c:	197ff804 	addi	r5,r3,-32
 402e850:	01000804 	movi	r4,32
 402e854:	414ad83a 	srl	r5,r8,r5
 402e858:	19002426 	beq	r3,r4,402e8ec <__adddf3+0x89c>
 402e85c:	01001004 	movi	r4,64
 402e860:	20c7c83a 	sub	r3,r4,r3
 402e864:	40c6983a 	sll	r3,r8,r3
 402e868:	1c46b03a 	or	r3,r3,r17
 402e86c:	1806c03a 	cmpne	r3,r3,zero
 402e870:	28e2b03a 	or	r17,r5,r3
 402e874:	0007883a 	mov	r3,zero
 402e878:	003f2306 	br	402e508 <__alt_data_end+0xfffee508>
 402e87c:	0007883a 	mov	r3,zero
 402e880:	5811883a 	mov	r8,r11
 402e884:	00bfffc4 	movi	r2,-1
 402e888:	0401ffc4 	movi	r16,2047
 402e88c:	003e7806 	br	402e270 <__alt_data_end+0xfffee270>
 402e890:	4462b03a 	or	r17,r8,r17
 402e894:	8822c03a 	cmpne	r17,r17,zero
 402e898:	0009883a 	mov	r4,zero
 402e89c:	003fa006 	br	402e720 <__alt_data_end+0xfffee720>
 402e8a0:	4811883a 	mov	r8,r9
 402e8a4:	3023883a 	mov	r17,r6
 402e8a8:	0401ffc4 	movi	r16,2047
 402e8ac:	003e0706 	br	402e0cc <__alt_data_end+0xfffee0cc>
 402e8b0:	4811883a 	mov	r8,r9
 402e8b4:	3023883a 	mov	r17,r6
 402e8b8:	003e0406 	br	402e0cc <__alt_data_end+0xfffee0cc>
 402e8bc:	21fff804 	addi	r7,r4,-32
 402e8c0:	01400804 	movi	r5,32
 402e8c4:	41ced83a 	srl	r7,r8,r7
 402e8c8:	21400a26 	beq	r4,r5,402e8f4 <__adddf3+0x8a4>
 402e8cc:	01401004 	movi	r5,64
 402e8d0:	2909c83a 	sub	r4,r5,r4
 402e8d4:	4108983a 	sll	r4,r8,r4
 402e8d8:	2448b03a 	or	r4,r4,r17
 402e8dc:	2008c03a 	cmpne	r4,r4,zero
 402e8e0:	3922b03a 	or	r17,r7,r4
 402e8e4:	0009883a 	mov	r4,zero
 402e8e8:	003f8d06 	br	402e720 <__alt_data_end+0xfffee720>
 402e8ec:	0007883a 	mov	r3,zero
 402e8f0:	003fdd06 	br	402e868 <__alt_data_end+0xfffee868>
 402e8f4:	0009883a 	mov	r4,zero
 402e8f8:	003ff706 	br	402e8d8 <__alt_data_end+0xfffee8d8>

0402e8fc <__divdf3>:
 402e8fc:	defff204 	addi	sp,sp,-56
 402e900:	dd400915 	stw	r21,36(sp)
 402e904:	282ad53a 	srli	r21,r5,20
 402e908:	dd000815 	stw	r20,32(sp)
 402e90c:	2828d7fa 	srli	r20,r5,31
 402e910:	dc000415 	stw	r16,16(sp)
 402e914:	04000434 	movhi	r16,16
 402e918:	df000c15 	stw	fp,48(sp)
 402e91c:	843fffc4 	addi	r16,r16,-1
 402e920:	dfc00d15 	stw	ra,52(sp)
 402e924:	ddc00b15 	stw	r23,44(sp)
 402e928:	dd800a15 	stw	r22,40(sp)
 402e92c:	dcc00715 	stw	r19,28(sp)
 402e930:	dc800615 	stw	r18,24(sp)
 402e934:	dc400515 	stw	r17,20(sp)
 402e938:	ad41ffcc 	andi	r21,r21,2047
 402e93c:	2c20703a 	and	r16,r5,r16
 402e940:	a7003fcc 	andi	fp,r20,255
 402e944:	a8006126 	beq	r21,zero,402eacc <__divdf3+0x1d0>
 402e948:	0081ffc4 	movi	r2,2047
 402e94c:	2025883a 	mov	r18,r4
 402e950:	a8803726 	beq	r21,r2,402ea30 <__divdf3+0x134>
 402e954:	80800434 	orhi	r2,r16,16
 402e958:	100490fa 	slli	r2,r2,3
 402e95c:	2020d77a 	srli	r16,r4,29
 402e960:	202490fa 	slli	r18,r4,3
 402e964:	ad7f0044 	addi	r21,r21,-1023
 402e968:	80a0b03a 	or	r16,r16,r2
 402e96c:	0027883a 	mov	r19,zero
 402e970:	0013883a 	mov	r9,zero
 402e974:	3804d53a 	srli	r2,r7,20
 402e978:	382cd7fa 	srli	r22,r7,31
 402e97c:	04400434 	movhi	r17,16
 402e980:	8c7fffc4 	addi	r17,r17,-1
 402e984:	1081ffcc 	andi	r2,r2,2047
 402e988:	3011883a 	mov	r8,r6
 402e98c:	3c62703a 	and	r17,r7,r17
 402e990:	b5c03fcc 	andi	r23,r22,255
 402e994:	10006c26 	beq	r2,zero,402eb48 <__divdf3+0x24c>
 402e998:	00c1ffc4 	movi	r3,2047
 402e99c:	10c06426 	beq	r2,r3,402eb30 <__divdf3+0x234>
 402e9a0:	88c00434 	orhi	r3,r17,16
 402e9a4:	180690fa 	slli	r3,r3,3
 402e9a8:	3022d77a 	srli	r17,r6,29
 402e9ac:	301090fa 	slli	r8,r6,3
 402e9b0:	10bf0044 	addi	r2,r2,-1023
 402e9b4:	88e2b03a 	or	r17,r17,r3
 402e9b8:	000f883a 	mov	r7,zero
 402e9bc:	a58cf03a 	xor	r6,r20,r22
 402e9c0:	3cc8b03a 	or	r4,r7,r19
 402e9c4:	a8abc83a 	sub	r21,r21,r2
 402e9c8:	008003c4 	movi	r2,15
 402e9cc:	3007883a 	mov	r3,r6
 402e9d0:	34c03fcc 	andi	r19,r6,255
 402e9d4:	11009036 	bltu	r2,r4,402ec18 <__divdf3+0x31c>
 402e9d8:	200890ba 	slli	r4,r4,2
 402e9dc:	008100f4 	movhi	r2,1027
 402e9e0:	10ba7c04 	addi	r2,r2,-5648
 402e9e4:	2089883a 	add	r4,r4,r2
 402e9e8:	20800017 	ldw	r2,0(r4)
 402e9ec:	1000683a 	jmp	r2
 402e9f0:	0402ec18 	cmpnei	r16,zero,2992
 402e9f4:	0402ea68 	cmpgeui	r16,zero,2985
 402e9f8:	0402ec08 	cmpgei	r16,zero,2992
 402e9fc:	0402ea5c 	xori	r16,zero,2985
 402ea00:	0402ec08 	cmpgei	r16,zero,2992
 402ea04:	0402ebdc 	xori	r16,zero,2991
 402ea08:	0402ec08 	cmpgei	r16,zero,2992
 402ea0c:	0402ea5c 	xori	r16,zero,2985
 402ea10:	0402ea68 	cmpgeui	r16,zero,2985
 402ea14:	0402ea68 	cmpgeui	r16,zero,2985
 402ea18:	0402ebdc 	xori	r16,zero,2991
 402ea1c:	0402ea5c 	xori	r16,zero,2985
 402ea20:	0402ea4c 	andi	r16,zero,2985
 402ea24:	0402ea4c 	andi	r16,zero,2985
 402ea28:	0402ea4c 	andi	r16,zero,2985
 402ea2c:	0402eefc 	xorhi	r16,zero,3003
 402ea30:	2404b03a 	or	r2,r4,r16
 402ea34:	1000661e 	bne	r2,zero,402ebd0 <__divdf3+0x2d4>
 402ea38:	04c00204 	movi	r19,8
 402ea3c:	0021883a 	mov	r16,zero
 402ea40:	0025883a 	mov	r18,zero
 402ea44:	02400084 	movi	r9,2
 402ea48:	003fca06 	br	402e974 <__alt_data_end+0xfffee974>
 402ea4c:	8023883a 	mov	r17,r16
 402ea50:	9011883a 	mov	r8,r18
 402ea54:	e02f883a 	mov	r23,fp
 402ea58:	480f883a 	mov	r7,r9
 402ea5c:	00800084 	movi	r2,2
 402ea60:	3881311e 	bne	r7,r2,402ef28 <__divdf3+0x62c>
 402ea64:	b827883a 	mov	r19,r23
 402ea68:	98c0004c 	andi	r3,r19,1
 402ea6c:	0081ffc4 	movi	r2,2047
 402ea70:	000b883a 	mov	r5,zero
 402ea74:	0025883a 	mov	r18,zero
 402ea78:	1004953a 	slli	r2,r2,20
 402ea7c:	18c03fcc 	andi	r3,r3,255
 402ea80:	04400434 	movhi	r17,16
 402ea84:	8c7fffc4 	addi	r17,r17,-1
 402ea88:	180697fa 	slli	r3,r3,31
 402ea8c:	2c4a703a 	and	r5,r5,r17
 402ea90:	288ab03a 	or	r5,r5,r2
 402ea94:	28c6b03a 	or	r3,r5,r3
 402ea98:	9005883a 	mov	r2,r18
 402ea9c:	dfc00d17 	ldw	ra,52(sp)
 402eaa0:	df000c17 	ldw	fp,48(sp)
 402eaa4:	ddc00b17 	ldw	r23,44(sp)
 402eaa8:	dd800a17 	ldw	r22,40(sp)
 402eaac:	dd400917 	ldw	r21,36(sp)
 402eab0:	dd000817 	ldw	r20,32(sp)
 402eab4:	dcc00717 	ldw	r19,28(sp)
 402eab8:	dc800617 	ldw	r18,24(sp)
 402eabc:	dc400517 	ldw	r17,20(sp)
 402eac0:	dc000417 	ldw	r16,16(sp)
 402eac4:	dec00e04 	addi	sp,sp,56
 402eac8:	f800283a 	ret
 402eacc:	2404b03a 	or	r2,r4,r16
 402ead0:	2027883a 	mov	r19,r4
 402ead4:	10003926 	beq	r2,zero,402ebbc <__divdf3+0x2c0>
 402ead8:	80012e26 	beq	r16,zero,402ef94 <__divdf3+0x698>
 402eadc:	8009883a 	mov	r4,r16
 402eae0:	d9800315 	stw	r6,12(sp)
 402eae4:	d9c00215 	stw	r7,8(sp)
 402eae8:	40306540 	call	4030654 <__clzsi2>
 402eaec:	d9800317 	ldw	r6,12(sp)
 402eaf0:	d9c00217 	ldw	r7,8(sp)
 402eaf4:	113ffd44 	addi	r4,r2,-11
 402eaf8:	00c00704 	movi	r3,28
 402eafc:	19012116 	blt	r3,r4,402ef84 <__divdf3+0x688>
 402eb00:	00c00744 	movi	r3,29
 402eb04:	147ffe04 	addi	r17,r2,-8
 402eb08:	1907c83a 	sub	r3,r3,r4
 402eb0c:	8460983a 	sll	r16,r16,r17
 402eb10:	98c6d83a 	srl	r3,r19,r3
 402eb14:	9c64983a 	sll	r18,r19,r17
 402eb18:	1c20b03a 	or	r16,r3,r16
 402eb1c:	1080fcc4 	addi	r2,r2,1011
 402eb20:	00abc83a 	sub	r21,zero,r2
 402eb24:	0027883a 	mov	r19,zero
 402eb28:	0013883a 	mov	r9,zero
 402eb2c:	003f9106 	br	402e974 <__alt_data_end+0xfffee974>
 402eb30:	3446b03a 	or	r3,r6,r17
 402eb34:	18001f1e 	bne	r3,zero,402ebb4 <__divdf3+0x2b8>
 402eb38:	0023883a 	mov	r17,zero
 402eb3c:	0011883a 	mov	r8,zero
 402eb40:	01c00084 	movi	r7,2
 402eb44:	003f9d06 	br	402e9bc <__alt_data_end+0xfffee9bc>
 402eb48:	3446b03a 	or	r3,r6,r17
 402eb4c:	18001526 	beq	r3,zero,402eba4 <__divdf3+0x2a8>
 402eb50:	88011b26 	beq	r17,zero,402efc0 <__divdf3+0x6c4>
 402eb54:	8809883a 	mov	r4,r17
 402eb58:	d9800315 	stw	r6,12(sp)
 402eb5c:	da400115 	stw	r9,4(sp)
 402eb60:	40306540 	call	4030654 <__clzsi2>
 402eb64:	d9800317 	ldw	r6,12(sp)
 402eb68:	da400117 	ldw	r9,4(sp)
 402eb6c:	113ffd44 	addi	r4,r2,-11
 402eb70:	00c00704 	movi	r3,28
 402eb74:	19010e16 	blt	r3,r4,402efb0 <__divdf3+0x6b4>
 402eb78:	00c00744 	movi	r3,29
 402eb7c:	123ffe04 	addi	r8,r2,-8
 402eb80:	1907c83a 	sub	r3,r3,r4
 402eb84:	8a22983a 	sll	r17,r17,r8
 402eb88:	30c6d83a 	srl	r3,r6,r3
 402eb8c:	3210983a 	sll	r8,r6,r8
 402eb90:	1c62b03a 	or	r17,r3,r17
 402eb94:	1080fcc4 	addi	r2,r2,1011
 402eb98:	0085c83a 	sub	r2,zero,r2
 402eb9c:	000f883a 	mov	r7,zero
 402eba0:	003f8606 	br	402e9bc <__alt_data_end+0xfffee9bc>
 402eba4:	0023883a 	mov	r17,zero
 402eba8:	0011883a 	mov	r8,zero
 402ebac:	01c00044 	movi	r7,1
 402ebb0:	003f8206 	br	402e9bc <__alt_data_end+0xfffee9bc>
 402ebb4:	01c000c4 	movi	r7,3
 402ebb8:	003f8006 	br	402e9bc <__alt_data_end+0xfffee9bc>
 402ebbc:	04c00104 	movi	r19,4
 402ebc0:	0021883a 	mov	r16,zero
 402ebc4:	0025883a 	mov	r18,zero
 402ebc8:	02400044 	movi	r9,1
 402ebcc:	003f6906 	br	402e974 <__alt_data_end+0xfffee974>
 402ebd0:	04c00304 	movi	r19,12
 402ebd4:	024000c4 	movi	r9,3
 402ebd8:	003f6606 	br	402e974 <__alt_data_end+0xfffee974>
 402ebdc:	01400434 	movhi	r5,16
 402ebe0:	0007883a 	mov	r3,zero
 402ebe4:	297fffc4 	addi	r5,r5,-1
 402ebe8:	04bfffc4 	movi	r18,-1
 402ebec:	0081ffc4 	movi	r2,2047
 402ebf0:	003fa106 	br	402ea78 <__alt_data_end+0xfffeea78>
 402ebf4:	00c00044 	movi	r3,1
 402ebf8:	1887c83a 	sub	r3,r3,r2
 402ebfc:	01000e04 	movi	r4,56
 402ec00:	20c1210e 	bge	r4,r3,402f088 <__divdf3+0x78c>
 402ec04:	98c0004c 	andi	r3,r19,1
 402ec08:	0005883a 	mov	r2,zero
 402ec0c:	000b883a 	mov	r5,zero
 402ec10:	0025883a 	mov	r18,zero
 402ec14:	003f9806 	br	402ea78 <__alt_data_end+0xfffeea78>
 402ec18:	8c00fd36 	bltu	r17,r16,402f010 <__divdf3+0x714>
 402ec1c:	8440fb26 	beq	r16,r17,402f00c <__divdf3+0x710>
 402ec20:	8007883a 	mov	r3,r16
 402ec24:	ad7fffc4 	addi	r21,r21,-1
 402ec28:	0021883a 	mov	r16,zero
 402ec2c:	4004d63a 	srli	r2,r8,24
 402ec30:	8822923a 	slli	r17,r17,8
 402ec34:	1809883a 	mov	r4,r3
 402ec38:	402c923a 	slli	r22,r8,8
 402ec3c:	88b8b03a 	or	fp,r17,r2
 402ec40:	e028d43a 	srli	r20,fp,16
 402ec44:	d8c00015 	stw	r3,0(sp)
 402ec48:	e5ffffcc 	andi	r23,fp,65535
 402ec4c:	a00b883a 	mov	r5,r20
 402ec50:	402df940 	call	402df94 <__udivsi3>
 402ec54:	d8c00017 	ldw	r3,0(sp)
 402ec58:	a00b883a 	mov	r5,r20
 402ec5c:	d8800315 	stw	r2,12(sp)
 402ec60:	1809883a 	mov	r4,r3
 402ec64:	402dff80 	call	402dff8 <__umodsi3>
 402ec68:	d9800317 	ldw	r6,12(sp)
 402ec6c:	1006943a 	slli	r3,r2,16
 402ec70:	9004d43a 	srli	r2,r18,16
 402ec74:	b9a3383a 	mul	r17,r23,r6
 402ec78:	10c4b03a 	or	r2,r2,r3
 402ec7c:	1440062e 	bgeu	r2,r17,402ec98 <__divdf3+0x39c>
 402ec80:	1705883a 	add	r2,r2,fp
 402ec84:	30ffffc4 	addi	r3,r6,-1
 402ec88:	1700ee36 	bltu	r2,fp,402f044 <__divdf3+0x748>
 402ec8c:	1440ed2e 	bgeu	r2,r17,402f044 <__divdf3+0x748>
 402ec90:	31bfff84 	addi	r6,r6,-2
 402ec94:	1705883a 	add	r2,r2,fp
 402ec98:	1463c83a 	sub	r17,r2,r17
 402ec9c:	a00b883a 	mov	r5,r20
 402eca0:	8809883a 	mov	r4,r17
 402eca4:	d9800315 	stw	r6,12(sp)
 402eca8:	402df940 	call	402df94 <__udivsi3>
 402ecac:	a00b883a 	mov	r5,r20
 402ecb0:	8809883a 	mov	r4,r17
 402ecb4:	d8800215 	stw	r2,8(sp)
 402ecb8:	402dff80 	call	402dff8 <__umodsi3>
 402ecbc:	d9c00217 	ldw	r7,8(sp)
 402ecc0:	1004943a 	slli	r2,r2,16
 402ecc4:	94bfffcc 	andi	r18,r18,65535
 402ecc8:	b9d1383a 	mul	r8,r23,r7
 402eccc:	90a4b03a 	or	r18,r18,r2
 402ecd0:	d9800317 	ldw	r6,12(sp)
 402ecd4:	9200062e 	bgeu	r18,r8,402ecf0 <__divdf3+0x3f4>
 402ecd8:	9725883a 	add	r18,r18,fp
 402ecdc:	38bfffc4 	addi	r2,r7,-1
 402ece0:	9700d636 	bltu	r18,fp,402f03c <__divdf3+0x740>
 402ece4:	9200d52e 	bgeu	r18,r8,402f03c <__divdf3+0x740>
 402ece8:	39ffff84 	addi	r7,r7,-2
 402ecec:	9725883a 	add	r18,r18,fp
 402ecf0:	3004943a 	slli	r2,r6,16
 402ecf4:	b012d43a 	srli	r9,r22,16
 402ecf8:	b1bfffcc 	andi	r6,r22,65535
 402ecfc:	11e2b03a 	or	r17,r2,r7
 402ed00:	8806d43a 	srli	r3,r17,16
 402ed04:	893fffcc 	andi	r4,r17,65535
 402ed08:	218b383a 	mul	r5,r4,r6
 402ed0c:	30c5383a 	mul	r2,r6,r3
 402ed10:	2249383a 	mul	r4,r4,r9
 402ed14:	280ed43a 	srli	r7,r5,16
 402ed18:	9225c83a 	sub	r18,r18,r8
 402ed1c:	2089883a 	add	r4,r4,r2
 402ed20:	3909883a 	add	r4,r7,r4
 402ed24:	1a47383a 	mul	r3,r3,r9
 402ed28:	2080022e 	bgeu	r4,r2,402ed34 <__divdf3+0x438>
 402ed2c:	00800074 	movhi	r2,1
 402ed30:	1887883a 	add	r3,r3,r2
 402ed34:	2004d43a 	srli	r2,r4,16
 402ed38:	2008943a 	slli	r4,r4,16
 402ed3c:	297fffcc 	andi	r5,r5,65535
 402ed40:	10c7883a 	add	r3,r2,r3
 402ed44:	2149883a 	add	r4,r4,r5
 402ed48:	90c0a536 	bltu	r18,r3,402efe0 <__divdf3+0x6e4>
 402ed4c:	90c0bf26 	beq	r18,r3,402f04c <__divdf3+0x750>
 402ed50:	90c7c83a 	sub	r3,r18,r3
 402ed54:	810fc83a 	sub	r7,r16,r4
 402ed58:	81e5803a 	cmpltu	r18,r16,r7
 402ed5c:	1ca5c83a 	sub	r18,r3,r18
 402ed60:	e480c126 	beq	fp,r18,402f068 <__divdf3+0x76c>
 402ed64:	a00b883a 	mov	r5,r20
 402ed68:	9009883a 	mov	r4,r18
 402ed6c:	d9800315 	stw	r6,12(sp)
 402ed70:	d9c00215 	stw	r7,8(sp)
 402ed74:	da400115 	stw	r9,4(sp)
 402ed78:	402df940 	call	402df94 <__udivsi3>
 402ed7c:	a00b883a 	mov	r5,r20
 402ed80:	9009883a 	mov	r4,r18
 402ed84:	d8800015 	stw	r2,0(sp)
 402ed88:	402dff80 	call	402dff8 <__umodsi3>
 402ed8c:	d9c00217 	ldw	r7,8(sp)
 402ed90:	da000017 	ldw	r8,0(sp)
 402ed94:	1006943a 	slli	r3,r2,16
 402ed98:	3804d43a 	srli	r2,r7,16
 402ed9c:	ba21383a 	mul	r16,r23,r8
 402eda0:	d9800317 	ldw	r6,12(sp)
 402eda4:	10c4b03a 	or	r2,r2,r3
 402eda8:	da400117 	ldw	r9,4(sp)
 402edac:	1400062e 	bgeu	r2,r16,402edc8 <__divdf3+0x4cc>
 402edb0:	1705883a 	add	r2,r2,fp
 402edb4:	40ffffc4 	addi	r3,r8,-1
 402edb8:	1700ad36 	bltu	r2,fp,402f070 <__divdf3+0x774>
 402edbc:	1400ac2e 	bgeu	r2,r16,402f070 <__divdf3+0x774>
 402edc0:	423fff84 	addi	r8,r8,-2
 402edc4:	1705883a 	add	r2,r2,fp
 402edc8:	1421c83a 	sub	r16,r2,r16
 402edcc:	a00b883a 	mov	r5,r20
 402edd0:	8009883a 	mov	r4,r16
 402edd4:	d9800315 	stw	r6,12(sp)
 402edd8:	d9c00215 	stw	r7,8(sp)
 402eddc:	da000015 	stw	r8,0(sp)
 402ede0:	da400115 	stw	r9,4(sp)
 402ede4:	402df940 	call	402df94 <__udivsi3>
 402ede8:	8009883a 	mov	r4,r16
 402edec:	a00b883a 	mov	r5,r20
 402edf0:	1025883a 	mov	r18,r2
 402edf4:	402dff80 	call	402dff8 <__umodsi3>
 402edf8:	d9c00217 	ldw	r7,8(sp)
 402edfc:	1004943a 	slli	r2,r2,16
 402ee00:	bcaf383a 	mul	r23,r23,r18
 402ee04:	393fffcc 	andi	r4,r7,65535
 402ee08:	2088b03a 	or	r4,r4,r2
 402ee0c:	d9800317 	ldw	r6,12(sp)
 402ee10:	da000017 	ldw	r8,0(sp)
 402ee14:	da400117 	ldw	r9,4(sp)
 402ee18:	25c0062e 	bgeu	r4,r23,402ee34 <__divdf3+0x538>
 402ee1c:	2709883a 	add	r4,r4,fp
 402ee20:	90bfffc4 	addi	r2,r18,-1
 402ee24:	27009436 	bltu	r4,fp,402f078 <__divdf3+0x77c>
 402ee28:	25c0932e 	bgeu	r4,r23,402f078 <__divdf3+0x77c>
 402ee2c:	94bfff84 	addi	r18,r18,-2
 402ee30:	2709883a 	add	r4,r4,fp
 402ee34:	4004943a 	slli	r2,r8,16
 402ee38:	25efc83a 	sub	r23,r4,r23
 402ee3c:	1490b03a 	or	r8,r2,r18
 402ee40:	4008d43a 	srli	r4,r8,16
 402ee44:	40ffffcc 	andi	r3,r8,65535
 402ee48:	30c5383a 	mul	r2,r6,r3
 402ee4c:	1a47383a 	mul	r3,r3,r9
 402ee50:	310d383a 	mul	r6,r6,r4
 402ee54:	100ad43a 	srli	r5,r2,16
 402ee58:	4913383a 	mul	r9,r9,r4
 402ee5c:	1987883a 	add	r3,r3,r6
 402ee60:	28c7883a 	add	r3,r5,r3
 402ee64:	1980022e 	bgeu	r3,r6,402ee70 <__divdf3+0x574>
 402ee68:	01000074 	movhi	r4,1
 402ee6c:	4913883a 	add	r9,r9,r4
 402ee70:	1808d43a 	srli	r4,r3,16
 402ee74:	1806943a 	slli	r3,r3,16
 402ee78:	10bfffcc 	andi	r2,r2,65535
 402ee7c:	2253883a 	add	r9,r4,r9
 402ee80:	1887883a 	add	r3,r3,r2
 402ee84:	ba403836 	bltu	r23,r9,402ef68 <__divdf3+0x66c>
 402ee88:	ba403626 	beq	r23,r9,402ef64 <__divdf3+0x668>
 402ee8c:	42000054 	ori	r8,r8,1
 402ee90:	a880ffc4 	addi	r2,r21,1023
 402ee94:	00bf570e 	bge	zero,r2,402ebf4 <__alt_data_end+0xfffeebf4>
 402ee98:	40c001cc 	andi	r3,r8,7
 402ee9c:	18000726 	beq	r3,zero,402eebc <__divdf3+0x5c0>
 402eea0:	40c003cc 	andi	r3,r8,15
 402eea4:	01000104 	movi	r4,4
 402eea8:	19000426 	beq	r3,r4,402eebc <__divdf3+0x5c0>
 402eeac:	4107883a 	add	r3,r8,r4
 402eeb0:	1a11803a 	cmpltu	r8,r3,r8
 402eeb4:	8a23883a 	add	r17,r17,r8
 402eeb8:	1811883a 	mov	r8,r3
 402eebc:	88c0402c 	andhi	r3,r17,256
 402eec0:	18000426 	beq	r3,zero,402eed4 <__divdf3+0x5d8>
 402eec4:	00ffc034 	movhi	r3,65280
 402eec8:	18ffffc4 	addi	r3,r3,-1
 402eecc:	a8810004 	addi	r2,r21,1024
 402eed0:	88e2703a 	and	r17,r17,r3
 402eed4:	00c1ff84 	movi	r3,2046
 402eed8:	18bee316 	blt	r3,r2,402ea68 <__alt_data_end+0xfffeea68>
 402eedc:	8824977a 	slli	r18,r17,29
 402eee0:	4010d0fa 	srli	r8,r8,3
 402eee4:	8822927a 	slli	r17,r17,9
 402eee8:	1081ffcc 	andi	r2,r2,2047
 402eeec:	9224b03a 	or	r18,r18,r8
 402eef0:	880ad33a 	srli	r5,r17,12
 402eef4:	98c0004c 	andi	r3,r19,1
 402eef8:	003edf06 	br	402ea78 <__alt_data_end+0xfffeea78>
 402eefc:	8080022c 	andhi	r2,r16,8
 402ef00:	10001226 	beq	r2,zero,402ef4c <__divdf3+0x650>
 402ef04:	8880022c 	andhi	r2,r17,8
 402ef08:	1000101e 	bne	r2,zero,402ef4c <__divdf3+0x650>
 402ef0c:	00800434 	movhi	r2,16
 402ef10:	89400234 	orhi	r5,r17,8
 402ef14:	10bfffc4 	addi	r2,r2,-1
 402ef18:	b007883a 	mov	r3,r22
 402ef1c:	288a703a 	and	r5,r5,r2
 402ef20:	4025883a 	mov	r18,r8
 402ef24:	003f3106 	br	402ebec <__alt_data_end+0xfffeebec>
 402ef28:	008000c4 	movi	r2,3
 402ef2c:	3880a626 	beq	r7,r2,402f1c8 <__divdf3+0x8cc>
 402ef30:	00800044 	movi	r2,1
 402ef34:	3880521e 	bne	r7,r2,402f080 <__divdf3+0x784>
 402ef38:	b807883a 	mov	r3,r23
 402ef3c:	0005883a 	mov	r2,zero
 402ef40:	000b883a 	mov	r5,zero
 402ef44:	0025883a 	mov	r18,zero
 402ef48:	003ecb06 	br	402ea78 <__alt_data_end+0xfffeea78>
 402ef4c:	00800434 	movhi	r2,16
 402ef50:	81400234 	orhi	r5,r16,8
 402ef54:	10bfffc4 	addi	r2,r2,-1
 402ef58:	a007883a 	mov	r3,r20
 402ef5c:	288a703a 	and	r5,r5,r2
 402ef60:	003f2206 	br	402ebec <__alt_data_end+0xfffeebec>
 402ef64:	183fca26 	beq	r3,zero,402ee90 <__alt_data_end+0xfffeee90>
 402ef68:	e5ef883a 	add	r23,fp,r23
 402ef6c:	40bfffc4 	addi	r2,r8,-1
 402ef70:	bf00392e 	bgeu	r23,fp,402f058 <__divdf3+0x75c>
 402ef74:	1011883a 	mov	r8,r2
 402ef78:	ba7fc41e 	bne	r23,r9,402ee8c <__alt_data_end+0xfffeee8c>
 402ef7c:	b0ffc31e 	bne	r22,r3,402ee8c <__alt_data_end+0xfffeee8c>
 402ef80:	003fc306 	br	402ee90 <__alt_data_end+0xfffeee90>
 402ef84:	143ff604 	addi	r16,r2,-40
 402ef88:	9c20983a 	sll	r16,r19,r16
 402ef8c:	0025883a 	mov	r18,zero
 402ef90:	003ee206 	br	402eb1c <__alt_data_end+0xfffeeb1c>
 402ef94:	d9800315 	stw	r6,12(sp)
 402ef98:	d9c00215 	stw	r7,8(sp)
 402ef9c:	40306540 	call	4030654 <__clzsi2>
 402efa0:	10800804 	addi	r2,r2,32
 402efa4:	d9c00217 	ldw	r7,8(sp)
 402efa8:	d9800317 	ldw	r6,12(sp)
 402efac:	003ed106 	br	402eaf4 <__alt_data_end+0xfffeeaf4>
 402efb0:	147ff604 	addi	r17,r2,-40
 402efb4:	3462983a 	sll	r17,r6,r17
 402efb8:	0011883a 	mov	r8,zero
 402efbc:	003ef506 	br	402eb94 <__alt_data_end+0xfffeeb94>
 402efc0:	3009883a 	mov	r4,r6
 402efc4:	d9800315 	stw	r6,12(sp)
 402efc8:	da400115 	stw	r9,4(sp)
 402efcc:	40306540 	call	4030654 <__clzsi2>
 402efd0:	10800804 	addi	r2,r2,32
 402efd4:	da400117 	ldw	r9,4(sp)
 402efd8:	d9800317 	ldw	r6,12(sp)
 402efdc:	003ee306 	br	402eb6c <__alt_data_end+0xfffeeb6c>
 402efe0:	85a1883a 	add	r16,r16,r22
 402efe4:	8585803a 	cmpltu	r2,r16,r22
 402efe8:	1705883a 	add	r2,r2,fp
 402efec:	14a5883a 	add	r18,r2,r18
 402eff0:	88bfffc4 	addi	r2,r17,-1
 402eff4:	e4800c2e 	bgeu	fp,r18,402f028 <__divdf3+0x72c>
 402eff8:	90c03e36 	bltu	r18,r3,402f0f4 <__divdf3+0x7f8>
 402effc:	1c806926 	beq	r3,r18,402f1a4 <__divdf3+0x8a8>
 402f000:	90c7c83a 	sub	r3,r18,r3
 402f004:	1023883a 	mov	r17,r2
 402f008:	003f5206 	br	402ed54 <__alt_data_end+0xfffeed54>
 402f00c:	923f0436 	bltu	r18,r8,402ec20 <__alt_data_end+0xfffeec20>
 402f010:	800897fa 	slli	r4,r16,31
 402f014:	9004d07a 	srli	r2,r18,1
 402f018:	8006d07a 	srli	r3,r16,1
 402f01c:	902097fa 	slli	r16,r18,31
 402f020:	20a4b03a 	or	r18,r4,r2
 402f024:	003f0106 	br	402ec2c <__alt_data_end+0xfffeec2c>
 402f028:	e4bff51e 	bne	fp,r18,402f000 <__alt_data_end+0xfffef000>
 402f02c:	85bff22e 	bgeu	r16,r22,402eff8 <__alt_data_end+0xfffeeff8>
 402f030:	e0c7c83a 	sub	r3,fp,r3
 402f034:	1023883a 	mov	r17,r2
 402f038:	003f4606 	br	402ed54 <__alt_data_end+0xfffeed54>
 402f03c:	100f883a 	mov	r7,r2
 402f040:	003f2b06 	br	402ecf0 <__alt_data_end+0xfffeecf0>
 402f044:	180d883a 	mov	r6,r3
 402f048:	003f1306 	br	402ec98 <__alt_data_end+0xfffeec98>
 402f04c:	813fe436 	bltu	r16,r4,402efe0 <__alt_data_end+0xfffeefe0>
 402f050:	0007883a 	mov	r3,zero
 402f054:	003f3f06 	br	402ed54 <__alt_data_end+0xfffeed54>
 402f058:	ba402c36 	bltu	r23,r9,402f10c <__divdf3+0x810>
 402f05c:	4dc05426 	beq	r9,r23,402f1b0 <__divdf3+0x8b4>
 402f060:	1011883a 	mov	r8,r2
 402f064:	003f8906 	br	402ee8c <__alt_data_end+0xfffeee8c>
 402f068:	023fffc4 	movi	r8,-1
 402f06c:	003f8806 	br	402ee90 <__alt_data_end+0xfffeee90>
 402f070:	1811883a 	mov	r8,r3
 402f074:	003f5406 	br	402edc8 <__alt_data_end+0xfffeedc8>
 402f078:	1025883a 	mov	r18,r2
 402f07c:	003f6d06 	br	402ee34 <__alt_data_end+0xfffeee34>
 402f080:	b827883a 	mov	r19,r23
 402f084:	003f8206 	br	402ee90 <__alt_data_end+0xfffeee90>
 402f088:	010007c4 	movi	r4,31
 402f08c:	20c02616 	blt	r4,r3,402f128 <__divdf3+0x82c>
 402f090:	00800804 	movi	r2,32
 402f094:	10c5c83a 	sub	r2,r2,r3
 402f098:	888a983a 	sll	r5,r17,r2
 402f09c:	40c8d83a 	srl	r4,r8,r3
 402f0a0:	4084983a 	sll	r2,r8,r2
 402f0a4:	88e2d83a 	srl	r17,r17,r3
 402f0a8:	2906b03a 	or	r3,r5,r4
 402f0ac:	1004c03a 	cmpne	r2,r2,zero
 402f0b0:	1886b03a 	or	r3,r3,r2
 402f0b4:	188001cc 	andi	r2,r3,7
 402f0b8:	10000726 	beq	r2,zero,402f0d8 <__divdf3+0x7dc>
 402f0bc:	188003cc 	andi	r2,r3,15
 402f0c0:	01000104 	movi	r4,4
 402f0c4:	11000426 	beq	r2,r4,402f0d8 <__divdf3+0x7dc>
 402f0c8:	1805883a 	mov	r2,r3
 402f0cc:	10c00104 	addi	r3,r2,4
 402f0d0:	1885803a 	cmpltu	r2,r3,r2
 402f0d4:	88a3883a 	add	r17,r17,r2
 402f0d8:	8880202c 	andhi	r2,r17,128
 402f0dc:	10002726 	beq	r2,zero,402f17c <__divdf3+0x880>
 402f0e0:	98c0004c 	andi	r3,r19,1
 402f0e4:	00800044 	movi	r2,1
 402f0e8:	000b883a 	mov	r5,zero
 402f0ec:	0025883a 	mov	r18,zero
 402f0f0:	003e6106 	br	402ea78 <__alt_data_end+0xfffeea78>
 402f0f4:	85a1883a 	add	r16,r16,r22
 402f0f8:	8585803a 	cmpltu	r2,r16,r22
 402f0fc:	1705883a 	add	r2,r2,fp
 402f100:	14a5883a 	add	r18,r2,r18
 402f104:	8c7fff84 	addi	r17,r17,-2
 402f108:	003f1106 	br	402ed50 <__alt_data_end+0xfffeed50>
 402f10c:	b589883a 	add	r4,r22,r22
 402f110:	25ad803a 	cmpltu	r22,r4,r22
 402f114:	b739883a 	add	fp,r22,fp
 402f118:	40bfff84 	addi	r2,r8,-2
 402f11c:	bf2f883a 	add	r23,r23,fp
 402f120:	202d883a 	mov	r22,r4
 402f124:	003f9306 	br	402ef74 <__alt_data_end+0xfffeef74>
 402f128:	013ff844 	movi	r4,-31
 402f12c:	2085c83a 	sub	r2,r4,r2
 402f130:	8888d83a 	srl	r4,r17,r2
 402f134:	00800804 	movi	r2,32
 402f138:	18802126 	beq	r3,r2,402f1c0 <__divdf3+0x8c4>
 402f13c:	00801004 	movi	r2,64
 402f140:	10c5c83a 	sub	r2,r2,r3
 402f144:	8884983a 	sll	r2,r17,r2
 402f148:	1204b03a 	or	r2,r2,r8
 402f14c:	1004c03a 	cmpne	r2,r2,zero
 402f150:	2084b03a 	or	r2,r4,r2
 402f154:	144001cc 	andi	r17,r2,7
 402f158:	88000d1e 	bne	r17,zero,402f190 <__divdf3+0x894>
 402f15c:	000b883a 	mov	r5,zero
 402f160:	1024d0fa 	srli	r18,r2,3
 402f164:	98c0004c 	andi	r3,r19,1
 402f168:	0005883a 	mov	r2,zero
 402f16c:	9464b03a 	or	r18,r18,r17
 402f170:	003e4106 	br	402ea78 <__alt_data_end+0xfffeea78>
 402f174:	1007883a 	mov	r3,r2
 402f178:	0023883a 	mov	r17,zero
 402f17c:	880a927a 	slli	r5,r17,9
 402f180:	1805883a 	mov	r2,r3
 402f184:	8822977a 	slli	r17,r17,29
 402f188:	280ad33a 	srli	r5,r5,12
 402f18c:	003ff406 	br	402f160 <__alt_data_end+0xfffef160>
 402f190:	10c003cc 	andi	r3,r2,15
 402f194:	01000104 	movi	r4,4
 402f198:	193ff626 	beq	r3,r4,402f174 <__alt_data_end+0xfffef174>
 402f19c:	0023883a 	mov	r17,zero
 402f1a0:	003fca06 	br	402f0cc <__alt_data_end+0xfffef0cc>
 402f1a4:	813fd336 	bltu	r16,r4,402f0f4 <__alt_data_end+0xfffef0f4>
 402f1a8:	1023883a 	mov	r17,r2
 402f1ac:	003fa806 	br	402f050 <__alt_data_end+0xfffef050>
 402f1b0:	b0ffd636 	bltu	r22,r3,402f10c <__alt_data_end+0xfffef10c>
 402f1b4:	1011883a 	mov	r8,r2
 402f1b8:	b0ff341e 	bne	r22,r3,402ee8c <__alt_data_end+0xfffeee8c>
 402f1bc:	003f3406 	br	402ee90 <__alt_data_end+0xfffeee90>
 402f1c0:	0005883a 	mov	r2,zero
 402f1c4:	003fe006 	br	402f148 <__alt_data_end+0xfffef148>
 402f1c8:	00800434 	movhi	r2,16
 402f1cc:	89400234 	orhi	r5,r17,8
 402f1d0:	10bfffc4 	addi	r2,r2,-1
 402f1d4:	b807883a 	mov	r3,r23
 402f1d8:	288a703a 	and	r5,r5,r2
 402f1dc:	4025883a 	mov	r18,r8
 402f1e0:	003e8206 	br	402ebec <__alt_data_end+0xfffeebec>

0402f1e4 <__eqdf2>:
 402f1e4:	2804d53a 	srli	r2,r5,20
 402f1e8:	3806d53a 	srli	r3,r7,20
 402f1ec:	02000434 	movhi	r8,16
 402f1f0:	423fffc4 	addi	r8,r8,-1
 402f1f4:	1081ffcc 	andi	r2,r2,2047
 402f1f8:	0281ffc4 	movi	r10,2047
 402f1fc:	2a12703a 	and	r9,r5,r8
 402f200:	18c1ffcc 	andi	r3,r3,2047
 402f204:	3a10703a 	and	r8,r7,r8
 402f208:	280ad7fa 	srli	r5,r5,31
 402f20c:	380ed7fa 	srli	r7,r7,31
 402f210:	12801026 	beq	r2,r10,402f254 <__eqdf2+0x70>
 402f214:	0281ffc4 	movi	r10,2047
 402f218:	1a800a26 	beq	r3,r10,402f244 <__eqdf2+0x60>
 402f21c:	10c00226 	beq	r2,r3,402f228 <__eqdf2+0x44>
 402f220:	00800044 	movi	r2,1
 402f224:	f800283a 	ret
 402f228:	4a3ffd1e 	bne	r9,r8,402f220 <__alt_data_end+0xfffef220>
 402f22c:	21bffc1e 	bne	r4,r6,402f220 <__alt_data_end+0xfffef220>
 402f230:	29c00c26 	beq	r5,r7,402f264 <__eqdf2+0x80>
 402f234:	103ffa1e 	bne	r2,zero,402f220 <__alt_data_end+0xfffef220>
 402f238:	2244b03a 	or	r2,r4,r9
 402f23c:	1004c03a 	cmpne	r2,r2,zero
 402f240:	f800283a 	ret
 402f244:	3214b03a 	or	r10,r6,r8
 402f248:	503ff426 	beq	r10,zero,402f21c <__alt_data_end+0xfffef21c>
 402f24c:	00800044 	movi	r2,1
 402f250:	f800283a 	ret
 402f254:	2254b03a 	or	r10,r4,r9
 402f258:	503fee26 	beq	r10,zero,402f214 <__alt_data_end+0xfffef214>
 402f25c:	00800044 	movi	r2,1
 402f260:	f800283a 	ret
 402f264:	0005883a 	mov	r2,zero
 402f268:	f800283a 	ret

0402f26c <__gedf2>:
 402f26c:	2804d53a 	srli	r2,r5,20
 402f270:	3806d53a 	srli	r3,r7,20
 402f274:	02000434 	movhi	r8,16
 402f278:	423fffc4 	addi	r8,r8,-1
 402f27c:	1081ffcc 	andi	r2,r2,2047
 402f280:	0241ffc4 	movi	r9,2047
 402f284:	2a14703a 	and	r10,r5,r8
 402f288:	18c1ffcc 	andi	r3,r3,2047
 402f28c:	3a10703a 	and	r8,r7,r8
 402f290:	280ad7fa 	srli	r5,r5,31
 402f294:	380ed7fa 	srli	r7,r7,31
 402f298:	12401d26 	beq	r2,r9,402f310 <__gedf2+0xa4>
 402f29c:	0241ffc4 	movi	r9,2047
 402f2a0:	1a401226 	beq	r3,r9,402f2ec <__gedf2+0x80>
 402f2a4:	1000081e 	bne	r2,zero,402f2c8 <__gedf2+0x5c>
 402f2a8:	2296b03a 	or	r11,r4,r10
 402f2ac:	5813003a 	cmpeq	r9,r11,zero
 402f2b0:	1800091e 	bne	r3,zero,402f2d8 <__gedf2+0x6c>
 402f2b4:	3218b03a 	or	r12,r6,r8
 402f2b8:	6000071e 	bne	r12,zero,402f2d8 <__gedf2+0x6c>
 402f2bc:	0005883a 	mov	r2,zero
 402f2c0:	5800101e 	bne	r11,zero,402f304 <__gedf2+0x98>
 402f2c4:	f800283a 	ret
 402f2c8:	18000c1e 	bne	r3,zero,402f2fc <__gedf2+0x90>
 402f2cc:	3212b03a 	or	r9,r6,r8
 402f2d0:	48000c26 	beq	r9,zero,402f304 <__gedf2+0x98>
 402f2d4:	0013883a 	mov	r9,zero
 402f2d8:	39c03fcc 	andi	r7,r7,255
 402f2dc:	48000826 	beq	r9,zero,402f300 <__gedf2+0x94>
 402f2e0:	38000926 	beq	r7,zero,402f308 <__gedf2+0x9c>
 402f2e4:	00800044 	movi	r2,1
 402f2e8:	f800283a 	ret
 402f2ec:	3212b03a 	or	r9,r6,r8
 402f2f0:	483fec26 	beq	r9,zero,402f2a4 <__alt_data_end+0xfffef2a4>
 402f2f4:	00bfff84 	movi	r2,-2
 402f2f8:	f800283a 	ret
 402f2fc:	39c03fcc 	andi	r7,r7,255
 402f300:	29c00626 	beq	r5,r7,402f31c <__gedf2+0xb0>
 402f304:	283ff726 	beq	r5,zero,402f2e4 <__alt_data_end+0xfffef2e4>
 402f308:	00bfffc4 	movi	r2,-1
 402f30c:	f800283a 	ret
 402f310:	2292b03a 	or	r9,r4,r10
 402f314:	483fe126 	beq	r9,zero,402f29c <__alt_data_end+0xfffef29c>
 402f318:	003ff606 	br	402f2f4 <__alt_data_end+0xfffef2f4>
 402f31c:	18bff916 	blt	r3,r2,402f304 <__alt_data_end+0xfffef304>
 402f320:	10c00316 	blt	r2,r3,402f330 <__gedf2+0xc4>
 402f324:	42bff736 	bltu	r8,r10,402f304 <__alt_data_end+0xfffef304>
 402f328:	52000326 	beq	r10,r8,402f338 <__gedf2+0xcc>
 402f32c:	5200042e 	bgeu	r10,r8,402f340 <__gedf2+0xd4>
 402f330:	283fec1e 	bne	r5,zero,402f2e4 <__alt_data_end+0xfffef2e4>
 402f334:	003ff406 	br	402f308 <__alt_data_end+0xfffef308>
 402f338:	313ff236 	bltu	r6,r4,402f304 <__alt_data_end+0xfffef304>
 402f33c:	21bffc36 	bltu	r4,r6,402f330 <__alt_data_end+0xfffef330>
 402f340:	0005883a 	mov	r2,zero
 402f344:	f800283a 	ret

0402f348 <__ledf2>:
 402f348:	2804d53a 	srli	r2,r5,20
 402f34c:	3810d53a 	srli	r8,r7,20
 402f350:	00c00434 	movhi	r3,16
 402f354:	18ffffc4 	addi	r3,r3,-1
 402f358:	1081ffcc 	andi	r2,r2,2047
 402f35c:	0241ffc4 	movi	r9,2047
 402f360:	28d4703a 	and	r10,r5,r3
 402f364:	4201ffcc 	andi	r8,r8,2047
 402f368:	38c6703a 	and	r3,r7,r3
 402f36c:	280ad7fa 	srli	r5,r5,31
 402f370:	380ed7fa 	srli	r7,r7,31
 402f374:	12401f26 	beq	r2,r9,402f3f4 <__ledf2+0xac>
 402f378:	0241ffc4 	movi	r9,2047
 402f37c:	42401426 	beq	r8,r9,402f3d0 <__ledf2+0x88>
 402f380:	1000091e 	bne	r2,zero,402f3a8 <__ledf2+0x60>
 402f384:	2296b03a 	or	r11,r4,r10
 402f388:	5813003a 	cmpeq	r9,r11,zero
 402f38c:	29403fcc 	andi	r5,r5,255
 402f390:	40000a1e 	bne	r8,zero,402f3bc <__ledf2+0x74>
 402f394:	30d8b03a 	or	r12,r6,r3
 402f398:	6000081e 	bne	r12,zero,402f3bc <__ledf2+0x74>
 402f39c:	0005883a 	mov	r2,zero
 402f3a0:	5800111e 	bne	r11,zero,402f3e8 <__ledf2+0xa0>
 402f3a4:	f800283a 	ret
 402f3a8:	29403fcc 	andi	r5,r5,255
 402f3ac:	40000c1e 	bne	r8,zero,402f3e0 <__ledf2+0x98>
 402f3b0:	30d2b03a 	or	r9,r6,r3
 402f3b4:	48000c26 	beq	r9,zero,402f3e8 <__ledf2+0xa0>
 402f3b8:	0013883a 	mov	r9,zero
 402f3bc:	39c03fcc 	andi	r7,r7,255
 402f3c0:	48000826 	beq	r9,zero,402f3e4 <__ledf2+0x9c>
 402f3c4:	38001126 	beq	r7,zero,402f40c <__ledf2+0xc4>
 402f3c8:	00800044 	movi	r2,1
 402f3cc:	f800283a 	ret
 402f3d0:	30d2b03a 	or	r9,r6,r3
 402f3d4:	483fea26 	beq	r9,zero,402f380 <__alt_data_end+0xfffef380>
 402f3d8:	00800084 	movi	r2,2
 402f3dc:	f800283a 	ret
 402f3e0:	39c03fcc 	andi	r7,r7,255
 402f3e4:	39400726 	beq	r7,r5,402f404 <__ledf2+0xbc>
 402f3e8:	2800081e 	bne	r5,zero,402f40c <__ledf2+0xc4>
 402f3ec:	00800044 	movi	r2,1
 402f3f0:	f800283a 	ret
 402f3f4:	2292b03a 	or	r9,r4,r10
 402f3f8:	483fdf26 	beq	r9,zero,402f378 <__alt_data_end+0xfffef378>
 402f3fc:	00800084 	movi	r2,2
 402f400:	f800283a 	ret
 402f404:	4080030e 	bge	r8,r2,402f414 <__ledf2+0xcc>
 402f408:	383fef26 	beq	r7,zero,402f3c8 <__alt_data_end+0xfffef3c8>
 402f40c:	00bfffc4 	movi	r2,-1
 402f410:	f800283a 	ret
 402f414:	123feb16 	blt	r2,r8,402f3c4 <__alt_data_end+0xfffef3c4>
 402f418:	1abff336 	bltu	r3,r10,402f3e8 <__alt_data_end+0xfffef3e8>
 402f41c:	50c00326 	beq	r10,r3,402f42c <__ledf2+0xe4>
 402f420:	50c0042e 	bgeu	r10,r3,402f434 <__ledf2+0xec>
 402f424:	283fe81e 	bne	r5,zero,402f3c8 <__alt_data_end+0xfffef3c8>
 402f428:	003ff806 	br	402f40c <__alt_data_end+0xfffef40c>
 402f42c:	313fee36 	bltu	r6,r4,402f3e8 <__alt_data_end+0xfffef3e8>
 402f430:	21bffc36 	bltu	r4,r6,402f424 <__alt_data_end+0xfffef424>
 402f434:	0005883a 	mov	r2,zero
 402f438:	f800283a 	ret

0402f43c <__muldf3>:
 402f43c:	defff304 	addi	sp,sp,-52
 402f440:	2804d53a 	srli	r2,r5,20
 402f444:	dd800915 	stw	r22,36(sp)
 402f448:	282cd7fa 	srli	r22,r5,31
 402f44c:	dc000315 	stw	r16,12(sp)
 402f450:	04000434 	movhi	r16,16
 402f454:	dd400815 	stw	r21,32(sp)
 402f458:	dc800515 	stw	r18,20(sp)
 402f45c:	843fffc4 	addi	r16,r16,-1
 402f460:	dfc00c15 	stw	ra,48(sp)
 402f464:	df000b15 	stw	fp,44(sp)
 402f468:	ddc00a15 	stw	r23,40(sp)
 402f46c:	dd000715 	stw	r20,28(sp)
 402f470:	dcc00615 	stw	r19,24(sp)
 402f474:	dc400415 	stw	r17,16(sp)
 402f478:	1481ffcc 	andi	r18,r2,2047
 402f47c:	2c20703a 	and	r16,r5,r16
 402f480:	b02b883a 	mov	r21,r22
 402f484:	b2403fcc 	andi	r9,r22,255
 402f488:	90006026 	beq	r18,zero,402f60c <__muldf3+0x1d0>
 402f48c:	0081ffc4 	movi	r2,2047
 402f490:	2029883a 	mov	r20,r4
 402f494:	90803626 	beq	r18,r2,402f570 <__muldf3+0x134>
 402f498:	80800434 	orhi	r2,r16,16
 402f49c:	100490fa 	slli	r2,r2,3
 402f4a0:	2020d77a 	srli	r16,r4,29
 402f4a4:	202890fa 	slli	r20,r4,3
 402f4a8:	94bf0044 	addi	r18,r18,-1023
 402f4ac:	80a0b03a 	or	r16,r16,r2
 402f4b0:	0027883a 	mov	r19,zero
 402f4b4:	0039883a 	mov	fp,zero
 402f4b8:	3804d53a 	srli	r2,r7,20
 402f4bc:	382ed7fa 	srli	r23,r7,31
 402f4c0:	04400434 	movhi	r17,16
 402f4c4:	8c7fffc4 	addi	r17,r17,-1
 402f4c8:	1081ffcc 	andi	r2,r2,2047
 402f4cc:	3011883a 	mov	r8,r6
 402f4d0:	3c62703a 	and	r17,r7,r17
 402f4d4:	ba803fcc 	andi	r10,r23,255
 402f4d8:	10006d26 	beq	r2,zero,402f690 <__muldf3+0x254>
 402f4dc:	00c1ffc4 	movi	r3,2047
 402f4e0:	10c06526 	beq	r2,r3,402f678 <__muldf3+0x23c>
 402f4e4:	88c00434 	orhi	r3,r17,16
 402f4e8:	180690fa 	slli	r3,r3,3
 402f4ec:	3022d77a 	srli	r17,r6,29
 402f4f0:	301090fa 	slli	r8,r6,3
 402f4f4:	10bf0044 	addi	r2,r2,-1023
 402f4f8:	88e2b03a 	or	r17,r17,r3
 402f4fc:	000b883a 	mov	r5,zero
 402f500:	9085883a 	add	r2,r18,r2
 402f504:	2cc8b03a 	or	r4,r5,r19
 402f508:	00c003c4 	movi	r3,15
 402f50c:	bdacf03a 	xor	r22,r23,r22
 402f510:	12c00044 	addi	r11,r2,1
 402f514:	19009936 	bltu	r3,r4,402f77c <__muldf3+0x340>
 402f518:	200890ba 	slli	r4,r4,2
 402f51c:	00c100f4 	movhi	r3,1027
 402f520:	18fd4c04 	addi	r3,r3,-2768
 402f524:	20c9883a 	add	r4,r4,r3
 402f528:	20c00017 	ldw	r3,0(r4)
 402f52c:	1800683a 	jmp	r3
 402f530:	0402f77c 	xorhi	r16,zero,3037
 402f534:	0402f590 	cmplti	r16,zero,3030
 402f538:	0402f590 	cmplti	r16,zero,3030
 402f53c:	0402f58c 	andi	r16,zero,3030
 402f540:	0402f758 	cmpnei	r16,zero,3037
 402f544:	0402f758 	cmpnei	r16,zero,3037
 402f548:	0402f740 	call	402f74 <__alt_mem_sdram_controller_2+0x402f74>
 402f54c:	0402f58c 	andi	r16,zero,3030
 402f550:	0402f758 	cmpnei	r16,zero,3037
 402f554:	0402f740 	call	402f74 <__alt_mem_sdram_controller_2+0x402f74>
 402f558:	0402f758 	cmpnei	r16,zero,3037
 402f55c:	0402f58c 	andi	r16,zero,3030
 402f560:	0402f768 	cmpgeui	r16,zero,3037
 402f564:	0402f768 	cmpgeui	r16,zero,3037
 402f568:	0402f768 	cmpgeui	r16,zero,3037
 402f56c:	0402f984 	movi	r16,3046
 402f570:	2404b03a 	or	r2,r4,r16
 402f574:	10006f1e 	bne	r2,zero,402f734 <__muldf3+0x2f8>
 402f578:	04c00204 	movi	r19,8
 402f57c:	0021883a 	mov	r16,zero
 402f580:	0029883a 	mov	r20,zero
 402f584:	07000084 	movi	fp,2
 402f588:	003fcb06 	br	402f4b8 <__alt_data_end+0xfffef4b8>
 402f58c:	502d883a 	mov	r22,r10
 402f590:	00800084 	movi	r2,2
 402f594:	28805726 	beq	r5,r2,402f6f4 <__muldf3+0x2b8>
 402f598:	008000c4 	movi	r2,3
 402f59c:	28816626 	beq	r5,r2,402fb38 <__muldf3+0x6fc>
 402f5a0:	00800044 	movi	r2,1
 402f5a4:	2881411e 	bne	r5,r2,402faac <__muldf3+0x670>
 402f5a8:	b02b883a 	mov	r21,r22
 402f5ac:	0005883a 	mov	r2,zero
 402f5b0:	000b883a 	mov	r5,zero
 402f5b4:	0029883a 	mov	r20,zero
 402f5b8:	1004953a 	slli	r2,r2,20
 402f5bc:	a8c03fcc 	andi	r3,r21,255
 402f5c0:	04400434 	movhi	r17,16
 402f5c4:	8c7fffc4 	addi	r17,r17,-1
 402f5c8:	180697fa 	slli	r3,r3,31
 402f5cc:	2c4a703a 	and	r5,r5,r17
 402f5d0:	288ab03a 	or	r5,r5,r2
 402f5d4:	28c6b03a 	or	r3,r5,r3
 402f5d8:	a005883a 	mov	r2,r20
 402f5dc:	dfc00c17 	ldw	ra,48(sp)
 402f5e0:	df000b17 	ldw	fp,44(sp)
 402f5e4:	ddc00a17 	ldw	r23,40(sp)
 402f5e8:	dd800917 	ldw	r22,36(sp)
 402f5ec:	dd400817 	ldw	r21,32(sp)
 402f5f0:	dd000717 	ldw	r20,28(sp)
 402f5f4:	dcc00617 	ldw	r19,24(sp)
 402f5f8:	dc800517 	ldw	r18,20(sp)
 402f5fc:	dc400417 	ldw	r17,16(sp)
 402f600:	dc000317 	ldw	r16,12(sp)
 402f604:	dec00d04 	addi	sp,sp,52
 402f608:	f800283a 	ret
 402f60c:	2404b03a 	or	r2,r4,r16
 402f610:	2027883a 	mov	r19,r4
 402f614:	10004226 	beq	r2,zero,402f720 <__muldf3+0x2e4>
 402f618:	8000fc26 	beq	r16,zero,402fa0c <__muldf3+0x5d0>
 402f61c:	8009883a 	mov	r4,r16
 402f620:	d9800215 	stw	r6,8(sp)
 402f624:	d9c00015 	stw	r7,0(sp)
 402f628:	da400115 	stw	r9,4(sp)
 402f62c:	40306540 	call	4030654 <__clzsi2>
 402f630:	d9800217 	ldw	r6,8(sp)
 402f634:	d9c00017 	ldw	r7,0(sp)
 402f638:	da400117 	ldw	r9,4(sp)
 402f63c:	113ffd44 	addi	r4,r2,-11
 402f640:	00c00704 	movi	r3,28
 402f644:	1900ed16 	blt	r3,r4,402f9fc <__muldf3+0x5c0>
 402f648:	00c00744 	movi	r3,29
 402f64c:	147ffe04 	addi	r17,r2,-8
 402f650:	1907c83a 	sub	r3,r3,r4
 402f654:	8460983a 	sll	r16,r16,r17
 402f658:	98c6d83a 	srl	r3,r19,r3
 402f65c:	9c68983a 	sll	r20,r19,r17
 402f660:	1c20b03a 	or	r16,r3,r16
 402f664:	1080fcc4 	addi	r2,r2,1011
 402f668:	00a5c83a 	sub	r18,zero,r2
 402f66c:	0027883a 	mov	r19,zero
 402f670:	0039883a 	mov	fp,zero
 402f674:	003f9006 	br	402f4b8 <__alt_data_end+0xfffef4b8>
 402f678:	3446b03a 	or	r3,r6,r17
 402f67c:	1800261e 	bne	r3,zero,402f718 <__muldf3+0x2dc>
 402f680:	0023883a 	mov	r17,zero
 402f684:	0011883a 	mov	r8,zero
 402f688:	01400084 	movi	r5,2
 402f68c:	003f9c06 	br	402f500 <__alt_data_end+0xfffef500>
 402f690:	3446b03a 	or	r3,r6,r17
 402f694:	18001c26 	beq	r3,zero,402f708 <__muldf3+0x2cc>
 402f698:	8800ce26 	beq	r17,zero,402f9d4 <__muldf3+0x598>
 402f69c:	8809883a 	mov	r4,r17
 402f6a0:	d9800215 	stw	r6,8(sp)
 402f6a4:	da400115 	stw	r9,4(sp)
 402f6a8:	da800015 	stw	r10,0(sp)
 402f6ac:	40306540 	call	4030654 <__clzsi2>
 402f6b0:	d9800217 	ldw	r6,8(sp)
 402f6b4:	da400117 	ldw	r9,4(sp)
 402f6b8:	da800017 	ldw	r10,0(sp)
 402f6bc:	113ffd44 	addi	r4,r2,-11
 402f6c0:	00c00704 	movi	r3,28
 402f6c4:	1900bf16 	blt	r3,r4,402f9c4 <__muldf3+0x588>
 402f6c8:	00c00744 	movi	r3,29
 402f6cc:	123ffe04 	addi	r8,r2,-8
 402f6d0:	1907c83a 	sub	r3,r3,r4
 402f6d4:	8a22983a 	sll	r17,r17,r8
 402f6d8:	30c6d83a 	srl	r3,r6,r3
 402f6dc:	3210983a 	sll	r8,r6,r8
 402f6e0:	1c62b03a 	or	r17,r3,r17
 402f6e4:	1080fcc4 	addi	r2,r2,1011
 402f6e8:	0085c83a 	sub	r2,zero,r2
 402f6ec:	000b883a 	mov	r5,zero
 402f6f0:	003f8306 	br	402f500 <__alt_data_end+0xfffef500>
 402f6f4:	b02b883a 	mov	r21,r22
 402f6f8:	0081ffc4 	movi	r2,2047
 402f6fc:	000b883a 	mov	r5,zero
 402f700:	0029883a 	mov	r20,zero
 402f704:	003fac06 	br	402f5b8 <__alt_data_end+0xfffef5b8>
 402f708:	0023883a 	mov	r17,zero
 402f70c:	0011883a 	mov	r8,zero
 402f710:	01400044 	movi	r5,1
 402f714:	003f7a06 	br	402f500 <__alt_data_end+0xfffef500>
 402f718:	014000c4 	movi	r5,3
 402f71c:	003f7806 	br	402f500 <__alt_data_end+0xfffef500>
 402f720:	04c00104 	movi	r19,4
 402f724:	0021883a 	mov	r16,zero
 402f728:	0029883a 	mov	r20,zero
 402f72c:	07000044 	movi	fp,1
 402f730:	003f6106 	br	402f4b8 <__alt_data_end+0xfffef4b8>
 402f734:	04c00304 	movi	r19,12
 402f738:	070000c4 	movi	fp,3
 402f73c:	003f5e06 	br	402f4b8 <__alt_data_end+0xfffef4b8>
 402f740:	01400434 	movhi	r5,16
 402f744:	002b883a 	mov	r21,zero
 402f748:	297fffc4 	addi	r5,r5,-1
 402f74c:	053fffc4 	movi	r20,-1
 402f750:	0081ffc4 	movi	r2,2047
 402f754:	003f9806 	br	402f5b8 <__alt_data_end+0xfffef5b8>
 402f758:	8023883a 	mov	r17,r16
 402f75c:	a011883a 	mov	r8,r20
 402f760:	e00b883a 	mov	r5,fp
 402f764:	003f8a06 	br	402f590 <__alt_data_end+0xfffef590>
 402f768:	8023883a 	mov	r17,r16
 402f76c:	a011883a 	mov	r8,r20
 402f770:	482d883a 	mov	r22,r9
 402f774:	e00b883a 	mov	r5,fp
 402f778:	003f8506 	br	402f590 <__alt_data_end+0xfffef590>
 402f77c:	a00ad43a 	srli	r5,r20,16
 402f780:	401ad43a 	srli	r13,r8,16
 402f784:	a53fffcc 	andi	r20,r20,65535
 402f788:	423fffcc 	andi	r8,r8,65535
 402f78c:	4519383a 	mul	r12,r8,r20
 402f790:	4147383a 	mul	r3,r8,r5
 402f794:	6d09383a 	mul	r4,r13,r20
 402f798:	600cd43a 	srli	r6,r12,16
 402f79c:	2b5d383a 	mul	r14,r5,r13
 402f7a0:	20c9883a 	add	r4,r4,r3
 402f7a4:	310d883a 	add	r6,r6,r4
 402f7a8:	30c0022e 	bgeu	r6,r3,402f7b4 <__muldf3+0x378>
 402f7ac:	00c00074 	movhi	r3,1
 402f7b0:	70dd883a 	add	r14,r14,r3
 402f7b4:	8826d43a 	srli	r19,r17,16
 402f7b8:	8bffffcc 	andi	r15,r17,65535
 402f7bc:	7d23383a 	mul	r17,r15,r20
 402f7c0:	7949383a 	mul	r4,r15,r5
 402f7c4:	9d29383a 	mul	r20,r19,r20
 402f7c8:	8814d43a 	srli	r10,r17,16
 402f7cc:	3012943a 	slli	r9,r6,16
 402f7d0:	a129883a 	add	r20,r20,r4
 402f7d4:	633fffcc 	andi	r12,r12,65535
 402f7d8:	5515883a 	add	r10,r10,r20
 402f7dc:	3006d43a 	srli	r3,r6,16
 402f7e0:	4b13883a 	add	r9,r9,r12
 402f7e4:	2ccb383a 	mul	r5,r5,r19
 402f7e8:	5100022e 	bgeu	r10,r4,402f7f4 <__muldf3+0x3b8>
 402f7ec:	01000074 	movhi	r4,1
 402f7f0:	290b883a 	add	r5,r5,r4
 402f7f4:	802ad43a 	srli	r21,r16,16
 402f7f8:	843fffcc 	andi	r16,r16,65535
 402f7fc:	440d383a 	mul	r6,r8,r16
 402f800:	4565383a 	mul	r18,r8,r21
 402f804:	8349383a 	mul	r4,r16,r13
 402f808:	500e943a 	slli	r7,r10,16
 402f80c:	3010d43a 	srli	r8,r6,16
 402f810:	5028d43a 	srli	r20,r10,16
 402f814:	2489883a 	add	r4,r4,r18
 402f818:	8abfffcc 	andi	r10,r17,65535
 402f81c:	3a95883a 	add	r10,r7,r10
 402f820:	4119883a 	add	r12,r8,r4
 402f824:	a169883a 	add	r20,r20,r5
 402f828:	1a87883a 	add	r3,r3,r10
 402f82c:	6d5b383a 	mul	r13,r13,r21
 402f830:	6480022e 	bgeu	r12,r18,402f83c <__muldf3+0x400>
 402f834:	01000074 	movhi	r4,1
 402f838:	691b883a 	add	r13,r13,r4
 402f83c:	7c25383a 	mul	r18,r15,r16
 402f840:	7d4b383a 	mul	r5,r15,r21
 402f844:	84cf383a 	mul	r7,r16,r19
 402f848:	901ed43a 	srli	r15,r18,16
 402f84c:	6008d43a 	srli	r4,r12,16
 402f850:	6010943a 	slli	r8,r12,16
 402f854:	394f883a 	add	r7,r7,r5
 402f858:	333fffcc 	andi	r12,r6,65535
 402f85c:	79df883a 	add	r15,r15,r7
 402f860:	235b883a 	add	r13,r4,r13
 402f864:	9d63383a 	mul	r17,r19,r21
 402f868:	4309883a 	add	r4,r8,r12
 402f86c:	7940022e 	bgeu	r15,r5,402f878 <__muldf3+0x43c>
 402f870:	01400074 	movhi	r5,1
 402f874:	8963883a 	add	r17,r17,r5
 402f878:	780a943a 	slli	r5,r15,16
 402f87c:	91bfffcc 	andi	r6,r18,65535
 402f880:	70c7883a 	add	r3,r14,r3
 402f884:	298d883a 	add	r6,r5,r6
 402f888:	1a8f803a 	cmpltu	r7,r3,r10
 402f88c:	350b883a 	add	r5,r6,r20
 402f890:	20c7883a 	add	r3,r4,r3
 402f894:	3955883a 	add	r10,r7,r5
 402f898:	1909803a 	cmpltu	r4,r3,r4
 402f89c:	6a91883a 	add	r8,r13,r10
 402f8a0:	780cd43a 	srli	r6,r15,16
 402f8a4:	2219883a 	add	r12,r4,r8
 402f8a8:	2d0b803a 	cmpltu	r5,r5,r20
 402f8ac:	51cf803a 	cmpltu	r7,r10,r7
 402f8b0:	29ceb03a 	or	r7,r5,r7
 402f8b4:	4351803a 	cmpltu	r8,r8,r13
 402f8b8:	610b803a 	cmpltu	r5,r12,r4
 402f8bc:	4148b03a 	or	r4,r8,r5
 402f8c0:	398f883a 	add	r7,r7,r6
 402f8c4:	3909883a 	add	r4,r7,r4
 402f8c8:	1810927a 	slli	r8,r3,9
 402f8cc:	2449883a 	add	r4,r4,r17
 402f8d0:	2008927a 	slli	r4,r4,9
 402f8d4:	6022d5fa 	srli	r17,r12,23
 402f8d8:	1806d5fa 	srli	r3,r3,23
 402f8dc:	4252b03a 	or	r9,r8,r9
 402f8e0:	600a927a 	slli	r5,r12,9
 402f8e4:	4810c03a 	cmpne	r8,r9,zero
 402f8e8:	2462b03a 	or	r17,r4,r17
 402f8ec:	40c6b03a 	or	r3,r8,r3
 402f8f0:	8900402c 	andhi	r4,r17,256
 402f8f4:	1950b03a 	or	r8,r3,r5
 402f8f8:	20000726 	beq	r4,zero,402f918 <__muldf3+0x4dc>
 402f8fc:	4006d07a 	srli	r3,r8,1
 402f900:	880497fa 	slli	r2,r17,31
 402f904:	4200004c 	andi	r8,r8,1
 402f908:	8822d07a 	srli	r17,r17,1
 402f90c:	1a10b03a 	or	r8,r3,r8
 402f910:	1210b03a 	or	r8,r2,r8
 402f914:	5805883a 	mov	r2,r11
 402f918:	1140ffc4 	addi	r5,r2,1023
 402f91c:	0140440e 	bge	zero,r5,402fa30 <__muldf3+0x5f4>
 402f920:	40c001cc 	andi	r3,r8,7
 402f924:	18000726 	beq	r3,zero,402f944 <__muldf3+0x508>
 402f928:	40c003cc 	andi	r3,r8,15
 402f92c:	01000104 	movi	r4,4
 402f930:	19000426 	beq	r3,r4,402f944 <__muldf3+0x508>
 402f934:	4107883a 	add	r3,r8,r4
 402f938:	1a11803a 	cmpltu	r8,r3,r8
 402f93c:	8a23883a 	add	r17,r17,r8
 402f940:	1811883a 	mov	r8,r3
 402f944:	88c0402c 	andhi	r3,r17,256
 402f948:	18000426 	beq	r3,zero,402f95c <__muldf3+0x520>
 402f94c:	11410004 	addi	r5,r2,1024
 402f950:	00bfc034 	movhi	r2,65280
 402f954:	10bfffc4 	addi	r2,r2,-1
 402f958:	88a2703a 	and	r17,r17,r2
 402f95c:	0081ff84 	movi	r2,2046
 402f960:	117f6416 	blt	r2,r5,402f6f4 <__alt_data_end+0xfffef6f4>
 402f964:	8828977a 	slli	r20,r17,29
 402f968:	4010d0fa 	srli	r8,r8,3
 402f96c:	8822927a 	slli	r17,r17,9
 402f970:	2881ffcc 	andi	r2,r5,2047
 402f974:	a228b03a 	or	r20,r20,r8
 402f978:	880ad33a 	srli	r5,r17,12
 402f97c:	b02b883a 	mov	r21,r22
 402f980:	003f0d06 	br	402f5b8 <__alt_data_end+0xfffef5b8>
 402f984:	8080022c 	andhi	r2,r16,8
 402f988:	10000926 	beq	r2,zero,402f9b0 <__muldf3+0x574>
 402f98c:	8880022c 	andhi	r2,r17,8
 402f990:	1000071e 	bne	r2,zero,402f9b0 <__muldf3+0x574>
 402f994:	00800434 	movhi	r2,16
 402f998:	89400234 	orhi	r5,r17,8
 402f99c:	10bfffc4 	addi	r2,r2,-1
 402f9a0:	b82b883a 	mov	r21,r23
 402f9a4:	288a703a 	and	r5,r5,r2
 402f9a8:	4029883a 	mov	r20,r8
 402f9ac:	003f6806 	br	402f750 <__alt_data_end+0xfffef750>
 402f9b0:	00800434 	movhi	r2,16
 402f9b4:	81400234 	orhi	r5,r16,8
 402f9b8:	10bfffc4 	addi	r2,r2,-1
 402f9bc:	288a703a 	and	r5,r5,r2
 402f9c0:	003f6306 	br	402f750 <__alt_data_end+0xfffef750>
 402f9c4:	147ff604 	addi	r17,r2,-40
 402f9c8:	3462983a 	sll	r17,r6,r17
 402f9cc:	0011883a 	mov	r8,zero
 402f9d0:	003f4406 	br	402f6e4 <__alt_data_end+0xfffef6e4>
 402f9d4:	3009883a 	mov	r4,r6
 402f9d8:	d9800215 	stw	r6,8(sp)
 402f9dc:	da400115 	stw	r9,4(sp)
 402f9e0:	da800015 	stw	r10,0(sp)
 402f9e4:	40306540 	call	4030654 <__clzsi2>
 402f9e8:	10800804 	addi	r2,r2,32
 402f9ec:	da800017 	ldw	r10,0(sp)
 402f9f0:	da400117 	ldw	r9,4(sp)
 402f9f4:	d9800217 	ldw	r6,8(sp)
 402f9f8:	003f3006 	br	402f6bc <__alt_data_end+0xfffef6bc>
 402f9fc:	143ff604 	addi	r16,r2,-40
 402fa00:	9c20983a 	sll	r16,r19,r16
 402fa04:	0029883a 	mov	r20,zero
 402fa08:	003f1606 	br	402f664 <__alt_data_end+0xfffef664>
 402fa0c:	d9800215 	stw	r6,8(sp)
 402fa10:	d9c00015 	stw	r7,0(sp)
 402fa14:	da400115 	stw	r9,4(sp)
 402fa18:	40306540 	call	4030654 <__clzsi2>
 402fa1c:	10800804 	addi	r2,r2,32
 402fa20:	da400117 	ldw	r9,4(sp)
 402fa24:	d9c00017 	ldw	r7,0(sp)
 402fa28:	d9800217 	ldw	r6,8(sp)
 402fa2c:	003f0306 	br	402f63c <__alt_data_end+0xfffef63c>
 402fa30:	00c00044 	movi	r3,1
 402fa34:	1947c83a 	sub	r3,r3,r5
 402fa38:	00800e04 	movi	r2,56
 402fa3c:	10feda16 	blt	r2,r3,402f5a8 <__alt_data_end+0xfffef5a8>
 402fa40:	008007c4 	movi	r2,31
 402fa44:	10c01b16 	blt	r2,r3,402fab4 <__muldf3+0x678>
 402fa48:	00800804 	movi	r2,32
 402fa4c:	10c5c83a 	sub	r2,r2,r3
 402fa50:	888a983a 	sll	r5,r17,r2
 402fa54:	40c8d83a 	srl	r4,r8,r3
 402fa58:	4084983a 	sll	r2,r8,r2
 402fa5c:	88e2d83a 	srl	r17,r17,r3
 402fa60:	2906b03a 	or	r3,r5,r4
 402fa64:	1004c03a 	cmpne	r2,r2,zero
 402fa68:	1886b03a 	or	r3,r3,r2
 402fa6c:	188001cc 	andi	r2,r3,7
 402fa70:	10000726 	beq	r2,zero,402fa90 <__muldf3+0x654>
 402fa74:	188003cc 	andi	r2,r3,15
 402fa78:	01000104 	movi	r4,4
 402fa7c:	11000426 	beq	r2,r4,402fa90 <__muldf3+0x654>
 402fa80:	1805883a 	mov	r2,r3
 402fa84:	10c00104 	addi	r3,r2,4
 402fa88:	1885803a 	cmpltu	r2,r3,r2
 402fa8c:	88a3883a 	add	r17,r17,r2
 402fa90:	8880202c 	andhi	r2,r17,128
 402fa94:	10001c26 	beq	r2,zero,402fb08 <__muldf3+0x6cc>
 402fa98:	b02b883a 	mov	r21,r22
 402fa9c:	00800044 	movi	r2,1
 402faa0:	000b883a 	mov	r5,zero
 402faa4:	0029883a 	mov	r20,zero
 402faa8:	003ec306 	br	402f5b8 <__alt_data_end+0xfffef5b8>
 402faac:	5805883a 	mov	r2,r11
 402fab0:	003f9906 	br	402f918 <__alt_data_end+0xfffef918>
 402fab4:	00bff844 	movi	r2,-31
 402fab8:	1145c83a 	sub	r2,r2,r5
 402fabc:	8888d83a 	srl	r4,r17,r2
 402fac0:	00800804 	movi	r2,32
 402fac4:	18801a26 	beq	r3,r2,402fb30 <__muldf3+0x6f4>
 402fac8:	00801004 	movi	r2,64
 402facc:	10c5c83a 	sub	r2,r2,r3
 402fad0:	8884983a 	sll	r2,r17,r2
 402fad4:	1204b03a 	or	r2,r2,r8
 402fad8:	1004c03a 	cmpne	r2,r2,zero
 402fadc:	2084b03a 	or	r2,r4,r2
 402fae0:	144001cc 	andi	r17,r2,7
 402fae4:	88000d1e 	bne	r17,zero,402fb1c <__muldf3+0x6e0>
 402fae8:	000b883a 	mov	r5,zero
 402faec:	1028d0fa 	srli	r20,r2,3
 402faf0:	b02b883a 	mov	r21,r22
 402faf4:	0005883a 	mov	r2,zero
 402faf8:	a468b03a 	or	r20,r20,r17
 402fafc:	003eae06 	br	402f5b8 <__alt_data_end+0xfffef5b8>
 402fb00:	1007883a 	mov	r3,r2
 402fb04:	0023883a 	mov	r17,zero
 402fb08:	880a927a 	slli	r5,r17,9
 402fb0c:	1805883a 	mov	r2,r3
 402fb10:	8822977a 	slli	r17,r17,29
 402fb14:	280ad33a 	srli	r5,r5,12
 402fb18:	003ff406 	br	402faec <__alt_data_end+0xfffefaec>
 402fb1c:	10c003cc 	andi	r3,r2,15
 402fb20:	01000104 	movi	r4,4
 402fb24:	193ff626 	beq	r3,r4,402fb00 <__alt_data_end+0xfffefb00>
 402fb28:	0023883a 	mov	r17,zero
 402fb2c:	003fd506 	br	402fa84 <__alt_data_end+0xfffefa84>
 402fb30:	0005883a 	mov	r2,zero
 402fb34:	003fe706 	br	402fad4 <__alt_data_end+0xfffefad4>
 402fb38:	00800434 	movhi	r2,16
 402fb3c:	89400234 	orhi	r5,r17,8
 402fb40:	10bfffc4 	addi	r2,r2,-1
 402fb44:	b02b883a 	mov	r21,r22
 402fb48:	288a703a 	and	r5,r5,r2
 402fb4c:	4029883a 	mov	r20,r8
 402fb50:	003eff06 	br	402f750 <__alt_data_end+0xfffef750>

0402fb54 <__subdf3>:
 402fb54:	02000434 	movhi	r8,16
 402fb58:	423fffc4 	addi	r8,r8,-1
 402fb5c:	defffb04 	addi	sp,sp,-20
 402fb60:	2a14703a 	and	r10,r5,r8
 402fb64:	3812d53a 	srli	r9,r7,20
 402fb68:	3a10703a 	and	r8,r7,r8
 402fb6c:	2006d77a 	srli	r3,r4,29
 402fb70:	3004d77a 	srli	r2,r6,29
 402fb74:	dc000015 	stw	r16,0(sp)
 402fb78:	501490fa 	slli	r10,r10,3
 402fb7c:	2820d53a 	srli	r16,r5,20
 402fb80:	401090fa 	slli	r8,r8,3
 402fb84:	dc800215 	stw	r18,8(sp)
 402fb88:	dc400115 	stw	r17,4(sp)
 402fb8c:	dfc00415 	stw	ra,16(sp)
 402fb90:	202290fa 	slli	r17,r4,3
 402fb94:	dcc00315 	stw	r19,12(sp)
 402fb98:	4a41ffcc 	andi	r9,r9,2047
 402fb9c:	0101ffc4 	movi	r4,2047
 402fba0:	2824d7fa 	srli	r18,r5,31
 402fba4:	8401ffcc 	andi	r16,r16,2047
 402fba8:	50c6b03a 	or	r3,r10,r3
 402fbac:	380ed7fa 	srli	r7,r7,31
 402fbb0:	408ab03a 	or	r5,r8,r2
 402fbb4:	300c90fa 	slli	r6,r6,3
 402fbb8:	49009626 	beq	r9,r4,402fe14 <__subdf3+0x2c0>
 402fbbc:	39c0005c 	xori	r7,r7,1
 402fbc0:	8245c83a 	sub	r2,r16,r9
 402fbc4:	3c807426 	beq	r7,r18,402fd98 <__subdf3+0x244>
 402fbc8:	0080af0e 	bge	zero,r2,402fe88 <__subdf3+0x334>
 402fbcc:	48002a1e 	bne	r9,zero,402fc78 <__subdf3+0x124>
 402fbd0:	2988b03a 	or	r4,r5,r6
 402fbd4:	20009a1e 	bne	r4,zero,402fe40 <__subdf3+0x2ec>
 402fbd8:	888001cc 	andi	r2,r17,7
 402fbdc:	10000726 	beq	r2,zero,402fbfc <__subdf3+0xa8>
 402fbe0:	888003cc 	andi	r2,r17,15
 402fbe4:	01000104 	movi	r4,4
 402fbe8:	11000426 	beq	r2,r4,402fbfc <__subdf3+0xa8>
 402fbec:	890b883a 	add	r5,r17,r4
 402fbf0:	2c63803a 	cmpltu	r17,r5,r17
 402fbf4:	1c47883a 	add	r3,r3,r17
 402fbf8:	2823883a 	mov	r17,r5
 402fbfc:	1880202c 	andhi	r2,r3,128
 402fc00:	10005926 	beq	r2,zero,402fd68 <__subdf3+0x214>
 402fc04:	84000044 	addi	r16,r16,1
 402fc08:	0081ffc4 	movi	r2,2047
 402fc0c:	8080be26 	beq	r16,r2,402ff08 <__subdf3+0x3b4>
 402fc10:	017fe034 	movhi	r5,65408
 402fc14:	297fffc4 	addi	r5,r5,-1
 402fc18:	1946703a 	and	r3,r3,r5
 402fc1c:	1804977a 	slli	r2,r3,29
 402fc20:	1806927a 	slli	r3,r3,9
 402fc24:	8822d0fa 	srli	r17,r17,3
 402fc28:	8401ffcc 	andi	r16,r16,2047
 402fc2c:	180ad33a 	srli	r5,r3,12
 402fc30:	9100004c 	andi	r4,r18,1
 402fc34:	1444b03a 	or	r2,r2,r17
 402fc38:	80c1ffcc 	andi	r3,r16,2047
 402fc3c:	1820953a 	slli	r16,r3,20
 402fc40:	20c03fcc 	andi	r3,r4,255
 402fc44:	180897fa 	slli	r4,r3,31
 402fc48:	00c00434 	movhi	r3,16
 402fc4c:	18ffffc4 	addi	r3,r3,-1
 402fc50:	28c6703a 	and	r3,r5,r3
 402fc54:	1c06b03a 	or	r3,r3,r16
 402fc58:	1906b03a 	or	r3,r3,r4
 402fc5c:	dfc00417 	ldw	ra,16(sp)
 402fc60:	dcc00317 	ldw	r19,12(sp)
 402fc64:	dc800217 	ldw	r18,8(sp)
 402fc68:	dc400117 	ldw	r17,4(sp)
 402fc6c:	dc000017 	ldw	r16,0(sp)
 402fc70:	dec00504 	addi	sp,sp,20
 402fc74:	f800283a 	ret
 402fc78:	0101ffc4 	movi	r4,2047
 402fc7c:	813fd626 	beq	r16,r4,402fbd8 <__alt_data_end+0xfffefbd8>
 402fc80:	29402034 	orhi	r5,r5,128
 402fc84:	01000e04 	movi	r4,56
 402fc88:	2080a316 	blt	r4,r2,402ff18 <__subdf3+0x3c4>
 402fc8c:	010007c4 	movi	r4,31
 402fc90:	2080c616 	blt	r4,r2,402ffac <__subdf3+0x458>
 402fc94:	01000804 	movi	r4,32
 402fc98:	2089c83a 	sub	r4,r4,r2
 402fc9c:	2910983a 	sll	r8,r5,r4
 402fca0:	308ed83a 	srl	r7,r6,r2
 402fca4:	3108983a 	sll	r4,r6,r4
 402fca8:	2884d83a 	srl	r2,r5,r2
 402fcac:	41ccb03a 	or	r6,r8,r7
 402fcb0:	2008c03a 	cmpne	r4,r4,zero
 402fcb4:	310cb03a 	or	r6,r6,r4
 402fcb8:	898dc83a 	sub	r6,r17,r6
 402fcbc:	89a3803a 	cmpltu	r17,r17,r6
 402fcc0:	1887c83a 	sub	r3,r3,r2
 402fcc4:	1c47c83a 	sub	r3,r3,r17
 402fcc8:	3023883a 	mov	r17,r6
 402fccc:	1880202c 	andhi	r2,r3,128
 402fcd0:	10002326 	beq	r2,zero,402fd60 <__subdf3+0x20c>
 402fcd4:	04c02034 	movhi	r19,128
 402fcd8:	9cffffc4 	addi	r19,r19,-1
 402fcdc:	1ce6703a 	and	r19,r3,r19
 402fce0:	98007a26 	beq	r19,zero,402fecc <__subdf3+0x378>
 402fce4:	9809883a 	mov	r4,r19
 402fce8:	40306540 	call	4030654 <__clzsi2>
 402fcec:	113ffe04 	addi	r4,r2,-8
 402fcf0:	00c007c4 	movi	r3,31
 402fcf4:	19007b16 	blt	r3,r4,402fee4 <__subdf3+0x390>
 402fcf8:	00800804 	movi	r2,32
 402fcfc:	1105c83a 	sub	r2,r2,r4
 402fd00:	8884d83a 	srl	r2,r17,r2
 402fd04:	9906983a 	sll	r3,r19,r4
 402fd08:	8922983a 	sll	r17,r17,r4
 402fd0c:	10c4b03a 	or	r2,r2,r3
 402fd10:	24007816 	blt	r4,r16,402fef4 <__subdf3+0x3a0>
 402fd14:	2421c83a 	sub	r16,r4,r16
 402fd18:	80c00044 	addi	r3,r16,1
 402fd1c:	010007c4 	movi	r4,31
 402fd20:	20c09516 	blt	r4,r3,402ff78 <__subdf3+0x424>
 402fd24:	01400804 	movi	r5,32
 402fd28:	28cbc83a 	sub	r5,r5,r3
 402fd2c:	88c8d83a 	srl	r4,r17,r3
 402fd30:	8962983a 	sll	r17,r17,r5
 402fd34:	114a983a 	sll	r5,r2,r5
 402fd38:	10c6d83a 	srl	r3,r2,r3
 402fd3c:	8804c03a 	cmpne	r2,r17,zero
 402fd40:	290ab03a 	or	r5,r5,r4
 402fd44:	28a2b03a 	or	r17,r5,r2
 402fd48:	0021883a 	mov	r16,zero
 402fd4c:	003fa206 	br	402fbd8 <__alt_data_end+0xfffefbd8>
 402fd50:	2090b03a 	or	r8,r4,r2
 402fd54:	40018e26 	beq	r8,zero,4030390 <__subdf3+0x83c>
 402fd58:	1007883a 	mov	r3,r2
 402fd5c:	2023883a 	mov	r17,r4
 402fd60:	888001cc 	andi	r2,r17,7
 402fd64:	103f9e1e 	bne	r2,zero,402fbe0 <__alt_data_end+0xfffefbe0>
 402fd68:	1804977a 	slli	r2,r3,29
 402fd6c:	8822d0fa 	srli	r17,r17,3
 402fd70:	1810d0fa 	srli	r8,r3,3
 402fd74:	9100004c 	andi	r4,r18,1
 402fd78:	1444b03a 	or	r2,r2,r17
 402fd7c:	00c1ffc4 	movi	r3,2047
 402fd80:	80c02826 	beq	r16,r3,402fe24 <__subdf3+0x2d0>
 402fd84:	01400434 	movhi	r5,16
 402fd88:	297fffc4 	addi	r5,r5,-1
 402fd8c:	80e0703a 	and	r16,r16,r3
 402fd90:	414a703a 	and	r5,r8,r5
 402fd94:	003fa806 	br	402fc38 <__alt_data_end+0xfffefc38>
 402fd98:	0080630e 	bge	zero,r2,402ff28 <__subdf3+0x3d4>
 402fd9c:	48003026 	beq	r9,zero,402fe60 <__subdf3+0x30c>
 402fda0:	0101ffc4 	movi	r4,2047
 402fda4:	813f8c26 	beq	r16,r4,402fbd8 <__alt_data_end+0xfffefbd8>
 402fda8:	29402034 	orhi	r5,r5,128
 402fdac:	01000e04 	movi	r4,56
 402fdb0:	2080a90e 	bge	r4,r2,4030058 <__subdf3+0x504>
 402fdb4:	298cb03a 	or	r6,r5,r6
 402fdb8:	3012c03a 	cmpne	r9,r6,zero
 402fdbc:	0005883a 	mov	r2,zero
 402fdc0:	4c53883a 	add	r9,r9,r17
 402fdc4:	4c63803a 	cmpltu	r17,r9,r17
 402fdc8:	10c7883a 	add	r3,r2,r3
 402fdcc:	88c7883a 	add	r3,r17,r3
 402fdd0:	4823883a 	mov	r17,r9
 402fdd4:	1880202c 	andhi	r2,r3,128
 402fdd8:	1000d026 	beq	r2,zero,403011c <__subdf3+0x5c8>
 402fddc:	84000044 	addi	r16,r16,1
 402fde0:	0081ffc4 	movi	r2,2047
 402fde4:	8080fe26 	beq	r16,r2,40301e0 <__subdf3+0x68c>
 402fde8:	00bfe034 	movhi	r2,65408
 402fdec:	10bfffc4 	addi	r2,r2,-1
 402fdf0:	1886703a 	and	r3,r3,r2
 402fdf4:	880ad07a 	srli	r5,r17,1
 402fdf8:	180497fa 	slli	r2,r3,31
 402fdfc:	8900004c 	andi	r4,r17,1
 402fe00:	2922b03a 	or	r17,r5,r4
 402fe04:	1806d07a 	srli	r3,r3,1
 402fe08:	1462b03a 	or	r17,r2,r17
 402fe0c:	3825883a 	mov	r18,r7
 402fe10:	003f7106 	br	402fbd8 <__alt_data_end+0xfffefbd8>
 402fe14:	2984b03a 	or	r2,r5,r6
 402fe18:	103f6826 	beq	r2,zero,402fbbc <__alt_data_end+0xfffefbbc>
 402fe1c:	39c03fcc 	andi	r7,r7,255
 402fe20:	003f6706 	br	402fbc0 <__alt_data_end+0xfffefbc0>
 402fe24:	4086b03a 	or	r3,r8,r2
 402fe28:	18015226 	beq	r3,zero,4030374 <__subdf3+0x820>
 402fe2c:	00c00434 	movhi	r3,16
 402fe30:	41400234 	orhi	r5,r8,8
 402fe34:	18ffffc4 	addi	r3,r3,-1
 402fe38:	28ca703a 	and	r5,r5,r3
 402fe3c:	003f7e06 	br	402fc38 <__alt_data_end+0xfffefc38>
 402fe40:	10bfffc4 	addi	r2,r2,-1
 402fe44:	1000491e 	bne	r2,zero,402ff6c <__subdf3+0x418>
 402fe48:	898fc83a 	sub	r7,r17,r6
 402fe4c:	89e3803a 	cmpltu	r17,r17,r7
 402fe50:	1947c83a 	sub	r3,r3,r5
 402fe54:	1c47c83a 	sub	r3,r3,r17
 402fe58:	3823883a 	mov	r17,r7
 402fe5c:	003f9b06 	br	402fccc <__alt_data_end+0xfffefccc>
 402fe60:	2988b03a 	or	r4,r5,r6
 402fe64:	203f5c26 	beq	r4,zero,402fbd8 <__alt_data_end+0xfffefbd8>
 402fe68:	10bfffc4 	addi	r2,r2,-1
 402fe6c:	1000931e 	bne	r2,zero,40300bc <__subdf3+0x568>
 402fe70:	898d883a 	add	r6,r17,r6
 402fe74:	3463803a 	cmpltu	r17,r6,r17
 402fe78:	1947883a 	add	r3,r3,r5
 402fe7c:	88c7883a 	add	r3,r17,r3
 402fe80:	3023883a 	mov	r17,r6
 402fe84:	003fd306 	br	402fdd4 <__alt_data_end+0xfffefdd4>
 402fe88:	1000541e 	bne	r2,zero,402ffdc <__subdf3+0x488>
 402fe8c:	80800044 	addi	r2,r16,1
 402fe90:	1081ffcc 	andi	r2,r2,2047
 402fe94:	01000044 	movi	r4,1
 402fe98:	2080a20e 	bge	r4,r2,4030124 <__subdf3+0x5d0>
 402fe9c:	8989c83a 	sub	r4,r17,r6
 402fea0:	8905803a 	cmpltu	r2,r17,r4
 402fea4:	1967c83a 	sub	r19,r3,r5
 402fea8:	98a7c83a 	sub	r19,r19,r2
 402feac:	9880202c 	andhi	r2,r19,128
 402feb0:	10006326 	beq	r2,zero,4030040 <__subdf3+0x4ec>
 402feb4:	3463c83a 	sub	r17,r6,r17
 402feb8:	28c7c83a 	sub	r3,r5,r3
 402febc:	344d803a 	cmpltu	r6,r6,r17
 402fec0:	19a7c83a 	sub	r19,r3,r6
 402fec4:	3825883a 	mov	r18,r7
 402fec8:	983f861e 	bne	r19,zero,402fce4 <__alt_data_end+0xfffefce4>
 402fecc:	8809883a 	mov	r4,r17
 402fed0:	40306540 	call	4030654 <__clzsi2>
 402fed4:	10800804 	addi	r2,r2,32
 402fed8:	113ffe04 	addi	r4,r2,-8
 402fedc:	00c007c4 	movi	r3,31
 402fee0:	193f850e 	bge	r3,r4,402fcf8 <__alt_data_end+0xfffefcf8>
 402fee4:	10bff604 	addi	r2,r2,-40
 402fee8:	8884983a 	sll	r2,r17,r2
 402feec:	0023883a 	mov	r17,zero
 402fef0:	243f880e 	bge	r4,r16,402fd14 <__alt_data_end+0xfffefd14>
 402fef4:	00ffe034 	movhi	r3,65408
 402fef8:	18ffffc4 	addi	r3,r3,-1
 402fefc:	8121c83a 	sub	r16,r16,r4
 402ff00:	10c6703a 	and	r3,r2,r3
 402ff04:	003f3406 	br	402fbd8 <__alt_data_end+0xfffefbd8>
 402ff08:	9100004c 	andi	r4,r18,1
 402ff0c:	000b883a 	mov	r5,zero
 402ff10:	0005883a 	mov	r2,zero
 402ff14:	003f4806 	br	402fc38 <__alt_data_end+0xfffefc38>
 402ff18:	298cb03a 	or	r6,r5,r6
 402ff1c:	300cc03a 	cmpne	r6,r6,zero
 402ff20:	0005883a 	mov	r2,zero
 402ff24:	003f6406 	br	402fcb8 <__alt_data_end+0xfffefcb8>
 402ff28:	10009a1e 	bne	r2,zero,4030194 <__subdf3+0x640>
 402ff2c:	82400044 	addi	r9,r16,1
 402ff30:	4881ffcc 	andi	r2,r9,2047
 402ff34:	02800044 	movi	r10,1
 402ff38:	5080670e 	bge	r10,r2,40300d8 <__subdf3+0x584>
 402ff3c:	0081ffc4 	movi	r2,2047
 402ff40:	4880af26 	beq	r9,r2,4030200 <__subdf3+0x6ac>
 402ff44:	898d883a 	add	r6,r17,r6
 402ff48:	1945883a 	add	r2,r3,r5
 402ff4c:	3447803a 	cmpltu	r3,r6,r17
 402ff50:	1887883a 	add	r3,r3,r2
 402ff54:	182297fa 	slli	r17,r3,31
 402ff58:	300cd07a 	srli	r6,r6,1
 402ff5c:	1806d07a 	srli	r3,r3,1
 402ff60:	4821883a 	mov	r16,r9
 402ff64:	89a2b03a 	or	r17,r17,r6
 402ff68:	003f1b06 	br	402fbd8 <__alt_data_end+0xfffefbd8>
 402ff6c:	0101ffc4 	movi	r4,2047
 402ff70:	813f441e 	bne	r16,r4,402fc84 <__alt_data_end+0xfffefc84>
 402ff74:	003f1806 	br	402fbd8 <__alt_data_end+0xfffefbd8>
 402ff78:	843ff844 	addi	r16,r16,-31
 402ff7c:	01400804 	movi	r5,32
 402ff80:	1408d83a 	srl	r4,r2,r16
 402ff84:	19405026 	beq	r3,r5,40300c8 <__subdf3+0x574>
 402ff88:	01401004 	movi	r5,64
 402ff8c:	28c7c83a 	sub	r3,r5,r3
 402ff90:	10c4983a 	sll	r2,r2,r3
 402ff94:	88a2b03a 	or	r17,r17,r2
 402ff98:	8822c03a 	cmpne	r17,r17,zero
 402ff9c:	2462b03a 	or	r17,r4,r17
 402ffa0:	0007883a 	mov	r3,zero
 402ffa4:	0021883a 	mov	r16,zero
 402ffa8:	003f6d06 	br	402fd60 <__alt_data_end+0xfffefd60>
 402ffac:	11fff804 	addi	r7,r2,-32
 402ffb0:	01000804 	movi	r4,32
 402ffb4:	29ced83a 	srl	r7,r5,r7
 402ffb8:	11004526 	beq	r2,r4,40300d0 <__subdf3+0x57c>
 402ffbc:	01001004 	movi	r4,64
 402ffc0:	2089c83a 	sub	r4,r4,r2
 402ffc4:	2904983a 	sll	r2,r5,r4
 402ffc8:	118cb03a 	or	r6,r2,r6
 402ffcc:	300cc03a 	cmpne	r6,r6,zero
 402ffd0:	398cb03a 	or	r6,r7,r6
 402ffd4:	0005883a 	mov	r2,zero
 402ffd8:	003f3706 	br	402fcb8 <__alt_data_end+0xfffefcb8>
 402ffdc:	80002a26 	beq	r16,zero,4030088 <__subdf3+0x534>
 402ffe0:	0101ffc4 	movi	r4,2047
 402ffe4:	49006626 	beq	r9,r4,4030180 <__subdf3+0x62c>
 402ffe8:	0085c83a 	sub	r2,zero,r2
 402ffec:	18c02034 	orhi	r3,r3,128
 402fff0:	01000e04 	movi	r4,56
 402fff4:	20807e16 	blt	r4,r2,40301f0 <__subdf3+0x69c>
 402fff8:	010007c4 	movi	r4,31
 402fffc:	2080e716 	blt	r4,r2,403039c <__subdf3+0x848>
 4030000:	01000804 	movi	r4,32
 4030004:	2089c83a 	sub	r4,r4,r2
 4030008:	1914983a 	sll	r10,r3,r4
 403000c:	8890d83a 	srl	r8,r17,r2
 4030010:	8908983a 	sll	r4,r17,r4
 4030014:	1884d83a 	srl	r2,r3,r2
 4030018:	5222b03a 	or	r17,r10,r8
 403001c:	2006c03a 	cmpne	r3,r4,zero
 4030020:	88e2b03a 	or	r17,r17,r3
 4030024:	3463c83a 	sub	r17,r6,r17
 4030028:	2885c83a 	sub	r2,r5,r2
 403002c:	344d803a 	cmpltu	r6,r6,r17
 4030030:	1187c83a 	sub	r3,r2,r6
 4030034:	4821883a 	mov	r16,r9
 4030038:	3825883a 	mov	r18,r7
 403003c:	003f2306 	br	402fccc <__alt_data_end+0xfffefccc>
 4030040:	24d0b03a 	or	r8,r4,r19
 4030044:	40001b1e 	bne	r8,zero,40300b4 <__subdf3+0x560>
 4030048:	0005883a 	mov	r2,zero
 403004c:	0009883a 	mov	r4,zero
 4030050:	0021883a 	mov	r16,zero
 4030054:	003f4906 	br	402fd7c <__alt_data_end+0xfffefd7c>
 4030058:	010007c4 	movi	r4,31
 403005c:	20803a16 	blt	r4,r2,4030148 <__subdf3+0x5f4>
 4030060:	01000804 	movi	r4,32
 4030064:	2089c83a 	sub	r4,r4,r2
 4030068:	2912983a 	sll	r9,r5,r4
 403006c:	3090d83a 	srl	r8,r6,r2
 4030070:	3108983a 	sll	r4,r6,r4
 4030074:	2884d83a 	srl	r2,r5,r2
 4030078:	4a12b03a 	or	r9,r9,r8
 403007c:	2008c03a 	cmpne	r4,r4,zero
 4030080:	4912b03a 	or	r9,r9,r4
 4030084:	003f4e06 	br	402fdc0 <__alt_data_end+0xfffefdc0>
 4030088:	1c48b03a 	or	r4,r3,r17
 403008c:	20003c26 	beq	r4,zero,4030180 <__subdf3+0x62c>
 4030090:	0084303a 	nor	r2,zero,r2
 4030094:	1000381e 	bne	r2,zero,4030178 <__subdf3+0x624>
 4030098:	3463c83a 	sub	r17,r6,r17
 403009c:	28c5c83a 	sub	r2,r5,r3
 40300a0:	344d803a 	cmpltu	r6,r6,r17
 40300a4:	1187c83a 	sub	r3,r2,r6
 40300a8:	4821883a 	mov	r16,r9
 40300ac:	3825883a 	mov	r18,r7
 40300b0:	003f0606 	br	402fccc <__alt_data_end+0xfffefccc>
 40300b4:	2023883a 	mov	r17,r4
 40300b8:	003f0906 	br	402fce0 <__alt_data_end+0xfffefce0>
 40300bc:	0101ffc4 	movi	r4,2047
 40300c0:	813f3a1e 	bne	r16,r4,402fdac <__alt_data_end+0xfffefdac>
 40300c4:	003ec406 	br	402fbd8 <__alt_data_end+0xfffefbd8>
 40300c8:	0005883a 	mov	r2,zero
 40300cc:	003fb106 	br	402ff94 <__alt_data_end+0xfffeff94>
 40300d0:	0005883a 	mov	r2,zero
 40300d4:	003fbc06 	br	402ffc8 <__alt_data_end+0xfffeffc8>
 40300d8:	1c44b03a 	or	r2,r3,r17
 40300dc:	80008e1e 	bne	r16,zero,4030318 <__subdf3+0x7c4>
 40300e0:	1000c826 	beq	r2,zero,4030404 <__subdf3+0x8b0>
 40300e4:	2984b03a 	or	r2,r5,r6
 40300e8:	103ebb26 	beq	r2,zero,402fbd8 <__alt_data_end+0xfffefbd8>
 40300ec:	8989883a 	add	r4,r17,r6
 40300f0:	1945883a 	add	r2,r3,r5
 40300f4:	2447803a 	cmpltu	r3,r4,r17
 40300f8:	1887883a 	add	r3,r3,r2
 40300fc:	1880202c 	andhi	r2,r3,128
 4030100:	2023883a 	mov	r17,r4
 4030104:	103f1626 	beq	r2,zero,402fd60 <__alt_data_end+0xfffefd60>
 4030108:	00bfe034 	movhi	r2,65408
 403010c:	10bfffc4 	addi	r2,r2,-1
 4030110:	5021883a 	mov	r16,r10
 4030114:	1886703a 	and	r3,r3,r2
 4030118:	003eaf06 	br	402fbd8 <__alt_data_end+0xfffefbd8>
 403011c:	3825883a 	mov	r18,r7
 4030120:	003f0f06 	br	402fd60 <__alt_data_end+0xfffefd60>
 4030124:	1c44b03a 	or	r2,r3,r17
 4030128:	8000251e 	bne	r16,zero,40301c0 <__subdf3+0x66c>
 403012c:	1000661e 	bne	r2,zero,40302c8 <__subdf3+0x774>
 4030130:	2990b03a 	or	r8,r5,r6
 4030134:	40009626 	beq	r8,zero,4030390 <__subdf3+0x83c>
 4030138:	2807883a 	mov	r3,r5
 403013c:	3023883a 	mov	r17,r6
 4030140:	3825883a 	mov	r18,r7
 4030144:	003ea406 	br	402fbd8 <__alt_data_end+0xfffefbd8>
 4030148:	127ff804 	addi	r9,r2,-32
 403014c:	01000804 	movi	r4,32
 4030150:	2a52d83a 	srl	r9,r5,r9
 4030154:	11008c26 	beq	r2,r4,4030388 <__subdf3+0x834>
 4030158:	01001004 	movi	r4,64
 403015c:	2085c83a 	sub	r2,r4,r2
 4030160:	2884983a 	sll	r2,r5,r2
 4030164:	118cb03a 	or	r6,r2,r6
 4030168:	300cc03a 	cmpne	r6,r6,zero
 403016c:	4992b03a 	or	r9,r9,r6
 4030170:	0005883a 	mov	r2,zero
 4030174:	003f1206 	br	402fdc0 <__alt_data_end+0xfffefdc0>
 4030178:	0101ffc4 	movi	r4,2047
 403017c:	493f9c1e 	bne	r9,r4,402fff0 <__alt_data_end+0xfffefff0>
 4030180:	2807883a 	mov	r3,r5
 4030184:	3023883a 	mov	r17,r6
 4030188:	4821883a 	mov	r16,r9
 403018c:	3825883a 	mov	r18,r7
 4030190:	003e9106 	br	402fbd8 <__alt_data_end+0xfffefbd8>
 4030194:	80001f1e 	bne	r16,zero,4030214 <__subdf3+0x6c0>
 4030198:	1c48b03a 	or	r4,r3,r17
 403019c:	20005a26 	beq	r4,zero,4030308 <__subdf3+0x7b4>
 40301a0:	0084303a 	nor	r2,zero,r2
 40301a4:	1000561e 	bne	r2,zero,4030300 <__subdf3+0x7ac>
 40301a8:	89a3883a 	add	r17,r17,r6
 40301ac:	1945883a 	add	r2,r3,r5
 40301b0:	898d803a 	cmpltu	r6,r17,r6
 40301b4:	3087883a 	add	r3,r6,r2
 40301b8:	4821883a 	mov	r16,r9
 40301bc:	003f0506 	br	402fdd4 <__alt_data_end+0xfffefdd4>
 40301c0:	10002b1e 	bne	r2,zero,4030270 <__subdf3+0x71c>
 40301c4:	2984b03a 	or	r2,r5,r6
 40301c8:	10008026 	beq	r2,zero,40303cc <__subdf3+0x878>
 40301cc:	2807883a 	mov	r3,r5
 40301d0:	3023883a 	mov	r17,r6
 40301d4:	3825883a 	mov	r18,r7
 40301d8:	0401ffc4 	movi	r16,2047
 40301dc:	003e7e06 	br	402fbd8 <__alt_data_end+0xfffefbd8>
 40301e0:	3809883a 	mov	r4,r7
 40301e4:	0011883a 	mov	r8,zero
 40301e8:	0005883a 	mov	r2,zero
 40301ec:	003ee306 	br	402fd7c <__alt_data_end+0xfffefd7c>
 40301f0:	1c62b03a 	or	r17,r3,r17
 40301f4:	8822c03a 	cmpne	r17,r17,zero
 40301f8:	0005883a 	mov	r2,zero
 40301fc:	003f8906 	br	4030024 <__alt_data_end+0xffff0024>
 4030200:	3809883a 	mov	r4,r7
 4030204:	4821883a 	mov	r16,r9
 4030208:	0011883a 	mov	r8,zero
 403020c:	0005883a 	mov	r2,zero
 4030210:	003eda06 	br	402fd7c <__alt_data_end+0xfffefd7c>
 4030214:	0101ffc4 	movi	r4,2047
 4030218:	49003b26 	beq	r9,r4,4030308 <__subdf3+0x7b4>
 403021c:	0085c83a 	sub	r2,zero,r2
 4030220:	18c02034 	orhi	r3,r3,128
 4030224:	01000e04 	movi	r4,56
 4030228:	20806e16 	blt	r4,r2,40303e4 <__subdf3+0x890>
 403022c:	010007c4 	movi	r4,31
 4030230:	20807716 	blt	r4,r2,4030410 <__subdf3+0x8bc>
 4030234:	01000804 	movi	r4,32
 4030238:	2089c83a 	sub	r4,r4,r2
 403023c:	1914983a 	sll	r10,r3,r4
 4030240:	8890d83a 	srl	r8,r17,r2
 4030244:	8908983a 	sll	r4,r17,r4
 4030248:	1884d83a 	srl	r2,r3,r2
 403024c:	5222b03a 	or	r17,r10,r8
 4030250:	2006c03a 	cmpne	r3,r4,zero
 4030254:	88e2b03a 	or	r17,r17,r3
 4030258:	89a3883a 	add	r17,r17,r6
 403025c:	1145883a 	add	r2,r2,r5
 4030260:	898d803a 	cmpltu	r6,r17,r6
 4030264:	3087883a 	add	r3,r6,r2
 4030268:	4821883a 	mov	r16,r9
 403026c:	003ed906 	br	402fdd4 <__alt_data_end+0xfffefdd4>
 4030270:	2984b03a 	or	r2,r5,r6
 4030274:	10004226 	beq	r2,zero,4030380 <__subdf3+0x82c>
 4030278:	1808d0fa 	srli	r4,r3,3
 403027c:	8822d0fa 	srli	r17,r17,3
 4030280:	1806977a 	slli	r3,r3,29
 4030284:	2080022c 	andhi	r2,r4,8
 4030288:	1c62b03a 	or	r17,r3,r17
 403028c:	10000826 	beq	r2,zero,40302b0 <__subdf3+0x75c>
 4030290:	2812d0fa 	srli	r9,r5,3
 4030294:	4880022c 	andhi	r2,r9,8
 4030298:	1000051e 	bne	r2,zero,40302b0 <__subdf3+0x75c>
 403029c:	300cd0fa 	srli	r6,r6,3
 40302a0:	2804977a 	slli	r2,r5,29
 40302a4:	4809883a 	mov	r4,r9
 40302a8:	3825883a 	mov	r18,r7
 40302ac:	11a2b03a 	or	r17,r2,r6
 40302b0:	8806d77a 	srli	r3,r17,29
 40302b4:	200890fa 	slli	r4,r4,3
 40302b8:	882290fa 	slli	r17,r17,3
 40302bc:	0401ffc4 	movi	r16,2047
 40302c0:	1906b03a 	or	r3,r3,r4
 40302c4:	003e4406 	br	402fbd8 <__alt_data_end+0xfffefbd8>
 40302c8:	2984b03a 	or	r2,r5,r6
 40302cc:	103e4226 	beq	r2,zero,402fbd8 <__alt_data_end+0xfffefbd8>
 40302d0:	8989c83a 	sub	r4,r17,r6
 40302d4:	8911803a 	cmpltu	r8,r17,r4
 40302d8:	1945c83a 	sub	r2,r3,r5
 40302dc:	1205c83a 	sub	r2,r2,r8
 40302e0:	1200202c 	andhi	r8,r2,128
 40302e4:	403e9a26 	beq	r8,zero,402fd50 <__alt_data_end+0xfffefd50>
 40302e8:	3463c83a 	sub	r17,r6,r17
 40302ec:	28c5c83a 	sub	r2,r5,r3
 40302f0:	344d803a 	cmpltu	r6,r6,r17
 40302f4:	1187c83a 	sub	r3,r2,r6
 40302f8:	3825883a 	mov	r18,r7
 40302fc:	003e3606 	br	402fbd8 <__alt_data_end+0xfffefbd8>
 4030300:	0101ffc4 	movi	r4,2047
 4030304:	493fc71e 	bne	r9,r4,4030224 <__alt_data_end+0xffff0224>
 4030308:	2807883a 	mov	r3,r5
 403030c:	3023883a 	mov	r17,r6
 4030310:	4821883a 	mov	r16,r9
 4030314:	003e3006 	br	402fbd8 <__alt_data_end+0xfffefbd8>
 4030318:	10003626 	beq	r2,zero,40303f4 <__subdf3+0x8a0>
 403031c:	2984b03a 	or	r2,r5,r6
 4030320:	10001726 	beq	r2,zero,4030380 <__subdf3+0x82c>
 4030324:	1808d0fa 	srli	r4,r3,3
 4030328:	8822d0fa 	srli	r17,r17,3
 403032c:	1806977a 	slli	r3,r3,29
 4030330:	2080022c 	andhi	r2,r4,8
 4030334:	1c62b03a 	or	r17,r3,r17
 4030338:	10000726 	beq	r2,zero,4030358 <__subdf3+0x804>
 403033c:	2812d0fa 	srli	r9,r5,3
 4030340:	4880022c 	andhi	r2,r9,8
 4030344:	1000041e 	bne	r2,zero,4030358 <__subdf3+0x804>
 4030348:	300cd0fa 	srli	r6,r6,3
 403034c:	2804977a 	slli	r2,r5,29
 4030350:	4809883a 	mov	r4,r9
 4030354:	11a2b03a 	or	r17,r2,r6
 4030358:	8806d77a 	srli	r3,r17,29
 403035c:	200890fa 	slli	r4,r4,3
 4030360:	882290fa 	slli	r17,r17,3
 4030364:	3825883a 	mov	r18,r7
 4030368:	1906b03a 	or	r3,r3,r4
 403036c:	0401ffc4 	movi	r16,2047
 4030370:	003e1906 	br	402fbd8 <__alt_data_end+0xfffefbd8>
 4030374:	000b883a 	mov	r5,zero
 4030378:	0005883a 	mov	r2,zero
 403037c:	003e2e06 	br	402fc38 <__alt_data_end+0xfffefc38>
 4030380:	0401ffc4 	movi	r16,2047
 4030384:	003e1406 	br	402fbd8 <__alt_data_end+0xfffefbd8>
 4030388:	0005883a 	mov	r2,zero
 403038c:	003f7506 	br	4030164 <__alt_data_end+0xffff0164>
 4030390:	0005883a 	mov	r2,zero
 4030394:	0009883a 	mov	r4,zero
 4030398:	003e7806 	br	402fd7c <__alt_data_end+0xfffefd7c>
 403039c:	123ff804 	addi	r8,r2,-32
 40303a0:	01000804 	movi	r4,32
 40303a4:	1a10d83a 	srl	r8,r3,r8
 40303a8:	11002526 	beq	r2,r4,4030440 <__subdf3+0x8ec>
 40303ac:	01001004 	movi	r4,64
 40303b0:	2085c83a 	sub	r2,r4,r2
 40303b4:	1884983a 	sll	r2,r3,r2
 40303b8:	1444b03a 	or	r2,r2,r17
 40303bc:	1004c03a 	cmpne	r2,r2,zero
 40303c0:	40a2b03a 	or	r17,r8,r2
 40303c4:	0005883a 	mov	r2,zero
 40303c8:	003f1606 	br	4030024 <__alt_data_end+0xffff0024>
 40303cc:	02000434 	movhi	r8,16
 40303d0:	0009883a 	mov	r4,zero
 40303d4:	423fffc4 	addi	r8,r8,-1
 40303d8:	00bfffc4 	movi	r2,-1
 40303dc:	0401ffc4 	movi	r16,2047
 40303e0:	003e6606 	br	402fd7c <__alt_data_end+0xfffefd7c>
 40303e4:	1c62b03a 	or	r17,r3,r17
 40303e8:	8822c03a 	cmpne	r17,r17,zero
 40303ec:	0005883a 	mov	r2,zero
 40303f0:	003f9906 	br	4030258 <__alt_data_end+0xffff0258>
 40303f4:	2807883a 	mov	r3,r5
 40303f8:	3023883a 	mov	r17,r6
 40303fc:	0401ffc4 	movi	r16,2047
 4030400:	003df506 	br	402fbd8 <__alt_data_end+0xfffefbd8>
 4030404:	2807883a 	mov	r3,r5
 4030408:	3023883a 	mov	r17,r6
 403040c:	003df206 	br	402fbd8 <__alt_data_end+0xfffefbd8>
 4030410:	123ff804 	addi	r8,r2,-32
 4030414:	01000804 	movi	r4,32
 4030418:	1a10d83a 	srl	r8,r3,r8
 403041c:	11000a26 	beq	r2,r4,4030448 <__subdf3+0x8f4>
 4030420:	01001004 	movi	r4,64
 4030424:	2085c83a 	sub	r2,r4,r2
 4030428:	1884983a 	sll	r2,r3,r2
 403042c:	1444b03a 	or	r2,r2,r17
 4030430:	1004c03a 	cmpne	r2,r2,zero
 4030434:	40a2b03a 	or	r17,r8,r2
 4030438:	0005883a 	mov	r2,zero
 403043c:	003f8606 	br	4030258 <__alt_data_end+0xffff0258>
 4030440:	0005883a 	mov	r2,zero
 4030444:	003fdc06 	br	40303b8 <__alt_data_end+0xffff03b8>
 4030448:	0005883a 	mov	r2,zero
 403044c:	003ff706 	br	403042c <__alt_data_end+0xffff042c>

04030450 <__fixdfsi>:
 4030450:	280cd53a 	srli	r6,r5,20
 4030454:	00c00434 	movhi	r3,16
 4030458:	18ffffc4 	addi	r3,r3,-1
 403045c:	3181ffcc 	andi	r6,r6,2047
 4030460:	01c0ff84 	movi	r7,1022
 4030464:	28c6703a 	and	r3,r5,r3
 4030468:	280ad7fa 	srli	r5,r5,31
 403046c:	3980120e 	bge	r7,r6,40304b8 <__fixdfsi+0x68>
 4030470:	00810744 	movi	r2,1053
 4030474:	11800c16 	blt	r2,r6,40304a8 <__fixdfsi+0x58>
 4030478:	00810cc4 	movi	r2,1075
 403047c:	1185c83a 	sub	r2,r2,r6
 4030480:	01c007c4 	movi	r7,31
 4030484:	18c00434 	orhi	r3,r3,16
 4030488:	38800d16 	blt	r7,r2,40304c0 <__fixdfsi+0x70>
 403048c:	31befb44 	addi	r6,r6,-1043
 4030490:	2084d83a 	srl	r2,r4,r2
 4030494:	1986983a 	sll	r3,r3,r6
 4030498:	1884b03a 	or	r2,r3,r2
 403049c:	28000726 	beq	r5,zero,40304bc <__fixdfsi+0x6c>
 40304a0:	0085c83a 	sub	r2,zero,r2
 40304a4:	f800283a 	ret
 40304a8:	00a00034 	movhi	r2,32768
 40304ac:	10bfffc4 	addi	r2,r2,-1
 40304b0:	2885883a 	add	r2,r5,r2
 40304b4:	f800283a 	ret
 40304b8:	0005883a 	mov	r2,zero
 40304bc:	f800283a 	ret
 40304c0:	008104c4 	movi	r2,1043
 40304c4:	1185c83a 	sub	r2,r2,r6
 40304c8:	1884d83a 	srl	r2,r3,r2
 40304cc:	003ff306 	br	403049c <__alt_data_end+0xffff049c>

040304d0 <__floatsidf>:
 40304d0:	defffd04 	addi	sp,sp,-12
 40304d4:	dfc00215 	stw	ra,8(sp)
 40304d8:	dc400115 	stw	r17,4(sp)
 40304dc:	dc000015 	stw	r16,0(sp)
 40304e0:	20002b26 	beq	r4,zero,4030590 <__floatsidf+0xc0>
 40304e4:	2023883a 	mov	r17,r4
 40304e8:	2020d7fa 	srli	r16,r4,31
 40304ec:	20002d16 	blt	r4,zero,40305a4 <__floatsidf+0xd4>
 40304f0:	8809883a 	mov	r4,r17
 40304f4:	40306540 	call	4030654 <__clzsi2>
 40304f8:	01410784 	movi	r5,1054
 40304fc:	288bc83a 	sub	r5,r5,r2
 4030500:	01010cc4 	movi	r4,1075
 4030504:	2149c83a 	sub	r4,r4,r5
 4030508:	00c007c4 	movi	r3,31
 403050c:	1900160e 	bge	r3,r4,4030568 <__floatsidf+0x98>
 4030510:	00c104c4 	movi	r3,1043
 4030514:	1947c83a 	sub	r3,r3,r5
 4030518:	88c6983a 	sll	r3,r17,r3
 403051c:	00800434 	movhi	r2,16
 4030520:	10bfffc4 	addi	r2,r2,-1
 4030524:	1886703a 	and	r3,r3,r2
 4030528:	2941ffcc 	andi	r5,r5,2047
 403052c:	800d883a 	mov	r6,r16
 4030530:	0005883a 	mov	r2,zero
 4030534:	280a953a 	slli	r5,r5,20
 4030538:	31803fcc 	andi	r6,r6,255
 403053c:	01000434 	movhi	r4,16
 4030540:	300c97fa 	slli	r6,r6,31
 4030544:	213fffc4 	addi	r4,r4,-1
 4030548:	1906703a 	and	r3,r3,r4
 403054c:	1946b03a 	or	r3,r3,r5
 4030550:	1986b03a 	or	r3,r3,r6
 4030554:	dfc00217 	ldw	ra,8(sp)
 4030558:	dc400117 	ldw	r17,4(sp)
 403055c:	dc000017 	ldw	r16,0(sp)
 4030560:	dec00304 	addi	sp,sp,12
 4030564:	f800283a 	ret
 4030568:	00c002c4 	movi	r3,11
 403056c:	1887c83a 	sub	r3,r3,r2
 4030570:	88c6d83a 	srl	r3,r17,r3
 4030574:	8904983a 	sll	r2,r17,r4
 4030578:	01000434 	movhi	r4,16
 403057c:	213fffc4 	addi	r4,r4,-1
 4030580:	2941ffcc 	andi	r5,r5,2047
 4030584:	1906703a 	and	r3,r3,r4
 4030588:	800d883a 	mov	r6,r16
 403058c:	003fe906 	br	4030534 <__alt_data_end+0xffff0534>
 4030590:	000d883a 	mov	r6,zero
 4030594:	000b883a 	mov	r5,zero
 4030598:	0007883a 	mov	r3,zero
 403059c:	0005883a 	mov	r2,zero
 40305a0:	003fe406 	br	4030534 <__alt_data_end+0xffff0534>
 40305a4:	0123c83a 	sub	r17,zero,r4
 40305a8:	003fd106 	br	40304f0 <__alt_data_end+0xffff04f0>

040305ac <__floatunsidf>:
 40305ac:	defffe04 	addi	sp,sp,-8
 40305b0:	dc000015 	stw	r16,0(sp)
 40305b4:	dfc00115 	stw	ra,4(sp)
 40305b8:	2021883a 	mov	r16,r4
 40305bc:	20002226 	beq	r4,zero,4030648 <__floatunsidf+0x9c>
 40305c0:	40306540 	call	4030654 <__clzsi2>
 40305c4:	01010784 	movi	r4,1054
 40305c8:	2089c83a 	sub	r4,r4,r2
 40305cc:	01810cc4 	movi	r6,1075
 40305d0:	310dc83a 	sub	r6,r6,r4
 40305d4:	00c007c4 	movi	r3,31
 40305d8:	1980120e 	bge	r3,r6,4030624 <__floatunsidf+0x78>
 40305dc:	00c104c4 	movi	r3,1043
 40305e0:	1907c83a 	sub	r3,r3,r4
 40305e4:	80ca983a 	sll	r5,r16,r3
 40305e8:	00800434 	movhi	r2,16
 40305ec:	10bfffc4 	addi	r2,r2,-1
 40305f0:	2101ffcc 	andi	r4,r4,2047
 40305f4:	0021883a 	mov	r16,zero
 40305f8:	288a703a 	and	r5,r5,r2
 40305fc:	2008953a 	slli	r4,r4,20
 4030600:	00c00434 	movhi	r3,16
 4030604:	18ffffc4 	addi	r3,r3,-1
 4030608:	28c6703a 	and	r3,r5,r3
 403060c:	8005883a 	mov	r2,r16
 4030610:	1906b03a 	or	r3,r3,r4
 4030614:	dfc00117 	ldw	ra,4(sp)
 4030618:	dc000017 	ldw	r16,0(sp)
 403061c:	dec00204 	addi	sp,sp,8
 4030620:	f800283a 	ret
 4030624:	00c002c4 	movi	r3,11
 4030628:	188bc83a 	sub	r5,r3,r2
 403062c:	814ad83a 	srl	r5,r16,r5
 4030630:	00c00434 	movhi	r3,16
 4030634:	18ffffc4 	addi	r3,r3,-1
 4030638:	81a0983a 	sll	r16,r16,r6
 403063c:	2101ffcc 	andi	r4,r4,2047
 4030640:	28ca703a 	and	r5,r5,r3
 4030644:	003fed06 	br	40305fc <__alt_data_end+0xffff05fc>
 4030648:	0009883a 	mov	r4,zero
 403064c:	000b883a 	mov	r5,zero
 4030650:	003fea06 	br	40305fc <__alt_data_end+0xffff05fc>

04030654 <__clzsi2>:
 4030654:	00bfffd4 	movui	r2,65535
 4030658:	11000536 	bltu	r2,r4,4030670 <__clzsi2+0x1c>
 403065c:	00803fc4 	movi	r2,255
 4030660:	11000f36 	bltu	r2,r4,40306a0 <__clzsi2+0x4c>
 4030664:	00800804 	movi	r2,32
 4030668:	0007883a 	mov	r3,zero
 403066c:	00000506 	br	4030684 <__clzsi2+0x30>
 4030670:	00804034 	movhi	r2,256
 4030674:	10bfffc4 	addi	r2,r2,-1
 4030678:	11000c2e 	bgeu	r2,r4,40306ac <__clzsi2+0x58>
 403067c:	00800204 	movi	r2,8
 4030680:	00c00604 	movi	r3,24
 4030684:	20c8d83a 	srl	r4,r4,r3
 4030688:	00c100f4 	movhi	r3,1027
 403068c:	18c4ed04 	addi	r3,r3,5044
 4030690:	1909883a 	add	r4,r3,r4
 4030694:	20c00003 	ldbu	r3,0(r4)
 4030698:	10c5c83a 	sub	r2,r2,r3
 403069c:	f800283a 	ret
 40306a0:	00800604 	movi	r2,24
 40306a4:	00c00204 	movi	r3,8
 40306a8:	003ff606 	br	4030684 <__alt_data_end+0xffff0684>
 40306ac:	00800404 	movi	r2,16
 40306b0:	1007883a 	mov	r3,r2
 40306b4:	003ff306 	br	4030684 <__alt_data_end+0xffff0684>

040306b8 <_exit>:
 *
 * ALT_EXIT is mapped onto the _exit() system call in alt_syscall.h
 */

void ALT_EXIT (int exit_code)
{
 40306b8:	defffd04 	addi	sp,sp,-12
 40306bc:	df000215 	stw	fp,8(sp)
 40306c0:	df000204 	addi	fp,sp,8
 40306c4:	e13fff15 	stw	r4,-4(fp)
  ALT_LOG_PRINT_BOOT("[alt_exit.c] Entering _exit() function.\r\n");
  ALT_LOG_PRINT_BOOT("[alt_exit.c] Exit code from main was %d.\r\n",exit_code);
  /* Stop all other threads */

  ALT_LOG_PRINT_BOOT("[alt_exit.c] Calling ALT_OS_STOP().\r\n");
  ALT_OS_STOP();
 40306c8:	0001883a 	nop
 40306cc:	e0bfff17 	ldw	r2,-4(fp)
 40306d0:	e0bffe15 	stw	r2,-8(fp)
/*
 * Routine called on exit.
 */
static ALT_INLINE ALT_ALWAYS_INLINE void alt_sim_halt(int exit_code)
{
  register int r2 asm ("r2") = exit_code;
 40306d4:	e0bffe17 	ldw	r2,-8(fp)
  __asm__ volatile ("\n0:\n\taddi %0,%0, -1\n\tbgt %0,zero,0b" : : "r" (ALT_CPU_FREQ/100) ); /* Delay for >30ms */

  __asm__ volatile ("break 2" : : "r"(r2), "r"(r3) ALT_GMON_DATA );

#else /* !DEBUG_STUB */
  if (r2) {
 40306d8:	10000226 	beq	r2,zero,40306e4 <_exit+0x2c>
    ALT_SIM_FAIL();
 40306dc:	002af070 	cmpltui	zero,zero,43969
 40306e0:	00000106 	br	40306e8 <_exit+0x30>
  } else {
    ALT_SIM_PASS();
 40306e4:	002af0b0 	cmpltui	zero,zero,43970
  ALT_SIM_HALT(exit_code);

  /* spin forever, since there's no where to go back to */

  ALT_LOG_PRINT_BOOT("[alt_exit.c] Spinning forever.\r\n");
  while (1);
 40306e8:	003fff06 	br	40306e8 <__alt_data_end+0xffff06e8>

040306ec <alt_get_errno>:
#undef errno

extern int errno;

static ALT_INLINE int* alt_get_errno(void)
{
 40306ec:	defffe04 	addi	sp,sp,-8
 40306f0:	dfc00115 	stw	ra,4(sp)
 40306f4:	df000015 	stw	fp,0(sp)
 40306f8:	d839883a 	mov	fp,sp
  return ((alt_errno) ? alt_errno() : &errno);
 40306fc:	d0a00817 	ldw	r2,-32736(gp)
 4030700:	10000326 	beq	r2,zero,4030710 <alt_get_errno+0x24>
 4030704:	d0a00817 	ldw	r2,-32736(gp)
 4030708:	103ee83a 	callr	r2
 403070c:	00000106 	br	4030714 <alt_get_errno+0x28>
 4030710:	d0a71504 	addi	r2,gp,-25516
}
 4030714:	e037883a 	mov	sp,fp
 4030718:	dfc00117 	ldw	ra,4(sp)
 403071c:	df000017 	ldw	fp,0(sp)
 4030720:	dec00204 	addi	sp,sp,8
 4030724:	f800283a 	ret

04030728 <fstat>:
}

#else /* !ALT_USE_DIRECT_DRIVERS */

int ALT_FSTAT (int file, struct stat *st)
{
 4030728:	defffb04 	addi	sp,sp,-20
 403072c:	dfc00415 	stw	ra,16(sp)
 4030730:	df000315 	stw	fp,12(sp)
 4030734:	df000304 	addi	fp,sp,12
 4030738:	e13ffe15 	stw	r4,-8(fp)
 403073c:	e17fff15 	stw	r5,-4(fp)
   * A common error case is that when the file descriptor was created, the call
   * to open() failed resulting in a negative file descriptor. This is trapped
   * below so that we don't try and process an invalid file descriptor.
   */

  fd = (file < 0) ? NULL : &alt_fd_list[file];
 4030740:	e0bffe17 	ldw	r2,-8(fp)
 4030744:	10000616 	blt	r2,zero,4030760 <fstat+0x38>
 4030748:	e0bffe17 	ldw	r2,-8(fp)
 403074c:	10c00324 	muli	r3,r2,12
 4030750:	008100f4 	movhi	r2,1027
 4030754:	10898904 	addi	r2,r2,9764
 4030758:	1885883a 	add	r2,r3,r2
 403075c:	00000106 	br	4030764 <fstat+0x3c>
 4030760:	0005883a 	mov	r2,zero
 4030764:	e0bffd15 	stw	r2,-12(fp)
  
  if (fd)
 4030768:	e0bffd17 	ldw	r2,-12(fp)
 403076c:	10001026 	beq	r2,zero,40307b0 <fstat+0x88>
  {
    /* Call the drivers fstat() function to fill out the "st" structure. */

    if (fd->dev->fstat)
 4030770:	e0bffd17 	ldw	r2,-12(fp)
 4030774:	10800017 	ldw	r2,0(r2)
 4030778:	10800817 	ldw	r2,32(r2)
 403077c:	10000726 	beq	r2,zero,403079c <fstat+0x74>
    {
      return fd->dev->fstat(fd, st);
 4030780:	e0bffd17 	ldw	r2,-12(fp)
 4030784:	10800017 	ldw	r2,0(r2)
 4030788:	10800817 	ldw	r2,32(r2)
 403078c:	e17fff17 	ldw	r5,-4(fp)
 4030790:	e13ffd17 	ldw	r4,-12(fp)
 4030794:	103ee83a 	callr	r2
 4030798:	00000a06 	br	40307c4 <fstat+0x9c>
     * device.
     */
 
    else
    {
      st->st_mode = _IFCHR;
 403079c:	e0bfff17 	ldw	r2,-4(fp)
 40307a0:	00c80004 	movi	r3,8192
 40307a4:	10c00115 	stw	r3,4(r2)
      return 0;
 40307a8:	0005883a 	mov	r2,zero
 40307ac:	00000506 	br	40307c4 <fstat+0x9c>
    }
  }
  else
  {
    ALT_ERRNO = EBADFD;
 40307b0:	40306ec0 	call	40306ec <alt_get_errno>
 40307b4:	1007883a 	mov	r3,r2
 40307b8:	00801444 	movi	r2,81
 40307bc:	18800015 	stw	r2,0(r3)
    return -1;
 40307c0:	00bfffc4 	movi	r2,-1
  }
}
 40307c4:	e037883a 	mov	sp,fp
 40307c8:	dfc00117 	ldw	ra,4(sp)
 40307cc:	df000017 	ldw	fp,0(sp)
 40307d0:	dec00204 	addi	sp,sp,8
 40307d4:	f800283a 	ret

040307d8 <alt_get_errno>:
#undef errno

extern int errno;

static ALT_INLINE int* alt_get_errno(void)
{
 40307d8:	defffe04 	addi	sp,sp,-8
 40307dc:	dfc00115 	stw	ra,4(sp)
 40307e0:	df000015 	stw	fp,0(sp)
 40307e4:	d839883a 	mov	fp,sp
  return ((alt_errno) ? alt_errno() : &errno);
 40307e8:	d0a00817 	ldw	r2,-32736(gp)
 40307ec:	10000326 	beq	r2,zero,40307fc <alt_get_errno+0x24>
 40307f0:	d0a00817 	ldw	r2,-32736(gp)
 40307f4:	103ee83a 	callr	r2
 40307f8:	00000106 	br	4030800 <alt_get_errno+0x28>
 40307fc:	d0a71504 	addi	r2,gp,-25516
}
 4030800:	e037883a 	mov	sp,fp
 4030804:	dfc00117 	ldw	ra,4(sp)
 4030808:	df000017 	ldw	fp,0(sp)
 403080c:	dec00204 	addi	sp,sp,8
 4030810:	f800283a 	ret

04030814 <isatty>:
 *
 * ALT_ISATTY is mapped onto the isatty() system call in alt_syscall.h
 */
 
int ALT_ISATTY (int file)
{
 4030814:	deffed04 	addi	sp,sp,-76
 4030818:	dfc01215 	stw	ra,72(sp)
 403081c:	df001115 	stw	fp,68(sp)
 4030820:	df001104 	addi	fp,sp,68
 4030824:	e13fff15 	stw	r4,-4(fp)
   * A common error case is that when the file descriptor was created, the call
   * to open() failed resulting in a negative file descriptor. This is trapped
   * below so that we don't try and process an invalid file descriptor.
   */

  fd = (file < 0) ? NULL : &alt_fd_list[file];
 4030828:	e0bfff17 	ldw	r2,-4(fp)
 403082c:	10000616 	blt	r2,zero,4030848 <isatty+0x34>
 4030830:	e0bfff17 	ldw	r2,-4(fp)
 4030834:	10c00324 	muli	r3,r2,12
 4030838:	008100f4 	movhi	r2,1027
 403083c:	10898904 	addi	r2,r2,9764
 4030840:	1885883a 	add	r2,r3,r2
 4030844:	00000106 	br	403084c <isatty+0x38>
 4030848:	0005883a 	mov	r2,zero
 403084c:	e0bfef15 	stw	r2,-68(fp)
  
  if (fd)
 4030850:	e0bfef17 	ldw	r2,-68(fp)
 4030854:	10000e26 	beq	r2,zero,4030890 <isatty+0x7c>
    /*
     * If a device driver does not provide an fstat() function, then it is 
     * treated as a terminal device by default.
     */

    if (!fd->dev->fstat)
 4030858:	e0bfef17 	ldw	r2,-68(fp)
 403085c:	10800017 	ldw	r2,0(r2)
 4030860:	10800817 	ldw	r2,32(r2)
 4030864:	1000021e 	bne	r2,zero,4030870 <isatty+0x5c>
    {
      return 1;
 4030868:	00800044 	movi	r2,1
 403086c:	00000d06 	br	40308a4 <isatty+0x90>
     * this is called so that the device can identify itself.
     */ 

    else
    {
      fstat (file, &stat);
 4030870:	e0bff004 	addi	r2,fp,-64
 4030874:	100b883a 	mov	r5,r2
 4030878:	e13fff17 	ldw	r4,-4(fp)
 403087c:	40307280 	call	4030728 <fstat>
      return (stat.st_mode == _IFCHR) ? 1 : 0;
 4030880:	e0bff117 	ldw	r2,-60(fp)
 4030884:	10880020 	cmpeqi	r2,r2,8192
 4030888:	10803fcc 	andi	r2,r2,255
 403088c:	00000506 	br	40308a4 <isatty+0x90>
    }
  }
  else
  {
    ALT_ERRNO = EBADFD;
 4030890:	40307d80 	call	40307d8 <alt_get_errno>
 4030894:	1007883a 	mov	r3,r2
 4030898:	00801444 	movi	r2,81
 403089c:	18800015 	stw	r2,0(r3)
    return 0;
 40308a0:	0005883a 	mov	r2,zero
  }
}
 40308a4:	e037883a 	mov	sp,fp
 40308a8:	dfc00117 	ldw	ra,4(sp)
 40308ac:	df000017 	ldw	fp,0(sp)
 40308b0:	dec00204 	addi	sp,sp,8
 40308b4:	f800283a 	ret

040308b8 <alt_get_errno>:
#undef errno

extern int errno;

static ALT_INLINE int* alt_get_errno(void)
{
 40308b8:	defffe04 	addi	sp,sp,-8
 40308bc:	dfc00115 	stw	ra,4(sp)
 40308c0:	df000015 	stw	fp,0(sp)
 40308c4:	d839883a 	mov	fp,sp
  return ((alt_errno) ? alt_errno() : &errno);
 40308c8:	d0a00817 	ldw	r2,-32736(gp)
 40308cc:	10000326 	beq	r2,zero,40308dc <alt_get_errno+0x24>
 40308d0:	d0a00817 	ldw	r2,-32736(gp)
 40308d4:	103ee83a 	callr	r2
 40308d8:	00000106 	br	40308e0 <alt_get_errno+0x28>
 40308dc:	d0a71504 	addi	r2,gp,-25516
}
 40308e0:	e037883a 	mov	sp,fp
 40308e4:	dfc00117 	ldw	ra,4(sp)
 40308e8:	df000017 	ldw	fp,0(sp)
 40308ec:	dec00204 	addi	sp,sp,8
 40308f0:	f800283a 	ret

040308f4 <lseek>:
 * ALT_LSEEK is mapped onto the lseek() system call in alt_syscall.h
 *
 */

off_t ALT_LSEEK (int file, off_t ptr, int dir)
{
 40308f4:	defff904 	addi	sp,sp,-28
 40308f8:	dfc00615 	stw	ra,24(sp)
 40308fc:	df000515 	stw	fp,20(sp)
 4030900:	df000504 	addi	fp,sp,20
 4030904:	e13ffd15 	stw	r4,-12(fp)
 4030908:	e17ffe15 	stw	r5,-8(fp)
 403090c:	e1bfff15 	stw	r6,-4(fp)
  alt_fd* fd;
  off_t   rc = 0; 
 4030910:	e03ffb15 	stw	zero,-20(fp)
   * A common error case is that when the file descriptor was created, the call
   * to open() failed resulting in a negative file descriptor. This is trapped
   * below so that we don't try and process an invalid file descriptor.
   */

  fd = (file < 0) ? NULL : &alt_fd_list[file];
 4030914:	e0bffd17 	ldw	r2,-12(fp)
 4030918:	10000616 	blt	r2,zero,4030934 <lseek+0x40>
 403091c:	e0bffd17 	ldw	r2,-12(fp)
 4030920:	10c00324 	muli	r3,r2,12
 4030924:	008100f4 	movhi	r2,1027
 4030928:	10898904 	addi	r2,r2,9764
 403092c:	1885883a 	add	r2,r3,r2
 4030930:	00000106 	br	4030938 <lseek+0x44>
 4030934:	0005883a 	mov	r2,zero
 4030938:	e0bffc15 	stw	r2,-16(fp)
  
  if (fd) 
 403093c:	e0bffc17 	ldw	r2,-16(fp)
 4030940:	10001026 	beq	r2,zero,4030984 <lseek+0x90>
    /*
     * If the device driver provides an implementation of the lseek() function,
     * then call that to process the request.
     */
 
    if (fd->dev->lseek)
 4030944:	e0bffc17 	ldw	r2,-16(fp)
 4030948:	10800017 	ldw	r2,0(r2)
 403094c:	10800717 	ldw	r2,28(r2)
 4030950:	10000926 	beq	r2,zero,4030978 <lseek+0x84>
    {
      rc = fd->dev->lseek(fd, ptr, dir);
 4030954:	e0bffc17 	ldw	r2,-16(fp)
 4030958:	10800017 	ldw	r2,0(r2)
 403095c:	10800717 	ldw	r2,28(r2)
 4030960:	e1bfff17 	ldw	r6,-4(fp)
 4030964:	e17ffe17 	ldw	r5,-8(fp)
 4030968:	e13ffc17 	ldw	r4,-16(fp)
 403096c:	103ee83a 	callr	r2
 4030970:	e0bffb15 	stw	r2,-20(fp)
 4030974:	00000506 	br	403098c <lseek+0x98>
     * Otherwise return an error.
     */

    else
    {
      rc = -ENOTSUP;
 4030978:	00bfde84 	movi	r2,-134
 403097c:	e0bffb15 	stw	r2,-20(fp)
 4030980:	00000206 	br	403098c <lseek+0x98>
    }
  }
  else  
  {
    rc = -EBADFD;
 4030984:	00bfebc4 	movi	r2,-81
 4030988:	e0bffb15 	stw	r2,-20(fp)
  }

  if (rc < 0)
 403098c:	e0bffb17 	ldw	r2,-20(fp)
 4030990:	1000070e 	bge	r2,zero,40309b0 <lseek+0xbc>
  {
    ALT_ERRNO = -rc;
 4030994:	40308b80 	call	40308b8 <alt_get_errno>
 4030998:	1007883a 	mov	r3,r2
 403099c:	e0bffb17 	ldw	r2,-20(fp)
 40309a0:	0085c83a 	sub	r2,zero,r2
 40309a4:	18800015 	stw	r2,0(r3)
    rc = -1;
 40309a8:	00bfffc4 	movi	r2,-1
 40309ac:	e0bffb15 	stw	r2,-20(fp)
  }

  return rc;
 40309b0:	e0bffb17 	ldw	r2,-20(fp)
}
 40309b4:	e037883a 	mov	sp,fp
 40309b8:	dfc00117 	ldw	ra,4(sp)
 40309bc:	df000017 	ldw	fp,0(sp)
 40309c0:	dec00204 	addi	sp,sp,8
 40309c4:	f800283a 	ret

040309c8 <__malloc_lock>:
 * configuration is single threaded, so there is nothing to do here. Note that 
 * this requires that malloc is never called by an interrupt service routine.
 */

void __malloc_lock ( struct _reent *_r )
{
 40309c8:	defffe04 	addi	sp,sp,-8
 40309cc:	df000115 	stw	fp,4(sp)
 40309d0:	df000104 	addi	fp,sp,4
 40309d4:	e13fff15 	stw	r4,-4(fp)
}
 40309d8:	0001883a 	nop
 40309dc:	e037883a 	mov	sp,fp
 40309e0:	df000017 	ldw	fp,0(sp)
 40309e4:	dec00104 	addi	sp,sp,4
 40309e8:	f800283a 	ret

040309ec <__malloc_unlock>:
/*
 *
 */

void __malloc_unlock ( struct _reent *_r )
{
 40309ec:	defffe04 	addi	sp,sp,-8
 40309f0:	df000115 	stw	fp,4(sp)
 40309f4:	df000104 	addi	fp,sp,4
 40309f8:	e13fff15 	stw	r4,-4(fp)
}
 40309fc:	0001883a 	nop
 4030a00:	e037883a 	mov	sp,fp
 4030a04:	df000017 	ldw	fp,0(sp)
 4030a08:	dec00104 	addi	sp,sp,4
 4030a0c:	f800283a 	ret

04030a10 <alt_get_errno>:
#undef errno

extern int errno;

static ALT_INLINE int* alt_get_errno(void)
{
 4030a10:	defffe04 	addi	sp,sp,-8
 4030a14:	dfc00115 	stw	ra,4(sp)
 4030a18:	df000015 	stw	fp,0(sp)
 4030a1c:	d839883a 	mov	fp,sp
  return ((alt_errno) ? alt_errno() : &errno);
 4030a20:	d0a00817 	ldw	r2,-32736(gp)
 4030a24:	10000326 	beq	r2,zero,4030a34 <alt_get_errno+0x24>
 4030a28:	d0a00817 	ldw	r2,-32736(gp)
 4030a2c:	103ee83a 	callr	r2
 4030a30:	00000106 	br	4030a38 <alt_get_errno+0x28>
 4030a34:	d0a71504 	addi	r2,gp,-25516
}
 4030a38:	e037883a 	mov	sp,fp
 4030a3c:	dfc00117 	ldw	ra,4(sp)
 4030a40:	df000017 	ldw	fp,0(sp)
 4030a44:	dec00204 	addi	sp,sp,8
 4030a48:	f800283a 	ret

04030a4c <read>:
}

#else /* !ALT_USE_DIRECT_DRIVERS */

int ALT_READ (int file, void *ptr, size_t len)
{
 4030a4c:	defff904 	addi	sp,sp,-28
 4030a50:	dfc00615 	stw	ra,24(sp)
 4030a54:	df000515 	stw	fp,20(sp)
 4030a58:	df000504 	addi	fp,sp,20
 4030a5c:	e13ffd15 	stw	r4,-12(fp)
 4030a60:	e17ffe15 	stw	r5,-8(fp)
 4030a64:	e1bfff15 	stw	r6,-4(fp)
   * A common error case is that when the file descriptor was created, the call
   * to open() failed resulting in a negative file descriptor. This is trapped
   * below so that we don't try and process an invalid file descriptor.
   */

  fd = (file < 0) ? NULL : &alt_fd_list[file];
 4030a68:	e0bffd17 	ldw	r2,-12(fp)
 4030a6c:	10000616 	blt	r2,zero,4030a88 <read+0x3c>
 4030a70:	e0bffd17 	ldw	r2,-12(fp)
 4030a74:	10c00324 	muli	r3,r2,12
 4030a78:	008100f4 	movhi	r2,1027
 4030a7c:	10898904 	addi	r2,r2,9764
 4030a80:	1885883a 	add	r2,r3,r2
 4030a84:	00000106 	br	4030a8c <read+0x40>
 4030a88:	0005883a 	mov	r2,zero
 4030a8c:	e0bffb15 	stw	r2,-20(fp)
  
  if (fd)
 4030a90:	e0bffb17 	ldw	r2,-20(fp)
 4030a94:	10002226 	beq	r2,zero,4030b20 <read+0xd4>
     * If the file has not been opened with read access, or if the driver does
     * not provide an implementation of read(), generate an error. Otherwise
     * call the drivers read() function to process the request.
     */

    if (((fd->fd_flags & O_ACCMODE) != O_WRONLY) && 
 4030a98:	e0bffb17 	ldw	r2,-20(fp)
 4030a9c:	10800217 	ldw	r2,8(r2)
 4030aa0:	108000cc 	andi	r2,r2,3
 4030aa4:	10800060 	cmpeqi	r2,r2,1
 4030aa8:	1000181e 	bne	r2,zero,4030b0c <read+0xc0>
        (fd->dev->read))
 4030aac:	e0bffb17 	ldw	r2,-20(fp)
 4030ab0:	10800017 	ldw	r2,0(r2)
 4030ab4:	10800517 	ldw	r2,20(r2)
     * If the file has not been opened with read access, or if the driver does
     * not provide an implementation of read(), generate an error. Otherwise
     * call the drivers read() function to process the request.
     */

    if (((fd->fd_flags & O_ACCMODE) != O_WRONLY) && 
 4030ab8:	10001426 	beq	r2,zero,4030b0c <read+0xc0>
        (fd->dev->read))
      {
        if ((rval = fd->dev->read(fd, ptr, len)) < 0)
 4030abc:	e0bffb17 	ldw	r2,-20(fp)
 4030ac0:	10800017 	ldw	r2,0(r2)
 4030ac4:	10800517 	ldw	r2,20(r2)
 4030ac8:	e0ffff17 	ldw	r3,-4(fp)
 4030acc:	180d883a 	mov	r6,r3
 4030ad0:	e17ffe17 	ldw	r5,-8(fp)
 4030ad4:	e13ffb17 	ldw	r4,-20(fp)
 4030ad8:	103ee83a 	callr	r2
 4030adc:	e0bffc15 	stw	r2,-16(fp)
 4030ae0:	e0bffc17 	ldw	r2,-16(fp)
 4030ae4:	1000070e 	bge	r2,zero,4030b04 <read+0xb8>
        {
          ALT_ERRNO = -rval;
 4030ae8:	4030a100 	call	4030a10 <alt_get_errno>
 4030aec:	1007883a 	mov	r3,r2
 4030af0:	e0bffc17 	ldw	r2,-16(fp)
 4030af4:	0085c83a 	sub	r2,zero,r2
 4030af8:	18800015 	stw	r2,0(r3)
          return -1;
 4030afc:	00bfffc4 	movi	r2,-1
 4030b00:	00000c06 	br	4030b34 <read+0xe8>
        }
        return rval;
 4030b04:	e0bffc17 	ldw	r2,-16(fp)
 4030b08:	00000a06 	br	4030b34 <read+0xe8>
      }
      else
      {
        ALT_ERRNO = EACCES;
 4030b0c:	4030a100 	call	4030a10 <alt_get_errno>
 4030b10:	1007883a 	mov	r3,r2
 4030b14:	00800344 	movi	r2,13
 4030b18:	18800015 	stw	r2,0(r3)
 4030b1c:	00000406 	br	4030b30 <read+0xe4>
      }
    }
  else
  {
    ALT_ERRNO = EBADFD;
 4030b20:	4030a100 	call	4030a10 <alt_get_errno>
 4030b24:	1007883a 	mov	r3,r2
 4030b28:	00801444 	movi	r2,81
 4030b2c:	18800015 	stw	r2,0(r3)
  }
  return -1;
 4030b30:	00bfffc4 	movi	r2,-1
}
 4030b34:	e037883a 	mov	sp,fp
 4030b38:	dfc00117 	ldw	ra,4(sp)
 4030b3c:	df000017 	ldw	fp,0(sp)
 4030b40:	dec00204 	addi	sp,sp,8
 4030b44:	f800283a 	ret

04030b48 <sbrk>:
#endif
 
caddr_t ALT_SBRK (int incr) __attribute__ ((no_instrument_function ));

caddr_t ALT_SBRK (int incr)
{ 
 4030b48:	defff904 	addi	sp,sp,-28
 4030b4c:	df000615 	stw	fp,24(sp)
 4030b50:	df000604 	addi	fp,sp,24
 4030b54:	e13fff15 	stw	r4,-4(fp)
static ALT_INLINE alt_irq_context ALT_ALWAYS_INLINE 
       alt_irq_disable_all (void)
{
  alt_irq_context context;

  NIOS2_READ_STATUS (context);
 4030b58:	0005303a 	rdctl	r2,status
 4030b5c:	e0bffe15 	stw	r2,-8(fp)

  NIOS2_WRITE_STATUS (context & ~NIOS2_STATUS_PIE_MSK);
 4030b60:	e0fffe17 	ldw	r3,-8(fp)
 4030b64:	00bfff84 	movi	r2,-2
 4030b68:	1884703a 	and	r2,r3,r2
 4030b6c:	1001703a 	wrctl	status,r2
  
  return context;
 4030b70:	e0bffe17 	ldw	r2,-8(fp)
  alt_irq_context context;
  char *prev_heap_end; 

  context = alt_irq_disable_all();
 4030b74:	e0bffb15 	stw	r2,-20(fp)

  /* Always return data aligned on a word boundary */
  heap_end = (char *)(((unsigned int)heap_end + 3) & ~3);
 4030b78:	d0a01117 	ldw	r2,-32700(gp)
 4030b7c:	10c000c4 	addi	r3,r2,3
 4030b80:	00bfff04 	movi	r2,-4
 4030b84:	1884703a 	and	r2,r3,r2
 4030b88:	d0a01115 	stw	r2,-32700(gp)
  if (((heap_end + incr) - __alt_heap_start) > ALT_MAX_HEAP_BYTES) {
    alt_irq_enable_all(context);
    return (caddr_t)-1;
  }
#else
  if ((heap_end + incr) > __alt_heap_limit) {
 4030b8c:	d0e01117 	ldw	r3,-32700(gp)
 4030b90:	e0bfff17 	ldw	r2,-4(fp)
 4030b94:	1887883a 	add	r3,r3,r2
 4030b98:	00810134 	movhi	r2,1028
 4030b9c:	10800004 	addi	r2,r2,0
 4030ba0:	10c0062e 	bgeu	r2,r3,4030bbc <sbrk+0x74>
 4030ba4:	e0bffb17 	ldw	r2,-20(fp)
 4030ba8:	e0bffa15 	stw	r2,-24(fp)
  status &= ~NIOS2_STATUS_PIE_MSK;
  status |= (context & NIOS2_STATUS_PIE_MSK);
  
  NIOS2_WRITE_STATUS (status);
#else
  NIOS2_WRITE_STATUS (context);
 4030bac:	e0bffa17 	ldw	r2,-24(fp)
 4030bb0:	1001703a 	wrctl	status,r2
    alt_irq_enable_all(context);
    return (caddr_t)-1;
 4030bb4:	00bfffc4 	movi	r2,-1
 4030bb8:	00000b06 	br	4030be8 <sbrk+0xa0>
  }
#endif

  prev_heap_end = heap_end; 
 4030bbc:	d0a01117 	ldw	r2,-32700(gp)
 4030bc0:	e0bffd15 	stw	r2,-12(fp)
  heap_end += incr; 
 4030bc4:	d0e01117 	ldw	r3,-32700(gp)
 4030bc8:	e0bfff17 	ldw	r2,-4(fp)
 4030bcc:	1885883a 	add	r2,r3,r2
 4030bd0:	d0a01115 	stw	r2,-32700(gp)
 4030bd4:	e0bffb17 	ldw	r2,-20(fp)
 4030bd8:	e0bffc15 	stw	r2,-16(fp)
 4030bdc:	e0bffc17 	ldw	r2,-16(fp)
 4030be0:	1001703a 	wrctl	status,r2

#endif

  alt_irq_enable_all(context);

  return (caddr_t) prev_heap_end; 
 4030be4:	e0bffd17 	ldw	r2,-12(fp)
} 
 4030be8:	e037883a 	mov	sp,fp
 4030bec:	df000017 	ldw	fp,0(sp)
 4030bf0:	dec00104 	addi	sp,sp,4
 4030bf4:	f800283a 	ret

04030bf8 <alt_get_errno>:
#undef errno

extern int errno;

static ALT_INLINE int* alt_get_errno(void)
{
 4030bf8:	defffe04 	addi	sp,sp,-8
 4030bfc:	dfc00115 	stw	ra,4(sp)
 4030c00:	df000015 	stw	fp,0(sp)
 4030c04:	d839883a 	mov	fp,sp
  return ((alt_errno) ? alt_errno() : &errno);
 4030c08:	d0a00817 	ldw	r2,-32736(gp)
 4030c0c:	10000326 	beq	r2,zero,4030c1c <alt_get_errno+0x24>
 4030c10:	d0a00817 	ldw	r2,-32736(gp)
 4030c14:	103ee83a 	callr	r2
 4030c18:	00000106 	br	4030c20 <alt_get_errno+0x28>
 4030c1c:	d0a71504 	addi	r2,gp,-25516
}
 4030c20:	e037883a 	mov	sp,fp
 4030c24:	dfc00117 	ldw	ra,4(sp)
 4030c28:	df000017 	ldw	fp,0(sp)
 4030c2c:	dec00204 	addi	sp,sp,8
 4030c30:	f800283a 	ret

04030c34 <write>:
}

#else /* !ALT_USE_DIRECT_DRIVERS */

int ALT_WRITE (int file, const void *ptr, size_t len)
{
 4030c34:	defff904 	addi	sp,sp,-28
 4030c38:	dfc00615 	stw	ra,24(sp)
 4030c3c:	df000515 	stw	fp,20(sp)
 4030c40:	df000504 	addi	fp,sp,20
 4030c44:	e13ffd15 	stw	r4,-12(fp)
 4030c48:	e17ffe15 	stw	r5,-8(fp)
 4030c4c:	e1bfff15 	stw	r6,-4(fp)
   * A common error case is that when the file descriptor was created, the call
   * to open() failed resulting in a negative file descriptor. This is trapped
   * below so that we don't try and process an invalid file descriptor.
   */

  fd = (file < 0) ? NULL : &alt_fd_list[file];
 4030c50:	e0bffd17 	ldw	r2,-12(fp)
 4030c54:	10000616 	blt	r2,zero,4030c70 <write+0x3c>
 4030c58:	e0bffd17 	ldw	r2,-12(fp)
 4030c5c:	10c00324 	muli	r3,r2,12
 4030c60:	008100f4 	movhi	r2,1027
 4030c64:	10898904 	addi	r2,r2,9764
 4030c68:	1885883a 	add	r2,r3,r2
 4030c6c:	00000106 	br	4030c74 <write+0x40>
 4030c70:	0005883a 	mov	r2,zero
 4030c74:	e0bffb15 	stw	r2,-20(fp)
  
  if (fd)
 4030c78:	e0bffb17 	ldw	r2,-20(fp)
 4030c7c:	10002126 	beq	r2,zero,4030d04 <write+0xd0>
     * If the file has not been opened with write access, or if the driver does
     * not provide an implementation of write(), generate an error. Otherwise
     * call the drivers write() function to process the request.
     */

    if (((fd->fd_flags & O_ACCMODE) != O_RDONLY) && fd->dev->write)
 4030c80:	e0bffb17 	ldw	r2,-20(fp)
 4030c84:	10800217 	ldw	r2,8(r2)
 4030c88:	108000cc 	andi	r2,r2,3
 4030c8c:	10001826 	beq	r2,zero,4030cf0 <write+0xbc>
 4030c90:	e0bffb17 	ldw	r2,-20(fp)
 4030c94:	10800017 	ldw	r2,0(r2)
 4030c98:	10800617 	ldw	r2,24(r2)
 4030c9c:	10001426 	beq	r2,zero,4030cf0 <write+0xbc>
    {
      
      /* ALT_LOG - see altera_hal/HAL/inc/sys/alt_log_printf.h */
      ALT_LOG_WRITE_FUNCTION(ptr,len);

      if ((rval = fd->dev->write(fd, ptr, len)) < 0)
 4030ca0:	e0bffb17 	ldw	r2,-20(fp)
 4030ca4:	10800017 	ldw	r2,0(r2)
 4030ca8:	10800617 	ldw	r2,24(r2)
 4030cac:	e0ffff17 	ldw	r3,-4(fp)
 4030cb0:	180d883a 	mov	r6,r3
 4030cb4:	e17ffe17 	ldw	r5,-8(fp)
 4030cb8:	e13ffb17 	ldw	r4,-20(fp)
 4030cbc:	103ee83a 	callr	r2
 4030cc0:	e0bffc15 	stw	r2,-16(fp)
 4030cc4:	e0bffc17 	ldw	r2,-16(fp)
 4030cc8:	1000070e 	bge	r2,zero,4030ce8 <write+0xb4>
      {
        ALT_ERRNO = -rval;
 4030ccc:	4030bf80 	call	4030bf8 <alt_get_errno>
 4030cd0:	1007883a 	mov	r3,r2
 4030cd4:	e0bffc17 	ldw	r2,-16(fp)
 4030cd8:	0085c83a 	sub	r2,zero,r2
 4030cdc:	18800015 	stw	r2,0(r3)
        return -1;
 4030ce0:	00bfffc4 	movi	r2,-1
 4030ce4:	00000c06 	br	4030d18 <write+0xe4>
      }
      return rval;
 4030ce8:	e0bffc17 	ldw	r2,-16(fp)
 4030cec:	00000a06 	br	4030d18 <write+0xe4>
    }
    else
    {
      ALT_ERRNO = EACCES;
 4030cf0:	4030bf80 	call	4030bf8 <alt_get_errno>
 4030cf4:	1007883a 	mov	r3,r2
 4030cf8:	00800344 	movi	r2,13
 4030cfc:	18800015 	stw	r2,0(r3)
 4030d00:	00000406 	br	4030d14 <write+0xe0>
    }
  }
  else  
  {
    ALT_ERRNO = EBADFD;
 4030d04:	4030bf80 	call	4030bf8 <alt_get_errno>
 4030d08:	1007883a 	mov	r3,r2
 4030d0c:	00801444 	movi	r2,81
 4030d10:	18800015 	stw	r2,0(r3)
  }
  return -1;
 4030d14:	00bfffc4 	movi	r2,-1
}
 4030d18:	e037883a 	mov	sp,fp
 4030d1c:	dfc00117 	ldw	ra,4(sp)
 4030d20:	df000017 	ldw	fp,0(sp)
 4030d24:	dec00204 	addi	sp,sp,8
 4030d28:	f800283a 	ret
