
cpu_1_proj.elf:     file format elf32-littlenios2
cpu_1_proj.elf
architecture: nios2:r1, flags 0x00000112:
EXEC_P, HAS_SYMS, D_PAGED
start address 0x04020244

Program Header:
    LOAD off    0x00001000 vaddr 0x04020000 paddr 0x04020000 align 2**12
         filesz 0x00000020 memsz 0x00000020 flags r-x
    LOAD off    0x00001020 vaddr 0x04020020 paddr 0x04020020 align 2**12
         filesz 0x00011568 memsz 0x00011568 flags r-x
    LOAD off    0x00012588 vaddr 0x04031588 paddr 0x04033164 align 2**12
         filesz 0x00001bdc memsz 0x00001bdc flags rw-
    LOAD off    0x00014d40 vaddr 0x04034d40 paddr 0x04034d40 align 2**12
         filesz 0x00000000 memsz 0x00000174 flags rw-

Sections:
Idx Name          Size      VMA       LMA       File off  Algn
  0 .entry        00000020  04020000  04020000  00001000  2**5
                  CONTENTS, ALLOC, LOAD, READONLY, CODE
  1 .exceptions   00000224  04020020  04020020  00001020  2**2
                  CONTENTS, ALLOC, LOAD, READONLY, CODE
  2 .text         00010af8  04020244  04020244  00001244  2**2
                  CONTENTS, ALLOC, LOAD, READONLY, CODE
  3 .rodata       0000084c  04030d3c  04030d3c  00011d3c  2**2
                  CONTENTS, ALLOC, LOAD, READONLY, DATA
  4 .rwdata       00001bdc  04031588  04033164  00012588  2**2
                  CONTENTS, ALLOC, LOAD, DATA, SMALL_DATA
  5 .bss          00000174  04034d40  04034d40  00014d40  2**2
                  ALLOC, SMALL_DATA
  6 .sdram_controller_2 00000000  00000000  00000000  00014164  2**0
                  CONTENTS
  7 .onchip_memory_1 00000000  04034eb4  04034eb4  00014164  2**0
                  CONTENTS
  8 .comment      00000023  00000000  00000000  00014164  2**0
                  CONTENTS, READONLY
  9 .debug_aranges 00000f58  00000000  00000000  00014188  2**3
                  CONTENTS, READONLY, DEBUGGING
 10 .debug_info   00025079  00000000  00000000  000150e0  2**0
                  CONTENTS, READONLY, DEBUGGING
 11 .debug_abbrev 0000973a  00000000  00000000  0003a159  2**0
                  CONTENTS, READONLY, DEBUGGING
 12 .debug_line   0000bbd3  00000000  00000000  00043893  2**0
                  CONTENTS, READONLY, DEBUGGING
 13 .debug_frame  00002508  00000000  00000000  0004f468  2**2
                  CONTENTS, READONLY, DEBUGGING
 14 .debug_str    00003d63  00000000  00000000  00051970  2**0
                  CONTENTS, READONLY, DEBUGGING
 15 .debug_loc    000179b5  00000000  00000000  000556d3  2**0
                  CONTENTS, READONLY, DEBUGGING
 16 .debug_alt_sim_info 00000030  00000000  00000000  0006d088  2**2
                  CONTENTS, READONLY, DEBUGGING
 17 .debug_ranges 000018d8  00000000  00000000  0006d0b8  2**3
                  CONTENTS, READONLY, DEBUGGING
 18 .thread_model 00000003  00000000  00000000  00072022  2**0
                  CONTENTS, READONLY
 19 .cpu          00000005  00000000  00000000  00072025  2**0
                  CONTENTS, READONLY
 20 .qsys         00000001  00000000  00000000  0007202a  2**0
                  CONTENTS, READONLY
 21 .simulation_enabled 00000001  00000000  00000000  0007202b  2**0
                  CONTENTS, READONLY
 22 .stderr_dev   0000000b  00000000  00000000  0007202c  2**0
                  CONTENTS, READONLY
 23 .stdin_dev    0000000b  00000000  00000000  00072037  2**0
                  CONTENTS, READONLY
 24 .stdout_dev   0000000b  00000000  00000000  00072042  2**0
                  CONTENTS, READONLY
 25 .sopc_system_name 0000000a  00000000  00000000  0007204d  2**0
                  CONTENTS, READONLY
 26 .quartus_project_dir 00000020  00000000  00000000  00072057  2**0
                  CONTENTS, READONLY
 27 .jdi          0000b01f  00000000  00000000  00072077  2**0
                  CONTENTS, READONLY
 28 .sopcinfo     000c2caf  00000000  00000000  0007d096  2**0
                  CONTENTS, READONLY
SYMBOL TABLE:
04020000 l    d  .entry	00000000 .entry
04020020 l    d  .exceptions	00000000 .exceptions
04020244 l    d  .text	00000000 .text
04030d3c l    d  .rodata	00000000 .rodata
04031588 l    d  .rwdata	00000000 .rwdata
04034d40 l    d  .bss	00000000 .bss
00000000 l    d  .sdram_controller_2	00000000 .sdram_controller_2
04034eb4 l    d  .onchip_memory_1	00000000 .onchip_memory_1
00000000 l    d  .comment	00000000 .comment
00000000 l    d  .debug_aranges	00000000 .debug_aranges
00000000 l    d  .debug_info	00000000 .debug_info
00000000 l    d  .debug_abbrev	00000000 .debug_abbrev
00000000 l    d  .debug_line	00000000 .debug_line
00000000 l    d  .debug_frame	00000000 .debug_frame
00000000 l    d  .debug_str	00000000 .debug_str
00000000 l    d  .debug_loc	00000000 .debug_loc
00000000 l    d  .debug_alt_sim_info	00000000 .debug_alt_sim_info
00000000 l    d  .debug_ranges	00000000 .debug_ranges
00000000 l    df *ABS*	00000000 C:/RTES/miniproject_2/sw/nios/cpu_1_proj_bsp//obj/HAL/src/crt0.o
0402028c l       .text	00000000 alt_after_alt_main
00000000 l    df *ABS*	00000000 alt_irq_handler.c
00000000 l    df *ABS*	00000000 alt_instruction_exception_entry.c
00000000 l    df *ABS*	00000000 hello_world.c
00000000 l    df *ABS*	00000000 alt_dcache_flush_all.c
00000000 l    df *ABS*	00000000 alt_load.c
04020c9c l     F .text	00000068 alt_load_section
00000000 l    df *ABS*	00000000 alt_main.c
00000000 l    df *ABS*	00000000 alt_printf.c
00000000 l    df *ABS*	00000000 alt_putchar.c
00000000 l    df *ABS*	00000000 alt_sys_init.c
0402106c l     F .text	00000034 alt_dev_reg
04031588 l     O .rwdata	00001060 jtag_uart_1
040325e8 l     O .rwdata	00000048 mailbox_simple_0
04032630 l     O .rwdata	00000048 mailbox_simple_1
04032678 l     O .rwdata	0000002c parallel_port_1
040326a4 l     O .rwdata	0000002c parallel_port_2
00000000 l    df *ABS*	00000000 altera_avalon_jtag_uart_fd.c
00000000 l    df *ABS*	00000000 altera_avalon_jtag_uart_init.c
04021394 l     F .text	0000020c altera_avalon_jtag_uart_irq
040215a0 l     F .text	000000a0 altera_avalon_jtag_uart_timeout
00000000 l    df *ABS*	00000000 altera_avalon_jtag_uart_ioctl.c
00000000 l    df *ABS*	00000000 altera_avalon_jtag_uart_read.c
00000000 l    df *ABS*	00000000 altera_avalon_jtag_uart_write.c
00000000 l    df *ABS*	00000000 altera_avalon_mailbox_simple.c
04021bd8 l     F .text	00000090 altera_avalon_mailbox_identify
04021c68 l     F .text	00000078 altera_avalon_mailbox_post
04021ce0 l     F .text	00000138 altera_avalon_mailbox_simple_tx_isr
04021e18 l     F .text	000000a8 altera_avalon_mailbox_simple_rx_isr
00000000 l    df *ABS*	00000000 altera_avalon_performance_counter.c
00000000 l    df *ABS*	00000000 perf_print_formatted_report.c
00000000 l    df *ABS*	00000000 alt_alarm_start.c
00000000 l    df *ABS*	00000000 alt_close.c
04022a70 l     F .text	0000003c alt_get_errno
00000000 l    df *ABS*	00000000 alt_dev.c
04022b7c l     F .text	0000002c alt_dev_null_write
00000000 l    df *ABS*	00000000 alt_dev_llist_insert.c
04022ba8 l     F .text	0000003c alt_get_errno
00000000 l    df *ABS*	00000000 alt_do_ctors.c
00000000 l    df *ABS*	00000000 alt_do_dtors.c
00000000 l    df *ABS*	00000000 alt_errno.c
00000000 l    df *ABS*	00000000 alt_find_dev.c
00000000 l    df *ABS*	00000000 alt_icache_flush_all.c
00000000 l    df *ABS*	00000000 alt_iic.c
00000000 l    df *ABS*	00000000 alt_iic_isr_register.c
00000000 l    df *ABS*	00000000 alt_io_redirect.c
040230ac l     F .text	000000c4 alt_open_fd
00000000 l    df *ABS*	00000000 alt_irq_vars.c
00000000 l    df *ABS*	00000000 alt_open.c
040231ec l     F .text	0000003c alt_get_errno
04023228 l     F .text	000000c4 alt_file_locked
00000000 l    df *ABS*	00000000 alt_release_fd.c
00000000 l    df *ABS*	00000000 alt_tick.c
00000000 l    df *ABS*	00000000 altera_nios2_gen2_irq.c
00000000 l    df *ABS*	00000000 alt_find_file.c
00000000 l    df *ABS*	00000000 alt_get_fd.c
00000000 l    df *ABS*	00000000 alt_icache_flush.c
00000000 l    df *ABS*	00000000 atexit.c
00000000 l    df *ABS*	00000000 exit.c
00000000 l    df *ABS*	00000000 impure.c
04032878 l     O .rwdata	00000424 impure_data
00000000 l    df *ABS*	00000000 int_errno.c
00000000 l    df *ABS*	00000000 memcmp.c
00000000 l    df *ABS*	00000000 memcpy.c
00000000 l    df *ABS*	00000000 printf.c
00000000 l    df *ABS*	00000000 putc.c
00000000 l    df *ABS*	00000000 strlen.c
00000000 l    df *ABS*	00000000 vfprintf.c
04031306 l     O .rodata	00000010 zeroes.4404
04025fd4 l     F .text	000000bc __sbprintf
04031316 l     O .rodata	00000010 blanks.4403
00000000 l    df *ABS*	00000000 wbuf.c
00000000 l    df *ABS*	00000000 wsetup.c
00000000 l    df *ABS*	00000000 __atexit.c
00000000 l    df *ABS*	00000000 __call_atexit.c
00000000 l    df *ABS*	00000000 dtoa.c
040265d4 l     F .text	00000200 quorem
00000000 l    df *ABS*	00000000 fflush.c
00000000 l    df *ABS*	00000000 findfp.c
04028104 l     F .text	00000008 __fp_unlock
04028118 l     F .text	0000019c __sinit.part.1
040282b4 l     F .text	00000008 __fp_lock
00000000 l    df *ABS*	00000000 mallocr.c
00000000 l    df *ABS*	00000000 fwalk.c
00000000 l    df *ABS*	00000000 locale.c
04032cbc l     O .rwdata	00000020 lc_ctype_charset
04032c9c l     O .rwdata	00000020 lc_message_charset
04032cdc l     O .rwdata	00000038 lconv
00000000 l    df *ABS*	00000000 makebuf.c
00000000 l    df *ABS*	00000000 mallocr.c
00000000 l    df *ABS*	00000000 memchr.c
00000000 l    df *ABS*	00000000 memset.c
00000000 l    df *ABS*	00000000 mprec.c
04031344 l     O .rodata	0000000c p05.2768
00000000 l    df *ABS*	00000000 s_fpclassify.c
00000000 l    df *ABS*	00000000 sbrkr.c
00000000 l    df *ABS*	00000000 stdio.c
00000000 l    df *ABS*	00000000 strcmp.c
00000000 l    df *ABS*	00000000 vfprintf.c
0402a9ec l     F .text	000000fc __sprint_r.part.0
04031478 l     O .rodata	00000010 blanks.4348
04031468 l     O .rodata	00000010 zeroes.4349
0402bf78 l     F .text	000000bc __sbprintf
00000000 l    df *ABS*	00000000 writer.c
00000000 l    df *ABS*	00000000 closer.c
00000000 l    df *ABS*	00000000 mallocr.c
00000000 l    df *ABS*	00000000 fclose.c
00000000 l    df *ABS*	00000000 fputwc.c
00000000 l    df *ABS*	00000000 fstatr.c
00000000 l    df *ABS*	00000000 fvwrite.c
00000000 l    df *ABS*	00000000 isattyr.c
00000000 l    df *ABS*	00000000 lseekr.c
00000000 l    df *ABS*	00000000 memmove.c
00000000 l    df *ABS*	00000000 readr.c
00000000 l    df *ABS*	00000000 mallocr.c
00000000 l    df *ABS*	00000000 wcrtomb.c
00000000 l    df *ABS*	00000000 wctomb_r.c
00000000 l    df *ABS*	00000000 libgcc2.c
00000000 l    df *ABS*	00000000 libgcc2.c
00000000 l    df *ABS*	00000000 libgcc2.c
00000000 l    df *ABS*	00000000 lib2-divmod.c
00000000 l    df *ABS*	00000000 adddf3.c
00000000 l    df *ABS*	00000000 divdf3.c
00000000 l    df *ABS*	00000000 eqdf2.c
00000000 l    df *ABS*	00000000 gedf2.c
00000000 l    df *ABS*	00000000 ledf2.c
00000000 l    df *ABS*	00000000 muldf3.c
00000000 l    df *ABS*	00000000 subdf3.c
00000000 l    df *ABS*	00000000 fixdfsi.c
00000000 l    df *ABS*	00000000 floatsidf.c
00000000 l    df *ABS*	00000000 floatunsidf.c
00000000 l    df *ABS*	00000000 libgcc2.c
00000000 l    df *ABS*	00000000 libgcc2.c
00000000 l    df *ABS*	00000000 alt_exit.c
00000000 l    df *ABS*	00000000 alt_fstat.c
040306fc l     F .text	0000003c alt_get_errno
00000000 l    df *ABS*	00000000 alt_isatty.c
040307e8 l     F .text	0000003c alt_get_errno
00000000 l    df *ABS*	00000000 alt_lseek.c
040308c8 l     F .text	0000003c alt_get_errno
00000000 l    df *ABS*	00000000 alt_malloc_lock.c
00000000 l    df *ABS*	00000000 alt_read.c
04030a20 l     F .text	0000003c alt_get_errno
00000000 l    df *ABS*	00000000 alt_sbrk.c
04033160 l     O .rwdata	00000004 heap_end
00000000 l    df *ABS*	00000000 alt_write.c
04030c08 l     F .text	0000003c alt_get_errno
04034d6c g     O .bss	00000004 alt_instruction_exception_handler
0402a594 g     F .text	00000074 _mprec_log10
040205f4 g     F .text	0000008c HW_Accelerator_start
040222ac g     F .text	00000150 altera_avalon_mailbox_send
0402a680 g     F .text	0000008c __any_on
0402c9d0 g     F .text	00000054 _isatty_r
04031350 g     O .rodata	00000028 __mprec_tinytens
04020d88 g     F .text	0000007c alt_main
04034db4 g     O .bss	00000100 alt_irq
0402ca24 g     F .text	00000060 _lseek_r
04033164 g       *ABS*	00000000 __flash_rwdata_start
0402f1f4 g     F .text	00000088 .hidden __eqdf2
04034eb4 g       *ABS*	00000000 __alt_heap_start
04023b84 g     F .text	0000003c printf
0402d1a4 g     F .text	0000009c _wcrtomb_r
0402a8ac g     F .text	0000005c __sseek
04028454 g     F .text	00000010 __sinit
040226a0 g     F .text	00000024 alt_get_cpu_freq
04026090 g     F .text	00000140 __swbuf_r
04028a60 g     F .text	0000007c _setlocale_r
040282bc g     F .text	00000068 __sfmoreglue
040309fc g     F .text	00000024 __malloc_unlock
0402ca84 g     F .text	0000015c memmove
040226c4 g     F .text	00000280 perf_print_formatted_report
0402843c g     F .text	00000018 _cleanup
04029710 g     F .text	000000a8 _Balloc
0402f27c g     F .text	000000dc .hidden __gtdf2
04023648 g     F .text	00000024 altera_nios2_gen2_irq_init
04020000 g     F .entry	0000001c __reset
04020020 g       *ABS*	00000000 __flash_exceptions_start
0402c4b8 g     F .text	0000005c _fstat_r
04034d70 g     O .bss	00000004 errno
0402a828 g     F .text	00000008 __seofread
0402036c g     F .text	00000060 receive_callback
04034d58 g     O .bss	00000004 alt_argv
0403b11c g       *ABS*	00000000 _gp
040223fc g     F .text	0000013c altera_avalon_mailbox_retrieve_poll
040326f8 g     O .rwdata	00000180 alt_fd_list
04022d48 g     F .text	00000090 alt_find_dev
04023a0c g     F .text	00000148 memcpy
0402810c g     F .text	0000000c _cleanup_r
040304e0 g     F .text	000000dc .hidden __floatsidf
04023170 g     F .text	0000007c alt_io_redirect
0402f358 g     F .text	000000f4 .hidden __ltdf2
04030d3c g       *ABS*	00000000 __DTOR_END__
040238a8 g     F .text	0000009c alt_exception_cause_generated_bad_addr
04021ec0 g     F .text	00000078 altera_avalon_mailbox_simple_init
0402a70c g     F .text	00000074 __fpclassifyd
0402a4f0 g     F .text	000000a4 __ratio
0402bf5c g     F .text	0000001c __vfiprintf_internal
04021798 g     F .text	0000021c altera_avalon_jtag_uart_read
04023b54 g     F .text	00000030 _printf_r
0402dfa4 g     F .text	00000064 .hidden __udivsi3
04030824 g     F .text	000000a4 isatty
040313a0 g     O .rodata	000000c8 __mprec_tens
04022234 g     F .text	00000078 altera_avalon_mailbox_status
0402211c g     F .text	00000118 altera_avalon_mailbox_close
04028adc g     F .text	0000000c __locale_charset
04023818 g     F .text	00000090 alt_icache_flush
04034d88 g     O .bss	00000004 __malloc_top_pad
04022640 g     F .text	00000040 perf_get_num_starts
04033150 g     O .rwdata	00000004 __mb_cur_max
04028b0c g     F .text	0000000c _localeconv_r
0402c514 g     F .text	000004bc __sfvwrite_r
04029b1c g     F .text	0000003c __i2b
0402a780 g     F .text	00000054 _sbrk_r
0402cbe0 g     F .text	00000060 _read_r
04033134 g     O .rwdata	00000004 alt_max_fd
0402c1ac g     F .text	000000f0 _fclose_r
040280d4 g     F .text	00000030 fflush
04034d84 g     O .bss	00000004 __malloc_max_sbrked_mem
0402e060 g     F .text	000008ac .hidden __adddf3
0402a298 g     F .text	0000010c __b2d
040207d8 g     F .text	0000008c custom_function
0402d974 g     F .text	00000538 .hidden __umoddi3
04030904 g     F .text	000000d4 lseek
04033148 g     O .rwdata	00000004 _global_impure_ptr
0402cc40 g     F .text	00000564 _realloc_r
04034eb4 g       *ABS*	00000000 __bss_end
04022fbc g     F .text	000000f0 alt_iic_isr_register
04023540 g     F .text	00000108 alt_tick
0402d3fc g     F .text	00000578 .hidden __udivdi3
0402c414 g     F .text	00000024 _fputwc_r
04031378 g     O .rodata	00000028 __mprec_bigtens
04029900 g     F .text	00000104 __s2b
040305bc g     F .text	000000a8 .hidden __floatunsidf
04029fd8 g     F .text	00000060 __mcmp
04028474 g     F .text	00000018 __fp_lock_all
04022f70 g     F .text	0000004c alt_ic_irq_enabled
040234a4 g     F .text	0000009c alt_alarm_stop
04034d60 g     O .bss	00000004 alt_irq_active
040200fc g     F .exceptions	000000d4 alt_irq_handler
040326d0 g     O .rwdata	00000028 alt_dev_null
04020c54 g     F .text	00000048 alt_dcache_flush_all
04029a04 g     F .text	00000068 __hi0bits
04030460 g     F .text	00000080 .hidden __fixdfsi
04033164 g       *ABS*	00000000 __ram_rwdata_end
0403312c g     O .rwdata	00000008 alt_dev_list
04030c44 g     F .text	000000f8 write
04023bc0 g     F .text	000000a0 _putc_r
04031588 g       *ABS*	00000000 __ram_rodata_end
04030738 g     F .text	000000b0 fstat
0402f358 g     F .text	000000f4 .hidden __ledf2
04029d50 g     F .text	00000140 __pow5mult
0402ab00 g     F .text	0000145c ___vfiprintf_internal_r
04034d7c g     O .bss	00000004 __nlocale_changed
0402e008 g     F .text	00000058 .hidden __umodsi3
04034eb4 g       *ABS*	00000000 end
040212d4 g     F .text	000000c0 altera_avalon_jtag_uart_init
040201d0 g     F .exceptions	00000074 alt_instruction_exception_entry
04030d3c g       *ABS*	00000000 __CTOR_LIST__
04040000 g       *ABS*	00000000 __alt_stack_pointer
04030664 g     F .text	00000064 .hidden __clzsi2
04020680 g     F .text	00000068 HW_Accelerator_wait_for_ready
040219b4 g     F .text	00000224 altera_avalon_jtag_uart_write
04028464 g     F .text	00000004 __sfp_lock_acquire
04029504 g     F .text	000000e4 memchr
04023dc0 g     F .text	000021f8 ___vfprintf_internal_r
04020420 g     F .text	000001d4 choose_task
040285c8 g     F .text	00000310 _free_r
04020e04 g     F .text	0000022c alt_printf
04028ae8 g     F .text	00000010 __locale_mb_cur_max
04026454 g     F .text	00000180 __call_exitprocs
04034d78 g     O .bss	00000004 __mlocale_changed
04020000 g       *ABS*	00000000 __alt_mem_onchip_memory_1
04033154 g     O .rwdata	00000004 __malloc_sbrk_base
04020244 g     F .text	0000004c _start
04034d64 g     O .bss	00000004 _alt_tick_rate
0402d38c g     F .text	00000070 .hidden __floatundidf
04029e90 g     F .text	00000148 __lshift
04034d68 g     O .bss	00000004 _alt_nticks
04030a5c g     F .text	000000fc read
040210d8 g     F .text	00000098 alt_sys_init
0402633c g     F .text	00000118 __register_exitproc
040203cc g     F .text	00000054 receive_mail
04029b58 g     F .text	000001f8 __multiply
04021640 g     F .text	00000068 altera_avalon_jtag_uart_close
04031588 g       *ABS*	00000000 __ram_rwdata_start
04030d3c g       *ABS*	00000000 __ram_rodata_start
04034d8c g     O .bss	00000028 __malloc_current_mallinfo
0402a3a4 g     F .text	0000014c __d2b
04021170 g     F .text	00000060 altera_avalon_jtag_uart_read_fd
04023774 g     F .text	000000a4 alt_get_fd
0402c094 g     F .text	00000054 _close_r
04022538 g     F .text	000000bc perf_get_section_time
04023990 g     F .text	0000007c memcmp
04021230 g     F .text	00000050 altera_avalon_jtag_uart_close_fd
04034eb4 g       *ABS*	00000000 __alt_stack_base
04021280 g     F .text	00000054 altera_avalon_jtag_uart_ioctl_fd
040261e8 g     F .text	00000154 __swsetup_r
0402e90c g     F .text	000008e8 .hidden __divdf3
04034d44 g     O .bss	00000008 mail_send
04028324 g     F .text	00000118 __sfp
0402a608 g     F .text	00000078 __copybits
040225f4 g     F .text	0000004c perf_get_total_time
04032d14 g     O .rwdata	00000408 __malloc_av_
04028470 g     F .text	00000004 __sinit_lock_release
0402f44c g     F .text	00000718 .hidden __muldf3
0402a7d4 g     F .text	00000054 __sread
0402366c g     F .text	00000108 alt_find_file
04022be4 g     F .text	000000a4 alt_dev_llist_insert
040309d8 g     F .text	00000024 __malloc_lock
04030b58 g     F .text	000000b0 sbrk
04028078 g     F .text	0000005c _fflush_r
0402c0e8 g     F .text	000000c4 _calloc_r
04034d40 g     O .bss	00000004 choice
04034d40 g       *ABS*	00000000 __bss_start
040295e8 g     F .text	00000128 memset
04020c10 g     F .text	00000044 main
04034d5c g     O .bss	00000004 alt_envp
04034d80 g     O .bss	00000004 __malloc_max_total_mem
040211d0 g     F .text	00000060 altera_avalon_jtag_uart_write_fd
040261d0 g     F .text	00000018 __swbuf
04020290 g     F .text	00000064 send_callback
0402a908 g     F .text	00000008 __sclose
04040000 g       *ABS*	00000000 __alt_heap_limit
0402c29c g     F .text	00000014 fclose
040267d4 g     F .text	00001688 _dtoa_r
04028cf8 g     F .text	0000080c _malloc_r
0402d300 g     F .text	00000030 __ascii_wctomb
04033138 g     O .rwdata	00000004 alt_errno
040288d8 g     F .text	000000c4 _fwalk
04023c60 g     F .text	000000c8 putc
0402deac g     F .text	00000084 .hidden __divsi3
040284a4 g     F .text	00000124 _malloc_trim_r
04030d3c g       *ABS*	00000000 __CTOR_END__
0402a910 g     F .text	000000dc strcmp
04030d3c g       *ABS*	00000000 __flash_rodata_start
04030d3c g       *ABS*	00000000 __DTOR_LIST__
0402f1f4 g     F .text	00000088 .hidden __nedf2
040210a0 g     F .text	00000038 alt_irq_init
04023440 g     F .text	00000064 alt_release_fd
04031488 g     O .rodata	00000100 .hidden __clz_tab
04034d74 g     O .bss	00000004 _PathLocale
04023944 g     F .text	00000014 atexit
0402c034 g     F .text	00000060 _write_r
04028b18 g     F .text	00000018 setlocale
0403314c g     O .rwdata	00000004 _impure_ptr
04034d54 g     O .bss	00000004 alt_argc
04027e5c g     F .text	0000021c __sflush_r
04022ce8 g     F .text	00000060 _do_dtors
04028b04 g     F .text	00000008 __locale_cjk_lang
00000000 g       *ABS*	00000000 __alt_mem_sdram_controller_2
04020020 g       .exceptions	00000000 alt_irq_entry
0402a234 g     F .text	00000064 __ulp
0402848c g     F .text	00000018 __fp_unlock_all
04034d4c g     O .bss	00000008 mail_receive
04033124 g     O .rwdata	00000008 alt_fs_list
04020020 g       *ABS*	00000000 __ram_exceptions_start
04028b30 g     F .text	0000000c localeconv
040202f4 g     F .text	00000078 send_mail
04022e0c g     F .text	00000050 alt_ic_isr_register
04033164 g       *ABS*	00000000 _edata
040206e8 g     F .text	000000f0 c_function
04034eb4 g       *ABS*	00000000 _end
0402c2b0 g     F .text	00000164 __fputwc
04020244 g       *ABS*	00000000 __ram_exceptions_end
040216a8 g     F .text	000000f0 altera_avalon_jtag_uart_ioctl
04022ee4 g     F .text	0000008c alt_ic_irq_disable
0403311c g     O .rwdata	00000008 alt_mailbox_simple_list
0402a830 g     F .text	0000007c __swrite
04033158 g     O .rwdata	00000004 __malloc_trim_threshold
04022680 g     F .text	00000020 alt_get_performance_counter_base
04028af8 g     F .text	0000000c __locale_msgcharset
04023958 g     F .text	00000038 exit
0402899c g     F .text	000000c4 _fwalk_reent
0402a038 g     F .text	000001fc __mdiff
0402df30 g     F .text	00000074 .hidden __modsi3
04040000 g       *ABS*	00000000 __alt_data_end
04020020 g     F .exceptions	00000000 alt_exception
04028468 g     F .text	00000004 __sfp_lock_release
04021f38 g     F .text	000001e4 altera_avalon_mailbox_open
040306c8 g     F .text	00000034 _exit
04022944 g     F .text	0000012c alt_alarm_start
04028b3c g     F .text	000001bc __smakebuf_r
04023d28 g     F .text	00000098 strlen
040232ec g     F .text	00000154 open
0402f27c g     F .text	000000dc .hidden __gedf2
04021030 g     F .text	0000003c alt_putchar
0403315c g     O .rwdata	00000004 __wctomb
0402aae8 g     F .text	00000018 __sprint_r
04022dd8 g     F .text	00000034 alt_icache_flush_all
0403313c g     O .rwdata	00000004 alt_priority_mask
04022e5c g     F .text	00000088 alt_ic_irq_enable
04025fb8 g     F .text	0000001c __vfprintf_internal
0402d330 g     F .text	0000005c _wctomb_r
0402fb64 g     F .text	000008fc .hidden __subdf3
04029a6c g     F .text	000000b0 __lo0bits
04033140 g     O .rwdata	00000008 alt_alarm_list
04022c88 g     F .text	00000060 _do_ctors
0402d240 g     F .text	000000c0 wcrtomb
04022aac g     F .text	000000d0 close
04020d04 g     F .text	00000084 alt_load
0402c438 g     F .text	00000080 fputwc
0402846c g     F .text	00000004 __sinit_lock_acquire
040297e0 g     F .text	00000120 __multadd
040297b8 g     F .text	00000028 _Bfree
04020864 g     F .text	000003ac signal_processing_function



Disassembly of section .entry:

04020000 <__reset>:
#if NIOS2_ICACHE_SIZE > 0 && defined(ALT_ALLOW_CODE_AT_RESET) && (!defined(ALT_SIM_OPTIMIZE) || defined(NIOS2_ECC_PRESENT))
    /* Assume the instruction cache size is always a power of two. */
#if NIOS2_ICACHE_SIZE > 0x8000
    movhi r2, %hi(NIOS2_ICACHE_SIZE)
#else
    movui r2, NIOS2_ICACHE_SIZE
 4020000:	00840014 	movui	r2,4096
#endif

0:
    initi r2
 4020004:	1001483a 	initi	r2
    addi r2, r2, -NIOS2_ICACHE_LINE_SIZE
 4020008:	10bff804 	addi	r2,r2,-32
    bgt r2, zero, 0b
 402000c:	00bffd16 	blt	zero,r2,4020004 <__alt_data_end+0xfffe0004>
 * Jump to the _start entry point in the .text section if reset code
 * is allowed or if optimizing for RTL simulation.
 */
#if defined(ALT_ALLOW_CODE_AT_RESET) || defined(ALT_SIM_OPTIMIZE)
    /* Jump to the _start entry point in the .text section. */
    movhi r1, %hi(_start)
 4020010:	004100b4 	movhi	at,1026
    ori r1, r1, %lo(_start)
 4020014:	08409114 	ori	at,at,580
    jmp r1
 4020018:	0800683a 	jmp	at
 402001c:	00000000 	call	0 <__alt_mem_sdram_controller_2>

Disassembly of section .exceptions:

04020020 <alt_exception>:

#else /* ALT_EXCEPTION_STACK disabled */
        /* 
         * Reserve space on normal stack for registers about to be pushed.
         */
        addi  sp, sp, -76
 4020020:	deffed04 	addi	sp,sp,-76
         * documentation for details).
         *
         * Leave a gap in the stack frame at 4(sp) for the muldiv handler to
         * store zero into.
         */
        stw   ra,  0(sp)
 4020024:	dfc00015 	stw	ra,0(sp)
        stw   r1,   8(sp)
 4020028:	d8400215 	stw	at,8(sp)
        stw   r2,  12(sp)
 402002c:	d8800315 	stw	r2,12(sp)
        stw   r3,  16(sp)
 4020030:	d8c00415 	stw	r3,16(sp)
        stw   r4,  20(sp)
 4020034:	d9000515 	stw	r4,20(sp)
        stw   r5,  24(sp)
 4020038:	d9400615 	stw	r5,24(sp)
        stw   r6,  28(sp)
 402003c:	d9800715 	stw	r6,28(sp)
        stw   r7,  32(sp)
 4020040:	d9c00815 	stw	r7,32(sp)
        rdctl r5, estatus   /* Read early to avoid usage stall */
 4020044:	000b307a 	rdctl	r5,estatus
        stw   r8,  36(sp)
 4020048:	da000915 	stw	r8,36(sp)
        stw   r9,  40(sp)
 402004c:	da400a15 	stw	r9,40(sp)
        stw   r10, 44(sp)
 4020050:	da800b15 	stw	r10,44(sp)
        stw   r11, 48(sp)
 4020054:	dac00c15 	stw	r11,48(sp)
        stw   r12, 52(sp)
 4020058:	db000d15 	stw	r12,52(sp)
        stw   r13, 56(sp)
 402005c:	db400e15 	stw	r13,56(sp)
        stw   r14, 60(sp)
 4020060:	db800f15 	stw	r14,60(sp)
        stw   r15, 64(sp)
 4020064:	dbc01015 	stw	r15,64(sp)
        /*
         * ea-4 contains the address of the instruction being executed
         * when the exception occured. For interrupt exceptions, we will
         * will be re-issue the isntruction. Store it in 72(sp)
         */
        stw   r5,  68(sp)  /* estatus */
 4020068:	d9401115 	stw	r5,68(sp)
        addi  r15, ea, -4  /* instruction that caused exception */
 402006c:	ebffff04 	addi	r15,ea,-4
        stw   r15,  72(sp)
 4020070:	dbc01215 	stw	r15,72(sp)
#else
        /*
         * Test to see if the exception was a software exception or caused 
         * by an external interrupt, and vector accordingly.
         */
        rdctl r4, ipending
 4020074:	0009313a 	rdctl	r4,ipending
        andi  r2, r5, 1
 4020078:	2880004c 	andi	r2,r5,1
        beq   r2, zero, .Lnot_irq
 402007c:	10000326 	beq	r2,zero,402008c <alt_exception+0x6c>
        beq   r4, zero, .Lnot_irq
 4020080:	20000226 	beq	r4,zero,402008c <alt_exception+0x6c>
        /*
         * Now that all necessary registers have been preserved, call 
         * alt_irq_handler() to process the interrupts.
         */

        call alt_irq_handler
 4020084:	40200fc0 	call	40200fc <alt_irq_handler>

        .section .exceptions.irqreturn, "xa"

        br    .Lexception_exit
 4020088:	00000706 	br	40200a8 <alt_exception+0x88>
         * upon completion, so we write ea (address of instruction *after*
         * the one where the exception occured) into 72(sp). The actual
         * instruction that caused the exception is written in r2, which these
         * handlers will utilize.
         */
        stw ea, 72(sp) /* EA is PC+4 so will skip over instruction causing exception */
 402008c:	df401215 	stw	ea,72(sp)
.Lunknown_16bit:
        addi.n r4, r4, 2 /* Need PC+2 to skip over instruction causing exception */
        stw r4, 72(sp)

#else /* CDX is not Enabled and all instructions are 32bits */
        ldw r2, -4(ea) /* Instruction value that caused exception */
 4020090:	e8bfff17 	ldw	r2,-4(ea)
         * debugger is present) or go into an infinite loop since the
         * handling behavior is undefined; in that case we will not return here.
         */

        /* Load exception-causing address as first argument (r4) */
        addi   r4, ea, -4
 4020094:	e93fff04 	addi	r4,ea,-4

        /* Call the instruction-exception entry */
        call   alt_instruction_exception_entry
 4020098:	40201d00 	call	40201d0 <alt_instruction_exception_entry>
         * instruction
         *
         * Return code was 0: Skip. The instruction after the exception is
         * already stored in 72(sp).
         */
        bne   r2, r0, .Lexception_exit
 402009c:	1000021e 	bne	r2,zero,40200a8 <alt_exception+0x88>

        /*
         * Otherwise, modify 72(sp) to re-issue the instruction that caused the
         * exception.
         */
        addi  r15, ea, -4  /* instruction that caused exception */
 40200a0:	ebffff04 	addi	r15,ea,-4
        stw   r15,  72(sp)
 40200a4:	dbc01215 	stw	r15,72(sp)
        /* 
         * Restore the saved registers, so that all general purpose registers 
         * have been restored to their state at the time the interrupt occured.
         */

        ldw   r5,  68(sp)
 40200a8:	d9401117 	ldw	r5,68(sp)
        ldw   ea,  72(sp)  /* This becomes the PC once eret is executed */
 40200ac:	df401217 	ldw	ea,72(sp)
        ldw   ra,   0(sp)
 40200b0:	dfc00017 	ldw	ra,0(sp)

        wrctl estatus, r5
 40200b4:	2801707a 	wrctl	estatus,r5

        ldw   r1,   8(sp)
 40200b8:	d8400217 	ldw	at,8(sp)
        ldw   r2,  12(sp)
 40200bc:	d8800317 	ldw	r2,12(sp)
        ldw   r3,  16(sp)
 40200c0:	d8c00417 	ldw	r3,16(sp)
        ldw   r4,  20(sp)
 40200c4:	d9000517 	ldw	r4,20(sp)
        ldw   r5,  24(sp)
 40200c8:	d9400617 	ldw	r5,24(sp)
        ldw   r6,  28(sp)
 40200cc:	d9800717 	ldw	r6,28(sp)
        ldw   r7,  32(sp)
 40200d0:	d9c00817 	ldw	r7,32(sp)

#if defined(ALT_EXCEPTION_STACK) && defined(ALT_STACK_CHECK)
        ldw   et, %gprel(alt_exception_old_stack_limit)(gp)
#endif

        ldw   r8,  36(sp)
 40200d4:	da000917 	ldw	r8,36(sp)
        ldw   r9,  40(sp)
 40200d8:	da400a17 	ldw	r9,40(sp)
        ldw   r10, 44(sp)
 40200dc:	da800b17 	ldw	r10,44(sp)
        ldw   r11, 48(sp)
 40200e0:	dac00c17 	ldw	r11,48(sp)
        ldw   r12, 52(sp)
 40200e4:	db000d17 	ldw	r12,52(sp)
        ldw   r13, 56(sp)
 40200e8:	db400e17 	ldw	r13,56(sp)
        ldw   r14, 60(sp)
 40200ec:	db800f17 	ldw	r14,60(sp)
        ldw   r15, 64(sp)
 40200f0:	dbc01017 	ldw	r15,64(sp)
        stw   et, %gprel(alt_stack_limit_value)(gp)
        stw   zero, %gprel(alt_exception_old_stack_limit)(gp)
#endif /* ALT_STACK_CHECK */
        ldw   sp,  76(sp)
#else /* ALT_EXCEPTION_STACK disabled */
        addi  sp, sp, 76
 40200f4:	dec01304 	addi	sp,sp,76

        /*
         * Return to the interrupted instruction.
         */

        eret
 40200f8:	ef80083a 	eret

040200fc <alt_irq_handler>:
 * instruction is present if the macro ALT_CI_INTERRUPT_VECTOR defined.
 */

void alt_irq_handler (void) __attribute__ ((section (".exceptions")));
void alt_irq_handler (void)
{
 40200fc:	defff904 	addi	sp,sp,-28
 4020100:	dfc00615 	stw	ra,24(sp)
 4020104:	df000515 	stw	fp,20(sp)
 4020108:	df000504 	addi	fp,sp,20
  
  /*
   * Notify the operating system that we are at interrupt level.
   */ 
  
  ALT_OS_INT_ENTER();
 402010c:	0001883a 	nop
#ifndef NIOS2_EIC_PRESENT
static ALT_INLINE alt_u32 ALT_ALWAYS_INLINE alt_irq_pending (void)
{
  alt_u32 active;

  NIOS2_READ_IPENDING (active);
 4020110:	0005313a 	rdctl	r2,ipending
 4020114:	e0bffe15 	stw	r2,-8(fp)

  return active;
 4020118:	e0bffe17 	ldw	r2,-8(fp)
   * Consider the case where the high priority interupt is asserted during
   * the interrupt entry sequence for a lower priority interrupt to see why
   * this is the case.
   */

  active = alt_irq_pending ();
 402011c:	e0bffb15 	stw	r2,-20(fp)

  do
  {
    i = 0;
 4020120:	e03ffd15 	stw	zero,-12(fp)
    mask = 1;
 4020124:	00800044 	movi	r2,1
 4020128:	e0bffc15 	stw	r2,-16(fp)
     * called to clear the interrupt condition.
     */

    do
    {
      if (active & mask)
 402012c:	e0fffb17 	ldw	r3,-20(fp)
 4020130:	e0bffc17 	ldw	r2,-16(fp)
 4020134:	1884703a 	and	r2,r3,r2
 4020138:	10001426 	beq	r2,zero,402018c <alt_irq_handler+0x90>
      { 
#ifdef ALT_ENHANCED_INTERRUPT_API_PRESENT
        alt_irq[i].handler(alt_irq[i].context); 
 402013c:	008100f4 	movhi	r2,1027
 4020140:	10936d04 	addi	r2,r2,19892
 4020144:	e0fffd17 	ldw	r3,-12(fp)
 4020148:	180690fa 	slli	r3,r3,3
 402014c:	10c5883a 	add	r2,r2,r3
 4020150:	10c00017 	ldw	r3,0(r2)
 4020154:	008100f4 	movhi	r2,1027
 4020158:	10936d04 	addi	r2,r2,19892
 402015c:	e13ffd17 	ldw	r4,-12(fp)
 4020160:	200890fa 	slli	r4,r4,3
 4020164:	1105883a 	add	r2,r2,r4
 4020168:	10800104 	addi	r2,r2,4
 402016c:	10800017 	ldw	r2,0(r2)
 4020170:	1009883a 	mov	r4,r2
 4020174:	183ee83a 	callr	r3
#else
        alt_irq[i].handler(alt_irq[i].context, i); 
#endif
        break;
 4020178:	0001883a 	nop
#ifndef NIOS2_EIC_PRESENT
static ALT_INLINE alt_u32 ALT_ALWAYS_INLINE alt_irq_pending (void)
{
  alt_u32 active;

  NIOS2_READ_IPENDING (active);
 402017c:	0005313a 	rdctl	r2,ipending
 4020180:	e0bfff15 	stw	r2,-4(fp)

  return active;
 4020184:	e0bfff17 	ldw	r2,-4(fp)
 4020188:	00000706 	br	40201a8 <alt_irq_handler+0xac>
      }
      mask <<= 1;
 402018c:	e0bffc17 	ldw	r2,-16(fp)
 4020190:	1085883a 	add	r2,r2,r2
 4020194:	e0bffc15 	stw	r2,-16(fp)
      i++;
 4020198:	e0bffd17 	ldw	r2,-12(fp)
 402019c:	10800044 	addi	r2,r2,1
 40201a0:	e0bffd15 	stw	r2,-12(fp)

    } while (1);
 40201a4:	003fe106 	br	402012c <__alt_data_end+0xfffe012c>

    active = alt_irq_pending ();
 40201a8:	e0bffb15 	stw	r2,-20(fp)
    
  } while (active);
 40201ac:	e0bffb17 	ldw	r2,-20(fp)
 40201b0:	103fdb1e 	bne	r2,zero,4020120 <__alt_data_end+0xfffe0120>

  /*
   * Notify the operating system that interrupt processing is complete.
   */ 

  ALT_OS_INT_EXIT();
 40201b4:	0001883a 	nop
}
 40201b8:	0001883a 	nop
 40201bc:	e037883a 	mov	sp,fp
 40201c0:	dfc00117 	ldw	ra,4(sp)
 40201c4:	df000017 	ldw	fp,0(sp)
 40201c8:	dec00204 	addi	sp,sp,8
 40201cc:	f800283a 	ret

040201d0 <alt_instruction_exception_entry>:
 * that handler if it has been registered. Absent a handler, it will
 * break break or hang as discussed below.
 */
int 
alt_instruction_exception_entry (alt_u32 exception_pc)
{
 40201d0:	defffb04 	addi	sp,sp,-20
 40201d4:	dfc00415 	stw	ra,16(sp)
 40201d8:	df000315 	stw	fp,12(sp)
 40201dc:	df000304 	addi	fp,sp,12
 40201e0:	e13fff15 	stw	r4,-4(fp)
 * NIOS2_EXCEPTION_CAUSE_NOT_PRESENT. Your handling routine should
 * check the validity of the cause argument before proceeding.
 */
#ifdef NIOS2_HAS_EXTRA_EXCEPTION_INFO
  /* Get exception cause & "badaddr" */
  NIOS2_READ_EXCEPTION(cause);
 40201e4:	000531fa 	rdctl	r2,exception
 40201e8:	e0bffd15 	stw	r2,-12(fp)
  cause = ( (cause & NIOS2_EXCEPTION_REG_CAUSE_MASK) >>
 40201ec:	e0bffd17 	ldw	r2,-12(fp)
 40201f0:	10801f0c 	andi	r2,r2,124
 40201f4:	1004d0ba 	srli	r2,r2,2
 40201f8:	e0bffd15 	stw	r2,-12(fp)
              NIOS2_EXCEPTION_REG_CAUSE_OFST );

  NIOS2_READ_BADADDR(badaddr);
 40201fc:	0005333a 	rdctl	r2,badaddr
 4020200:	e0bffe15 	stw	r2,-8(fp)
#else
  cause = NIOS2_EXCEPTION_CAUSE_NOT_PRESENT;
  badaddr = 0;
#endif /* NIOS2_HAS_EXTRA_EXCEPTION_INFO */

  if(alt_instruction_exception_handler) {
 4020204:	d0a71417 	ldw	r2,-25520(gp)
 4020208:	10000726 	beq	r2,zero,4020228 <alt_instruction_exception_entry+0x58>
     * Call handler. Its return value indicates whether the exception-causing
     * instruction should be re-issued. The code that called us,
     * alt_eceptions_entry.S, will look at this value and adjust the ea
     * register as necessary
     */
    return alt_instruction_exception_handler(cause, exception_pc, badaddr);
 402020c:	d0a71417 	ldw	r2,-25520(gp)
 4020210:	e0fffd17 	ldw	r3,-12(fp)
 4020214:	e1bffe17 	ldw	r6,-8(fp)
 4020218:	e17fff17 	ldw	r5,-4(fp)
 402021c:	1809883a 	mov	r4,r3
 4020220:	103ee83a 	callr	r2
 4020224:	00000206 	br	4020230 <alt_instruction_exception_entry+0x60>
   *    (a peripheral which negates its interrupt output before its
   *    interrupt handler has been executed will cause spurious interrupts)
   */
  else {
#ifdef NIOS2_HAS_DEBUG_STUB
    NIOS2_BREAK();
 4020228:	003da03a 	break	0
      ;
#endif /* NIOS2_HAS_DEBUG_STUB */
  }

  /* We should not get here. Remove compiler warning. */
  return NIOS2_EXCEPTION_RETURN_REISSUE_INST;
 402022c:	0005883a 	mov	r2,zero
}
 4020230:	e037883a 	mov	sp,fp
 4020234:	dfc00117 	ldw	ra,4(sp)
 4020238:	df000017 	ldw	fp,0(sp)
 402023c:	dec00204 	addi	sp,sp,8
 4020240:	f800283a 	ret

Disassembly of section .text:

04020244 <_start>:

    /* Assume the data cache size is always a power of two. */
#if NIOS2_DCACHE_SIZE > 0x8000
    movhi r2, %hi(NIOS2_DCACHE_SIZE)
#else
    movui r2, NIOS2_DCACHE_SIZE
 4020244:	00820014 	movui	r2,2048
#endif

0:
    initd 0(r2)
 4020248:	10000033 	initd	0(r2)
#ifdef NIOS2_ECC_PRESENT
    addi r2, r2, -4
#else
    addi r2, r2, -NIOS2_DCACHE_LINE_SIZE
 402024c:	10bff804 	addi	r2,r2,-32
#endif
    bgt r2, zero, 0b
 4020250:	00bffd16 	blt	zero,r2,4020248 <__alt_data_end+0xfffe0248>

    /*
     * Now that the caches are initialized, set up the stack pointer and global pointer.
     * The values provided by the linker are assumed to be correctly aligned.
     */
    movhi sp, %hi(__alt_stack_pointer)
 4020254:	06c10134 	movhi	sp,1028
    ori sp, sp, %lo(__alt_stack_pointer)
 4020258:	dec00014 	ori	sp,sp,0
    movhi gp, %hi(_gp)
 402025c:	068100f4 	movhi	gp,1027
    ori gp, gp, %lo(_gp)
 4020260:	d6ac4714 	ori	gp,gp,45340
 */
#ifndef ALT_SIM_OPTIMIZE
    /* Log that the BSS is about to be cleared. */
    ALT_LOG_PUTS(alt_log_msg_bss)

    movhi r2, %hi(__bss_start)
 4020264:	008100f4 	movhi	r2,1027
    ori r2, r2, %lo(__bss_start)
 4020268:	10935014 	ori	r2,r2,19776

    movhi r3, %hi(__bss_end)
 402026c:	00c100f4 	movhi	r3,1027
    ori r3, r3, %lo(__bss_end)
 4020270:	18d3ad14 	ori	r3,r3,20148

    beq r2, r3, 1f
 4020274:	10c00326 	beq	r2,r3,4020284 <_start+0x40>

0:
    stw zero, (r2)
 4020278:	10000015 	stw	zero,0(r2)
    addi r2, r2, 4
 402027c:	10800104 	addi	r2,r2,4
    bltu r2, r3, 0b
 4020280:	10fffd36 	bltu	r2,r3,4020278 <__alt_data_end+0xfffe0278>
     * section aren't defined until alt_load() has been called).
     */
    mov   et, zero
#endif

    call alt_load
 4020284:	4020d040 	call	4020d04 <alt_load>

    /* Log that alt_main is about to be called. */
    ALT_LOG_PUTS(alt_log_msg_alt_main)

    /* Call the C entry point. It should never return. */
    call alt_main
 4020288:	4020d880 	call	4020d88 <alt_main>

0402028c <alt_after_alt_main>:

    /* Wait in infinite loop in case alt_main does return. */
alt_after_alt_main:
    br alt_after_alt_main
 402028c:	003fff06 	br	402028c <__alt_data_end+0xfffe028c>

04020290 <send_callback>:
// ----------------- Function definitions -------------------------------------

// Mailbox functions

void send_callback(void* report, int status)
{
 4020290:	defffc04 	addi	sp,sp,-16
 4020294:	dfc00315 	stw	ra,12(sp)
 4020298:	df000215 	stw	fp,8(sp)
 402029c:	df000204 	addi	fp,sp,8
 40202a0:	e13ffe15 	stw	r4,-8(fp)
 40202a4:	e17fff15 	stw	r5,-4(fp)
	if(!status)
 40202a8:	e0bfff17 	ldw	r2,-4(fp)
 40202ac:	1000081e 	bne	r2,zero,40202d0 <send_callback+0x40>
	{
		alt_printf("Sending completed, contents are %x and %x \n", mail_send[0], mail_send[1]);
 40202b0:	d0a70a17 	ldw	r2,-25560(gp)
 40202b4:	d0e70b17 	ldw	r3,-25556(gp)
 40202b8:	180d883a 	mov	r6,r3
 40202bc:	100b883a 	mov	r5,r2
 40202c0:	010100f4 	movhi	r4,1027
 40202c4:	21034f04 	addi	r4,r4,3388
 40202c8:	4020e040 	call	4020e04 <alt_printf>
	}
	else
	{
		alt_printf("Sending error.\n");
	}
}
 40202cc:	00000306 	br	40202dc <send_callback+0x4c>
	{
		alt_printf("Sending completed, contents are %x and %x \n", mail_send[0], mail_send[1]);
	}
	else
	{
		alt_printf("Sending error.\n");
 40202d0:	010100f4 	movhi	r4,1027
 40202d4:	21035a04 	addi	r4,r4,3432
 40202d8:	4020e040 	call	4020e04 <alt_printf>
	}
}
 40202dc:	0001883a 	nop
 40202e0:	e037883a 	mov	sp,fp
 40202e4:	dfc00117 	ldw	ra,4(sp)
 40202e8:	df000017 	ldw	fp,0(sp)
 40202ec:	dec00204 	addi	sp,sp,8
 40202f0:	f800283a 	ret

040202f4 <send_mail>:

void send_mail(alt_u32 start_addr, alt_u32 storage_length)
{
 40202f4:	defff904 	addi	sp,sp,-28
 40202f8:	dfc00615 	stw	ra,24(sp)
 40202fc:	df000515 	stw	fp,20(sp)
 4020300:	df000504 	addi	fp,sp,20
 4020304:	e13ffe15 	stw	r4,-8(fp)
 4020308:	e17fff15 	stw	r5,-4(fp)
	//alt_printf("-------------- send_mail ------------- \n");
	// Load mailbox
	altera_avalon_mailbox_dev* mailbox_SigProcToAudio = altera_avalon_mailbox_open("/dev/mailbox_simple_1", NULL, NULL);
 402030c:	000d883a 	mov	r6,zero
 4020310:	000b883a 	mov	r5,zero
 4020314:	010100f4 	movhi	r4,1027
 4020318:	21035e04 	addi	r4,r4,3448
 402031c:	4021f380 	call	4021f38 <altera_avalon_mailbox_open>
 4020320:	e0bffb15 	stw	r2,-20(fp)
	// Create mail "envelope"
	alt_u32 mail_send[2] = {start_addr, storage_length};
 4020324:	e0bffe17 	ldw	r2,-8(fp)
 4020328:	e0bffc15 	stw	r2,-16(fp)
 402032c:	e0bfff17 	ldw	r2,-4(fp)
 4020330:	e0bffd15 	stw	r2,-12(fp)
	// Send message
	altera_avalon_mailbox_send(mailbox_SigProcToAudio, mail_send, 0, POLL);
 4020334:	e0bffc04 	addi	r2,fp,-16
 4020338:	01c00044 	movi	r7,1
 402033c:	000d883a 	mov	r6,zero
 4020340:	100b883a 	mov	r5,r2
 4020344:	e13ffb17 	ldw	r4,-20(fp)
 4020348:	40222ac0 	call	40222ac <altera_avalon_mailbox_send>
	// Close mailbox
	altera_avalon_mailbox_close(mailbox_SigProcToAudio);
 402034c:	e13ffb17 	ldw	r4,-20(fp)
 4020350:	402211c0 	call	402211c <altera_avalon_mailbox_close>
}
 4020354:	0001883a 	nop
 4020358:	e037883a 	mov	sp,fp
 402035c:	dfc00117 	ldw	ra,4(sp)
 4020360:	df000017 	ldw	fp,0(sp)
 4020364:	dec00204 	addi	sp,sp,8
 4020368:	f800283a 	ret

0402036c <receive_callback>:

void receive_callback(void* message)
{
 402036c:	defffd04 	addi	sp,sp,-12
 4020370:	dfc00215 	stw	ra,8(sp)
 4020374:	df000115 	stw	fp,4(sp)
 4020378:	df000104 	addi	fp,sp,4
 402037c:	e13fff15 	stw	r4,-4(fp)
	if(message != NULL)
 4020380:	e0bfff17 	ldw	r2,-4(fp)
 4020384:	10000826 	beq	r2,zero,40203a8 <receive_callback+0x3c>
	{
		alt_printf("Receiving completed, contents are %x and %x \n", mail_receive[0], mail_receive[1]);
 4020388:	d0a70c17 	ldw	r2,-25552(gp)
 402038c:	d0e70d17 	ldw	r3,-25548(gp)
 4020390:	180d883a 	mov	r6,r3
 4020394:	100b883a 	mov	r5,r2
 4020398:	010100f4 	movhi	r4,1027
 402039c:	21036404 	addi	r4,r4,3472
 40203a0:	4020e040 	call	4020e04 <alt_printf>
	}
	else
	{
		alt_printf("Receiving error.\n");
	}
}
 40203a4:	00000306 	br	40203b4 <receive_callback+0x48>
	{
		alt_printf("Receiving completed, contents are %x and %x \n", mail_receive[0], mail_receive[1]);
	}
	else
	{
		alt_printf("Receiving error.\n");
 40203a8:	010100f4 	movhi	r4,1027
 40203ac:	21037004 	addi	r4,r4,3520
 40203b0:	4020e040 	call	4020e04 <alt_printf>
	}
}
 40203b4:	0001883a 	nop
 40203b8:	e037883a 	mov	sp,fp
 40203bc:	dfc00117 	ldw	ra,4(sp)
 40203c0:	df000017 	ldw	fp,0(sp)
 40203c4:	dec00204 	addi	sp,sp,8
 40203c8:	f800283a 	ret

040203cc <receive_mail>:

void receive_mail()
{
 40203cc:	defffd04 	addi	sp,sp,-12
 40203d0:	dfc00215 	stw	ra,8(sp)
 40203d4:	df000115 	stw	fp,4(sp)
 40203d8:	df000104 	addi	fp,sp,4
	// Load mailbox
	altera_avalon_mailbox_dev* mailbox_AudioToSigProc = altera_avalon_mailbox_open("/dev/mailbox_simple_0", NULL, NULL);
 40203dc:	000d883a 	mov	r6,zero
 40203e0:	000b883a 	mov	r5,zero
 40203e4:	010100f4 	movhi	r4,1027
 40203e8:	21037504 	addi	r4,r4,3540
 40203ec:	4021f380 	call	4021f38 <altera_avalon_mailbox_open>
 40203f0:	e0bfff15 	stw	r2,-4(fp)
	altera_avalon_mailbox_retrieve_poll(mailbox_AudioToSigProc, mail_receive, 0);
 40203f4:	000d883a 	mov	r6,zero
 40203f8:	d1670c04 	addi	r5,gp,-25552
 40203fc:	e13fff17 	ldw	r4,-4(fp)
 4020400:	40223fc0 	call	40223fc <altera_avalon_mailbox_retrieve_poll>
	alt_dcache_flush_all();
 4020404:	4020c540 	call	4020c54 <alt_dcache_flush_all>
}
 4020408:	0001883a 	nop
 402040c:	e037883a 	mov	sp,fp
 4020410:	dfc00117 	ldw	ra,4(sp)
 4020414:	df000017 	ldw	fp,0(sp)
 4020418:	dec00204 	addi	sp,sp,8
 402041c:	f800283a 	ret

04020420 <choose_task>:

// Interrupt and task choosing functions

void choose_task(int task)
{
 4020420:	defffa04 	addi	sp,sp,-24
 4020424:	dfc00515 	stw	ra,20(sp)
 4020428:	df000415 	stw	fp,16(sp)
 402042c:	df000404 	addi	fp,sp,16
 4020430:	e13fff15 	stw	r4,-4(fp)
	if(task == 1)
 4020434:	e0bfff17 	ldw	r2,-4(fp)
 4020438:	10800058 	cmpnei	r2,r2,1
 402043c:	1000071e 	bne	r2,zero,402045c <choose_task+0x3c>
	{
		alt_printf("Task 1: Performing signal processing on the recording... \n");
 4020440:	010100f4 	movhi	r4,1027
 4020444:	21037b04 	addi	r4,r4,3564
 4020448:	4020e040 	call	4020e04 <alt_printf>
		// First switch (SW0)
		signal_processing_function(1, 0);
 402044c:	000b883a 	mov	r5,zero
 4020450:	01000044 	movi	r4,1
 4020454:	40208640 	call	4020864 <signal_processing_function>
 4020458:	00005c06 	br	40205cc <choose_task+0x1ac>
	}
	else if(task == 2)
 402045c:	e0bfff17 	ldw	r2,-4(fp)
 4020460:	10800098 	cmpnei	r2,r2,2
 4020464:	1000041e 	bne	r2,zero,4020478 <choose_task+0x58>
	{
		alt_printf("Task 2: Playing... \n");
 4020468:	010100f4 	movhi	r4,1027
 402046c:	21038a04 	addi	r4,r4,3624
 4020470:	4020e040 	call	4020e04 <alt_printf>
 4020474:	00005506 	br	40205cc <choose_task+0x1ac>
		// Second switch (SW1)
		// Play audio, so do nothing here...
	}
	else if(task == 4)
 4020478:	e0bfff17 	ldw	r2,-4(fp)
 402047c:	10800118 	cmpnei	r2,r2,4
 4020480:	1000371e 	bne	r2,zero,4020560 <choose_task+0x140>
	{
		alt_printf("Task 3: Profiling... \n");
 4020484:	010100f4 	movhi	r4,1027
 4020488:	21039004 	addi	r4,r4,3648
 402048c:	4020e040 	call	4020e04 <alt_printf>
		// Third switch (SW2): run with profiling
		// Start overall performance counter
		PERF_RESET(PERFORMANCE_COUNTER_1_BASE);
 4020490:	00c00044 	movi	r3,1
 4020494:	00810134 	movhi	r2,1028
 4020498:	10840004 	addi	r2,r2,4096
 402049c:	10c00035 	stwio	r3,0(r2)
		PERF_START_MEASURING(PERFORMANCE_COUNTER_1_BASE);
 40204a0:	0007883a 	mov	r3,zero
 40204a4:	00810134 	movhi	r2,1028
 40204a8:	10840104 	addi	r2,r2,4100
 40204ac:	10c00035 	stwio	r3,0(r2)
		alt_printf("Running on HW accelerator... \n");
 40204b0:	010100f4 	movhi	r4,1027
 40204b4:	21039604 	addi	r4,r4,3672
 40204b8:	4020e040 	call	4020e04 <alt_printf>
		// Run on HW accelerator with profiling
		signal_processing_function(1, 1);
 40204bc:	01400044 	movi	r5,1
 40204c0:	01000044 	movi	r4,1
 40204c4:	40208640 	call	4020864 <signal_processing_function>
		alt_printf("Running on custom instruction... \n");
 40204c8:	010100f4 	movhi	r4,1027
 40204cc:	21039e04 	addi	r4,r4,3704
 40204d0:	4020e040 	call	4020e04 <alt_printf>
		// Run on custom instruction with profiling
		signal_processing_function(2, 1);
 40204d4:	01400044 	movi	r5,1
 40204d8:	01000084 	movi	r4,2
 40204dc:	40208640 	call	4020864 <signal_processing_function>
		alt_printf("Running on c code implementation... \n");
 40204e0:	010100f4 	movhi	r4,1027
 40204e4:	2103a704 	addi	r4,r4,3740
 40204e8:	4020e040 	call	4020e04 <alt_printf>
		// Run on c code implementation with profiling
		signal_processing_function(3, 1);
 40204ec:	01400044 	movi	r5,1
 40204f0:	010000c4 	movi	r4,3
 40204f4:	40208640 	call	4020864 <signal_processing_function>
		alt_printf("All profiling runs are finished. \n");
 40204f8:	010100f4 	movhi	r4,1027
 40204fc:	2103b104 	addi	r4,r4,3780
 4020500:	4020e040 	call	4020e04 <alt_printf>
		// Stop overall performance counter and print results
		PERF_STOP_MEASURING(PERFORMANCE_COUNTER_1_BASE);
 4020504:	0007883a 	mov	r3,zero
 4020508:	00810134 	movhi	r2,1028
 402050c:	10840004 	addi	r2,r2,4096
 4020510:	10c00035 	stwio	r3,0(r2)
		perf_print_formatted_report(PERFORMANCE_COUNTER_1_BASE, alt_get_cpu_freq(), 4, "Accelerator", "Custom instr.", "C code", "Waiting for #1");
 4020514:	40226a00 	call	40226a0 <alt_get_cpu_freq>
 4020518:	1007883a 	mov	r3,r2
 402051c:	008100f4 	movhi	r2,1027
 4020520:	1083bd04 	addi	r2,r2,3828
 4020524:	d8800215 	stw	r2,8(sp)
 4020528:	008100f4 	movhi	r2,1027
 402052c:	1083c104 	addi	r2,r2,3844
 4020530:	d8800115 	stw	r2,4(sp)
 4020534:	008100f4 	movhi	r2,1027
 4020538:	1083c304 	addi	r2,r2,3852
 402053c:	d8800015 	stw	r2,0(sp)
 4020540:	01c100f4 	movhi	r7,1027
 4020544:	39c3ba04 	addi	r7,r7,3816
 4020548:	01800104 	movi	r6,4
 402054c:	180b883a 	mov	r5,r3
 4020550:	01010134 	movhi	r4,1028
 4020554:	21040004 	addi	r4,r4,4096
 4020558:	40226c40 	call	40226c4 <perf_print_formatted_report>
 402055c:	00001b06 	br	40205cc <choose_task+0x1ac>
	}
	else if(task == 8)
 4020560:	e0bfff17 	ldw	r2,-4(fp)
 4020564:	10800218 	cmpnei	r2,r2,8
 4020568:	1000041e 	bne	r2,zero,402057c <choose_task+0x15c>
	{
		alt_printf("Task 4: Verifying processed audio... \n");
 402056c:	010100f4 	movhi	r4,1027
 4020570:	2103c704 	addi	r4,r4,3868
 4020574:	4020e040 	call	4020e04 <alt_printf>
 4020578:	00001406 	br	40205cc <choose_task+0x1ac>
		// Fourth switch:
		// Audio test, so do nothing here
	}
	else if(task == 16)
 402057c:	e0bfff17 	ldw	r2,-4(fp)
 4020580:	10800418 	cmpnei	r2,r2,16
 4020584:	1000041e 	bne	r2,zero,4020598 <choose_task+0x178>
	{
		alt_printf("Task 5: Checking audio device status... \n");
 4020588:	010100f4 	movhi	r4,1027
 402058c:	2103d104 	addi	r4,r4,3908
 4020590:	4020e040 	call	4020e04 <alt_printf>
 4020594:	00000d06 	br	40205cc <choose_task+0x1ac>
		// Audio check, so do nothing here
	}
	else if(task == 32)
 4020598:	e0bfff17 	ldw	r2,-4(fp)
 402059c:	10800818 	cmpnei	r2,r2,32
 40205a0:	1000041e 	bne	r2,zero,40205b4 <choose_task+0x194>
	{
		alt_printf("Task 6: Reset Audio Core... \n");
 40205a4:	010100f4 	movhi	r4,1027
 40205a8:	2103dc04 	addi	r4,r4,3952
 40205ac:	4020e040 	call	4020e04 <alt_printf>
 40205b0:	00000606 	br	40205cc <choose_task+0x1ac>
		// Audio component reset, so do nothing here
	}
	else if(task == 64)
 40205b4:	e0bfff17 	ldw	r2,-4(fp)
 40205b8:	10801018 	cmpnei	r2,r2,64
 40205bc:	1000031e 	bne	r2,zero,40205cc <choose_task+0x1ac>
	{
		alt_printf("Task 7: Reset Audio and Video Config device... \n");
 40205c0:	010100f4 	movhi	r4,1027
 40205c4:	2103e404 	addi	r4,r4,3984
 40205c8:	4020e040 	call	4020e04 <alt_printf>
		// Audio component reset, so do nothing here
	}
	alt_printf("Task complete. Ready for new task. \n\n", task);
 40205cc:	e17fff17 	ldw	r5,-4(fp)
 40205d0:	010100f4 	movhi	r4,1027
 40205d4:	2103f104 	addi	r4,r4,4036
 40205d8:	4020e040 	call	4020e04 <alt_printf>
}
 40205dc:	0001883a 	nop
 40205e0:	e037883a 	mov	sp,fp
 40205e4:	dfc00117 	ldw	ra,4(sp)
 40205e8:	df000017 	ldw	fp,0(sp)
 40205ec:	dec00204 	addi	sp,sp,8
 40205f0:	f800283a 	ret

040205f4 <HW_Accelerator_start>:

// Hardware accelerator functions

void HW_Accelerator_start(alt_u32 start_addr, alt_u32 store_addr, alt_u32 word_count, int op_type)
{
 40205f4:	defffa04 	addi	sp,sp,-24
 40205f8:	dfc00515 	stw	ra,20(sp)
 40205fc:	df000415 	stw	fp,16(sp)
 4020600:	df000404 	addi	fp,sp,16
 4020604:	e13ffc15 	stw	r4,-16(fp)
 4020608:	e17ffd15 	stw	r5,-12(fp)
 402060c:	e1bffe15 	stw	r6,-8(fp)
 4020610:	e1ffff15 	stw	r7,-4(fp)
	// Wait for accelerator to be available
	HW_Accelerator_wait_for_ready();
 4020614:	40206800 	call	4020680 <HW_Accelerator_wait_for_ready>
	//alt_printf("Sending arguments to accelerator \n");
	// Send starting address for reading
	IOWR_32DIRECT(HW_ACCELERATOR_0_BASE, HW_ACC_STARTREADADDR, start_addr);
 4020618:	e0fffc17 	ldw	r3,-16(fp)
 402061c:	00810134 	movhi	r2,1028
 4020620:	10843004 	addi	r2,r2,4288
 4020624:	10c00035 	stwio	r3,0(r2)
	// Send starting address for writing
	IOWR_32DIRECT(HW_ACCELERATOR_0_BASE, HW_ACC_STARTWRITEADDR, store_addr);
 4020628:	e0fffd17 	ldw	r3,-12(fp)
 402062c:	00810134 	movhi	r2,1028
 4020630:	10843104 	addi	r2,r2,4292
 4020634:	10c00035 	stwio	r3,0(r2)
	// Send word count
	IOWR_32DIRECT(HW_ACCELERATOR_0_BASE, HW_ACC_WORDCOUNT, word_count);
 4020638:	e0fffe17 	ldw	r3,-8(fp)
 402063c:	00810134 	movhi	r2,1028
 4020640:	10843204 	addi	r2,r2,4296
 4020644:	10c00035 	stwio	r3,0(r2)
	// Send volume mode
	IOWR_32DIRECT(HW_ACCELERATOR_0_BASE, HW_ACC_VOLUMEMODE, (alt_u32)op_type);
 4020648:	00810134 	movhi	r2,1028
 402064c:	10843304 	addi	r2,r2,4300
 4020650:	e0ffff17 	ldw	r3,-4(fp)
 4020654:	10c00035 	stwio	r3,0(r2)
	// Run Hardware accelerator
	IOWR_32DIRECT(HW_ACCELERATOR_0_BASE, HW_ACC_START, 0x1);
 4020658:	00c00044 	movi	r3,1
 402065c:	00810134 	movhi	r2,1028
 4020660:	10843404 	addi	r2,r2,4304
 4020664:	10c00035 	stwio	r3,0(r2)
	//alt_printf("Accelerator has been started \n");
}
 4020668:	0001883a 	nop
 402066c:	e037883a 	mov	sp,fp
 4020670:	dfc00117 	ldw	ra,4(sp)
 4020674:	df000017 	ldw	fp,0(sp)
 4020678:	dec00204 	addi	sp,sp,8
 402067c:	f800283a 	ret

04020680 <HW_Accelerator_wait_for_ready>:

void HW_Accelerator_wait_for_ready()
{
 4020680:	defffd04 	addi	sp,sp,-12
 4020684:	df000215 	stw	fp,8(sp)
 4020688:	df000204 	addi	fp,sp,8
	// Check if the accelerator is already working, and wait until it's done
	int working = 0;
 402068c:	e03ffe15 	stw	zero,-8(fp)
	alt_u32 status;
	status = IORD_32DIRECT(HW_ACCELERATOR_0_BASE, HW_ACC_STATUS);
 4020690:	00810134 	movhi	r2,1028
 4020694:	10843304 	addi	r2,r2,4300
 4020698:	10800037 	ldwio	r2,0(r2)
 402069c:	e0bfff15 	stw	r2,-4(fp)
	// Shift out the 'VolumeMode' bit, leaving only zeros and the 'Working' bit
	working = (int)(status >> 1);
 40206a0:	e0bfff17 	ldw	r2,-4(fp)
 40206a4:	1004d07a 	srli	r2,r2,1
 40206a8:	e0bffe15 	stw	r2,-8(fp)
	while(working != 0)
 40206ac:	00000706 	br	40206cc <HW_Accelerator_wait_for_ready+0x4c>
	{
		// Wait for the accelerator to be available
		status = IORD_32DIRECT(HW_ACCELERATOR_0_BASE, 12);
 40206b0:	00810134 	movhi	r2,1028
 40206b4:	10843304 	addi	r2,r2,4300
 40206b8:	10800037 	ldwio	r2,0(r2)
 40206bc:	e0bfff15 	stw	r2,-4(fp)
		// Shift out the 'VolumeMode' bit, leaving only zeros and the 'Working' bit
		working = (int)(status >> 1);
 40206c0:	e0bfff17 	ldw	r2,-4(fp)
 40206c4:	1004d07a 	srli	r2,r2,1
 40206c8:	e0bffe15 	stw	r2,-8(fp)
	int working = 0;
	alt_u32 status;
	status = IORD_32DIRECT(HW_ACCELERATOR_0_BASE, HW_ACC_STATUS);
	// Shift out the 'VolumeMode' bit, leaving only zeros and the 'Working' bit
	working = (int)(status >> 1);
	while(working != 0)
 40206cc:	e0bffe17 	ldw	r2,-8(fp)
 40206d0:	103ff71e 	bne	r2,zero,40206b0 <__alt_data_end+0xfffe06b0>
		// Wait for the accelerator to be available
		status = IORD_32DIRECT(HW_ACCELERATOR_0_BASE, 12);
		// Shift out the 'VolumeMode' bit, leaving only zeros and the 'Working' bit
		working = (int)(status >> 1);
	}
}
 40206d4:	0001883a 	nop
 40206d8:	e037883a 	mov	sp,fp
 40206dc:	df000017 	ldw	fp,0(sp)
 40206e0:	dec00104 	addi	sp,sp,4
 40206e4:	f800283a 	ret

040206e8 <c_function>:

// Comparison methods

void c_function(alt_u32 start_addr, alt_u32 store_addr, alt_u32 word_count, int op_type)
{
 40206e8:	defffa04 	addi	sp,sp,-24
 40206ec:	df000515 	stw	fp,20(sp)
 40206f0:	df000504 	addi	fp,sp,20
 40206f4:	e13ffc15 	stw	r4,-16(fp)
 40206f8:	e17ffd15 	stw	r5,-12(fp)
 40206fc:	e1bffe15 	stw	r6,-8(fp)
 4020700:	e1ffff15 	stw	r7,-4(fp)
	alt_u32 data = 0;
 4020704:	e03ffb15 	stw	zero,-20(fp)
	if(op_type == 0)
 4020708:	e0bfff17 	ldw	r2,-4(fp)
 402070c:	10002b1e 	bne	r2,zero,40207bc <c_function+0xd4>
	{
		while(word_count > 0)
 4020710:	00001506 	br	4020768 <c_function+0x80>
		{
			// Load data
			data = IORD_32DIRECT(start_addr, 0);
 4020714:	e0bffc17 	ldw	r2,-16(fp)
 4020718:	10800037 	ldwio	r2,0(r2)
 402071c:	e0bffb15 	stw	r2,-20(fp)
			// Perform operation
			data = (signed)data;
			// Shift right
			data = (data & 0x80000000)+((data & 0xfffffffe)>>1);
 4020720:	e0bffb17 	ldw	r2,-20(fp)
 4020724:	10e0002c 	andhi	r3,r2,32768
 4020728:	e0bffb17 	ldw	r2,-20(fp)
 402072c:	1004d07a 	srli	r2,r2,1
 4020730:	1885883a 	add	r2,r3,r2
 4020734:	e0bffb15 	stw	r2,-20(fp)
			// Store data
			IOWR_32DIRECT(SDRAM_CONTROLLER_2_BASE, (alt_u32)store_addr, (alt_u32)data);
 4020738:	e0bffd17 	ldw	r2,-12(fp)
 402073c:	e0fffb17 	ldw	r3,-20(fp)
 4020740:	10c00035 	stwio	r3,0(r2)
			// Update variables
			start_addr += 4;
 4020744:	e0bffc17 	ldw	r2,-16(fp)
 4020748:	10800104 	addi	r2,r2,4
 402074c:	e0bffc15 	stw	r2,-16(fp)
			store_addr += 4;
 4020750:	e0bffd17 	ldw	r2,-12(fp)
 4020754:	10800104 	addi	r2,r2,4
 4020758:	e0bffd15 	stw	r2,-12(fp)
			word_count --;
 402075c:	e0bffe17 	ldw	r2,-8(fp)
 4020760:	10bfffc4 	addi	r2,r2,-1
 4020764:	e0bffe15 	stw	r2,-8(fp)
void c_function(alt_u32 start_addr, alt_u32 store_addr, alt_u32 word_count, int op_type)
{
	alt_u32 data = 0;
	if(op_type == 0)
	{
		while(word_count > 0)
 4020768:	e0bffe17 	ldw	r2,-8(fp)
 402076c:	103fe91e 	bne	r2,zero,4020714 <__alt_data_end+0xfffe0714>
			start_addr += 4;
			store_addr += 4;
			word_count --;
		}
	}
}
 4020770:	00001406 	br	40207c4 <c_function+0xdc>
	else
	{
		while(word_count > 0)
		{
			// Load data
			data = IORD_32DIRECT(start_addr, 0);
 4020774:	e0bffc17 	ldw	r2,-16(fp)
 4020778:	10800037 	ldwio	r2,0(r2)
 402077c:	e0bffb15 	stw	r2,-20(fp)
			// Perform operation
			data = (signed)data;
			// Shift left
			data = (data << 1);
 4020780:	e0bffb17 	ldw	r2,-20(fp)
 4020784:	1085883a 	add	r2,r2,r2
 4020788:	e0bffb15 	stw	r2,-20(fp)
			// Store data
			IOWR_32DIRECT(SDRAM_CONTROLLER_2_BASE, (alt_u32)store_addr, (alt_u32)data);
 402078c:	e0bffd17 	ldw	r2,-12(fp)
 4020790:	e0fffb17 	ldw	r3,-20(fp)
 4020794:	10c00035 	stwio	r3,0(r2)
			// Update variables
			start_addr += 4;
 4020798:	e0bffc17 	ldw	r2,-16(fp)
 402079c:	10800104 	addi	r2,r2,4
 40207a0:	e0bffc15 	stw	r2,-16(fp)
			store_addr += 4;
 40207a4:	e0bffd17 	ldw	r2,-12(fp)
 40207a8:	10800104 	addi	r2,r2,4
 40207ac:	e0bffd15 	stw	r2,-12(fp)
			word_count --;
 40207b0:	e0bffe17 	ldw	r2,-8(fp)
 40207b4:	10bfffc4 	addi	r2,r2,-1
 40207b8:	e0bffe15 	stw	r2,-8(fp)
			word_count --;
		}
	}
	else
	{
		while(word_count > 0)
 40207bc:	e0bffe17 	ldw	r2,-8(fp)
 40207c0:	103fec1e 	bne	r2,zero,4020774 <__alt_data_end+0xfffe0774>
			start_addr += 4;
			store_addr += 4;
			word_count --;
		}
	}
}
 40207c4:	0001883a 	nop
 40207c8:	e037883a 	mov	sp,fp
 40207cc:	df000017 	ldw	fp,0(sp)
 40207d0:	dec00104 	addi	sp,sp,4
 40207d4:	f800283a 	ret

040207d8 <custom_function>:

void custom_function(alt_u32 start_addr, alt_u32 store_addr, alt_u32 word_count, int op_type)
{
 40207d8:	defffa04 	addi	sp,sp,-24
 40207dc:	df000515 	stw	fp,20(sp)
 40207e0:	df000504 	addi	fp,sp,20
 40207e4:	e13ffc15 	stw	r4,-16(fp)
 40207e8:	e17ffd15 	stw	r5,-12(fp)
 40207ec:	e1bffe15 	stw	r6,-8(fp)
 40207f0:	e1ffff15 	stw	r7,-4(fp)
	alt_u32 data = 0;
 40207f4:	e03ffb15 	stw	zero,-20(fp)
	while(word_count > 0)
 40207f8:	00001306 	br	4020848 <custom_function+0x70>
	{
		// Load data
		data = IORD_32DIRECT(start_addr, 0);
 40207fc:	e0bffc17 	ldw	r2,-16(fp)
 4020800:	10800037 	ldwio	r2,0(r2)
 4020804:	e0bffb15 	stw	r2,-20(fp)
		// Perform operation
		data = (signed)data;
		// Use custom instruction
		data = ALT_CI_SIGPROCOPERATION_0(data, op_type);
 4020808:	e0bffb17 	ldw	r2,-20(fp)
 402080c:	e0ffff17 	ldw	r3,-4(fp)
 4020810:	10c5c032 	custom	0,r2,r2,r3
 4020814:	e0bffb15 	stw	r2,-20(fp)
		// Store data
		IOWR_32DIRECT(SDRAM_CONTROLLER_2_BASE, (alt_u32)store_addr, (alt_u32)data);
 4020818:	e0bffd17 	ldw	r2,-12(fp)
 402081c:	e0fffb17 	ldw	r3,-20(fp)
 4020820:	10c00035 	stwio	r3,0(r2)
		// Update variables
		start_addr += 4;
 4020824:	e0bffc17 	ldw	r2,-16(fp)
 4020828:	10800104 	addi	r2,r2,4
 402082c:	e0bffc15 	stw	r2,-16(fp)
		store_addr += 4;
 4020830:	e0bffd17 	ldw	r2,-12(fp)
 4020834:	10800104 	addi	r2,r2,4
 4020838:	e0bffd15 	stw	r2,-12(fp)
		word_count --;
 402083c:	e0bffe17 	ldw	r2,-8(fp)
 4020840:	10bfffc4 	addi	r2,r2,-1
 4020844:	e0bffe15 	stw	r2,-8(fp)
}

void custom_function(alt_u32 start_addr, alt_u32 store_addr, alt_u32 word_count, int op_type)
{
	alt_u32 data = 0;
	while(word_count > 0)
 4020848:	e0bffe17 	ldw	r2,-8(fp)
 402084c:	103feb1e 	bne	r2,zero,40207fc <__alt_data_end+0xfffe07fc>
		// Update variables
		start_addr += 4;
		store_addr += 4;
		word_count --;
	}
}
 4020850:	0001883a 	nop
 4020854:	e037883a 	mov	sp,fp
 4020858:	df000017 	ldw	fp,0(sp)
 402085c:	dec00104 	addi	sp,sp,4
 4020860:	f800283a 	ret

04020864 <signal_processing_function>:

// --------------------- Overall subsystem function ----------------------------------------
void signal_processing_function(int choice, int run_profiling)
{
 4020864:	defff304 	addi	sp,sp,-52
 4020868:	dfc00c15 	stw	ra,48(sp)
 402086c:	df000b15 	stw	fp,44(sp)
 4020870:	df000b04 	addi	fp,sp,44
 4020874:	e13ffe15 	stw	r4,-8(fp)
 4020878:	e17fff15 	stw	r5,-4(fp)
	int op_type;
	// Receive initial mail, containing starting address and amount of snippets
	if(run_profiling == 1)
 402087c:	e0bfff17 	ldw	r2,-4(fp)
 4020880:	10800058 	cmpnei	r2,r2,1
 4020884:	1000041e 	bne	r2,zero,4020898 <signal_processing_function+0x34>
	{
		// Start profiling for the time spent in waiting for the other subsystem
		PERF_BEGIN(PERFORMANCE_COUNTER_1_BASE, 4);
 4020888:	0007883a 	mov	r3,zero
 402088c:	00810134 	movhi	r2,1028
 4020890:	10841104 	addi	r2,r2,4164
 4020894:	10c00035 	stwio	r3,0(r2)
	}
	receive_mail();
 4020898:	40203cc0 	call	40203cc <receive_mail>
	if(run_profiling == 1)
 402089c:	e0bfff17 	ldw	r2,-4(fp)
 40208a0:	10800058 	cmpnei	r2,r2,1
 40208a4:	1000041e 	bne	r2,zero,40208b8 <signal_processing_function+0x54>
	{
		// Stop profiling for the time spent in waiting for the other subsystem
		PERF_END(PERFORMANCE_COUNTER_1_BASE, 4);
 40208a8:	0007883a 	mov	r3,zero
 40208ac:	00810134 	movhi	r2,1028
 40208b0:	10841004 	addi	r2,r2,4160
 40208b4:	10c00035 	stwio	r3,0(r2)
	}
	int total_snippets = mail_receive[1];
 40208b8:	d0a70d17 	ldw	r2,-25548(gp)
 40208bc:	e0bff715 	stw	r2,-36(fp)
	if(run_profiling != 1)
 40208c0:	e0bfff17 	ldw	r2,-4(fp)
 40208c4:	10800060 	cmpeqi	r2,r2,1
 40208c8:	1000041e 	bne	r2,zero,40208dc <signal_processing_function+0x78>
	{
		alt_printf("Initial mail received: Total snippets are %x \n", total_snippets);
 40208cc:	e17ff717 	ldw	r5,-36(fp)
 40208d0:	010100f4 	movhi	r4,1027
 40208d4:	2103fb04 	addi	r4,r4,4076
 40208d8:	4020e040 	call	4020e04 <alt_printf>
	}
	// 48 kHz sampling frequency => 12k samples per snippet
	int words_per_snippet = 12000;
 40208dc:	008bb804 	movi	r2,12000
 40208e0:	e0bff815 	stw	r2,-32(fp)
	int handled_snippets = 0;
 40208e4:	e03ff615 	stw	zero,-40(fp)
	int memory_size = total_snippets*words_per_snippet*4;
 40208e8:	e0fff717 	ldw	r3,-36(fp)
 40208ec:	e0bff817 	ldw	r2,-32(fp)
 40208f0:	1885383a 	mul	r2,r3,r2
 40208f4:	1085883a 	add	r2,r2,r2
 40208f8:	1085883a 	add	r2,r2,r2
 40208fc:	e0bff915 	stw	r2,-28(fp)
	int start_storage_address = mail_receive[0] + memory_size;
 4020900:	d0e70c17 	ldw	r3,-25552(gp)
 4020904:	e0bff917 	ldw	r2,-28(fp)
 4020908:	1885883a 	add	r2,r3,r2
 402090c:	e0bffa15 	stw	r2,-24(fp)
	// Check if the volume shift switch is set to up or down
	if((IORD_32DIRECT(PIO_2_BASE, 0) & 0x80) == 0)
 4020910:	00810134 	movhi	r2,1028
 4020914:	10842004 	addi	r2,r2,4224
 4020918:	10800037 	ldwio	r2,0(r2)
 402091c:	1080200c 	andi	r2,r2,128
 4020920:	1000081e 	bne	r2,zero,4020944 <signal_processing_function+0xe0>
	{
		op_type = 0;
 4020924:	e03ff515 	stw	zero,-44(fp)
		if(run_profiling != 1)
 4020928:	e0bfff17 	ldw	r2,-4(fp)
 402092c:	10800060 	cmpeqi	r2,r2,1
 4020930:	1000a11e 	bne	r2,zero,4020bb8 <signal_processing_function+0x354>
		{
			alt_printf("Operation type: Right shift chosen \n");
 4020934:	010100f4 	movhi	r4,1027
 4020938:	21040704 	addi	r4,r4,4124
 402093c:	4020e040 	call	4020e04 <alt_printf>
 4020940:	00009d06 	br	4020bb8 <signal_processing_function+0x354>
		}
	}
	else
	{
		op_type = 1;
 4020944:	00800044 	movi	r2,1
 4020948:	e0bff515 	stw	r2,-44(fp)
		if(run_profiling != 1)
 402094c:	e0bfff17 	ldw	r2,-4(fp)
 4020950:	10800060 	cmpeqi	r2,r2,1
 4020954:	1000981e 	bne	r2,zero,4020bb8 <signal_processing_function+0x354>
		{
			alt_printf("Operation type: Left shift chosen \n");
 4020958:	010100f4 	movhi	r4,1027
 402095c:	21041104 	addi	r4,r4,4164
 4020960:	4020e040 	call	4020e04 <alt_printf>
		}
	}
	while(handled_snippets < total_snippets)
 4020964:	00009406 	br	4020bb8 <signal_processing_function+0x354>
	{
		// Wait for mail, signifying that a snippet has been recorded and is ready to process
		if(run_profiling == 1)
 4020968:	e0bfff17 	ldw	r2,-4(fp)
 402096c:	10800058 	cmpnei	r2,r2,1
 4020970:	1000041e 	bne	r2,zero,4020984 <signal_processing_function+0x120>
		{
			// Start profiling for the time spent in waiting for the other subsystem
			PERF_BEGIN(PERFORMANCE_COUNTER_1_BASE, 4);
 4020974:	0007883a 	mov	r3,zero
 4020978:	00810134 	movhi	r2,1028
 402097c:	10841104 	addi	r2,r2,4164
 4020980:	10c00035 	stwio	r3,0(r2)
		}
		receive_mail();
 4020984:	40203cc0 	call	40203cc <receive_mail>
		if(run_profiling == 1)
 4020988:	e0bfff17 	ldw	r2,-4(fp)
 402098c:	10800058 	cmpnei	r2,r2,1
 4020990:	1000041e 	bne	r2,zero,40209a4 <signal_processing_function+0x140>
		{
			// Stop profiling for the time spent in waiting for the other subsystem
			PERF_END(PERFORMANCE_COUNTER_1_BASE, 4);
 4020994:	0007883a 	mov	r3,zero
 4020998:	00810134 	movhi	r2,1028
 402099c:	10841004 	addi	r2,r2,4160
 40209a0:	10c00035 	stwio	r3,0(r2)
		}
		if(run_profiling != 1)
 40209a4:	e0bfff17 	ldw	r2,-4(fp)
 40209a8:	10800060 	cmpeqi	r2,r2,1
 40209ac:	1000031e 	bne	r2,zero,40209bc <signal_processing_function+0x158>
		{
			alt_printf("Mail received: Snippet ready for processing \n");
 40209b0:	010100f4 	movhi	r4,1027
 40209b4:	21041a04 	addi	r4,r4,4200
 40209b8:	4020e040 	call	4020e04 <alt_printf>
		}
		// Prepare parameters
		int snippet_starting_address = mail_receive[0];
 40209bc:	d0a70c17 	ldw	r2,-25552(gp)
 40209c0:	e0bffb15 	stw	r2,-20(fp)
		int snippet_storage_address = start_storage_address + handled_snippets*words_per_snippet*4;
 40209c4:	e0fff617 	ldw	r3,-40(fp)
 40209c8:	e0bff817 	ldw	r2,-32(fp)
 40209cc:	1885383a 	mul	r2,r3,r2
 40209d0:	1085883a 	add	r2,r2,r2
 40209d4:	1085883a 	add	r2,r2,r2
 40209d8:	1007883a 	mov	r3,r2
 40209dc:	e0bffa17 	ldw	r2,-24(fp)
 40209e0:	1885883a 	add	r2,r3,r2
 40209e4:	e0bffc15 	stw	r2,-16(fp)
		int snippet_word_count = mail_receive[1];
 40209e8:	d0a70d17 	ldw	r2,-25548(gp)
 40209ec:	e0bffd15 	stw	r2,-12(fp)
		if(choice == 1)
 40209f0:	e0bffe17 	ldw	r2,-8(fp)
 40209f4:	10800058 	cmpnei	r2,r2,1
 40209f8:	1000241e 	bne	r2,zero,4020a8c <signal_processing_function+0x228>
		{
			if(run_profiling == 1)
 40209fc:	e0bfff17 	ldw	r2,-4(fp)
 4020a00:	10800058 	cmpnei	r2,r2,1
 4020a04:	1000091e 	bne	r2,zero,4020a2c <signal_processing_function+0x1c8>
			{
				// Start profiling for the current choice
				PERF_BEGIN(PERFORMANCE_COUNTER_1_BASE, choice);
 4020a08:	e0bffe17 	ldw	r2,-8(fp)
 4020a0c:	1004913a 	slli	r2,r2,4
 4020a10:	10800104 	addi	r2,r2,4
 4020a14:	1007883a 	mov	r3,r2
 4020a18:	00810134 	movhi	r2,1028
 4020a1c:	10840004 	addi	r2,r2,4096
 4020a20:	1885883a 	add	r2,r3,r2
 4020a24:	0007883a 	mov	r3,zero
 4020a28:	10c00035 	stwio	r3,0(r2)
			}
			HW_Accelerator_start(snippet_starting_address, snippet_storage_address, snippet_word_count, op_type);
 4020a2c:	e0bffb17 	ldw	r2,-20(fp)
 4020a30:	e0fffc17 	ldw	r3,-16(fp)
 4020a34:	e13ffd17 	ldw	r4,-12(fp)
 4020a38:	e1fff517 	ldw	r7,-44(fp)
 4020a3c:	200d883a 	mov	r6,r4
 4020a40:	180b883a 	mov	r5,r3
 4020a44:	1009883a 	mov	r4,r2
 4020a48:	40205f40 	call	40205f4 <HW_Accelerator_start>
			if(run_profiling == 1)
 4020a4c:	e0bfff17 	ldw	r2,-4(fp)
 4020a50:	10800058 	cmpnei	r2,r2,1
 4020a54:	1000091e 	bne	r2,zero,4020a7c <signal_processing_function+0x218>
			{
				// Wait for the accelerator to finish
				HW_Accelerator_wait_for_ready();
 4020a58:	40206800 	call	4020680 <HW_Accelerator_wait_for_ready>
				// Stop profiling for the current choice
				PERF_END(PERFORMANCE_COUNTER_1_BASE, choice);
 4020a5c:	e0bffe17 	ldw	r2,-8(fp)
 4020a60:	1004913a 	slli	r2,r2,4
 4020a64:	1007883a 	mov	r3,r2
 4020a68:	00810134 	movhi	r2,1028
 4020a6c:	10840004 	addi	r2,r2,4096
 4020a70:	1885883a 	add	r2,r3,r2
 4020a74:	0007883a 	mov	r3,zero
 4020a78:	10c00035 	stwio	r3,0(r2)
			}
			handled_snippets = handled_snippets + 1;
 4020a7c:	e0bff617 	ldw	r2,-40(fp)
 4020a80:	10800044 	addi	r2,r2,1
 4020a84:	e0bff615 	stw	r2,-40(fp)
 4020a88:	00004b06 	br	4020bb8 <signal_processing_function+0x354>
		}
		else if(choice == 2)
 4020a8c:	e0bffe17 	ldw	r2,-8(fp)
 4020a90:	10800098 	cmpnei	r2,r2,2
 4020a94:	1000231e 	bne	r2,zero,4020b24 <signal_processing_function+0x2c0>
		{
			// call comparison function for custom instruction
			if(run_profiling == 1)
 4020a98:	e0bfff17 	ldw	r2,-4(fp)
 4020a9c:	10800058 	cmpnei	r2,r2,1
 4020aa0:	1000091e 	bne	r2,zero,4020ac8 <signal_processing_function+0x264>
			{
				// Start profiling for the current choice
				PERF_BEGIN(PERFORMANCE_COUNTER_1_BASE, choice);
 4020aa4:	e0bffe17 	ldw	r2,-8(fp)
 4020aa8:	1004913a 	slli	r2,r2,4
 4020aac:	10800104 	addi	r2,r2,4
 4020ab0:	1007883a 	mov	r3,r2
 4020ab4:	00810134 	movhi	r2,1028
 4020ab8:	10840004 	addi	r2,r2,4096
 4020abc:	1885883a 	add	r2,r3,r2
 4020ac0:	0007883a 	mov	r3,zero
 4020ac4:	10c00035 	stwio	r3,0(r2)
			}
			custom_function(snippet_starting_address, snippet_storage_address, snippet_word_count, op_type);
 4020ac8:	e0bffb17 	ldw	r2,-20(fp)
 4020acc:	e0fffc17 	ldw	r3,-16(fp)
 4020ad0:	e13ffd17 	ldw	r4,-12(fp)
 4020ad4:	e1fff517 	ldw	r7,-44(fp)
 4020ad8:	200d883a 	mov	r6,r4
 4020adc:	180b883a 	mov	r5,r3
 4020ae0:	1009883a 	mov	r4,r2
 4020ae4:	40207d80 	call	40207d8 <custom_function>
			if(run_profiling == 1)
 4020ae8:	e0bfff17 	ldw	r2,-4(fp)
 4020aec:	10800058 	cmpnei	r2,r2,1
 4020af0:	1000081e 	bne	r2,zero,4020b14 <signal_processing_function+0x2b0>
			{
				// Stop profiling for the current choice
				PERF_END(PERFORMANCE_COUNTER_1_BASE, choice);
 4020af4:	e0bffe17 	ldw	r2,-8(fp)
 4020af8:	1004913a 	slli	r2,r2,4
 4020afc:	1007883a 	mov	r3,r2
 4020b00:	00810134 	movhi	r2,1028
 4020b04:	10840004 	addi	r2,r2,4096
 4020b08:	1885883a 	add	r2,r3,r2
 4020b0c:	0007883a 	mov	r3,zero
 4020b10:	10c00035 	stwio	r3,0(r2)
			}
			handled_snippets = handled_snippets + 1;
 4020b14:	e0bff617 	ldw	r2,-40(fp)
 4020b18:	10800044 	addi	r2,r2,1
 4020b1c:	e0bff615 	stw	r2,-40(fp)
 4020b20:	00002506 	br	4020bb8 <signal_processing_function+0x354>
		}
		else if(choice == 3)
 4020b24:	e0bffe17 	ldw	r2,-8(fp)
 4020b28:	108000d8 	cmpnei	r2,r2,3
 4020b2c:	1000221e 	bne	r2,zero,4020bb8 <signal_processing_function+0x354>
		{
			// call comparison function for C code implementation
			if(run_profiling == 1)
 4020b30:	e0bfff17 	ldw	r2,-4(fp)
 4020b34:	10800058 	cmpnei	r2,r2,1
 4020b38:	1000091e 	bne	r2,zero,4020b60 <signal_processing_function+0x2fc>
			{
				// Start profiling for the current choice
				PERF_BEGIN(PERFORMANCE_COUNTER_1_BASE, choice);
 4020b3c:	e0bffe17 	ldw	r2,-8(fp)
 4020b40:	1004913a 	slli	r2,r2,4
 4020b44:	10800104 	addi	r2,r2,4
 4020b48:	1007883a 	mov	r3,r2
 4020b4c:	00810134 	movhi	r2,1028
 4020b50:	10840004 	addi	r2,r2,4096
 4020b54:	1885883a 	add	r2,r3,r2
 4020b58:	0007883a 	mov	r3,zero
 4020b5c:	10c00035 	stwio	r3,0(r2)
			}
			c_function(snippet_starting_address, snippet_storage_address, snippet_word_count, op_type);
 4020b60:	e0bffb17 	ldw	r2,-20(fp)
 4020b64:	e0fffc17 	ldw	r3,-16(fp)
 4020b68:	e13ffd17 	ldw	r4,-12(fp)
 4020b6c:	e1fff517 	ldw	r7,-44(fp)
 4020b70:	200d883a 	mov	r6,r4
 4020b74:	180b883a 	mov	r5,r3
 4020b78:	1009883a 	mov	r4,r2
 4020b7c:	40206e80 	call	40206e8 <c_function>
			if(run_profiling == 1)
 4020b80:	e0bfff17 	ldw	r2,-4(fp)
 4020b84:	10800058 	cmpnei	r2,r2,1
 4020b88:	1000081e 	bne	r2,zero,4020bac <signal_processing_function+0x348>
			{
				// Stop profiling for the current choice
				PERF_END(PERFORMANCE_COUNTER_1_BASE, choice);
 4020b8c:	e0bffe17 	ldw	r2,-8(fp)
 4020b90:	1004913a 	slli	r2,r2,4
 4020b94:	1007883a 	mov	r3,r2
 4020b98:	00810134 	movhi	r2,1028
 4020b9c:	10840004 	addi	r2,r2,4096
 4020ba0:	1885883a 	add	r2,r3,r2
 4020ba4:	0007883a 	mov	r3,zero
 4020ba8:	10c00035 	stwio	r3,0(r2)
			}
			handled_snippets = handled_snippets + 1;
 4020bac:	e0bff617 	ldw	r2,-40(fp)
 4020bb0:	10800044 	addi	r2,r2,1
 4020bb4:	e0bff615 	stw	r2,-40(fp)
		if(run_profiling != 1)
		{
			alt_printf("Operation type: Left shift chosen \n");
		}
	}
	while(handled_snippets < total_snippets)
 4020bb8:	e0fff617 	ldw	r3,-40(fp)
 4020bbc:	e0bff717 	ldw	r2,-36(fp)
 4020bc0:	18bf6916 	blt	r3,r2,4020968 <__alt_data_end+0xfffe0968>
				PERF_END(PERFORMANCE_COUNTER_1_BASE, choice);
			}
			handled_snippets = handled_snippets + 1;
		}
	}
	if(run_profiling != 1)
 4020bc4:	e0bfff17 	ldw	r2,-4(fp)
 4020bc8:	10800060 	cmpeqi	r2,r2,1
 4020bcc:	1000051e 	bne	r2,zero,4020be4 <signal_processing_function+0x380>
	{
		alt_printf("All snippets handled. \nSending confirmation mail with start_storage_address = %x and memory_size = %x \n", start_storage_address, memory_size);
 4020bd0:	e1bff917 	ldw	r6,-28(fp)
 4020bd4:	e17ffa17 	ldw	r5,-24(fp)
 4020bd8:	010100f4 	movhi	r4,1027
 4020bdc:	21042604 	addi	r4,r4,4248
 4020be0:	4020e040 	call	4020e04 <alt_printf>
	}
	send_mail(start_storage_address, memory_size);
 4020be4:	e0bffa17 	ldw	r2,-24(fp)
 4020be8:	e0fff917 	ldw	r3,-28(fp)
 4020bec:	180b883a 	mov	r5,r3
 4020bf0:	1009883a 	mov	r4,r2
 4020bf4:	40202f40 	call	40202f4 <send_mail>
}
 4020bf8:	0001883a 	nop
 4020bfc:	e037883a 	mov	sp,fp
 4020c00:	dfc00117 	ldw	ra,4(sp)
 4020c04:	df000017 	ldw	fp,0(sp)
 4020c08:	dec00204 	addi	sp,sp,8
 4020c0c:	f800283a 	ret

04020c10 <main>:


// ----------------------- Main function ----------------------------------

int main()
{
 4020c10:	defffe04 	addi	sp,sp,-8
 4020c14:	dfc00115 	stw	ra,4(sp)
 4020c18:	df000015 	stw	fp,0(sp)
 4020c1c:	d839883a 	mov	fp,sp
	alt_printf("\n \n \n \n ---------- main --------------- \n");
 4020c20:	010100f4 	movhi	r4,1027
 4020c24:	21044004 	addi	r4,r4,4352
 4020c28:	4020e040 	call	4020e04 <alt_printf>

	// Wait for mail from the Audio subsystem, with task info
	while(1)
	{
		// Use mailbox to start tasks on this subsystem
		receive_mail();
 4020c2c:	40203cc0 	call	40203cc <receive_mail>
		choice = (int)mail_receive[0];
 4020c30:	d0a70c17 	ldw	r2,-25552(gp)
 4020c34:	d0a70915 	stw	r2,-25564(gp)
		if(choice != 0)
 4020c38:	d0a70917 	ldw	r2,-25564(gp)
 4020c3c:	103ffb26 	beq	r2,zero,4020c2c <__alt_data_end+0xfffe0c2c>
		{
			choose_task(choice);
 4020c40:	d0a70917 	ldw	r2,-25564(gp)
 4020c44:	1009883a 	mov	r4,r2
 4020c48:	40204200 	call	4020420 <choose_task>
			choice = 0x0;
 4020c4c:	d0270915 	stw	zero,-25564(gp)
		}
	};
 4020c50:	003ff606 	br	4020c2c <__alt_data_end+0xfffe0c2c>

04020c54 <alt_dcache_flush_all>:
/*
 * alt_dcache_flush_all() is called to flush the entire data cache.
 */

void alt_dcache_flush_all (void)
{
 4020c54:	defffe04 	addi	sp,sp,-8
 4020c58:	df000115 	stw	fp,4(sp)
 4020c5c:	df000104 	addi	fp,sp,4
#if NIOS2_DCACHE_SIZE > 0
  char* i;
  
  for (i = (char*) 0; i < (char*) NIOS2_DCACHE_SIZE; i+= NIOS2_DCACHE_LINE_SIZE)
 4020c60:	e03fff15 	stw	zero,-4(fp)
 4020c64:	00000506 	br	4020c7c <alt_dcache_flush_all+0x28>
  { 
    __asm__ volatile ("flushd (%0)" :: "r" (i));
 4020c68:	e0bfff17 	ldw	r2,-4(fp)
 4020c6c:	1000003b 	flushd	0(r2)
void alt_dcache_flush_all (void)
{
#if NIOS2_DCACHE_SIZE > 0
  char* i;
  
  for (i = (char*) 0; i < (char*) NIOS2_DCACHE_SIZE; i+= NIOS2_DCACHE_LINE_SIZE)
 4020c70:	e0bfff17 	ldw	r2,-4(fp)
 4020c74:	10800804 	addi	r2,r2,32
 4020c78:	e0bfff15 	stw	r2,-4(fp)
 4020c7c:	e0bfff17 	ldw	r2,-4(fp)
 4020c80:	10820030 	cmpltui	r2,r2,2048
 4020c84:	103ff81e 	bne	r2,zero,4020c68 <__alt_data_end+0xfffe0c68>
  { 
    __asm__ volatile ("flushd (%0)" :: "r" (i));
  }
#endif /* NIOS2_DCACHE_SIZE > 0 */
}
 4020c88:	0001883a 	nop
 4020c8c:	e037883a 	mov	sp,fp
 4020c90:	df000017 	ldw	fp,0(sp)
 4020c94:	dec00104 	addi	sp,sp,4
 4020c98:	f800283a 	ret

04020c9c <alt_load_section>:
 */

static void ALT_INLINE alt_load_section (alt_u32* from, 
                                         alt_u32* to, 
                                         alt_u32* end)
{
 4020c9c:	defffc04 	addi	sp,sp,-16
 4020ca0:	df000315 	stw	fp,12(sp)
 4020ca4:	df000304 	addi	fp,sp,12
 4020ca8:	e13ffd15 	stw	r4,-12(fp)
 4020cac:	e17ffe15 	stw	r5,-8(fp)
 4020cb0:	e1bfff15 	stw	r6,-4(fp)
  if (to != from)
 4020cb4:	e0fffe17 	ldw	r3,-8(fp)
 4020cb8:	e0bffd17 	ldw	r2,-12(fp)
 4020cbc:	18800c26 	beq	r3,r2,4020cf0 <alt_load_section+0x54>
  {
    while( to != end )
 4020cc0:	00000806 	br	4020ce4 <alt_load_section+0x48>
    {
      *to++ = *from++;
 4020cc4:	e0bffe17 	ldw	r2,-8(fp)
 4020cc8:	10c00104 	addi	r3,r2,4
 4020ccc:	e0fffe15 	stw	r3,-8(fp)
 4020cd0:	e0fffd17 	ldw	r3,-12(fp)
 4020cd4:	19000104 	addi	r4,r3,4
 4020cd8:	e13ffd15 	stw	r4,-12(fp)
 4020cdc:	18c00017 	ldw	r3,0(r3)
 4020ce0:	10c00015 	stw	r3,0(r2)
                                         alt_u32* to, 
                                         alt_u32* end)
{
  if (to != from)
  {
    while( to != end )
 4020ce4:	e0fffe17 	ldw	r3,-8(fp)
 4020ce8:	e0bfff17 	ldw	r2,-4(fp)
 4020cec:	18bff51e 	bne	r3,r2,4020cc4 <__alt_data_end+0xfffe0cc4>
    {
      *to++ = *from++;
    }
  }
}
 4020cf0:	0001883a 	nop
 4020cf4:	e037883a 	mov	sp,fp
 4020cf8:	df000017 	ldw	fp,0(sp)
 4020cfc:	dec00104 	addi	sp,sp,4
 4020d00:	f800283a 	ret

04020d04 <alt_load>:
 * there is no bootloader, so this application is responsible for loading to
 * RAM any sections that are required.
 */  

void alt_load (void)
{
 4020d04:	defffe04 	addi	sp,sp,-8
 4020d08:	dfc00115 	stw	ra,4(sp)
 4020d0c:	df000015 	stw	fp,0(sp)
 4020d10:	d839883a 	mov	fp,sp
  /* 
   * Copy the .rwdata section. 
   */

  alt_load_section (&__flash_rwdata_start, 
 4020d14:	018100f4 	movhi	r6,1027
 4020d18:	318c5904 	addi	r6,r6,12644
 4020d1c:	014100f4 	movhi	r5,1027
 4020d20:	29456204 	addi	r5,r5,5512
 4020d24:	010100f4 	movhi	r4,1027
 4020d28:	210c5904 	addi	r4,r4,12644
 4020d2c:	4020c9c0 	call	4020c9c <alt_load_section>

  /*
   * Copy the exception handler.
   */

  alt_load_section (&__flash_exceptions_start, 
 4020d30:	018100b4 	movhi	r6,1026
 4020d34:	31809104 	addi	r6,r6,580
 4020d38:	014100b4 	movhi	r5,1026
 4020d3c:	29400804 	addi	r5,r5,32
 4020d40:	010100b4 	movhi	r4,1026
 4020d44:	21000804 	addi	r4,r4,32
 4020d48:	4020c9c0 	call	4020c9c <alt_load_section>

  /*
   * Copy the .rodata section.
   */

  alt_load_section (&__flash_rodata_start, 
 4020d4c:	018100f4 	movhi	r6,1027
 4020d50:	31856204 	addi	r6,r6,5512
 4020d54:	014100f4 	movhi	r5,1027
 4020d58:	29434f04 	addi	r5,r5,3388
 4020d5c:	010100f4 	movhi	r4,1027
 4020d60:	21034f04 	addi	r4,r4,3388
 4020d64:	4020c9c0 	call	4020c9c <alt_load_section>
  
  /*
   * Now ensure that the caches are in synch.
   */
  
  alt_dcache_flush_all();
 4020d68:	4020c540 	call	4020c54 <alt_dcache_flush_all>
  alt_icache_flush_all();
 4020d6c:	4022dd80 	call	4022dd8 <alt_icache_flush_all>
}
 4020d70:	0001883a 	nop
 4020d74:	e037883a 	mov	sp,fp
 4020d78:	dfc00117 	ldw	ra,4(sp)
 4020d7c:	df000017 	ldw	fp,0(sp)
 4020d80:	dec00204 	addi	sp,sp,8
 4020d84:	f800283a 	ret

04020d88 <alt_main>:
 * devices/filesystems/components in the system; and call the entry point for
 * the users application, i.e. main().
 */

void alt_main (void)
{
 4020d88:	defffd04 	addi	sp,sp,-12
 4020d8c:	dfc00215 	stw	ra,8(sp)
 4020d90:	df000115 	stw	fp,4(sp)
 4020d94:	df000104 	addi	fp,sp,4
#endif

  /* ALT LOG - please see HAL/sys/alt_log_printf.h for details */
  ALT_LOG_PRINT_BOOT("[alt_main.c] Entering alt_main, calling alt_irq_init.\r\n");
  /* Initialize the interrupt controller. */
  alt_irq_init (NULL);
 4020d98:	0009883a 	mov	r4,zero
 4020d9c:	40210a00 	call	40210a0 <alt_irq_init>

  /* Initialize the operating system */
  ALT_LOG_PRINT_BOOT("[alt_main.c] Done alt_irq_init, calling alt_os_init.\r\n");
  ALT_OS_INIT();
 4020da0:	0001883a 	nop
  ALT_LOG_PRINT_BOOT("[alt_main.c] Done OS Init, calling alt_sem_create.\r\n");
  ALT_SEM_CREATE (&alt_fd_list_lock, 1);

  /* Initialize the device drivers/software components. */
  ALT_LOG_PRINT_BOOT("[alt_main.c] Calling alt_sys_init.\r\n");
  alt_sys_init();
 4020da4:	40210d80 	call	40210d8 <alt_sys_init>
   * devices be present (not equal to /dev/null) and if direct drivers
   * aren't being used.
   */

    ALT_LOG_PRINT_BOOT("[alt_main.c] Redirecting IO.\r\n");
    alt_io_redirect(ALT_STDOUT, ALT_STDIN, ALT_STDERR);
 4020da8:	018100f4 	movhi	r6,1027
 4020dac:	31844b04 	addi	r6,r6,4396
 4020db0:	014100f4 	movhi	r5,1027
 4020db4:	29444b04 	addi	r5,r5,4396
 4020db8:	010100f4 	movhi	r4,1027
 4020dbc:	21044b04 	addi	r4,r4,4396
 4020dc0:	40231700 	call	4023170 <alt_io_redirect>
  /* 
   * Call the C++ constructors 
   */

  ALT_LOG_PRINT_BOOT("[alt_main.c] Calling C++ constructors.\r\n");
  _do_ctors ();
 4020dc4:	4022c880 	call	4022c88 <_do_ctors>
   * redefined as _exit()). This is in the interest of reducing code footprint,
   * in that the atexit() overhead is removed when it's not needed.
   */

  ALT_LOG_PRINT_BOOT("[alt_main.c] Calling atexit.\r\n");
  atexit (_do_dtors);
 4020dc8:	010100b4 	movhi	r4,1026
 4020dcc:	210b3a04 	addi	r4,r4,11496
 4020dd0:	40239440 	call	4023944 <atexit>
  ALT_LOG_PRINT_BOOT("[alt_main.c] Calling main.\r\n");

#ifdef ALT_NO_EXIT
  main (alt_argc, alt_argv, alt_envp);
#else
  result = main (alt_argc, alt_argv, alt_envp);
 4020dd4:	d0a70e17 	ldw	r2,-25544(gp)
 4020dd8:	d0e70f17 	ldw	r3,-25540(gp)
 4020ddc:	d1271017 	ldw	r4,-25536(gp)
 4020de0:	200d883a 	mov	r6,r4
 4020de4:	180b883a 	mov	r5,r3
 4020de8:	1009883a 	mov	r4,r2
 4020dec:	4020c100 	call	4020c10 <main>
 4020df0:	e0bfff15 	stw	r2,-4(fp)
  close(STDOUT_FILENO);
 4020df4:	01000044 	movi	r4,1
 4020df8:	4022aac0 	call	4022aac <close>
  exit (result);
 4020dfc:	e13fff17 	ldw	r4,-4(fp)
 4020e00:	40239580 	call	4023958 <exit>

04020e04 <alt_printf>:
/* 
 * ALT printf function 
 */
void 
alt_printf(const char* fmt, ... )
{
 4020e04:	defff204 	addi	sp,sp,-56
 4020e08:	dfc00a15 	stw	ra,40(sp)
 4020e0c:	df000915 	stw	fp,36(sp)
 4020e10:	df000904 	addi	fp,sp,36
 4020e14:	e13fff15 	stw	r4,-4(fp)
 4020e18:	e1400215 	stw	r5,8(fp)
 4020e1c:	e1800315 	stw	r6,12(fp)
 4020e20:	e1c00415 	stw	r7,16(fp)
	va_list args;
	va_start(args, fmt);
 4020e24:	e0800204 	addi	r2,fp,8
 4020e28:	e0bffe15 	stw	r2,-8(fp)
    const char *w;
    char c;

    /* Process format string. */
    w = fmt;
 4020e2c:	e0bfff17 	ldw	r2,-4(fp)
 4020e30:	e0bff715 	stw	r2,-36(fp)
    while ((c = *w++) != 0)
 4020e34:	00006f06 	br	4020ff4 <alt_printf+0x1f0>
    {
        /* If not a format escape character, just print  */
        /* character.  Otherwise, process format string. */
        if (c != '%')
 4020e38:	e0bff807 	ldb	r2,-32(fp)
 4020e3c:	10800960 	cmpeqi	r2,r2,37
 4020e40:	1000041e 	bne	r2,zero,4020e54 <alt_printf+0x50>
        {
            alt_putchar(c);
 4020e44:	e0bff807 	ldb	r2,-32(fp)
 4020e48:	1009883a 	mov	r4,r2
 4020e4c:	40210300 	call	4021030 <alt_putchar>
 4020e50:	00006806 	br	4020ff4 <alt_printf+0x1f0>
        }
        else
        {
            /* Get format character.  If none     */
            /* available, processing is complete. */
            if ((c = *w++) != 0)
 4020e54:	e0bff717 	ldw	r2,-36(fp)
 4020e58:	10c00044 	addi	r3,r2,1
 4020e5c:	e0fff715 	stw	r3,-36(fp)
 4020e60:	10800003 	ldbu	r2,0(r2)
 4020e64:	e0bff805 	stb	r2,-32(fp)
 4020e68:	e0bff807 	ldb	r2,-32(fp)
 4020e6c:	10006926 	beq	r2,zero,4021014 <alt_printf+0x210>
            {
                if (c == '%')
 4020e70:	e0bff807 	ldb	r2,-32(fp)
 4020e74:	10800958 	cmpnei	r2,r2,37
 4020e78:	1000041e 	bne	r2,zero,4020e8c <alt_printf+0x88>
                {
                    /* Process "%" escape sequence. */
                    alt_putchar(c);
 4020e7c:	e0bff807 	ldb	r2,-32(fp)
 4020e80:	1009883a 	mov	r4,r2
 4020e84:	40210300 	call	4021030 <alt_putchar>
 4020e88:	00005a06 	br	4020ff4 <alt_printf+0x1f0>
                } 
                else if (c == 'c')
 4020e8c:	e0bff807 	ldb	r2,-32(fp)
 4020e90:	108018d8 	cmpnei	r2,r2,99
 4020e94:	1000081e 	bne	r2,zero,4020eb8 <alt_printf+0xb4>
                {
                    int v = va_arg(args, int);
 4020e98:	e0bffe17 	ldw	r2,-8(fp)
 4020e9c:	10c00104 	addi	r3,r2,4
 4020ea0:	e0fffe15 	stw	r3,-8(fp)
 4020ea4:	10800017 	ldw	r2,0(r2)
 4020ea8:	e0bffd15 	stw	r2,-12(fp)
                    alt_putchar(v);
 4020eac:	e13ffd17 	ldw	r4,-12(fp)
 4020eb0:	40210300 	call	4021030 <alt_putchar>
 4020eb4:	00004f06 	br	4020ff4 <alt_printf+0x1f0>
                }
                else if (c == 'x')
 4020eb8:	e0bff807 	ldb	r2,-32(fp)
 4020ebc:	10801e18 	cmpnei	r2,r2,120
 4020ec0:	1000341e 	bne	r2,zero,4020f94 <alt_printf+0x190>
                {
                    /* Process hexadecimal number format. */
                    unsigned long v = va_arg(args, unsigned long);
 4020ec4:	e0bffe17 	ldw	r2,-8(fp)
 4020ec8:	10c00104 	addi	r3,r2,4
 4020ecc:	e0fffe15 	stw	r3,-8(fp)
 4020ed0:	10800017 	ldw	r2,0(r2)
 4020ed4:	e0bffb15 	stw	r2,-20(fp)
                    unsigned long digit;
                    int digit_shift;

                    /* If the number value is zero, just print and continue. */
                    if (v == 0)
 4020ed8:	e0bffb17 	ldw	r2,-20(fp)
 4020edc:	1000031e 	bne	r2,zero,4020eec <alt_printf+0xe8>
                    {
                        alt_putchar('0');
 4020ee0:	01000c04 	movi	r4,48
 4020ee4:	40210300 	call	4021030 <alt_putchar>
                        continue;
 4020ee8:	00004206 	br	4020ff4 <alt_printf+0x1f0>
                    }

                    /* Find first non-zero digit. */
                    digit_shift = 28;
 4020eec:	00800704 	movi	r2,28
 4020ef0:	e0bff915 	stw	r2,-28(fp)
                    while (!(v & (0xF << digit_shift)))
 4020ef4:	00000306 	br	4020f04 <alt_printf+0x100>
                        digit_shift -= 4;
 4020ef8:	e0bff917 	ldw	r2,-28(fp)
 4020efc:	10bfff04 	addi	r2,r2,-4
 4020f00:	e0bff915 	stw	r2,-28(fp)
                        continue;
                    }

                    /* Find first non-zero digit. */
                    digit_shift = 28;
                    while (!(v & (0xF << digit_shift)))
 4020f04:	00c003c4 	movi	r3,15
 4020f08:	e0bff917 	ldw	r2,-28(fp)
 4020f0c:	1884983a 	sll	r2,r3,r2
 4020f10:	1007883a 	mov	r3,r2
 4020f14:	e0bffb17 	ldw	r2,-20(fp)
 4020f18:	1884703a 	and	r2,r3,r2
 4020f1c:	103ff626 	beq	r2,zero,4020ef8 <__alt_data_end+0xfffe0ef8>
                        digit_shift -= 4;

                    /* Print digits. */
                    for (; digit_shift >= 0; digit_shift -= 4)
 4020f20:	00001906 	br	4020f88 <alt_printf+0x184>
                    {
                        digit = (v & (0xF << digit_shift)) >> digit_shift;
 4020f24:	00c003c4 	movi	r3,15
 4020f28:	e0bff917 	ldw	r2,-28(fp)
 4020f2c:	1884983a 	sll	r2,r3,r2
 4020f30:	1007883a 	mov	r3,r2
 4020f34:	e0bffb17 	ldw	r2,-20(fp)
 4020f38:	1886703a 	and	r3,r3,r2
 4020f3c:	e0bff917 	ldw	r2,-28(fp)
 4020f40:	1884d83a 	srl	r2,r3,r2
 4020f44:	e0bffc15 	stw	r2,-16(fp)
                        if (digit <= 9)
 4020f48:	e0bffc17 	ldw	r2,-16(fp)
 4020f4c:	108002a8 	cmpgeui	r2,r2,10
 4020f50:	1000041e 	bne	r2,zero,4020f64 <alt_printf+0x160>
                            c = '0' + digit;
 4020f54:	e0bffc17 	ldw	r2,-16(fp)
 4020f58:	10800c04 	addi	r2,r2,48
 4020f5c:	e0bff805 	stb	r2,-32(fp)
 4020f60:	00000306 	br	4020f70 <alt_printf+0x16c>
                        else
                            c = 'a' + digit - 10;
 4020f64:	e0bffc17 	ldw	r2,-16(fp)
 4020f68:	108015c4 	addi	r2,r2,87
 4020f6c:	e0bff805 	stb	r2,-32(fp)
                        alt_putchar(c);
 4020f70:	e0bff807 	ldb	r2,-32(fp)
 4020f74:	1009883a 	mov	r4,r2
 4020f78:	40210300 	call	4021030 <alt_putchar>
                    digit_shift = 28;
                    while (!(v & (0xF << digit_shift)))
                        digit_shift -= 4;

                    /* Print digits. */
                    for (; digit_shift >= 0; digit_shift -= 4)
 4020f7c:	e0bff917 	ldw	r2,-28(fp)
 4020f80:	10bfff04 	addi	r2,r2,-4
 4020f84:	e0bff915 	stw	r2,-28(fp)
 4020f88:	e0bff917 	ldw	r2,-28(fp)
 4020f8c:	103fe50e 	bge	r2,zero,4020f24 <__alt_data_end+0xfffe0f24>
 4020f90:	00001806 	br	4020ff4 <alt_printf+0x1f0>
                        else
                            c = 'a' + digit - 10;
                        alt_putchar(c);
                    }
                }
                else if (c == 's')
 4020f94:	e0bff807 	ldb	r2,-32(fp)
 4020f98:	10801cd8 	cmpnei	r2,r2,115
 4020f9c:	1000151e 	bne	r2,zero,4020ff4 <alt_printf+0x1f0>
                {
                    /* Process string format. */
                    char *s = va_arg(args, char *);
 4020fa0:	e0bffe17 	ldw	r2,-8(fp)
 4020fa4:	10c00104 	addi	r3,r2,4
 4020fa8:	e0fffe15 	stw	r3,-8(fp)
 4020fac:	10800017 	ldw	r2,0(r2)
 4020fb0:	e0bffa15 	stw	r2,-24(fp)

                    while(*s)
 4020fb4:	00000906 	br	4020fdc <alt_printf+0x1d8>
                      alt_putchar(*s++);
 4020fb8:	e0bffa17 	ldw	r2,-24(fp)
 4020fbc:	10c00044 	addi	r3,r2,1
 4020fc0:	e0fffa15 	stw	r3,-24(fp)
 4020fc4:	10800003 	ldbu	r2,0(r2)
 4020fc8:	10803fcc 	andi	r2,r2,255
 4020fcc:	1080201c 	xori	r2,r2,128
 4020fd0:	10bfe004 	addi	r2,r2,-128
 4020fd4:	1009883a 	mov	r4,r2
 4020fd8:	40210300 	call	4021030 <alt_putchar>
                else if (c == 's')
                {
                    /* Process string format. */
                    char *s = va_arg(args, char *);

                    while(*s)
 4020fdc:	e0bffa17 	ldw	r2,-24(fp)
 4020fe0:	10800003 	ldbu	r2,0(r2)
 4020fe4:	10803fcc 	andi	r2,r2,255
 4020fe8:	1080201c 	xori	r2,r2,128
 4020fec:	10bfe004 	addi	r2,r2,-128
 4020ff0:	103ff11e 	bne	r2,zero,4020fb8 <__alt_data_end+0xfffe0fb8>
    const char *w;
    char c;

    /* Process format string. */
    w = fmt;
    while ((c = *w++) != 0)
 4020ff4:	e0bff717 	ldw	r2,-36(fp)
 4020ff8:	10c00044 	addi	r3,r2,1
 4020ffc:	e0fff715 	stw	r3,-36(fp)
 4021000:	10800003 	ldbu	r2,0(r2)
 4021004:	e0bff805 	stb	r2,-32(fp)
 4021008:	e0bff807 	ldb	r2,-32(fp)
 402100c:	103f8a1e 	bne	r2,zero,4020e38 <__alt_data_end+0xfffe0e38>
        }
    }
#ifdef ALT_SEMIHOSTING
    alt_putbufflush();
#endif
}
 4021010:	00000106 	br	4021018 <alt_printf+0x214>
                      alt_putchar(*s++);
                }
            }
            else
            {
                break;
 4021014:	0001883a 	nop
        }
    }
#ifdef ALT_SEMIHOSTING
    alt_putbufflush();
#endif
}
 4021018:	0001883a 	nop
 402101c:	e037883a 	mov	sp,fp
 4021020:	dfc00117 	ldw	ra,4(sp)
 4021024:	df000017 	ldw	fp,0(sp)
 4021028:	dec00504 	addi	sp,sp,20
 402102c:	f800283a 	ret

04021030 <alt_putchar>:
 * Uses the ALT_DRIVER_WRITE() macro to call directly to driver if available.
 * Otherwise, uses newlib provided putchar() routine.
 */
int 
alt_putchar(int c)
{
 4021030:	defffd04 	addi	sp,sp,-12
 4021034:	dfc00215 	stw	ra,8(sp)
 4021038:	df000115 	stw	fp,4(sp)
 402103c:	df000104 	addi	fp,sp,4
 4021040:	e13fff15 	stw	r4,-4(fp)
    if (ALT_DRIVER_WRITE(ALT_STDOUT_DEV, &c1, 1, 0) == -1) {
        return -1;
    }
    return c;
#else
    return putchar(c);
 4021044:	d0a00c17 	ldw	r2,-32720(gp)
 4021048:	10800217 	ldw	r2,8(r2)
 402104c:	100b883a 	mov	r5,r2
 4021050:	e13fff17 	ldw	r4,-4(fp)
 4021054:	4023c600 	call	4023c60 <putc>
#endif
#endif
}
 4021058:	e037883a 	mov	sp,fp
 402105c:	dfc00117 	ldw	ra,4(sp)
 4021060:	df000017 	ldw	fp,0(sp)
 4021064:	dec00204 	addi	sp,sp,8
 4021068:	f800283a 	ret

0402106c <alt_dev_reg>:
 */

extern int alt_fs_reg  (alt_dev* dev); 

static ALT_INLINE int alt_dev_reg (alt_dev* dev)
{
 402106c:	defffd04 	addi	sp,sp,-12
 4021070:	dfc00215 	stw	ra,8(sp)
 4021074:	df000115 	stw	fp,4(sp)
 4021078:	df000104 	addi	fp,sp,4
 402107c:	e13fff15 	stw	r4,-4(fp)
  extern alt_llist alt_dev_list;

  return alt_dev_llist_insert ((alt_dev_llist*) dev, &alt_dev_list);
 4021080:	d1600404 	addi	r5,gp,-32752
 4021084:	e13fff17 	ldw	r4,-4(fp)
 4021088:	4022be40 	call	4022be4 <alt_dev_llist_insert>
}
 402108c:	e037883a 	mov	sp,fp
 4021090:	dfc00117 	ldw	ra,4(sp)
 4021094:	df000017 	ldw	fp,0(sp)
 4021098:	dec00204 	addi	sp,sp,8
 402109c:	f800283a 	ret

040210a0 <alt_irq_init>:
 * The "base" parameter is ignored and only
 * present for backwards-compatibility.
 */

void alt_irq_init ( const void* base )
{
 40210a0:	defffd04 	addi	sp,sp,-12
 40210a4:	dfc00215 	stw	ra,8(sp)
 40210a8:	df000115 	stw	fp,4(sp)
 40210ac:	df000104 	addi	fp,sp,4
 40210b0:	e13fff15 	stw	r4,-4(fp)
    ALTERA_NIOS2_GEN2_IRQ_INIT ( CPU_1, cpu_1);
 40210b4:	40236480 	call	4023648 <altera_nios2_gen2_irq_init>
 * alt_irq_cpu_enable_interrupts() enables the CPU to start taking interrupts.
 */
static ALT_INLINE void ALT_ALWAYS_INLINE 
       alt_irq_cpu_enable_interrupts (void)
{
    NIOS2_WRITE_STATUS(NIOS2_STATUS_PIE_MSK
 40210b8:	00800044 	movi	r2,1
 40210bc:	1001703a 	wrctl	status,r2
    alt_irq_cpu_enable_interrupts();
}
 40210c0:	0001883a 	nop
 40210c4:	e037883a 	mov	sp,fp
 40210c8:	dfc00117 	ldw	ra,4(sp)
 40210cc:	df000017 	ldw	fp,0(sp)
 40210d0:	dec00204 	addi	sp,sp,8
 40210d4:	f800283a 	ret

040210d8 <alt_sys_init>:
 * Initialize the non-interrupt controller devices.
 * Called after alt_irq_init().
 */

void alt_sys_init( void )
{
 40210d8:	defffe04 	addi	sp,sp,-8
 40210dc:	dfc00115 	stw	ra,4(sp)
 40210e0:	df000015 	stw	fp,0(sp)
 40210e4:	d839883a 	mov	fp,sp
    ALTERA_AVALON_JTAG_UART_INIT ( JTAG_UART_1, jtag_uart_1);
 40210e8:	01800084 	movi	r6,2
 40210ec:	000b883a 	mov	r5,zero
 40210f0:	010100f4 	movhi	r4,1027
 40210f4:	21056c04 	addi	r4,r4,5552
 40210f8:	40212d40 	call	40212d4 <altera_avalon_jtag_uart_init>
 40210fc:	010100f4 	movhi	r4,1027
 4021100:	21056204 	addi	r4,r4,5512
 4021104:	402106c0 	call	402106c <alt_dev_reg>
    ALTERA_AVALON_MAILBOX_SIMPLE_INIT ( MAILBOX_SIMPLE_0, mailbox_simple_0);
 4021108:	000d883a 	mov	r6,zero
 402110c:	000b883a 	mov	r5,zero
 4021110:	010100f4 	movhi	r4,1027
 4021114:	21097a04 	addi	r4,r4,9704
 4021118:	4021ec00 	call	4021ec0 <altera_avalon_mailbox_simple_init>
    ALTERA_AVALON_MAILBOX_SIMPLE_INIT ( MAILBOX_SIMPLE_1, mailbox_simple_1);
 402111c:	01bfffc4 	movi	r6,-1
 4021120:	000b883a 	mov	r5,zero
 4021124:	010100f4 	movhi	r4,1027
 4021128:	21098c04 	addi	r4,r4,9776
 402112c:	4021ec00 	call	4021ec0 <altera_avalon_mailbox_simple_init>
    ALTERA_AVALON_PERFORMANCE_COUNTER_INIT ( PERFORMANCE_COUNTER_1, performance_counter_1);
 4021130:	00c00044 	movi	r3,1
 4021134:	00810134 	movhi	r2,1028
 4021138:	10840004 	addi	r2,r2,4096
 402113c:	10c00035 	stwio	r3,0(r2)
    ALTERA_UP_AVALON_PARALLEL_PORT_INIT ( PARALLEL_PORT_1, parallel_port_1);
 4021140:	010100f4 	movhi	r4,1027
 4021144:	21099e04 	addi	r4,r4,9848
 4021148:	402106c0 	call	402106c <alt_dev_reg>
    ALTERA_UP_AVALON_PARALLEL_PORT_INIT ( PARALLEL_PORT_2, parallel_port_2);
 402114c:	010100f4 	movhi	r4,1027
 4021150:	2109a904 	addi	r4,r4,9892
 4021154:	402106c0 	call	402106c <alt_dev_reg>
}
 4021158:	0001883a 	nop
 402115c:	e037883a 	mov	sp,fp
 4021160:	dfc00117 	ldw	ra,4(sp)
 4021164:	df000017 	ldw	fp,0(sp)
 4021168:	dec00204 	addi	sp,sp,8
 402116c:	f800283a 	ret

04021170 <altera_avalon_jtag_uart_read_fd>:
 *
 */

int 
altera_avalon_jtag_uart_read_fd(alt_fd* fd, char* buffer, int space)
{
 4021170:	defffa04 	addi	sp,sp,-24
 4021174:	dfc00515 	stw	ra,20(sp)
 4021178:	df000415 	stw	fp,16(sp)
 402117c:	df000404 	addi	fp,sp,16
 4021180:	e13ffd15 	stw	r4,-12(fp)
 4021184:	e17ffe15 	stw	r5,-8(fp)
 4021188:	e1bfff15 	stw	r6,-4(fp)
    altera_avalon_jtag_uart_dev* dev = (altera_avalon_jtag_uart_dev*) fd->dev; 
 402118c:	e0bffd17 	ldw	r2,-12(fp)
 4021190:	10800017 	ldw	r2,0(r2)
 4021194:	e0bffc15 	stw	r2,-16(fp)

    return altera_avalon_jtag_uart_read(&dev->state, buffer, space,
 4021198:	e0bffc17 	ldw	r2,-16(fp)
 402119c:	10c00a04 	addi	r3,r2,40
 40211a0:	e0bffd17 	ldw	r2,-12(fp)
 40211a4:	10800217 	ldw	r2,8(r2)
 40211a8:	100f883a 	mov	r7,r2
 40211ac:	e1bfff17 	ldw	r6,-4(fp)
 40211b0:	e17ffe17 	ldw	r5,-8(fp)
 40211b4:	1809883a 	mov	r4,r3
 40211b8:	40217980 	call	4021798 <altera_avalon_jtag_uart_read>
      fd->fd_flags);
}
 40211bc:	e037883a 	mov	sp,fp
 40211c0:	dfc00117 	ldw	ra,4(sp)
 40211c4:	df000017 	ldw	fp,0(sp)
 40211c8:	dec00204 	addi	sp,sp,8
 40211cc:	f800283a 	ret

040211d0 <altera_avalon_jtag_uart_write_fd>:

int 
altera_avalon_jtag_uart_write_fd(alt_fd* fd, const char* buffer, int space)
{
 40211d0:	defffa04 	addi	sp,sp,-24
 40211d4:	dfc00515 	stw	ra,20(sp)
 40211d8:	df000415 	stw	fp,16(sp)
 40211dc:	df000404 	addi	fp,sp,16
 40211e0:	e13ffd15 	stw	r4,-12(fp)
 40211e4:	e17ffe15 	stw	r5,-8(fp)
 40211e8:	e1bfff15 	stw	r6,-4(fp)
    altera_avalon_jtag_uart_dev* dev = (altera_avalon_jtag_uart_dev*) fd->dev; 
 40211ec:	e0bffd17 	ldw	r2,-12(fp)
 40211f0:	10800017 	ldw	r2,0(r2)
 40211f4:	e0bffc15 	stw	r2,-16(fp)

    return altera_avalon_jtag_uart_write(&dev->state, buffer, space,
 40211f8:	e0bffc17 	ldw	r2,-16(fp)
 40211fc:	10c00a04 	addi	r3,r2,40
 4021200:	e0bffd17 	ldw	r2,-12(fp)
 4021204:	10800217 	ldw	r2,8(r2)
 4021208:	100f883a 	mov	r7,r2
 402120c:	e1bfff17 	ldw	r6,-4(fp)
 4021210:	e17ffe17 	ldw	r5,-8(fp)
 4021214:	1809883a 	mov	r4,r3
 4021218:	40219b40 	call	40219b4 <altera_avalon_jtag_uart_write>
      fd->fd_flags);
}
 402121c:	e037883a 	mov	sp,fp
 4021220:	dfc00117 	ldw	ra,4(sp)
 4021224:	df000017 	ldw	fp,0(sp)
 4021228:	dec00204 	addi	sp,sp,8
 402122c:	f800283a 	ret

04021230 <altera_avalon_jtag_uart_close_fd>:

#ifndef ALTERA_AVALON_JTAG_UART_SMALL

int 
altera_avalon_jtag_uart_close_fd(alt_fd* fd)
{
 4021230:	defffc04 	addi	sp,sp,-16
 4021234:	dfc00315 	stw	ra,12(sp)
 4021238:	df000215 	stw	fp,8(sp)
 402123c:	df000204 	addi	fp,sp,8
 4021240:	e13fff15 	stw	r4,-4(fp)
    altera_avalon_jtag_uart_dev* dev = (altera_avalon_jtag_uart_dev*) fd->dev; 
 4021244:	e0bfff17 	ldw	r2,-4(fp)
 4021248:	10800017 	ldw	r2,0(r2)
 402124c:	e0bffe15 	stw	r2,-8(fp)

    return altera_avalon_jtag_uart_close(&dev->state, fd->fd_flags);
 4021250:	e0bffe17 	ldw	r2,-8(fp)
 4021254:	10c00a04 	addi	r3,r2,40
 4021258:	e0bfff17 	ldw	r2,-4(fp)
 402125c:	10800217 	ldw	r2,8(r2)
 4021260:	100b883a 	mov	r5,r2
 4021264:	1809883a 	mov	r4,r3
 4021268:	40216400 	call	4021640 <altera_avalon_jtag_uart_close>
}
 402126c:	e037883a 	mov	sp,fp
 4021270:	dfc00117 	ldw	ra,4(sp)
 4021274:	df000017 	ldw	fp,0(sp)
 4021278:	dec00204 	addi	sp,sp,8
 402127c:	f800283a 	ret

04021280 <altera_avalon_jtag_uart_ioctl_fd>:

int 
altera_avalon_jtag_uart_ioctl_fd(alt_fd* fd, int req, void* arg)
{
 4021280:	defffa04 	addi	sp,sp,-24
 4021284:	dfc00515 	stw	ra,20(sp)
 4021288:	df000415 	stw	fp,16(sp)
 402128c:	df000404 	addi	fp,sp,16
 4021290:	e13ffd15 	stw	r4,-12(fp)
 4021294:	e17ffe15 	stw	r5,-8(fp)
 4021298:	e1bfff15 	stw	r6,-4(fp)
    altera_avalon_jtag_uart_dev* dev = (altera_avalon_jtag_uart_dev*) fd->dev;
 402129c:	e0bffd17 	ldw	r2,-12(fp)
 40212a0:	10800017 	ldw	r2,0(r2)
 40212a4:	e0bffc15 	stw	r2,-16(fp)

    return altera_avalon_jtag_uart_ioctl(&dev->state, req, arg);
 40212a8:	e0bffc17 	ldw	r2,-16(fp)
 40212ac:	10800a04 	addi	r2,r2,40
 40212b0:	e1bfff17 	ldw	r6,-4(fp)
 40212b4:	e17ffe17 	ldw	r5,-8(fp)
 40212b8:	1009883a 	mov	r4,r2
 40212bc:	40216a80 	call	40216a8 <altera_avalon_jtag_uart_ioctl>
}
 40212c0:	e037883a 	mov	sp,fp
 40212c4:	dfc00117 	ldw	ra,4(sp)
 40212c8:	df000017 	ldw	fp,0(sp)
 40212cc:	dec00204 	addi	sp,sp,8
 40212d0:	f800283a 	ret

040212d4 <altera_avalon_jtag_uart_init>:
 * Return 1 on sucessful IRQ register and 0 on failure.
 */

void altera_avalon_jtag_uart_init(altera_avalon_jtag_uart_state* sp, 
                                  int irq_controller_id, int irq)
{
 40212d4:	defffa04 	addi	sp,sp,-24
 40212d8:	dfc00515 	stw	ra,20(sp)
 40212dc:	df000415 	stw	fp,16(sp)
 40212e0:	df000404 	addi	fp,sp,16
 40212e4:	e13ffd15 	stw	r4,-12(fp)
 40212e8:	e17ffe15 	stw	r5,-8(fp)
 40212ec:	e1bfff15 	stw	r6,-4(fp)
  ALT_FLAG_CREATE(&sp->events, 0);
  ALT_SEM_CREATE(&sp->read_lock, 1);
  ALT_SEM_CREATE(&sp->write_lock, 1);

  /* enable read interrupts at the device */
  sp->irq_enable = ALTERA_AVALON_JTAG_UART_CONTROL_RE_MSK;
 40212f0:	e0bffd17 	ldw	r2,-12(fp)
 40212f4:	00c00044 	movi	r3,1
 40212f8:	10c00815 	stw	r3,32(r2)

  IOWR_ALTERA_AVALON_JTAG_UART_CONTROL(sp->base, sp->irq_enable); 
 40212fc:	e0bffd17 	ldw	r2,-12(fp)
 4021300:	10800017 	ldw	r2,0(r2)
 4021304:	10800104 	addi	r2,r2,4
 4021308:	1007883a 	mov	r3,r2
 402130c:	e0bffd17 	ldw	r2,-12(fp)
 4021310:	10800817 	ldw	r2,32(r2)
 4021314:	18800035 	stwio	r2,0(r3)
  
  /* register the interrupt handler */
#ifdef ALT_ENHANCED_INTERRUPT_API_PRESENT
  alt_ic_isr_register(irq_controller_id, irq, altera_avalon_jtag_uart_irq, 
 4021318:	e0bffe17 	ldw	r2,-8(fp)
 402131c:	e0ffff17 	ldw	r3,-4(fp)
 4021320:	d8000015 	stw	zero,0(sp)
 4021324:	e1fffd17 	ldw	r7,-12(fp)
 4021328:	018100b4 	movhi	r6,1026
 402132c:	3184e504 	addi	r6,r6,5012
 4021330:	180b883a 	mov	r5,r3
 4021334:	1009883a 	mov	r4,r2
 4021338:	4022e0c0 	call	4022e0c <alt_ic_isr_register>
#else
  alt_irq_register(irq, sp, altera_avalon_jtag_uart_irq);
#endif  

  /* Register an alarm to go off every second to check for presence of host */
  sp->host_inactive = 0;
 402133c:	e0bffd17 	ldw	r2,-12(fp)
 4021340:	10000915 	stw	zero,36(r2)

  if (alt_alarm_start(&sp->alarm, alt_ticks_per_second(), 
 4021344:	e0bffd17 	ldw	r2,-12(fp)
 4021348:	10800204 	addi	r2,r2,8
 * Obtain the system clock rate in ticks/s. 
 */

static ALT_INLINE alt_u32 ALT_ALWAYS_INLINE alt_ticks_per_second (void)
{
  return _alt_tick_rate;
 402134c:	d0e71217 	ldw	r3,-25528(gp)
 4021350:	e1fffd17 	ldw	r7,-12(fp)
 4021354:	018100b4 	movhi	r6,1026
 4021358:	31856804 	addi	r6,r6,5536
 402135c:	180b883a 	mov	r5,r3
 4021360:	1009883a 	mov	r4,r2
 4021364:	40229440 	call	4022944 <alt_alarm_start>
 4021368:	1000040e 	bge	r2,zero,402137c <altera_avalon_jtag_uart_init+0xa8>
    &altera_avalon_jtag_uart_timeout, sp) < 0)
  {
    /* If we can't set the alarm then record "don't know if host present" 
     * and behave as though the host is present.
     */
    sp->timeout = INT_MAX;
 402136c:	e0fffd17 	ldw	r3,-12(fp)
 4021370:	00a00034 	movhi	r2,32768
 4021374:	10bfffc4 	addi	r2,r2,-1
 4021378:	18800115 	stw	r2,4(r3)
  }

  /* ALT_LOG - see altera_hal/HAL/inc/sys/alt_log_printf.h */ 
  ALT_LOG_JTAG_UART_ALARM_REGISTER(sp, sp->base);
}
 402137c:	0001883a 	nop
 4021380:	e037883a 	mov	sp,fp
 4021384:	dfc00117 	ldw	ra,4(sp)
 4021388:	df000017 	ldw	fp,0(sp)
 402138c:	dec00204 	addi	sp,sp,8
 4021390:	f800283a 	ret

04021394 <altera_avalon_jtag_uart_irq>:
#ifdef ALT_ENHANCED_INTERRUPT_API_PRESENT
static void altera_avalon_jtag_uart_irq(void* context)
#else
static void altera_avalon_jtag_uart_irq(void* context, alt_u32 id)
#endif
{
 4021394:	defff804 	addi	sp,sp,-32
 4021398:	df000715 	stw	fp,28(sp)
 402139c:	df000704 	addi	fp,sp,28
 40213a0:	e13fff15 	stw	r4,-4(fp)
  altera_avalon_jtag_uart_state* sp = (altera_avalon_jtag_uart_state*) context;
 40213a4:	e0bfff17 	ldw	r2,-4(fp)
 40213a8:	e0bffb15 	stw	r2,-20(fp)
  unsigned int base = sp->base;
 40213ac:	e0bffb17 	ldw	r2,-20(fp)
 40213b0:	10800017 	ldw	r2,0(r2)
 40213b4:	e0bffc15 	stw	r2,-16(fp)
  /* ALT_LOG - see altera_hal/HAL/inc/sys/alt_log_printf.h */ 
  ALT_LOG_JTAG_UART_ISR_FUNCTION(base, sp);

  for ( ; ; )
  {
    unsigned int control = IORD_ALTERA_AVALON_JTAG_UART_CONTROL(base);
 40213b8:	e0bffc17 	ldw	r2,-16(fp)
 40213bc:	10800104 	addi	r2,r2,4
 40213c0:	10800037 	ldwio	r2,0(r2)
 40213c4:	e0bffd15 	stw	r2,-12(fp)

    /* Return once nothing more to do */
    if ((control & (ALTERA_AVALON_JTAG_UART_CONTROL_RI_MSK | ALTERA_AVALON_JTAG_UART_CONTROL_WI_MSK)) == 0)
 40213c8:	e0bffd17 	ldw	r2,-12(fp)
 40213cc:	1080c00c 	andi	r2,r2,768
 40213d0:	10006d26 	beq	r2,zero,4021588 <altera_avalon_jtag_uart_irq+0x1f4>
      break;

    if (control & ALTERA_AVALON_JTAG_UART_CONTROL_RI_MSK)
 40213d4:	e0bffd17 	ldw	r2,-12(fp)
 40213d8:	1080400c 	andi	r2,r2,256
 40213dc:	10003526 	beq	r2,zero,40214b4 <altera_avalon_jtag_uart_irq+0x120>
    {
      /* process a read irq.  Start by assuming that there is data in the
       * receive FIFO (otherwise why would we have been interrupted?)
       */
      unsigned int data = 1 << ALTERA_AVALON_JTAG_UART_DATA_RAVAIL_OFST;
 40213e0:	00800074 	movhi	r2,1
 40213e4:	e0bff915 	stw	r2,-28(fp)
      for ( ; ; )
      {
        /* Check whether there is space in the buffer.  If not then we must not
         * read any characters from the buffer as they will be lost.
         */
        unsigned int next = (sp->rx_in + 1) % ALTERA_AVALON_JTAG_UART_BUF_LEN;
 40213e8:	e0bffb17 	ldw	r2,-20(fp)
 40213ec:	10800a17 	ldw	r2,40(r2)
 40213f0:	10800044 	addi	r2,r2,1
 40213f4:	1081ffcc 	andi	r2,r2,2047
 40213f8:	e0bffe15 	stw	r2,-8(fp)
        if (next == sp->rx_out)
 40213fc:	e0bffb17 	ldw	r2,-20(fp)
 4021400:	10c00b17 	ldw	r3,44(r2)
 4021404:	e0bffe17 	ldw	r2,-8(fp)
 4021408:	18801526 	beq	r3,r2,4021460 <altera_avalon_jtag_uart_irq+0xcc>
          break;

        /* Try to remove a character from the FIFO and find out whether there
         * are any more characters remaining.
         */
        data = IORD_ALTERA_AVALON_JTAG_UART_DATA(base);
 402140c:	e0bffc17 	ldw	r2,-16(fp)
 4021410:	10800037 	ldwio	r2,0(r2)
 4021414:	e0bff915 	stw	r2,-28(fp)
        
        if ((data & ALTERA_AVALON_JTAG_UART_DATA_RVALID_MSK) == 0)
 4021418:	e0bff917 	ldw	r2,-28(fp)
 402141c:	10a0000c 	andi	r2,r2,32768
 4021420:	10001126 	beq	r2,zero,4021468 <altera_avalon_jtag_uart_irq+0xd4>
          break;

        sp->rx_buf[sp->rx_in] = (data & ALTERA_AVALON_JTAG_UART_DATA_DATA_MSK) >> ALTERA_AVALON_JTAG_UART_DATA_DATA_OFST;
 4021424:	e0bffb17 	ldw	r2,-20(fp)
 4021428:	10800a17 	ldw	r2,40(r2)
 402142c:	e0fff917 	ldw	r3,-28(fp)
 4021430:	1809883a 	mov	r4,r3
 4021434:	e0fffb17 	ldw	r3,-20(fp)
 4021438:	1885883a 	add	r2,r3,r2
 402143c:	10800e04 	addi	r2,r2,56
 4021440:	11000005 	stb	r4,0(r2)
        sp->rx_in = (sp->rx_in + 1) % ALTERA_AVALON_JTAG_UART_BUF_LEN;
 4021444:	e0bffb17 	ldw	r2,-20(fp)
 4021448:	10800a17 	ldw	r2,40(r2)
 402144c:	10800044 	addi	r2,r2,1
 4021450:	10c1ffcc 	andi	r3,r2,2047
 4021454:	e0bffb17 	ldw	r2,-20(fp)
 4021458:	10c00a15 	stw	r3,40(r2)

        /* Post an event to notify jtag_uart_read that a character has been read */
        ALT_FLAG_POST (sp->events, ALT_JTAG_UART_READ_RDY, OS_FLAG_SET);
      }
 402145c:	003fe206 	br	40213e8 <__alt_data_end+0xfffe13e8>
        /* Check whether there is space in the buffer.  If not then we must not
         * read any characters from the buffer as they will be lost.
         */
        unsigned int next = (sp->rx_in + 1) % ALTERA_AVALON_JTAG_UART_BUF_LEN;
        if (next == sp->rx_out)
          break;
 4021460:	0001883a 	nop
 4021464:	00000106 	br	402146c <altera_avalon_jtag_uart_irq+0xd8>
         * are any more characters remaining.
         */
        data = IORD_ALTERA_AVALON_JTAG_UART_DATA(base);
        
        if ((data & ALTERA_AVALON_JTAG_UART_DATA_RVALID_MSK) == 0)
          break;
 4021468:	0001883a 	nop

        /* Post an event to notify jtag_uart_read that a character has been read */
        ALT_FLAG_POST (sp->events, ALT_JTAG_UART_READ_RDY, OS_FLAG_SET);
      }

      if (data & ALTERA_AVALON_JTAG_UART_DATA_RAVAIL_MSK)
 402146c:	e0bff917 	ldw	r2,-28(fp)
 4021470:	10bfffec 	andhi	r2,r2,65535
 4021474:	10000f26 	beq	r2,zero,40214b4 <altera_avalon_jtag_uart_irq+0x120>
      {
        /* If there is still data available here then the buffer is full 
         * so turn off receive interrupts until some space becomes available.
         */
        sp->irq_enable &= ~ALTERA_AVALON_JTAG_UART_CONTROL_RE_MSK;
 4021478:	e0bffb17 	ldw	r2,-20(fp)
 402147c:	10c00817 	ldw	r3,32(r2)
 4021480:	00bfff84 	movi	r2,-2
 4021484:	1886703a 	and	r3,r3,r2
 4021488:	e0bffb17 	ldw	r2,-20(fp)
 402148c:	10c00815 	stw	r3,32(r2)
        IOWR_ALTERA_AVALON_JTAG_UART_CONTROL(base, sp->irq_enable);
 4021490:	e0bffc17 	ldw	r2,-16(fp)
 4021494:	10800104 	addi	r2,r2,4
 4021498:	1007883a 	mov	r3,r2
 402149c:	e0bffb17 	ldw	r2,-20(fp)
 40214a0:	10800817 	ldw	r2,32(r2)
 40214a4:	18800035 	stwio	r2,0(r3)
        
        /* Dummy read to ensure IRQ is cleared prior to ISR completion */
        IORD_ALTERA_AVALON_JTAG_UART_CONTROL(base);
 40214a8:	e0bffc17 	ldw	r2,-16(fp)
 40214ac:	10800104 	addi	r2,r2,4
 40214b0:	10800037 	ldwio	r2,0(r2)
      }
    }

    if (control & ALTERA_AVALON_JTAG_UART_CONTROL_WI_MSK)
 40214b4:	e0bffd17 	ldw	r2,-12(fp)
 40214b8:	1080800c 	andi	r2,r2,512
 40214bc:	103fbe26 	beq	r2,zero,40213b8 <__alt_data_end+0xfffe13b8>
    {
      /* process a write irq */
      unsigned int space = (control & ALTERA_AVALON_JTAG_UART_CONTROL_WSPACE_MSK) >> ALTERA_AVALON_JTAG_UART_CONTROL_WSPACE_OFST;
 40214c0:	e0bffd17 	ldw	r2,-12(fp)
 40214c4:	1004d43a 	srli	r2,r2,16
 40214c8:	e0bffa15 	stw	r2,-24(fp)

      while (space > 0 && sp->tx_out != sp->tx_in)
 40214cc:	00001406 	br	4021520 <altera_avalon_jtag_uart_irq+0x18c>
      {
        IOWR_ALTERA_AVALON_JTAG_UART_DATA(base, sp->tx_buf[sp->tx_out]);
 40214d0:	e0bffc17 	ldw	r2,-16(fp)
 40214d4:	e0fffb17 	ldw	r3,-20(fp)
 40214d8:	18c00d17 	ldw	r3,52(r3)
 40214dc:	e13ffb17 	ldw	r4,-20(fp)
 40214e0:	20c7883a 	add	r3,r4,r3
 40214e4:	18c20e04 	addi	r3,r3,2104
 40214e8:	18c00003 	ldbu	r3,0(r3)
 40214ec:	18c03fcc 	andi	r3,r3,255
 40214f0:	18c0201c 	xori	r3,r3,128
 40214f4:	18ffe004 	addi	r3,r3,-128
 40214f8:	10c00035 	stwio	r3,0(r2)

        sp->tx_out = (sp->tx_out + 1) % ALTERA_AVALON_JTAG_UART_BUF_LEN;
 40214fc:	e0bffb17 	ldw	r2,-20(fp)
 4021500:	10800d17 	ldw	r2,52(r2)
 4021504:	10800044 	addi	r2,r2,1
 4021508:	10c1ffcc 	andi	r3,r2,2047
 402150c:	e0bffb17 	ldw	r2,-20(fp)
 4021510:	10c00d15 	stw	r3,52(r2)

        /* Post an event to notify jtag_uart_write that a character has been written */
        ALT_FLAG_POST (sp->events, ALT_JTAG_UART_WRITE_RDY, OS_FLAG_SET);

        space--;
 4021514:	e0bffa17 	ldw	r2,-24(fp)
 4021518:	10bfffc4 	addi	r2,r2,-1
 402151c:	e0bffa15 	stw	r2,-24(fp)
    if (control & ALTERA_AVALON_JTAG_UART_CONTROL_WI_MSK)
    {
      /* process a write irq */
      unsigned int space = (control & ALTERA_AVALON_JTAG_UART_CONTROL_WSPACE_MSK) >> ALTERA_AVALON_JTAG_UART_CONTROL_WSPACE_OFST;

      while (space > 0 && sp->tx_out != sp->tx_in)
 4021520:	e0bffa17 	ldw	r2,-24(fp)
 4021524:	10000526 	beq	r2,zero,402153c <altera_avalon_jtag_uart_irq+0x1a8>
 4021528:	e0bffb17 	ldw	r2,-20(fp)
 402152c:	10c00d17 	ldw	r3,52(r2)
 4021530:	e0bffb17 	ldw	r2,-20(fp)
 4021534:	10800c17 	ldw	r2,48(r2)
 4021538:	18bfe51e 	bne	r3,r2,40214d0 <__alt_data_end+0xfffe14d0>
        ALT_FLAG_POST (sp->events, ALT_JTAG_UART_WRITE_RDY, OS_FLAG_SET);

        space--;
      }

      if (space > 0)
 402153c:	e0bffa17 	ldw	r2,-24(fp)
 4021540:	103f9d26 	beq	r2,zero,40213b8 <__alt_data_end+0xfffe13b8>
      {
        /* If we don't have any more data available then turn off the TX interrupt */
        sp->irq_enable &= ~ALTERA_AVALON_JTAG_UART_CONTROL_WE_MSK;
 4021544:	e0bffb17 	ldw	r2,-20(fp)
 4021548:	10c00817 	ldw	r3,32(r2)
 402154c:	00bfff44 	movi	r2,-3
 4021550:	1886703a 	and	r3,r3,r2
 4021554:	e0bffb17 	ldw	r2,-20(fp)
 4021558:	10c00815 	stw	r3,32(r2)
        IOWR_ALTERA_AVALON_JTAG_UART_CONTROL(sp->base, sp->irq_enable);
 402155c:	e0bffb17 	ldw	r2,-20(fp)
 4021560:	10800017 	ldw	r2,0(r2)
 4021564:	10800104 	addi	r2,r2,4
 4021568:	1007883a 	mov	r3,r2
 402156c:	e0bffb17 	ldw	r2,-20(fp)
 4021570:	10800817 	ldw	r2,32(r2)
 4021574:	18800035 	stwio	r2,0(r3)
        
        /* Dummy read to ensure IRQ is cleared prior to ISR completion */
        IORD_ALTERA_AVALON_JTAG_UART_CONTROL(base);
 4021578:	e0bffc17 	ldw	r2,-16(fp)
 402157c:	10800104 	addi	r2,r2,4
 4021580:	10800037 	ldwio	r2,0(r2)
      }
    }
  }
 4021584:	003f8c06 	br	40213b8 <__alt_data_end+0xfffe13b8>
  {
    unsigned int control = IORD_ALTERA_AVALON_JTAG_UART_CONTROL(base);

    /* Return once nothing more to do */
    if ((control & (ALTERA_AVALON_JTAG_UART_CONTROL_RI_MSK | ALTERA_AVALON_JTAG_UART_CONTROL_WI_MSK)) == 0)
      break;
 4021588:	0001883a 	nop
        /* Dummy read to ensure IRQ is cleared prior to ISR completion */
        IORD_ALTERA_AVALON_JTAG_UART_CONTROL(base);
      }
    }
  }
}
 402158c:	0001883a 	nop
 4021590:	e037883a 	mov	sp,fp
 4021594:	df000017 	ldw	fp,0(sp)
 4021598:	dec00104 	addi	sp,sp,4
 402159c:	f800283a 	ret

040215a0 <altera_avalon_jtag_uart_timeout>:
 * Timeout routine is called every second
 */

static alt_u32 
altera_avalon_jtag_uart_timeout(void* context) 
{
 40215a0:	defff804 	addi	sp,sp,-32
 40215a4:	df000715 	stw	fp,28(sp)
 40215a8:	df000704 	addi	fp,sp,28
 40215ac:	e13ffb15 	stw	r4,-20(fp)
  altera_avalon_jtag_uart_state* sp = (altera_avalon_jtag_uart_state *) context;
 40215b0:	e0bffb17 	ldw	r2,-20(fp)
 40215b4:	e0bff915 	stw	r2,-28(fp)

  unsigned int control = IORD_ALTERA_AVALON_JTAG_UART_CONTROL(sp->base);
 40215b8:	e0bff917 	ldw	r2,-28(fp)
 40215bc:	10800017 	ldw	r2,0(r2)
 40215c0:	10800104 	addi	r2,r2,4
 40215c4:	10800037 	ldwio	r2,0(r2)
 40215c8:	e0bffa15 	stw	r2,-24(fp)

  if (control & ALTERA_AVALON_JTAG_UART_CONTROL_AC_MSK)
 40215cc:	e0bffa17 	ldw	r2,-24(fp)
 40215d0:	1081000c 	andi	r2,r2,1024
 40215d4:	10000b26 	beq	r2,zero,4021604 <altera_avalon_jtag_uart_timeout+0x64>
  {
    IOWR_ALTERA_AVALON_JTAG_UART_CONTROL(sp->base, sp->irq_enable | ALTERA_AVALON_JTAG_UART_CONTROL_AC_MSK);
 40215d8:	e0bff917 	ldw	r2,-28(fp)
 40215dc:	10800017 	ldw	r2,0(r2)
 40215e0:	10800104 	addi	r2,r2,4
 40215e4:	1007883a 	mov	r3,r2
 40215e8:	e0bff917 	ldw	r2,-28(fp)
 40215ec:	10800817 	ldw	r2,32(r2)
 40215f0:	10810014 	ori	r2,r2,1024
 40215f4:	18800035 	stwio	r2,0(r3)
    sp->host_inactive = 0;
 40215f8:	e0bff917 	ldw	r2,-28(fp)
 40215fc:	10000915 	stw	zero,36(r2)
 4021600:	00000a06 	br	402162c <altera_avalon_jtag_uart_timeout+0x8c>
  }
  else if (sp->host_inactive < INT_MAX - 2) {
 4021604:	e0bff917 	ldw	r2,-28(fp)
 4021608:	10c00917 	ldw	r3,36(r2)
 402160c:	00a00034 	movhi	r2,32768
 4021610:	10bfff04 	addi	r2,r2,-4
 4021614:	10c00536 	bltu	r2,r3,402162c <altera_avalon_jtag_uart_timeout+0x8c>
    sp->host_inactive++;
 4021618:	e0bff917 	ldw	r2,-28(fp)
 402161c:	10800917 	ldw	r2,36(r2)
 4021620:	10c00044 	addi	r3,r2,1
 4021624:	e0bff917 	ldw	r2,-28(fp)
 4021628:	10c00915 	stw	r3,36(r2)
 402162c:	d0a71217 	ldw	r2,-25528(gp)
      ALT_FLAG_POST (sp->events, ALT_JTAG_UART_TIMEOUT, OS_FLAG_SET);
    }
  }

  return alt_ticks_per_second();
}
 4021630:	e037883a 	mov	sp,fp
 4021634:	df000017 	ldw	fp,0(sp)
 4021638:	dec00104 	addi	sp,sp,4
 402163c:	f800283a 	ret

04021640 <altera_avalon_jtag_uart_close>:
 * The close routine is not implemented for the small driver; instead it will
 * map to null. This is because the small driver simply waits while characters
 * are transmitted; there is no interrupt-serviced buffer to empty 
 */
int altera_avalon_jtag_uart_close(altera_avalon_jtag_uart_state* sp, int flags)
{
 4021640:	defffd04 	addi	sp,sp,-12
 4021644:	df000215 	stw	fp,8(sp)
 4021648:	df000204 	addi	fp,sp,8
 402164c:	e13ffe15 	stw	r4,-8(fp)
 4021650:	e17fff15 	stw	r5,-4(fp)
  /* 
   * Wait for all transmit data to be emptied by the JTAG UART ISR, or
   * for a host-inactivity timeout, in which case transmit data will be lost
   */
  while ( (sp->tx_out != sp->tx_in) && (sp->host_inactive < sp->timeout) ) {
 4021654:	00000506 	br	402166c <altera_avalon_jtag_uart_close+0x2c>
    if (flags & O_NONBLOCK) {
 4021658:	e0bfff17 	ldw	r2,-4(fp)
 402165c:	1090000c 	andi	r2,r2,16384
 4021660:	10000226 	beq	r2,zero,402166c <altera_avalon_jtag_uart_close+0x2c>
      return -EWOULDBLOCK; 
 4021664:	00bffd44 	movi	r2,-11
 4021668:	00000b06 	br	4021698 <altera_avalon_jtag_uart_close+0x58>
{
  /* 
   * Wait for all transmit data to be emptied by the JTAG UART ISR, or
   * for a host-inactivity timeout, in which case transmit data will be lost
   */
  while ( (sp->tx_out != sp->tx_in) && (sp->host_inactive < sp->timeout) ) {
 402166c:	e0bffe17 	ldw	r2,-8(fp)
 4021670:	10c00d17 	ldw	r3,52(r2)
 4021674:	e0bffe17 	ldw	r2,-8(fp)
 4021678:	10800c17 	ldw	r2,48(r2)
 402167c:	18800526 	beq	r3,r2,4021694 <altera_avalon_jtag_uart_close+0x54>
 4021680:	e0bffe17 	ldw	r2,-8(fp)
 4021684:	10c00917 	ldw	r3,36(r2)
 4021688:	e0bffe17 	ldw	r2,-8(fp)
 402168c:	10800117 	ldw	r2,4(r2)
 4021690:	18bff136 	bltu	r3,r2,4021658 <__alt_data_end+0xfffe1658>
    if (flags & O_NONBLOCK) {
      return -EWOULDBLOCK; 
    }
  }

  return 0;
 4021694:	0005883a 	mov	r2,zero
}
 4021698:	e037883a 	mov	sp,fp
 402169c:	df000017 	ldw	fp,0(sp)
 40216a0:	dec00104 	addi	sp,sp,4
 40216a4:	f800283a 	ret

040216a8 <altera_avalon_jtag_uart_ioctl>:
/* ----------------------------------------------------------- */

int 
altera_avalon_jtag_uart_ioctl(altera_avalon_jtag_uart_state* sp, int req,
  void* arg)
{
 40216a8:	defffa04 	addi	sp,sp,-24
 40216ac:	df000515 	stw	fp,20(sp)
 40216b0:	df000504 	addi	fp,sp,20
 40216b4:	e13ffd15 	stw	r4,-12(fp)
 40216b8:	e17ffe15 	stw	r5,-8(fp)
 40216bc:	e1bfff15 	stw	r6,-4(fp)
  int rc = -ENOTTY;
 40216c0:	00bff9c4 	movi	r2,-25
 40216c4:	e0bffb15 	stw	r2,-20(fp)

  switch (req)
 40216c8:	e0bffe17 	ldw	r2,-8(fp)
 40216cc:	10da8060 	cmpeqi	r3,r2,27137
 40216d0:	1800031e 	bne	r3,zero,40216e0 <altera_avalon_jtag_uart_ioctl+0x38>
 40216d4:	109a80a0 	cmpeqi	r2,r2,27138
 40216d8:	1000181e 	bne	r2,zero,402173c <altera_avalon_jtag_uart_ioctl+0x94>
      rc = 0;
    }
    break;

  default:
    break;
 40216dc:	00002906 	br	4021784 <altera_avalon_jtag_uart_ioctl+0xdc>

  switch (req)
  {
  case TIOCSTIMEOUT:
    /* Set the time to wait until assuming host is not connected */
    if (sp->timeout != INT_MAX)
 40216e0:	e0bffd17 	ldw	r2,-12(fp)
 40216e4:	10c00117 	ldw	r3,4(r2)
 40216e8:	00a00034 	movhi	r2,32768
 40216ec:	10bfffc4 	addi	r2,r2,-1
 40216f0:	18802126 	beq	r3,r2,4021778 <altera_avalon_jtag_uart_ioctl+0xd0>
    {
      int timeout = *((int *)arg);
 40216f4:	e0bfff17 	ldw	r2,-4(fp)
 40216f8:	10800017 	ldw	r2,0(r2)
 40216fc:	e0bffc15 	stw	r2,-16(fp)
      sp->timeout = (timeout >= 2 && timeout < INT_MAX) ? timeout : INT_MAX - 1;
 4021700:	e0bffc17 	ldw	r2,-16(fp)
 4021704:	10800090 	cmplti	r2,r2,2
 4021708:	1000061e 	bne	r2,zero,4021724 <altera_avalon_jtag_uart_ioctl+0x7c>
 402170c:	e0fffc17 	ldw	r3,-16(fp)
 4021710:	00a00034 	movhi	r2,32768
 4021714:	10bfffc4 	addi	r2,r2,-1
 4021718:	18800226 	beq	r3,r2,4021724 <altera_avalon_jtag_uart_ioctl+0x7c>
 402171c:	e0bffc17 	ldw	r2,-16(fp)
 4021720:	00000206 	br	402172c <altera_avalon_jtag_uart_ioctl+0x84>
 4021724:	00a00034 	movhi	r2,32768
 4021728:	10bfff84 	addi	r2,r2,-2
 402172c:	e0fffd17 	ldw	r3,-12(fp)
 4021730:	18800115 	stw	r2,4(r3)
      rc = 0;
 4021734:	e03ffb15 	stw	zero,-20(fp)
    }
    break;
 4021738:	00000f06 	br	4021778 <altera_avalon_jtag_uart_ioctl+0xd0>

  case TIOCGCONNECTED:
    /* Find out whether host is connected */
    if (sp->timeout != INT_MAX)
 402173c:	e0bffd17 	ldw	r2,-12(fp)
 4021740:	10c00117 	ldw	r3,4(r2)
 4021744:	00a00034 	movhi	r2,32768
 4021748:	10bfffc4 	addi	r2,r2,-1
 402174c:	18800c26 	beq	r3,r2,4021780 <altera_avalon_jtag_uart_ioctl+0xd8>
    {
      *((int *)arg) = (sp->host_inactive < sp->timeout) ? 1 : 0;
 4021750:	e0bffd17 	ldw	r2,-12(fp)
 4021754:	10c00917 	ldw	r3,36(r2)
 4021758:	e0bffd17 	ldw	r2,-12(fp)
 402175c:	10800117 	ldw	r2,4(r2)
 4021760:	1885803a 	cmpltu	r2,r3,r2
 4021764:	10c03fcc 	andi	r3,r2,255
 4021768:	e0bfff17 	ldw	r2,-4(fp)
 402176c:	10c00015 	stw	r3,0(r2)
      rc = 0;
 4021770:	e03ffb15 	stw	zero,-20(fp)
    }
    break;
 4021774:	00000206 	br	4021780 <altera_avalon_jtag_uart_ioctl+0xd8>
    {
      int timeout = *((int *)arg);
      sp->timeout = (timeout >= 2 && timeout < INT_MAX) ? timeout : INT_MAX - 1;
      rc = 0;
    }
    break;
 4021778:	0001883a 	nop
 402177c:	00000106 	br	4021784 <altera_avalon_jtag_uart_ioctl+0xdc>
    if (sp->timeout != INT_MAX)
    {
      *((int *)arg) = (sp->host_inactive < sp->timeout) ? 1 : 0;
      rc = 0;
    }
    break;
 4021780:	0001883a 	nop

  default:
    break;
  }

  return rc;
 4021784:	e0bffb17 	ldw	r2,-20(fp)
}
 4021788:	e037883a 	mov	sp,fp
 402178c:	df000017 	ldw	fp,0(sp)
 4021790:	dec00104 	addi	sp,sp,4
 4021794:	f800283a 	ret

04021798 <altera_avalon_jtag_uart_read>:
/* ----------------------------------------------------------- */

int 
altera_avalon_jtag_uart_read(altera_avalon_jtag_uart_state* sp, 
  char * buffer, int space, int flags)
{
 4021798:	defff304 	addi	sp,sp,-52
 402179c:	dfc00c15 	stw	ra,48(sp)
 40217a0:	df000b15 	stw	fp,44(sp)
 40217a4:	df000b04 	addi	fp,sp,44
 40217a8:	e13ffc15 	stw	r4,-16(fp)
 40217ac:	e17ffd15 	stw	r5,-12(fp)
 40217b0:	e1bffe15 	stw	r6,-8(fp)
 40217b4:	e1ffff15 	stw	r7,-4(fp)
  char * ptr = buffer;
 40217b8:	e0bffd17 	ldw	r2,-12(fp)
 40217bc:	e0bff515 	stw	r2,-44(fp)
   * When running in a multi threaded environment, obtain the "read_lock"
   * semaphore. This ensures that reading from the device is thread-safe.
   */
  ALT_SEM_PEND (sp->read_lock, 0);

  while (space > 0)
 40217c0:	00004706 	br	40218e0 <altera_avalon_jtag_uart_read+0x148>
    unsigned int in, out;

    /* Read as much data as possible */
    do
    {
      in  = sp->rx_in;
 40217c4:	e0bffc17 	ldw	r2,-16(fp)
 40217c8:	10800a17 	ldw	r2,40(r2)
 40217cc:	e0bff715 	stw	r2,-36(fp)
      out = sp->rx_out;
 40217d0:	e0bffc17 	ldw	r2,-16(fp)
 40217d4:	10800b17 	ldw	r2,44(r2)
 40217d8:	e0bff815 	stw	r2,-32(fp)

      if (in >= out)
 40217dc:	e0fff717 	ldw	r3,-36(fp)
 40217e0:	e0bff817 	ldw	r2,-32(fp)
 40217e4:	18800536 	bltu	r3,r2,40217fc <altera_avalon_jtag_uart_read+0x64>
        n = in - out;
 40217e8:	e0fff717 	ldw	r3,-36(fp)
 40217ec:	e0bff817 	ldw	r2,-32(fp)
 40217f0:	1885c83a 	sub	r2,r3,r2
 40217f4:	e0bff615 	stw	r2,-40(fp)
 40217f8:	00000406 	br	402180c <altera_avalon_jtag_uart_read+0x74>
      else
        n = ALTERA_AVALON_JTAG_UART_BUF_LEN - out;
 40217fc:	00c20004 	movi	r3,2048
 4021800:	e0bff817 	ldw	r2,-32(fp)
 4021804:	1885c83a 	sub	r2,r3,r2
 4021808:	e0bff615 	stw	r2,-40(fp)

      if (n == 0)
 402180c:	e0bff617 	ldw	r2,-40(fp)
 4021810:	10001e26 	beq	r2,zero,402188c <altera_avalon_jtag_uart_read+0xf4>
        break; /* No more data available */

      if (n > space)
 4021814:	e0fffe17 	ldw	r3,-8(fp)
 4021818:	e0bff617 	ldw	r2,-40(fp)
 402181c:	1880022e 	bgeu	r3,r2,4021828 <altera_avalon_jtag_uart_read+0x90>
        n = space;
 4021820:	e0bffe17 	ldw	r2,-8(fp)
 4021824:	e0bff615 	stw	r2,-40(fp)

      memcpy(ptr, sp->rx_buf + out, n);
 4021828:	e0bffc17 	ldw	r2,-16(fp)
 402182c:	10c00e04 	addi	r3,r2,56
 4021830:	e0bff817 	ldw	r2,-32(fp)
 4021834:	1885883a 	add	r2,r3,r2
 4021838:	e1bff617 	ldw	r6,-40(fp)
 402183c:	100b883a 	mov	r5,r2
 4021840:	e13ff517 	ldw	r4,-44(fp)
 4021844:	4023a0c0 	call	4023a0c <memcpy>
      ptr   += n;
 4021848:	e0fff517 	ldw	r3,-44(fp)
 402184c:	e0bff617 	ldw	r2,-40(fp)
 4021850:	1885883a 	add	r2,r3,r2
 4021854:	e0bff515 	stw	r2,-44(fp)
      space -= n;
 4021858:	e0fffe17 	ldw	r3,-8(fp)
 402185c:	e0bff617 	ldw	r2,-40(fp)
 4021860:	1885c83a 	sub	r2,r3,r2
 4021864:	e0bffe15 	stw	r2,-8(fp)

      sp->rx_out = (out + n) % ALTERA_AVALON_JTAG_UART_BUF_LEN;
 4021868:	e0fff817 	ldw	r3,-32(fp)
 402186c:	e0bff617 	ldw	r2,-40(fp)
 4021870:	1885883a 	add	r2,r3,r2
 4021874:	10c1ffcc 	andi	r3,r2,2047
 4021878:	e0bffc17 	ldw	r2,-16(fp)
 402187c:	10c00b15 	stw	r3,44(r2)
    }
    while (space > 0);
 4021880:	e0bffe17 	ldw	r2,-8(fp)
 4021884:	00bfcf16 	blt	zero,r2,40217c4 <__alt_data_end+0xfffe17c4>
 4021888:	00000106 	br	4021890 <altera_avalon_jtag_uart_read+0xf8>
        n = in - out;
      else
        n = ALTERA_AVALON_JTAG_UART_BUF_LEN - out;

      if (n == 0)
        break; /* No more data available */
 402188c:	0001883a 	nop
      sp->rx_out = (out + n) % ALTERA_AVALON_JTAG_UART_BUF_LEN;
    }
    while (space > 0);

    /* If we read any data then return it */
    if (ptr != buffer)
 4021890:	e0fff517 	ldw	r3,-44(fp)
 4021894:	e0bffd17 	ldw	r2,-12(fp)
 4021898:	1880141e 	bne	r3,r2,40218ec <altera_avalon_jtag_uart_read+0x154>
      break;

    /* If in non-blocking mode then return error */
    if (flags & O_NONBLOCK)
 402189c:	e0bfff17 	ldw	r2,-4(fp)
 40218a0:	1090000c 	andi	r2,r2,16384
 40218a4:	1000131e 	bne	r2,zero,40218f4 <altera_avalon_jtag_uart_read+0x15c>
      while (in == sp->rx_in && sp->host_inactive < sp->timeout)
        ;
    }
#else
    /* No OS: Always spin */
    while (in == sp->rx_in && sp->host_inactive < sp->timeout)
 40218a8:	0001883a 	nop
 40218ac:	e0bffc17 	ldw	r2,-16(fp)
 40218b0:	10c00a17 	ldw	r3,40(r2)
 40218b4:	e0bff717 	ldw	r2,-36(fp)
 40218b8:	1880051e 	bne	r3,r2,40218d0 <altera_avalon_jtag_uart_read+0x138>
 40218bc:	e0bffc17 	ldw	r2,-16(fp)
 40218c0:	10c00917 	ldw	r3,36(r2)
 40218c4:	e0bffc17 	ldw	r2,-16(fp)
 40218c8:	10800117 	ldw	r2,4(r2)
 40218cc:	18bff736 	bltu	r3,r2,40218ac <__alt_data_end+0xfffe18ac>
      ;
#endif /* __ucosii__ */

    if (in == sp->rx_in)
 40218d0:	e0bffc17 	ldw	r2,-16(fp)
 40218d4:	10c00a17 	ldw	r3,40(r2)
 40218d8:	e0bff717 	ldw	r2,-36(fp)
 40218dc:	18800726 	beq	r3,r2,40218fc <altera_avalon_jtag_uart_read+0x164>
   * When running in a multi threaded environment, obtain the "read_lock"
   * semaphore. This ensures that reading from the device is thread-safe.
   */
  ALT_SEM_PEND (sp->read_lock, 0);

  while (space > 0)
 40218e0:	e0bffe17 	ldw	r2,-8(fp)
 40218e4:	00bfb716 	blt	zero,r2,40217c4 <__alt_data_end+0xfffe17c4>
 40218e8:	00000506 	br	4021900 <altera_avalon_jtag_uart_read+0x168>
    }
    while (space > 0);

    /* If we read any data then return it */
    if (ptr != buffer)
      break;
 40218ec:	0001883a 	nop
 40218f0:	00000306 	br	4021900 <altera_avalon_jtag_uart_read+0x168>

    /* If in non-blocking mode then return error */
    if (flags & O_NONBLOCK)
      break;
 40218f4:	0001883a 	nop
 40218f8:	00000106 	br	4021900 <altera_avalon_jtag_uart_read+0x168>
    while (in == sp->rx_in && sp->host_inactive < sp->timeout)
      ;
#endif /* __ucosii__ */

    if (in == sp->rx_in)
      break;
 40218fc:	0001883a 	nop
   * semaphore so that other threads can access the buffer.
   */

  ALT_SEM_POST (sp->read_lock);

  if (ptr != buffer)
 4021900:	e0fff517 	ldw	r3,-44(fp)
 4021904:	e0bffd17 	ldw	r2,-12(fp)
 4021908:	18801826 	beq	r3,r2,402196c <altera_avalon_jtag_uart_read+0x1d4>
static ALT_INLINE alt_irq_context ALT_ALWAYS_INLINE 
       alt_irq_disable_all (void)
{
  alt_irq_context context;

  NIOS2_READ_STATUS (context);
 402190c:	0005303a 	rdctl	r2,status
 4021910:	e0bffb15 	stw	r2,-20(fp)

  NIOS2_WRITE_STATUS (context & ~NIOS2_STATUS_PIE_MSK);
 4021914:	e0fffb17 	ldw	r3,-20(fp)
 4021918:	00bfff84 	movi	r2,-2
 402191c:	1884703a 	and	r2,r3,r2
 4021920:	1001703a 	wrctl	status,r2
  
  return context;
 4021924:	e0bffb17 	ldw	r2,-20(fp)
  {
    /* If we read any data then there is space in the buffer so enable interrupts */
    context = alt_irq_disable_all();
 4021928:	e0bffa15 	stw	r2,-24(fp)
    sp->irq_enable |= ALTERA_AVALON_JTAG_UART_CONTROL_RE_MSK;
 402192c:	e0bffc17 	ldw	r2,-16(fp)
 4021930:	10800817 	ldw	r2,32(r2)
 4021934:	10c00054 	ori	r3,r2,1
 4021938:	e0bffc17 	ldw	r2,-16(fp)
 402193c:	10c00815 	stw	r3,32(r2)
    IOWR_ALTERA_AVALON_JTAG_UART_CONTROL(sp->base, sp->irq_enable);
 4021940:	e0bffc17 	ldw	r2,-16(fp)
 4021944:	10800017 	ldw	r2,0(r2)
 4021948:	10800104 	addi	r2,r2,4
 402194c:	1007883a 	mov	r3,r2
 4021950:	e0bffc17 	ldw	r2,-16(fp)
 4021954:	10800817 	ldw	r2,32(r2)
 4021958:	18800035 	stwio	r2,0(r3)
 402195c:	e0bffa17 	ldw	r2,-24(fp)
 4021960:	e0bff915 	stw	r2,-28(fp)
  status &= ~NIOS2_STATUS_PIE_MSK;
  status |= (context & NIOS2_STATUS_PIE_MSK);
  
  NIOS2_WRITE_STATUS (status);
#else
  NIOS2_WRITE_STATUS (context);
 4021964:	e0bff917 	ldw	r2,-28(fp)
 4021968:	1001703a 	wrctl	status,r2
    alt_irq_enable_all(context);
  }

  if (ptr != buffer)
 402196c:	e0fff517 	ldw	r3,-44(fp)
 4021970:	e0bffd17 	ldw	r2,-12(fp)
 4021974:	18800426 	beq	r3,r2,4021988 <altera_avalon_jtag_uart_read+0x1f0>
    return ptr - buffer;
 4021978:	e0fff517 	ldw	r3,-44(fp)
 402197c:	e0bffd17 	ldw	r2,-12(fp)
 4021980:	1885c83a 	sub	r2,r3,r2
 4021984:	00000606 	br	40219a0 <altera_avalon_jtag_uart_read+0x208>
  else if (flags & O_NONBLOCK)
 4021988:	e0bfff17 	ldw	r2,-4(fp)
 402198c:	1090000c 	andi	r2,r2,16384
 4021990:	10000226 	beq	r2,zero,402199c <altera_avalon_jtag_uart_read+0x204>
    return -EWOULDBLOCK;
 4021994:	00bffd44 	movi	r2,-11
 4021998:	00000106 	br	40219a0 <altera_avalon_jtag_uart_read+0x208>
  else
    return -EIO;
 402199c:	00bffec4 	movi	r2,-5
}
 40219a0:	e037883a 	mov	sp,fp
 40219a4:	dfc00117 	ldw	ra,4(sp)
 40219a8:	df000017 	ldw	fp,0(sp)
 40219ac:	dec00204 	addi	sp,sp,8
 40219b0:	f800283a 	ret

040219b4 <altera_avalon_jtag_uart_write>:
/* ----------------------------------------------------------- */

int 
altera_avalon_jtag_uart_write(altera_avalon_jtag_uart_state* sp, 
  const char * ptr, int count, int flags)
{
 40219b4:	defff304 	addi	sp,sp,-52
 40219b8:	dfc00c15 	stw	ra,48(sp)
 40219bc:	df000b15 	stw	fp,44(sp)
 40219c0:	df000b04 	addi	fp,sp,44
 40219c4:	e13ffc15 	stw	r4,-16(fp)
 40219c8:	e17ffd15 	stw	r5,-12(fp)
 40219cc:	e1bffe15 	stw	r6,-8(fp)
 40219d0:	e1ffff15 	stw	r7,-4(fp)
  /* Remove warning at optimisation level 03 by seting out to 0 */
  unsigned int in, out=0;
 40219d4:	e03ff515 	stw	zero,-44(fp)
  unsigned int n;
  alt_irq_context context;

  const char * start = ptr;
 40219d8:	e0bffd17 	ldw	r2,-12(fp)
 40219dc:	e0bff715 	stw	r2,-36(fp)
  ALT_SEM_PEND (sp->write_lock, 0);

  do
  {
    /* Copy as much as we can into the transmit buffer */
    while (count > 0)
 40219e0:	00003706 	br	4021ac0 <altera_avalon_jtag_uart_write+0x10c>
    {
      /* We need a stable value of the out pointer to calculate the space available */
      in  = sp->tx_in;
 40219e4:	e0bffc17 	ldw	r2,-16(fp)
 40219e8:	10800c17 	ldw	r2,48(r2)
 40219ec:	e0bff915 	stw	r2,-28(fp)
      out = sp->tx_out;
 40219f0:	e0bffc17 	ldw	r2,-16(fp)
 40219f4:	10800d17 	ldw	r2,52(r2)
 40219f8:	e0bff515 	stw	r2,-44(fp)

      if (in < out)
 40219fc:	e0fff917 	ldw	r3,-28(fp)
 4021a00:	e0bff517 	ldw	r2,-44(fp)
 4021a04:	1880062e 	bgeu	r3,r2,4021a20 <altera_avalon_jtag_uart_write+0x6c>
        n = out - 1 - in;
 4021a08:	e0fff517 	ldw	r3,-44(fp)
 4021a0c:	e0bff917 	ldw	r2,-28(fp)
 4021a10:	1885c83a 	sub	r2,r3,r2
 4021a14:	10bfffc4 	addi	r2,r2,-1
 4021a18:	e0bff615 	stw	r2,-40(fp)
 4021a1c:	00000b06 	br	4021a4c <altera_avalon_jtag_uart_write+0x98>
      else if (out > 0)
 4021a20:	e0bff517 	ldw	r2,-44(fp)
 4021a24:	10000526 	beq	r2,zero,4021a3c <altera_avalon_jtag_uart_write+0x88>
        n = ALTERA_AVALON_JTAG_UART_BUF_LEN - in;
 4021a28:	00c20004 	movi	r3,2048
 4021a2c:	e0bff917 	ldw	r2,-28(fp)
 4021a30:	1885c83a 	sub	r2,r3,r2
 4021a34:	e0bff615 	stw	r2,-40(fp)
 4021a38:	00000406 	br	4021a4c <altera_avalon_jtag_uart_write+0x98>
      else
        n = ALTERA_AVALON_JTAG_UART_BUF_LEN - 1 - in;
 4021a3c:	00c1ffc4 	movi	r3,2047
 4021a40:	e0bff917 	ldw	r2,-28(fp)
 4021a44:	1885c83a 	sub	r2,r3,r2
 4021a48:	e0bff615 	stw	r2,-40(fp)

      if (n == 0)
 4021a4c:	e0bff617 	ldw	r2,-40(fp)
 4021a50:	10001e26 	beq	r2,zero,4021acc <altera_avalon_jtag_uart_write+0x118>
        break;

      if (n > count)
 4021a54:	e0fffe17 	ldw	r3,-8(fp)
 4021a58:	e0bff617 	ldw	r2,-40(fp)
 4021a5c:	1880022e 	bgeu	r3,r2,4021a68 <altera_avalon_jtag_uart_write+0xb4>
        n = count;
 4021a60:	e0bffe17 	ldw	r2,-8(fp)
 4021a64:	e0bff615 	stw	r2,-40(fp)

      memcpy(sp->tx_buf + in, ptr, n);
 4021a68:	e0bffc17 	ldw	r2,-16(fp)
 4021a6c:	10c20e04 	addi	r3,r2,2104
 4021a70:	e0bff917 	ldw	r2,-28(fp)
 4021a74:	1885883a 	add	r2,r3,r2
 4021a78:	e1bff617 	ldw	r6,-40(fp)
 4021a7c:	e17ffd17 	ldw	r5,-12(fp)
 4021a80:	1009883a 	mov	r4,r2
 4021a84:	4023a0c0 	call	4023a0c <memcpy>
      ptr   += n;
 4021a88:	e0fffd17 	ldw	r3,-12(fp)
 4021a8c:	e0bff617 	ldw	r2,-40(fp)
 4021a90:	1885883a 	add	r2,r3,r2
 4021a94:	e0bffd15 	stw	r2,-12(fp)
      count -= n;
 4021a98:	e0fffe17 	ldw	r3,-8(fp)
 4021a9c:	e0bff617 	ldw	r2,-40(fp)
 4021aa0:	1885c83a 	sub	r2,r3,r2
 4021aa4:	e0bffe15 	stw	r2,-8(fp)

      sp->tx_in = (in + n) % ALTERA_AVALON_JTAG_UART_BUF_LEN;
 4021aa8:	e0fff917 	ldw	r3,-28(fp)
 4021aac:	e0bff617 	ldw	r2,-40(fp)
 4021ab0:	1885883a 	add	r2,r3,r2
 4021ab4:	10c1ffcc 	andi	r3,r2,2047
 4021ab8:	e0bffc17 	ldw	r2,-16(fp)
 4021abc:	10c00c15 	stw	r3,48(r2)
  ALT_SEM_PEND (sp->write_lock, 0);

  do
  {
    /* Copy as much as we can into the transmit buffer */
    while (count > 0)
 4021ac0:	e0bffe17 	ldw	r2,-8(fp)
 4021ac4:	00bfc716 	blt	zero,r2,40219e4 <__alt_data_end+0xfffe19e4>
 4021ac8:	00000106 	br	4021ad0 <altera_avalon_jtag_uart_write+0x11c>
        n = ALTERA_AVALON_JTAG_UART_BUF_LEN - in;
      else
        n = ALTERA_AVALON_JTAG_UART_BUF_LEN - 1 - in;

      if (n == 0)
        break;
 4021acc:	0001883a 	nop
static ALT_INLINE alt_irq_context ALT_ALWAYS_INLINE 
       alt_irq_disable_all (void)
{
  alt_irq_context context;

  NIOS2_READ_STATUS (context);
 4021ad0:	0005303a 	rdctl	r2,status
 4021ad4:	e0bffb15 	stw	r2,-20(fp)

  NIOS2_WRITE_STATUS (context & ~NIOS2_STATUS_PIE_MSK);
 4021ad8:	e0fffb17 	ldw	r3,-20(fp)
 4021adc:	00bfff84 	movi	r2,-2
 4021ae0:	1884703a 	and	r2,r3,r2
 4021ae4:	1001703a 	wrctl	status,r2
  
  return context;
 4021ae8:	e0bffb17 	ldw	r2,-20(fp)
     * to enable interrupts if there is no space left in the FIFO
     *
     * For now kick the interrupt routine every time to make it transmit 
     * the data 
     */
    context = alt_irq_disable_all();
 4021aec:	e0bffa15 	stw	r2,-24(fp)
    sp->irq_enable |= ALTERA_AVALON_JTAG_UART_CONTROL_WE_MSK;
 4021af0:	e0bffc17 	ldw	r2,-16(fp)
 4021af4:	10800817 	ldw	r2,32(r2)
 4021af8:	10c00094 	ori	r3,r2,2
 4021afc:	e0bffc17 	ldw	r2,-16(fp)
 4021b00:	10c00815 	stw	r3,32(r2)
    IOWR_ALTERA_AVALON_JTAG_UART_CONTROL(sp->base, sp->irq_enable);
 4021b04:	e0bffc17 	ldw	r2,-16(fp)
 4021b08:	10800017 	ldw	r2,0(r2)
 4021b0c:	10800104 	addi	r2,r2,4
 4021b10:	1007883a 	mov	r3,r2
 4021b14:	e0bffc17 	ldw	r2,-16(fp)
 4021b18:	10800817 	ldw	r2,32(r2)
 4021b1c:	18800035 	stwio	r2,0(r3)
 4021b20:	e0bffa17 	ldw	r2,-24(fp)
 4021b24:	e0bff815 	stw	r2,-32(fp)
  status &= ~NIOS2_STATUS_PIE_MSK;
  status |= (context & NIOS2_STATUS_PIE_MSK);
  
  NIOS2_WRITE_STATUS (status);
#else
  NIOS2_WRITE_STATUS (context);
 4021b28:	e0bff817 	ldw	r2,-32(fp)
 4021b2c:	1001703a 	wrctl	status,r2
    /* 
     * If there is any data left then either return now or block until 
     * some has been sent 
     */
    /* consider: test whether there is anything there while doing this and delay for at most 2s. */
    if (count > 0)
 4021b30:	e0bffe17 	ldw	r2,-8(fp)
 4021b34:	0080100e 	bge	zero,r2,4021b78 <altera_avalon_jtag_uart_write+0x1c4>
    {
      if (flags & O_NONBLOCK)
 4021b38:	e0bfff17 	ldw	r2,-4(fp)
 4021b3c:	1090000c 	andi	r2,r2,16384
 4021b40:	1000101e 	bne	r2,zero,4021b84 <altera_avalon_jtag_uart_write+0x1d0>
      /*
       * No OS present: Always wait for data to be removed from buffer.  Once
       * the interrupt routine has removed some data then we will be able to
       * insert some more.
       */
      while (out == sp->tx_out && sp->host_inactive < sp->timeout)
 4021b44:	0001883a 	nop
 4021b48:	e0bffc17 	ldw	r2,-16(fp)
 4021b4c:	10c00d17 	ldw	r3,52(r2)
 4021b50:	e0bff517 	ldw	r2,-44(fp)
 4021b54:	1880051e 	bne	r3,r2,4021b6c <altera_avalon_jtag_uart_write+0x1b8>
 4021b58:	e0bffc17 	ldw	r2,-16(fp)
 4021b5c:	10c00917 	ldw	r3,36(r2)
 4021b60:	e0bffc17 	ldw	r2,-16(fp)
 4021b64:	10800117 	ldw	r2,4(r2)
 4021b68:	18bff736 	bltu	r3,r2,4021b48 <__alt_data_end+0xfffe1b48>
        ;
#endif /* __ucosii__ */

      if  (sp->host_inactive)
 4021b6c:	e0bffc17 	ldw	r2,-16(fp)
 4021b70:	10800917 	ldw	r2,36(r2)
 4021b74:	1000051e 	bne	r2,zero,4021b8c <altera_avalon_jtag_uart_write+0x1d8>
         break;
    }
  }
  while (count > 0);
 4021b78:	e0bffe17 	ldw	r2,-8(fp)
 4021b7c:	00bfd016 	blt	zero,r2,4021ac0 <__alt_data_end+0xfffe1ac0>
 4021b80:	00000306 	br	4021b90 <altera_avalon_jtag_uart_write+0x1dc>
     */
    /* consider: test whether there is anything there while doing this and delay for at most 2s. */
    if (count > 0)
    {
      if (flags & O_NONBLOCK)
        break;
 4021b84:	0001883a 	nop
 4021b88:	00000106 	br	4021b90 <altera_avalon_jtag_uart_write+0x1dc>
      while (out == sp->tx_out && sp->host_inactive < sp->timeout)
        ;
#endif /* __ucosii__ */

      if  (sp->host_inactive)
         break;
 4021b8c:	0001883a 	nop
   * Now that access to the circular buffer is complete, release the write
   * semaphore so that other threads can access the buffer.
   */
  ALT_SEM_POST (sp->write_lock);

  if (ptr != start)
 4021b90:	e0fffd17 	ldw	r3,-12(fp)
 4021b94:	e0bff717 	ldw	r2,-36(fp)
 4021b98:	18800426 	beq	r3,r2,4021bac <altera_avalon_jtag_uart_write+0x1f8>
    return ptr - start;
 4021b9c:	e0fffd17 	ldw	r3,-12(fp)
 4021ba0:	e0bff717 	ldw	r2,-36(fp)
 4021ba4:	1885c83a 	sub	r2,r3,r2
 4021ba8:	00000606 	br	4021bc4 <altera_avalon_jtag_uart_write+0x210>
  else if (flags & O_NONBLOCK)
 4021bac:	e0bfff17 	ldw	r2,-4(fp)
 4021bb0:	1090000c 	andi	r2,r2,16384
 4021bb4:	10000226 	beq	r2,zero,4021bc0 <altera_avalon_jtag_uart_write+0x20c>
    return -EWOULDBLOCK;
 4021bb8:	00bffd44 	movi	r2,-11
 4021bbc:	00000106 	br	4021bc4 <altera_avalon_jtag_uart_write+0x210>
    sp->tx_out = sp->tx_in = 0;
    return ptr - start + count;
  }
#endif
  else
    return -EIO; /* Host not connected */
 4021bc0:	00bffec4 	movi	r2,-5
}
 4021bc4:	e037883a 	mov	sp,fp
 4021bc8:	dfc00117 	ldw	ra,4(sp)
 4021bcc:	df000017 	ldw	fp,0(sp)
 4021bd0:	dec00204 	addi	sp,sp,8
 4021bd4:	f800283a 	ret

04021bd8 <altera_avalon_mailbox_identify>:
 * Check an instance open match
 * with the callback register
 */

static void altera_avalon_mailbox_identify (altera_avalon_mailbox_dev *dev)
{
 4021bd8:	defffd04 	addi	sp,sp,-12
 4021bdc:	df000215 	stw	fp,8(sp)
 4021be0:	df000204 	addi	fp,sp,8
 4021be4:	e13fff15 	stw	r4,-4(fp)
    /* Random signature to test mailbox ownership */
    alt_u32 magic_num = 0x3A11B045;
 4021be8:	008e84b4 	movhi	r2,14866
 4021bec:	10ac1144 	addi	r2,r2,-20411
 4021bf0:	e0bffe15 	stw	r2,-8(fp)

    IOWR(dev->base, ALTERA_AVALON_MAILBOX_SIMPLE_PTR_OFST, magic_num);
 4021bf4:	e0bfff17 	ldw	r2,-4(fp)
 4021bf8:	10800a17 	ldw	r2,40(r2)
 4021bfc:	10800104 	addi	r2,r2,4
 4021c00:	1007883a 	mov	r3,r2
 4021c04:	e0bffe17 	ldw	r2,-8(fp)
 4021c08:	18800035 	stwio	r2,0(r3)
    if((IORD(dev->base, ALTERA_AVALON_MAILBOX_SIMPLE_PTR_OFST)) == magic_num)
 4021c0c:	e0bfff17 	ldw	r2,-4(fp)
 4021c10:	10800a17 	ldw	r2,40(r2)
 4021c14:	10800104 	addi	r2,r2,4
 4021c18:	10800037 	ldwio	r2,0(r2)
 4021c1c:	1007883a 	mov	r3,r2
 4021c20:	e0bffe17 	ldw	r2,-8(fp)
 4021c24:	1880081e 	bne	r3,r2,4021c48 <altera_avalon_mailbox_identify+0x70>
    {
        dev-> mbox_type = MBOX_TX;
 4021c28:	e0bfff17 	ldw	r2,-4(fp)
 4021c2c:	10000f15 	stw	zero,60(r2)
        /* Clear message_ptr to default */
        IOWR(dev->base, ALTERA_AVALON_MAILBOX_SIMPLE_PTR_OFST, 0x0);
 4021c30:	e0bfff17 	ldw	r2,-4(fp)
 4021c34:	10800a17 	ldw	r2,40(r2)
 4021c38:	10800104 	addi	r2,r2,4
 4021c3c:	0007883a 	mov	r3,zero
 4021c40:	10c00035 	stwio	r3,0(r2)
    } else
    {
	    dev->mbox_type = MBOX_RX;
    }
}
 4021c44:	00000306 	br	4021c54 <altera_avalon_mailbox_identify+0x7c>
        dev-> mbox_type = MBOX_TX;
        /* Clear message_ptr to default */
        IOWR(dev->base, ALTERA_AVALON_MAILBOX_SIMPLE_PTR_OFST, 0x0);
    } else
    {
	    dev->mbox_type = MBOX_RX;
 4021c48:	e0bfff17 	ldw	r2,-4(fp)
 4021c4c:	00c00044 	movi	r3,1
 4021c50:	10c00f15 	stw	r3,60(r2)
    }
}
 4021c54:	0001883a 	nop
 4021c58:	e037883a 	mov	sp,fp
 4021c5c:	df000017 	ldw	fp,0(sp)
 4021c60:	dec00104 	addi	sp,sp,4
 4021c64:	f800283a 	ret

04021c68 <altera_avalon_mailbox_post>:
/*
 *   altera_avalon_mailbox_post
 *   This function post message out through sender mailbox
 */
static alt_32 altera_avalon_mailbox_post (altera_avalon_mailbox_dev *dev,  void *message)
{
 4021c68:	defffc04 	addi	sp,sp,-16
 4021c6c:	df000315 	stw	fp,12(sp)
 4021c70:	df000304 	addi	fp,sp,12
 4021c74:	e13ffe15 	stw	r4,-8(fp)
 4021c78:	e17fff15 	stw	r5,-4(fp)
    alt_u32 *mbox_msg = (alt_u32*) message ;
 4021c7c:	e0bfff17 	ldw	r2,-4(fp)
 4021c80:	e0bffd15 	stw	r2,-12(fp)

    if (mbox_msg != NULL) {
 4021c84:	e0bffd17 	ldw	r2,-12(fp)
 4021c88:	10001026 	beq	r2,zero,4021ccc <altera_avalon_mailbox_post+0x64>
        /* When message space available, post the message out */
        IOWR(dev->base, ALTERA_AVALON_MAILBOX_SIMPLE_PTR_OFST, mbox_msg[1]);
 4021c8c:	e0bffe17 	ldw	r2,-8(fp)
 4021c90:	10800a17 	ldw	r2,40(r2)
 4021c94:	10800104 	addi	r2,r2,4
 4021c98:	1007883a 	mov	r3,r2
 4021c9c:	e0bffd17 	ldw	r2,-12(fp)
 4021ca0:	10800104 	addi	r2,r2,4
 4021ca4:	10800017 	ldw	r2,0(r2)
 4021ca8:	18800035 	stwio	r2,0(r3)
        IOWR(dev->base, ALTERA_AVALON_MAILBOX_SIMPLE_CMD_OFST, mbox_msg[0]);
 4021cac:	e0bffe17 	ldw	r2,-8(fp)
 4021cb0:	10800a17 	ldw	r2,40(r2)
 4021cb4:	1007883a 	mov	r3,r2
 4021cb8:	e0bffd17 	ldw	r2,-12(fp)
 4021cbc:	10800017 	ldw	r2,0(r2)
 4021cc0:	18800035 	stwio	r2,0(r3)
        return 0;
 4021cc4:	0005883a 	mov	r2,zero
 4021cc8:	00000106 	br	4021cd0 <altera_avalon_mailbox_post+0x68>
    }
    /* Invalid NULL message received */
    return -EINVAL;
 4021ccc:	00bffa84 	movi	r2,-22
}
 4021cd0:	e037883a 	mov	sp,fp
 4021cd4:	df000017 	ldw	fp,0(sp)
 4021cd8:	dec00104 	addi	sp,sp,4
 4021cdc:	f800283a 	ret

04021ce0 <altera_avalon_mailbox_simple_tx_isr>:
#ifdef ALT_ENHANCED_INTERRUPT_API_PRESENT
static void altera_avalon_mailbox_simple_tx_isr(void *context)
#else
static void altera_avalon_mailbox_simple_tx_isr(void *context, alt_u32 id)
#endif
{
 4021ce0:	defff604 	addi	sp,sp,-40
 4021ce4:	dfc00915 	stw	ra,36(sp)
 4021ce8:	df000815 	stw	fp,32(sp)
 4021cec:	df000804 	addi	fp,sp,32
 4021cf0:	e13fff15 	stw	r4,-4(fp)
    altera_avalon_mailbox_dev *dev = (altera_avalon_mailbox_dev*) context;
 4021cf4:	e0bfff17 	ldw	r2,-4(fp)
 4021cf8:	e0bff815 	stw	r2,-32(fp)
    int status = 0;
 4021cfc:	e03ff915 	stw	zero,-28(fp)
    alt_u32 data;
    alt_irq_context cpu_sr;
    alt_u32 *message = dev->mbox_msg;
 4021d00:	e0bff817 	ldw	r2,-32(fp)
 4021d04:	10801017 	ldw	r2,64(r2)
 4021d08:	e0bffa15 	stw	r2,-24(fp)

    /* Mask mailbox interrupt */
    data = IORD(dev->base, ALTERA_AVALON_MAILBOX_SIMPLE_INTR_OFST) &
 4021d0c:	e0bff817 	ldw	r2,-32(fp)
 4021d10:	10800a17 	ldw	r2,40(r2)
 4021d14:	10800304 	addi	r2,r2,12
 4021d18:	10800037 	ldwio	r2,0(r2)
 4021d1c:	1007883a 	mov	r3,r2
 4021d20:	00bfff44 	movi	r2,-3
 4021d24:	1884703a 	and	r2,r3,r2
 4021d28:	e0bffb15 	stw	r2,-20(fp)
               (~ALTERA_AVALON_MAILBOX_SIMPLE_INTR_SPACE_MSK);
    IOWR(dev->base, ALTERA_AVALON_MAILBOX_SIMPLE_INTR_OFST, data);
 4021d2c:	e0bff817 	ldw	r2,-32(fp)
 4021d30:	10800a17 	ldw	r2,40(r2)
 4021d34:	10800304 	addi	r2,r2,12
 4021d38:	1007883a 	mov	r3,r2
 4021d3c:	e0bffb17 	ldw	r2,-20(fp)
 4021d40:	18800035 	stwio	r2,0(r3)

    if (message != NULL)
 4021d44:	e0bffa17 	ldw	r2,-24(fp)
 4021d48:	10002d26 	beq	r2,zero,4021e00 <altera_avalon_mailbox_simple_tx_isr+0x120>
    {
        /* Post out message requested */
        IOWR(dev->base, ALTERA_AVALON_MAILBOX_SIMPLE_PTR_OFST, message[1]);
 4021d4c:	e0bff817 	ldw	r2,-32(fp)
 4021d50:	10800a17 	ldw	r2,40(r2)
 4021d54:	10800104 	addi	r2,r2,4
 4021d58:	1007883a 	mov	r3,r2
 4021d5c:	e0bffa17 	ldw	r2,-24(fp)
 4021d60:	10800104 	addi	r2,r2,4
 4021d64:	10800017 	ldw	r2,0(r2)
 4021d68:	18800035 	stwio	r2,0(r3)
        IOWR(dev->base, ALTERA_AVALON_MAILBOX_SIMPLE_CMD_OFST, message[0]);
 4021d6c:	e0bff817 	ldw	r2,-32(fp)
 4021d70:	10800a17 	ldw	r2,40(r2)
 4021d74:	1007883a 	mov	r3,r2
 4021d78:	e0bffa17 	ldw	r2,-24(fp)
 4021d7c:	10800017 	ldw	r2,0(r2)
 4021d80:	18800035 	stwio	r2,0(r3)
    /*
     * Other interrupts are explicitly disabled if callbacks are registered
     * because there is no guarantee that they are preemption-safe.
     */
        status = (IORD_ALTERA_AVALON_MAILBOX_STS(dev->base)
 4021d84:	e0bff817 	ldw	r2,-32(fp)
 4021d88:	10800a17 	ldw	r2,40(r2)
 4021d8c:	10800204 	addi	r2,r2,8
 4021d90:	10800037 	ldwio	r2,0(r2)
        		  & ALTERA_AVALON_MAILBOX_SIMPLE_STS_FULL_MSK) >> 1;
 4021d94:	1080008c 	andi	r2,r2,2
        IOWR(dev->base, ALTERA_AVALON_MAILBOX_SIMPLE_CMD_OFST, message[0]);
    /*
     * Other interrupts are explicitly disabled if callbacks are registered
     * because there is no guarantee that they are preemption-safe.
     */
        status = (IORD_ALTERA_AVALON_MAILBOX_STS(dev->base)
 4021d98:	1005d07a 	srai	r2,r2,1
 4021d9c:	e0bff915 	stw	r2,-28(fp)
        		  & ALTERA_AVALON_MAILBOX_SIMPLE_STS_FULL_MSK) >> 1;
        if (dev->tx_cb)
 4021da0:	e0bff817 	ldw	r2,-32(fp)
 4021da4:	10800d17 	ldw	r2,52(r2)
 4021da8:	10001126 	beq	r2,zero,4021df0 <altera_avalon_mailbox_simple_tx_isr+0x110>
static ALT_INLINE alt_irq_context ALT_ALWAYS_INLINE 
       alt_irq_disable_all (void)
{
  alt_irq_context context;

  NIOS2_READ_STATUS (context);
 4021dac:	0005303a 	rdctl	r2,status
 4021db0:	e0bffd15 	stw	r2,-12(fp)

  NIOS2_WRITE_STATUS (context & ~NIOS2_STATUS_PIE_MSK);
 4021db4:	e0fffd17 	ldw	r3,-12(fp)
 4021db8:	00bfff84 	movi	r2,-2
 4021dbc:	1884703a 	and	r2,r3,r2
 4021dc0:	1001703a 	wrctl	status,r2
  
  return context;
 4021dc4:	e0bffd17 	ldw	r2,-12(fp)
        {
            cpu_sr = alt_irq_disable_all();
 4021dc8:	e0bffc15 	stw	r2,-16(fp)
  	        (dev->tx_cb)(message, status);
 4021dcc:	e0bff817 	ldw	r2,-32(fp)
 4021dd0:	10800d17 	ldw	r2,52(r2)
 4021dd4:	e17ff917 	ldw	r5,-28(fp)
 4021dd8:	e13ffa17 	ldw	r4,-24(fp)
 4021ddc:	103ee83a 	callr	r2
 4021de0:	e0bffc17 	ldw	r2,-16(fp)
 4021de4:	e0bffe15 	stw	r2,-8(fp)
  status &= ~NIOS2_STATUS_PIE_MSK;
  status |= (context & NIOS2_STATUS_PIE_MSK);
  
  NIOS2_WRITE_STATUS (status);
#else
  NIOS2_WRITE_STATUS (context);
 4021de8:	e0bffe17 	ldw	r2,-8(fp)
 4021dec:	1001703a 	wrctl	status,r2
            alt_irq_enable_all(cpu_sr);
        }
        /* Clear mailbox message to NULL after message being posted */
        dev->mbox_msg = NULL;
 4021df0:	e0bff817 	ldw	r2,-32(fp)
 4021df4:	10001015 	stw	zero,64(r2)
        dev->lock = 0;
 4021df8:	e0bff817 	ldw	r2,-32(fp)
 4021dfc:	10001105 	stb	zero,68(r2)
    }
}
 4021e00:	0001883a 	nop
 4021e04:	e037883a 	mov	sp,fp
 4021e08:	dfc00117 	ldw	ra,4(sp)
 4021e0c:	df000017 	ldw	fp,0(sp)
 4021e10:	dec00204 	addi	sp,sp,8
 4021e14:	f800283a 	ret

04021e18 <altera_avalon_mailbox_simple_rx_isr>:
#ifdef ALT_ENHANCED_INTERRUPT_API_PRESENT
static void altera_avalon_mailbox_simple_rx_isr(void *context)
#else
static void altera_avalon_mailbox_simple_rx_isr(void *context, alt_u32 id)
#endif
{
 4021e18:	defff704 	addi	sp,sp,-36
 4021e1c:	dfc00815 	stw	ra,32(sp)
 4021e20:	df000715 	stw	fp,28(sp)
 4021e24:	df000704 	addi	fp,sp,28
 4021e28:	e13fff15 	stw	r4,-4(fp)
    altera_avalon_mailbox_dev *dev = (altera_avalon_mailbox_dev*) context;
 4021e2c:	e0bfff17 	ldw	r2,-4(fp)
 4021e30:	e0bff915 	stw	r2,-28(fp)
    alt_irq_context cpu_sr;
    alt_u32 inbox[2];

    inbox[1] = (IORD(dev->base, ALTERA_AVALON_MAILBOX_SIMPLE_PTR_OFST));
 4021e34:	e0bff917 	ldw	r2,-28(fp)
 4021e38:	10800a17 	ldw	r2,40(r2)
 4021e3c:	10800104 	addi	r2,r2,4
 4021e40:	10800037 	ldwio	r2,0(r2)
 4021e44:	e0bffe15 	stw	r2,-8(fp)
    inbox[0] = (IORD(dev->base, ALTERA_AVALON_MAILBOX_SIMPLE_CMD_OFST));
 4021e48:	e0bff917 	ldw	r2,-28(fp)
 4021e4c:	10800a17 	ldw	r2,40(r2)
 4021e50:	10800037 	ldwio	r2,0(r2)
 4021e54:	e0bffd15 	stw	r2,-12(fp)

    /*
     * Other interrupts are explicitly disabled if callbacks are registered
     * because there is no guarantee that they are preemption-safe.
     */
    if (dev->rx_cb)
 4021e58:	e0bff917 	ldw	r2,-28(fp)
 4021e5c:	10800e17 	ldw	r2,56(r2)
 4021e60:	10001126 	beq	r2,zero,4021ea8 <altera_avalon_mailbox_simple_rx_isr+0x90>
static ALT_INLINE alt_irq_context ALT_ALWAYS_INLINE 
       alt_irq_disable_all (void)
{
  alt_irq_context context;

  NIOS2_READ_STATUS (context);
 4021e64:	0005303a 	rdctl	r2,status
 4021e68:	e0bffb15 	stw	r2,-20(fp)

  NIOS2_WRITE_STATUS (context & ~NIOS2_STATUS_PIE_MSK);
 4021e6c:	e0fffb17 	ldw	r3,-20(fp)
 4021e70:	00bfff84 	movi	r2,-2
 4021e74:	1884703a 	and	r2,r3,r2
 4021e78:	1001703a 	wrctl	status,r2
  
  return context;
 4021e7c:	e0bffb17 	ldw	r2,-20(fp)
    {
        cpu_sr = alt_irq_disable_all();
 4021e80:	e0bffa15 	stw	r2,-24(fp)
        (dev->rx_cb)(inbox);
 4021e84:	e0bff917 	ldw	r2,-28(fp)
 4021e88:	10800e17 	ldw	r2,56(r2)
 4021e8c:	e0fffd04 	addi	r3,fp,-12
 4021e90:	1809883a 	mov	r4,r3
 4021e94:	103ee83a 	callr	r2
 4021e98:	e0bffa17 	ldw	r2,-24(fp)
 4021e9c:	e0bffc15 	stw	r2,-16(fp)
  status &= ~NIOS2_STATUS_PIE_MSK;
  status |= (context & NIOS2_STATUS_PIE_MSK);
  
  NIOS2_WRITE_STATUS (status);
#else
  NIOS2_WRITE_STATUS (context);
 4021ea0:	e0bffc17 	ldw	r2,-16(fp)
 4021ea4:	1001703a 	wrctl	status,r2
        alt_irq_enable_all(cpu_sr);
    }
}
 4021ea8:	0001883a 	nop
 4021eac:	e037883a 	mov	sp,fp
 4021eb0:	dfc00117 	ldw	ra,4(sp)
 4021eb4:	df000017 	ldw	fp,0(sp)
 4021eb8:	dec00204 	addi	sp,sp,8
 4021ebc:	f800283a 	ret

04021ec0 <altera_avalon_mailbox_simple_init>:
 * Altera avalon mailbox init
 * Initialize mailbox device and identify sender/receiver mailbox
 */
void altera_avalon_mailbox_simple_init (altera_avalon_mailbox_dev *dev,
		                               int intr_id, int irq)
{
 4021ec0:	defffb04 	addi	sp,sp,-20
 4021ec4:	dfc00415 	stw	ra,16(sp)
 4021ec8:	df000315 	stw	fp,12(sp)
 4021ecc:	df000304 	addi	fp,sp,12
 4021ed0:	e13ffd15 	stw	r4,-12(fp)
 4021ed4:	e17ffe15 	stw	r5,-8(fp)
 4021ed8:	e1bfff15 	stw	r6,-4(fp)
    alt_dev_llist_insert((alt_dev_llist*) dev, &alt_mailbox_simple_list);
 4021edc:	d1600004 	addi	r5,gp,-32768
 4021ee0:	e13ffd17 	ldw	r4,-12(fp)
 4021ee4:	4022be40 	call	4022be4 <alt_dev_llist_insert>
    
    dev->mailbox_irq    = irq;
 4021ee8:	e0ffff17 	ldw	r3,-4(fp)
 4021eec:	e0bffd17 	ldw	r2,-12(fp)
 4021ef0:	10c00b15 	stw	r3,44(r2)
    dev->mailbox_intr_ctrl_id = intr_id;
 4021ef4:	e0fffe17 	ldw	r3,-8(fp)
 4021ef8:	e0bffd17 	ldw	r2,-12(fp)
 4021efc:	10c00c15 	stw	r3,48(r2)
    dev->rx_cb = NULL;
 4021f00:	e0bffd17 	ldw	r2,-12(fp)
 4021f04:	10000e15 	stw	zero,56(r2)
    dev->tx_cb = NULL;
 4021f08:	e0bffd17 	ldw	r2,-12(fp)
 4021f0c:	10000d15 	stw	zero,52(r2)
    dev->mbox_msg = NULL;
 4021f10:	e0bffd17 	ldw	r2,-12(fp)
 4021f14:	10001015 	stw	zero,64(r2)
    
    ALT_SEM_CREATE (&dev->write_lock, 1);

    altera_avalon_mailbox_identify(dev);
 4021f18:	e13ffd17 	ldw	r4,-12(fp)
 4021f1c:	4021bd80 	call	4021bd8 <altera_avalon_mailbox_identify>
}
 4021f20:	0001883a 	nop
 4021f24:	e037883a 	mov	sp,fp
 4021f28:	dfc00117 	ldw	ra,4(sp)
 4021f2c:	df000017 	ldw	fp,0(sp)
 4021f30:	dec00204 	addi	sp,sp,8
 4021f34:	f800283a 	ret

04021f38 <altera_avalon_mailbox_open>:
 * Search the list of registered mailboxes for one with the supplied name.
 * The return value will be NULL on failure, and non-NULL otherwise.
 */
altera_avalon_mailbox_dev* altera_avalon_mailbox_open (const char *name,
		altera_mailbox_tx_cb tx_callback, altera_mailbox_rx_cb rx_callback)
{
 4021f38:	defff804 	addi	sp,sp,-32
 4021f3c:	dfc00715 	stw	ra,28(sp)
 4021f40:	df000615 	stw	fp,24(sp)
 4021f44:	df000604 	addi	fp,sp,24
 4021f48:	e13ffd15 	stw	r4,-12(fp)
 4021f4c:	e17ffe15 	stw	r5,-8(fp)
 4021f50:	e1bfff15 	stw	r6,-4(fp)
    altera_avalon_mailbox_dev *dev;
    alt_u32 data;

    /* Find requested device */
    dev = (altera_avalon_mailbox_dev*) alt_find_dev (name, &alt_mailbox_simple_list);
 4021f54:	d1600004 	addi	r5,gp,-32768
 4021f58:	e13ffd17 	ldw	r4,-12(fp)
 4021f5c:	4022d480 	call	4022d48 <alt_find_dev>
 4021f60:	e0bffb15 	stw	r2,-20(fp)
    if (dev == NULL)
 4021f64:	e0bffb17 	ldw	r2,-20(fp)
 4021f68:	1000021e 	bne	r2,zero,4021f74 <altera_avalon_mailbox_open+0x3c>
    {
        return NULL;
 4021f6c:	0005883a 	mov	r2,zero
 4021f70:	00006506 	br	4022108 <altera_avalon_mailbox_open+0x1d0>
    }

    /* Mask mailbox interrupt before ISR is being registered. */
    data = IORD(dev->base, ALTERA_AVALON_MAILBOX_SIMPLE_INTR_OFST);
 4021f74:	e0bffb17 	ldw	r2,-20(fp)
 4021f78:	10800a17 	ldw	r2,40(r2)
 4021f7c:	10800304 	addi	r2,r2,12
 4021f80:	10800037 	ldwio	r2,0(r2)
 4021f84:	e0bffc15 	stw	r2,-16(fp)
    if (dev->mbox_type == MBOX_TX) {
 4021f88:	e0bffb17 	ldw	r2,-20(fp)
 4021f8c:	10800f17 	ldw	r2,60(r2)
 4021f90:	1000081e 	bne	r2,zero,4021fb4 <altera_avalon_mailbox_open+0x7c>
        IOWR(dev->base, ALTERA_AVALON_MAILBOX_SIMPLE_INTR_OFST, \
 4021f94:	e0bffb17 	ldw	r2,-20(fp)
 4021f98:	10800a17 	ldw	r2,40(r2)
 4021f9c:	10800304 	addi	r2,r2,12
 4021fa0:	1009883a 	mov	r4,r2
 4021fa4:	e0fffc17 	ldw	r3,-16(fp)
 4021fa8:	00bfff44 	movi	r2,-3
 4021fac:	1884703a 	and	r2,r3,r2
 4021fb0:	20800035 	stwio	r2,0(r4)
            (data & ~(ALTERA_AVALON_MAILBOX_SIMPLE_INTR_SPACE_MSK)));
    }
    if (dev->mbox_type == MBOX_RX) {
 4021fb4:	e0bffb17 	ldw	r2,-20(fp)
 4021fb8:	10800f17 	ldw	r2,60(r2)
 4021fbc:	10800058 	cmpnei	r2,r2,1
 4021fc0:	1000081e 	bne	r2,zero,4021fe4 <altera_avalon_mailbox_open+0xac>
        IOWR(dev->base, ALTERA_AVALON_MAILBOX_SIMPLE_INTR_OFST, \
 4021fc4:	e0bffb17 	ldw	r2,-20(fp)
 4021fc8:	10800a17 	ldw	r2,40(r2)
 4021fcc:	10800304 	addi	r2,r2,12
 4021fd0:	1009883a 	mov	r4,r2
 4021fd4:	e0fffc17 	ldw	r3,-16(fp)
 4021fd8:	00bfff84 	movi	r2,-2
 4021fdc:	1884703a 	and	r2,r3,r2
 4021fe0:	20800035 	stwio	r2,0(r4)
    }

    /* If IRQ not connected, return device pointer without ISR register,
     * in polling mode.
     */
    if (dev->mailbox_irq == ALT_IRQ_NOT_CONNECTED)
 4021fe4:	e0bffb17 	ldw	r2,-20(fp)
 4021fe8:	10800b17 	ldw	r2,44(r2)
 4021fec:	10bfffd8 	cmpnei	r2,r2,-1
 4021ff0:	1000021e 	bne	r2,zero,4021ffc <altera_avalon_mailbox_open+0xc4>
        return dev;
 4021ff4:	e0bffb17 	ldw	r2,-20(fp)
 4021ff8:	00004306 	br	4022108 <altera_avalon_mailbox_open+0x1d0>

    /* For IRQ connected case */

    if ((tx_callback == NULL) && (rx_callback == NULL))
 4021ffc:	e0bffe17 	ldw	r2,-8(fp)
 4022000:	1000041e 	bne	r2,zero,4022014 <altera_avalon_mailbox_open+0xdc>
 4022004:	e0bfff17 	ldw	r2,-4(fp)
 4022008:	1000021e 	bne	r2,zero,4022014 <altera_avalon_mailbox_open+0xdc>
    {
    /* No callback, polling mode */
        return dev;
 402200c:	e0bffb17 	ldw	r2,-20(fp)
 4022010:	00003d06 	br	4022108 <altera_avalon_mailbox_open+0x1d0>
    }

    /* Ensure user correctly use the mailbox
     * Return - Null if wrong direction set
     */
    if (((dev->mbox_type == MBOX_TX) && (rx_callback != NULL)) ||
 4022014:	e0bffb17 	ldw	r2,-20(fp)
 4022018:	10800f17 	ldw	r2,60(r2)
 402201c:	1000021e 	bne	r2,zero,4022028 <altera_avalon_mailbox_open+0xf0>
 4022020:	e0bfff17 	ldw	r2,-4(fp)
 4022024:	1000061e 	bne	r2,zero,4022040 <altera_avalon_mailbox_open+0x108>
	    ((dev->mbox_type == MBOX_RX) && (tx_callback != NULL)))
 4022028:	e0bffb17 	ldw	r2,-20(fp)
 402202c:	10800f17 	ldw	r2,60(r2)
    }

    /* Ensure user correctly use the mailbox
     * Return - Null if wrong direction set
     */
    if (((dev->mbox_type == MBOX_TX) && (rx_callback != NULL)) ||
 4022030:	10800058 	cmpnei	r2,r2,1
 4022034:	1000041e 	bne	r2,zero,4022048 <altera_avalon_mailbox_open+0x110>
	    ((dev->mbox_type == MBOX_RX) && (tx_callback != NULL)))
 4022038:	e0bffe17 	ldw	r2,-8(fp)
 402203c:	10000226 	beq	r2,zero,4022048 <altera_avalon_mailbox_open+0x110>
  	  /* Invalid callback  */
        return NULL;
 4022040:	0005883a 	mov	r2,zero
 4022044:	00003006 	br	4022108 <altera_avalon_mailbox_open+0x1d0>

    /* IRQ is valid register callback
     * to current mailbox device
     */
    dev->tx_cb  = tx_callback;
 4022048:	e0bffb17 	ldw	r2,-20(fp)
 402204c:	e0fffe17 	ldw	r3,-8(fp)
 4022050:	10c00d15 	stw	r3,52(r2)
    dev->rx_cb  = rx_callback;
 4022054:	e0bffb17 	ldw	r2,-20(fp)
 4022058:	e0ffff17 	ldw	r3,-4(fp)
 402205c:	10c00e15 	stw	r3,56(r2)

    /* Register Mailbox's ISR */
    if (dev->mbox_type == MBOX_TX)
 4022060:	e0bffb17 	ldw	r2,-20(fp)
 4022064:	10800f17 	ldw	r2,60(r2)
 4022068:	10000b1e 	bne	r2,zero,4022098 <altera_avalon_mailbox_open+0x160>
    {
    #ifdef ALT_ENHANCED_INTERRUPT_API_PRESENT
        alt_ic_isr_register(dev->mailbox_intr_ctrl_id, dev->mailbox_irq, altera_avalon_mailbox_simple_tx_isr,
 402206c:	e0bffb17 	ldw	r2,-20(fp)
 4022070:	10c00c17 	ldw	r3,48(r2)
 4022074:	e0bffb17 	ldw	r2,-20(fp)
 4022078:	10800b17 	ldw	r2,44(r2)
 402207c:	d8000015 	stw	zero,0(sp)
 4022080:	e1fffb17 	ldw	r7,-20(fp)
 4022084:	018100b4 	movhi	r6,1026
 4022088:	31873804 	addi	r6,r6,7392
 402208c:	100b883a 	mov	r5,r2
 4022090:	1809883a 	mov	r4,r3
 4022094:	4022e0c0 	call	4022e0c <alt_ic_isr_register>
    #else
        alt_irq_register(dev->mailbox_irq, dev, altera_avalon_mailbox_simple_tx_isr);
    #endif
    }
  
    if (dev->mbox_type == MBOX_RX)
 4022098:	e0bffb17 	ldw	r2,-20(fp)
 402209c:	10800f17 	ldw	r2,60(r2)
 40220a0:	10800058 	cmpnei	r2,r2,1
 40220a4:	1000171e 	bne	r2,zero,4022104 <altera_avalon_mailbox_open+0x1cc>
    {
    #ifdef ALT_ENHANCED_INTERRUPT_API_PRESENT
        alt_ic_isr_register(dev->mailbox_intr_ctrl_id, dev->mailbox_irq, altera_avalon_mailbox_simple_rx_isr,
 40220a8:	e0bffb17 	ldw	r2,-20(fp)
 40220ac:	10c00c17 	ldw	r3,48(r2)
 40220b0:	e0bffb17 	ldw	r2,-20(fp)
 40220b4:	10800b17 	ldw	r2,44(r2)
 40220b8:	d8000015 	stw	zero,0(sp)
 40220bc:	e1fffb17 	ldw	r7,-20(fp)
 40220c0:	018100b4 	movhi	r6,1026
 40220c4:	31878604 	addi	r6,r6,7704
 40220c8:	100b883a 	mov	r5,r2
 40220cc:	1809883a 	mov	r4,r3
 40220d0:	4022e0c0 	call	4022e0c <alt_ic_isr_register>
                            dev, NULL);
    #else
        alt_irq_register(dev->mailbox_irq, dev, altera_avalon_mailbox_simple_rx_isr);
    #endif
        /* Enable Receiver interrupt to listen mode */
        data = IORD(dev->base, ALTERA_AVALON_MAILBOX_SIMPLE_INTR_OFST) |
 40220d4:	e0bffb17 	ldw	r2,-20(fp)
 40220d8:	10800a17 	ldw	r2,40(r2)
 40220dc:	10800304 	addi	r2,r2,12
 40220e0:	10800037 	ldwio	r2,0(r2)
 40220e4:	10800054 	ori	r2,r2,1
 40220e8:	e0bffc15 	stw	r2,-16(fp)
  	             (ALTERA_AVALON_MAILBOX_SIMPLE_INTR_PEN_MSK);
        IOWR(dev->base, ALTERA_AVALON_MAILBOX_SIMPLE_INTR_OFST, data);
 40220ec:	e0bffb17 	ldw	r2,-20(fp)
 40220f0:	10800a17 	ldw	r2,40(r2)
 40220f4:	10800304 	addi	r2,r2,12
 40220f8:	1007883a 	mov	r3,r2
 40220fc:	e0bffc17 	ldw	r2,-16(fp)
 4022100:	18800035 	stwio	r2,0(r3)
    }
    return dev;
 4022104:	e0bffb17 	ldw	r2,-20(fp)
}
 4022108:	e037883a 	mov	sp,fp
 402210c:	dfc00117 	ldw	ra,4(sp)
 4022110:	df000017 	ldw	fp,0(sp)
 4022114:	dec00204 	addi	sp,sp,8
 4022118:	f800283a 	ret

0402211c <altera_avalon_mailbox_close>:
/*
 * altera_avalon_mailbox_close
 * Disable mailbox interrupt and irq
 */
void altera_avalon_mailbox_close (altera_avalon_mailbox_dev *dev)
{
 402211c:	defffb04 	addi	sp,sp,-20
 4022120:	dfc00415 	stw	ra,16(sp)
 4022124:	df000315 	stw	fp,12(sp)
 4022128:	df000304 	addi	fp,sp,12
 402212c:	e13fff15 	stw	r4,-4(fp)
    alt_u32 data;
    if ((dev != NULL) && (dev->mailbox_irq != ALT_IRQ_NOT_CONNECTED))
 4022130:	e0bfff17 	ldw	r2,-4(fp)
 4022134:	10003926 	beq	r2,zero,402221c <altera_avalon_mailbox_close+0x100>
 4022138:	e0bfff17 	ldw	r2,-4(fp)
 402213c:	10800b17 	ldw	r2,44(r2)
 4022140:	10bfffe0 	cmpeqi	r2,r2,-1
 4022144:	1000351e 	bne	r2,zero,402221c <altera_avalon_mailbox_close+0x100>
    {
        /* Mask interrupt */
        if (dev->mbox_type == MBOX_TX)
 4022148:	e0bfff17 	ldw	r2,-4(fp)
 402214c:	10800f17 	ldw	r2,60(r2)
 4022150:	10000e1e 	bne	r2,zero,402218c <altera_avalon_mailbox_close+0x70>
        {
            data = IORD(dev->base, ALTERA_AVALON_MAILBOX_SIMPLE_INTR_OFST) &
 4022154:	e0bfff17 	ldw	r2,-4(fp)
 4022158:	10800a17 	ldw	r2,40(r2)
 402215c:	10800304 	addi	r2,r2,12
 4022160:	10800037 	ldwio	r2,0(r2)
 4022164:	1007883a 	mov	r3,r2
 4022168:	00bfff44 	movi	r2,-3
 402216c:	1884703a 	and	r2,r3,r2
 4022170:	e0bffe15 	stw	r2,-8(fp)
                       (~ALTERA_AVALON_MAILBOX_SIMPLE_INTR_SPACE_MSK);
            IOWR(dev->base, ALTERA_AVALON_MAILBOX_SIMPLE_INTR_OFST, data);
 4022174:	e0bfff17 	ldw	r2,-4(fp)
 4022178:	10800a17 	ldw	r2,40(r2)
 402217c:	10800304 	addi	r2,r2,12
 4022180:	1007883a 	mov	r3,r2
 4022184:	e0bffe17 	ldw	r2,-8(fp)
 4022188:	18800035 	stwio	r2,0(r3)
        }
        if (dev->mbox_type == MBOX_RX)
 402218c:	e0bfff17 	ldw	r2,-4(fp)
 4022190:	10800f17 	ldw	r2,60(r2)
 4022194:	10800058 	cmpnei	r2,r2,1
 4022198:	10000e1e 	bne	r2,zero,40221d4 <altera_avalon_mailbox_close+0xb8>
        {
            data = IORD(dev->base, ALTERA_AVALON_MAILBOX_SIMPLE_INTR_OFST) &
 402219c:	e0bfff17 	ldw	r2,-4(fp)
 40221a0:	10800a17 	ldw	r2,40(r2)
 40221a4:	10800304 	addi	r2,r2,12
 40221a8:	10800037 	ldwio	r2,0(r2)
 40221ac:	1007883a 	mov	r3,r2
 40221b0:	00bfff84 	movi	r2,-2
 40221b4:	1884703a 	and	r2,r3,r2
 40221b8:	e0bffe15 	stw	r2,-8(fp)
                       (~ALTERA_AVALON_MAILBOX_SIMPLE_INTR_PEN_MSK);
            IOWR(dev->base, ALTERA_AVALON_MAILBOX_SIMPLE_INTR_OFST, data);
 40221bc:	e0bfff17 	ldw	r2,-4(fp)
 40221c0:	10800a17 	ldw	r2,40(r2)
 40221c4:	10800304 	addi	r2,r2,12
 40221c8:	1007883a 	mov	r3,r2
 40221cc:	e0bffe17 	ldw	r2,-8(fp)
 40221d0:	18800035 	stwio	r2,0(r3)
        }
  
        /* De-register mailbox irq) */
        if (dev->mailbox_irq != ALT_IRQ_NOT_CONNECTED)
 40221d4:	e0bfff17 	ldw	r2,-4(fp)
 40221d8:	10800b17 	ldw	r2,44(r2)
 40221dc:	10bfffe0 	cmpeqi	r2,r2,-1
 40221e0:	10000a1e 	bne	r2,zero,402220c <altera_avalon_mailbox_close+0xf0>
        {
        #ifdef ALT_ENHANCED_INTERRUPT_API_PRESENT
            alt_ic_isr_register(dev->mailbox_intr_ctrl_id, dev->mailbox_irq, NULL,
 40221e4:	e0bfff17 	ldw	r2,-4(fp)
 40221e8:	10c00c17 	ldw	r3,48(r2)
 40221ec:	e0bfff17 	ldw	r2,-4(fp)
 40221f0:	10800b17 	ldw	r2,44(r2)
 40221f4:	d8000015 	stw	zero,0(sp)
 40221f8:	e1ffff17 	ldw	r7,-4(fp)
 40221fc:	000d883a 	mov	r6,zero
 4022200:	100b883a 	mov	r5,r2
 4022204:	1809883a 	mov	r4,r3
 4022208:	4022e0c0 	call	4022e0c <alt_ic_isr_register>
        #else
            alt_irq_register(dev->mailbox_irq, dev, NULL);
        #endif
        }
        /* De-registering callback to mailbox */
        dev->tx_cb  = NULL;
 402220c:	e0bfff17 	ldw	r2,-4(fp)
 4022210:	10000d15 	stw	zero,52(r2)
        dev->rx_cb  = NULL;
 4022214:	e0bfff17 	ldw	r2,-4(fp)
 4022218:	10000e15 	stw	zero,56(r2)
    }
}
 402221c:	0001883a 	nop
 4022220:	e037883a 	mov	sp,fp
 4022224:	dfc00117 	ldw	ra,4(sp)
 4022228:	df000017 	ldw	fp,0(sp)
 402222c:	dec00204 	addi	sp,sp,8
 4022230:	f800283a 	ret

04022234 <altera_avalon_mailbox_status>:
 *   Return 0 when mailbox is empty or no pending message
 *   Return 1 when mailbox space is full or there is a message pending
 */

alt_u32 altera_avalon_mailbox_status (altera_avalon_mailbox_dev *dev)
{
 4022234:	defffd04 	addi	sp,sp,-12
 4022238:	df000215 	stw	fp,8(sp)
 402223c:	df000204 	addi	fp,sp,8
 4022240:	e13fff15 	stw	r4,-4(fp)
    alt_u32 mailbox_sts = 0;
 4022244:	e03ffe15 	stw	zero,-8(fp)

    mailbox_sts = (IORD(dev->base, ALTERA_AVALON_MAILBOX_SIMPLE_STS_OFST) & ALTERA_AVALON_MAILBOX_SIMPLE_STS_MSK);
 4022248:	e0bfff17 	ldw	r2,-4(fp)
 402224c:	10800a17 	ldw	r2,40(r2)
 4022250:	10800204 	addi	r2,r2,8
 4022254:	10800037 	ldwio	r2,0(r2)
 4022258:	108000cc 	andi	r2,r2,3
 402225c:	e0bffe15 	stw	r2,-8(fp)

    if (dev->mbox_type == MBOX_TX)
 4022260:	e0bfff17 	ldw	r2,-4(fp)
 4022264:	10800f17 	ldw	r2,60(r2)
 4022268:	1000041e 	bne	r2,zero,402227c <altera_avalon_mailbox_status+0x48>
        mailbox_sts = (mailbox_sts & ALTERA_AVALON_MAILBOX_SIMPLE_STS_FULL_MSK) >> 1;
 402226c:	e0bffe17 	ldw	r2,-8(fp)
 4022270:	1080008c 	andi	r2,r2,2
 4022274:	1004d07a 	srli	r2,r2,1
 4022278:	e0bffe15 	stw	r2,-8(fp)

    if (dev->mbox_type == MBOX_RX)
 402227c:	e0bfff17 	ldw	r2,-4(fp)
 4022280:	10800f17 	ldw	r2,60(r2)
 4022284:	10800058 	cmpnei	r2,r2,1
 4022288:	1000031e 	bne	r2,zero,4022298 <altera_avalon_mailbox_status+0x64>
        mailbox_sts = mailbox_sts & ALTERA_AVALON_MAILBOX_SIMPLE_STS_PENDING_MSK;
 402228c:	e0bffe17 	ldw	r2,-8(fp)
 4022290:	1080004c 	andi	r2,r2,1
 4022294:	e0bffe15 	stw	r2,-8(fp)

    return mailbox_sts;
 4022298:	e0bffe17 	ldw	r2,-8(fp)
}
 402229c:	e037883a 	mov	sp,fp
 40222a0:	df000017 	ldw	fp,0(sp)
 40222a4:	dec00104 	addi	sp,sp,4
 40222a8:	f800283a 	ret

040222ac <altera_avalon_mailbox_send>:
 * For polling mode, '0' timeout value for infinite polling
 * otherwise timeout when expired
 */
int altera_avalon_mailbox_send
(altera_avalon_mailbox_dev *dev, void *message, int timeout, EventType event)
{
 40222ac:	defff704 	addi	sp,sp,-36
 40222b0:	dfc00815 	stw	ra,32(sp)
 40222b4:	df000715 	stw	fp,28(sp)
 40222b8:	df000704 	addi	fp,sp,28
 40222bc:	e13ffc15 	stw	r4,-16(fp)
 40222c0:	e17ffd15 	stw	r5,-12(fp)
 40222c4:	e1bffe15 	stw	r6,-8(fp)
 40222c8:	e1ffff15 	stw	r7,-4(fp)
    int status = 0;
 40222cc:	e03ff915 	stw	zero,-28(fp)
     * Obtain the "write_lock"semaphore to ensures 
     * that writing to the device is thread-safe in multi-thread enviroment
     */
    ALT_SEM_PEND (dev->write_lock, 0);

    if (dev->lock || (IORD_ALTERA_AVALON_MAILBOX_STS(dev->base)
 40222d0:	e0bffc17 	ldw	r2,-16(fp)
 40222d4:	10801103 	ldbu	r2,68(r2)
 40222d8:	10803fcc 	andi	r2,r2,255
 40222dc:	1000061e 	bne	r2,zero,40222f8 <altera_avalon_mailbox_send+0x4c>
 40222e0:	e0bffc17 	ldw	r2,-16(fp)
 40222e4:	10800a17 	ldw	r2,40(r2)
 40222e8:	10800204 	addi	r2,r2,8
 40222ec:	10800037 	ldwio	r2,0(r2)
    		          & ALTERA_AVALON_MAILBOX_SIMPLE_STS_FULL_MSK))
 40222f0:	1080008c 	andi	r2,r2,2
     * Obtain the "write_lock"semaphore to ensures 
     * that writing to the device is thread-safe in multi-thread enviroment
     */
    ALT_SEM_PEND (dev->write_lock, 0);

    if (dev->lock || (IORD_ALTERA_AVALON_MAILBOX_STS(dev->base)
 40222f4:	10000226 	beq	r2,zero,4022300 <altera_avalon_mailbox_send+0x54>
    		          & ALTERA_AVALON_MAILBOX_SIMPLE_STS_FULL_MSK))
    {
    	/* dev is lock or no free space to send */
    	return -1;
 40222f8:	00bfffc4 	movi	r2,-1
 40222fc:	00003a06 	br	40223e8 <altera_avalon_mailbox_send+0x13c>
    }
    else
    {
        dev->mbox_msg = message;
 4022300:	e0bffc17 	ldw	r2,-16(fp)
 4022304:	e0fffd17 	ldw	r3,-12(fp)
 4022308:	10c01015 	stw	r3,64(r2)
        dev->lock = 1;
 402230c:	e0bffc17 	ldw	r2,-16(fp)
 4022310:	00c00044 	movi	r3,1
 4022314:	10c01105 	stb	r3,68(r2)
     */
    ALT_SEM_POST (dev->write_lock);



    if ((dev->mailbox_irq == ALT_IRQ_NOT_CONNECTED) || (event==POLL))
 4022318:	e0bffc17 	ldw	r2,-16(fp)
 402231c:	10800b17 	ldw	r2,44(r2)
 4022320:	10bfffe0 	cmpeqi	r2,r2,-1
 4022324:	1000031e 	bne	r2,zero,4022334 <altera_avalon_mailbox_send+0x88>
 4022328:	e0bfff17 	ldw	r2,-4(fp)
 402232c:	10800058 	cmpnei	r2,r2,1
 4022330:	1000201e 	bne	r2,zero,40223b4 <altera_avalon_mailbox_send+0x108>
    {
        /* Polling mode */
        if (timeout ==0)
 4022334:	e0bffe17 	ldw	r2,-8(fp)
 4022338:	1000061e 	bne	r2,zero,4022354 <altera_avalon_mailbox_send+0xa8>
        {
            do
            {
                mbox_status = altera_avalon_mailbox_status(dev);
 402233c:	e13ffc17 	ldw	r4,-16(fp)
 4022340:	40222340 	call	4022234 <altera_avalon_mailbox_status>
 4022344:	e0bffb15 	stw	r2,-20(fp)
            } while (mbox_status);
 4022348:	e0bffb17 	ldw	r2,-20(fp)
 402234c:	103ffb1e 	bne	r2,zero,402233c <__alt_data_end+0xfffe233c>
 4022350:	00000e06 	br	402238c <altera_avalon_mailbox_send+0xe0>
        } else
        {
            do
            {
                mbox_status = altera_avalon_mailbox_status(dev);
 4022354:	e13ffc17 	ldw	r4,-16(fp)
 4022358:	40222340 	call	4022234 <altera_avalon_mailbox_status>
 402235c:	e0bffb15 	stw	r2,-20(fp)
                timeout--;
 4022360:	e0bffe17 	ldw	r2,-8(fp)
 4022364:	10bfffc4 	addi	r2,r2,-1
 4022368:	e0bffe15 	stw	r2,-8(fp)
            } while (mbox_status && (timeout != 0));
 402236c:	e0bffb17 	ldw	r2,-20(fp)
 4022370:	10000226 	beq	r2,zero,402237c <altera_avalon_mailbox_send+0xd0>
 4022374:	e0bffe17 	ldw	r2,-8(fp)
 4022378:	103ff61e 	bne	r2,zero,4022354 <__alt_data_end+0xfffe2354>
            if (timeout == 0)
 402237c:	e0bffe17 	ldw	r2,-8(fp)
 4022380:	1000021e 	bne	r2,zero,402238c <altera_avalon_mailbox_send+0xe0>
            {    /* Timeout occur or fail sending */
                return -ETIME;
 4022384:	00bff084 	movi	r2,-62
 4022388:	00001706 	br	40223e8 <altera_avalon_mailbox_send+0x13c>
            }
        }
        status = altera_avalon_mailbox_post (dev, message);
 402238c:	e17ffd17 	ldw	r5,-12(fp)
 4022390:	e13ffc17 	ldw	r4,-16(fp)
 4022394:	4021c680 	call	4021c68 <altera_avalon_mailbox_post>
 4022398:	e0bff915 	stw	r2,-28(fp)
        /* Clear mailbox message to NULL after message being posted */
        dev->mbox_msg = NULL;
 402239c:	e0bffc17 	ldw	r2,-16(fp)
 40223a0:	10001015 	stw	zero,64(r2)
        /* Release lock when message posted */
        dev->lock =0;
 40223a4:	e0bffc17 	ldw	r2,-16(fp)
 40223a8:	10001105 	stb	zero,68(r2)
        return status;
 40223ac:	e0bff917 	ldw	r2,-28(fp)
 40223b0:	00000d06 	br	40223e8 <altera_avalon_mailbox_send+0x13c>
    } else
    {
        /* Enable Sender interrupt */
        data = IORD(dev->base, ALTERA_AVALON_MAILBOX_SIMPLE_INTR_OFST) |
 40223b4:	e0bffc17 	ldw	r2,-16(fp)
 40223b8:	10800a17 	ldw	r2,40(r2)
 40223bc:	10800304 	addi	r2,r2,12
 40223c0:	10800037 	ldwio	r2,0(r2)
 40223c4:	10800094 	ori	r2,r2,2
 40223c8:	e0bffa15 	stw	r2,-24(fp)
                   (ALTERA_AVALON_MAILBOX_SIMPLE_INTR_SPACE_MSK);
        IOWR(dev->base, ALTERA_AVALON_MAILBOX_SIMPLE_INTR_OFST, data);
 40223cc:	e0bffc17 	ldw	r2,-16(fp)
 40223d0:	10800a17 	ldw	r2,40(r2)
 40223d4:	10800304 	addi	r2,r2,12
 40223d8:	1007883a 	mov	r3,r2
 40223dc:	e0bffa17 	ldw	r2,-24(fp)
 40223e0:	18800035 	stwio	r2,0(r3)
    }
  return 0;
 40223e4:	0005883a 	mov	r2,zero
}
 40223e8:	e037883a 	mov	sp,fp
 40223ec:	dfc00117 	ldw	ra,4(sp)
 40223f0:	df000017 	ldw	fp,0(sp)
 40223f4:	dec00204 	addi	sp,sp,8
 40223f8:	f800283a 	ret

040223fc <altera_avalon_mailbox_retrieve_poll>:
 * If a message is available in the mailbox return it otherwise return NULL
 * This function is blocking
 *
 */
int altera_avalon_mailbox_retrieve_poll (altera_avalon_mailbox_dev *dev, alt_u32 *message, alt_u32 timeout)
{
 40223fc:	defff904 	addi	sp,sp,-28
 4022400:	dfc00615 	stw	ra,24(sp)
 4022404:	df000515 	stw	fp,20(sp)
 4022408:	df000504 	addi	fp,sp,20
 402240c:	e13ffd15 	stw	r4,-12(fp)
 4022410:	e17ffe15 	stw	r5,-8(fp)
 4022414:	e1bfff15 	stw	r6,-4(fp)
    alt_u32 status = 0;
 4022418:	e03ffb15 	stw	zero,-20(fp)
    alt_u32 data;

    if (dev != NULL && message != NULL)
 402241c:	e0bffd17 	ldw	r2,-12(fp)
 4022420:	10003a26 	beq	r2,zero,402250c <altera_avalon_mailbox_retrieve_poll+0x110>
 4022424:	e0bffe17 	ldw	r2,-8(fp)
 4022428:	10003826 	beq	r2,zero,402250c <altera_avalon_mailbox_retrieve_poll+0x110>
    {
        /* Mask receiver mailbox interrupt when in polling mode */
        data = IORD(dev->base, ALTERA_AVALON_MAILBOX_SIMPLE_INTR_OFST);
 402242c:	e0bffd17 	ldw	r2,-12(fp)
 4022430:	10800a17 	ldw	r2,40(r2)
 4022434:	10800304 	addi	r2,r2,12
 4022438:	10800037 	ldwio	r2,0(r2)
 402243c:	e0bffc15 	stw	r2,-16(fp)
        IOWR(dev->base, ALTERA_AVALON_MAILBOX_SIMPLE_INTR_OFST,
 4022440:	e0bffd17 	ldw	r2,-12(fp)
 4022444:	10800a17 	ldw	r2,40(r2)
 4022448:	10800304 	addi	r2,r2,12
 402244c:	1009883a 	mov	r4,r2
 4022450:	e0fffc17 	ldw	r3,-16(fp)
 4022454:	00bfff84 	movi	r2,-2
 4022458:	1884703a 	and	r2,r3,r2
 402245c:	20800035 	stwio	r2,0(r4)
            (data & (~ALTERA_AVALON_MAILBOX_SIMPLE_INTR_PEN_MSK)));


        /* If timeout is '0', poll till message availabe in mailbox */
        if (timeout == 0)
 4022460:	e0bfff17 	ldw	r2,-4(fp)
 4022464:	1000061e 	bne	r2,zero,4022480 <altera_avalon_mailbox_retrieve_poll+0x84>
        {
            do
            {
                status = altera_avalon_mailbox_status (dev);
 4022468:	e13ffd17 	ldw	r4,-12(fp)
 402246c:	40222340 	call	4022234 <altera_avalon_mailbox_status>
 4022470:	e0bffb15 	stw	r2,-20(fp)
            } while (status == 0);
 4022474:	e0bffb17 	ldw	r2,-20(fp)
 4022478:	103ffb26 	beq	r2,zero,4022468 <__alt_data_end+0xfffe2468>
 402247c:	00000a06 	br	40224a8 <altera_avalon_mailbox_retrieve_poll+0xac>
        } else
        {
            do
            {
                 status = altera_avalon_mailbox_status (dev);
 4022480:	e13ffd17 	ldw	r4,-12(fp)
 4022484:	40222340 	call	4022234 <altera_avalon_mailbox_status>
 4022488:	e0bffb15 	stw	r2,-20(fp)
                 timeout-- ;
 402248c:	e0bfff17 	ldw	r2,-4(fp)
 4022490:	10bfffc4 	addi	r2,r2,-1
 4022494:	e0bfff15 	stw	r2,-4(fp)
            } while ((status == 0) && timeout);
 4022498:	e0bffb17 	ldw	r2,-20(fp)
 402249c:	1000021e 	bne	r2,zero,40224a8 <altera_avalon_mailbox_retrieve_poll+0xac>
 40224a0:	e0bfff17 	ldw	r2,-4(fp)
 40224a4:	103ff61e 	bne	r2,zero,4022480 <__alt_data_end+0xfffe2480>
        }

        /* if timeout, status remain 0 */
        if (status)
 40224a8:	e0bffb17 	ldw	r2,-20(fp)
 40224ac:	10000d26 	beq	r2,zero,40224e4 <altera_avalon_mailbox_retrieve_poll+0xe8>
        {
            message[1] = (IORD(dev->base, ALTERA_AVALON_MAILBOX_SIMPLE_PTR_OFST));
 40224b0:	e0bffe17 	ldw	r2,-8(fp)
 40224b4:	10800104 	addi	r2,r2,4
 40224b8:	e0fffd17 	ldw	r3,-12(fp)
 40224bc:	18c00a17 	ldw	r3,40(r3)
 40224c0:	18c00104 	addi	r3,r3,4
 40224c4:	18c00037 	ldwio	r3,0(r3)
 40224c8:	10c00015 	stw	r3,0(r2)
            message[0] = (IORD(dev->base, ALTERA_AVALON_MAILBOX_SIMPLE_CMD_OFST));
 40224cc:	e0bffd17 	ldw	r2,-12(fp)
 40224d0:	10800a17 	ldw	r2,40(r2)
 40224d4:	10800037 	ldwio	r2,0(r2)
 40224d8:	1007883a 	mov	r3,r2
 40224dc:	e0bffe17 	ldw	r2,-8(fp)
 40224e0:	10c00015 	stw	r3,0(r2)
        }
        /* Restore original state of interrupt mask */
        IOWR(dev->base, ALTERA_AVALON_MAILBOX_SIMPLE_INTR_OFST, data);
 40224e4:	e0bffd17 	ldw	r2,-12(fp)
 40224e8:	10800a17 	ldw	r2,40(r2)
 40224ec:	10800304 	addi	r2,r2,12
 40224f0:	1007883a 	mov	r3,r2
 40224f4:	e0bffc17 	ldw	r2,-16(fp)
 40224f8:	18800035 	stwio	r2,0(r3)

        /* Return success on complete retrieve message
         * otherwise timeout and exit with error
         */
        if (status)
 40224fc:	e0bffb17 	ldw	r2,-20(fp)
 4022500:	10000226 	beq	r2,zero,402250c <altera_avalon_mailbox_retrieve_poll+0x110>
          return 0;
 4022504:	0005883a 	mov	r2,zero
 4022508:	00000606 	br	4022524 <altera_avalon_mailbox_retrieve_poll+0x128>
      }
      /* Invalid Null dev and message */
      message[1] = 0;
 402250c:	e0bffe17 	ldw	r2,-8(fp)
 4022510:	10800104 	addi	r2,r2,4
 4022514:	10000015 	stw	zero,0(r2)
      message[0] = 0;
 4022518:	e0bffe17 	ldw	r2,-8(fp)
 402251c:	10000015 	stw	zero,0(r2)
      return -EINVAL;
 4022520:	00bffa84 	movi	r2,-22
}
 4022524:	e037883a 	mov	sp,fp
 4022528:	dfc00117 	ldw	ra,4(sp)
 402252c:	df000017 	ldw	fp,0(sp)
 4022530:	dec00204 	addi	sp,sp,8
 4022534:	f800283a 	ret

04022538 <perf_get_section_time>:

#include "altera_avalon_performance_counter.h"
#include "system.h"

alt_u64 perf_get_section_time (void* hw_base_address, int which_section)
{
 4022538:	defff904 	addi	sp,sp,-28
 402253c:	df000615 	stw	fp,24(sp)
 4022540:	df000604 	addi	fp,sp,24
 4022544:	e13ffe15 	stw	r4,-8(fp)
 4022548:	e17fff15 	stw	r5,-4(fp)
  alt_u32 lo;
  alt_u32 hi;
  alt_u64 result = 0;
 402254c:	e03ffa15 	stw	zero,-24(fp)
 4022550:	e03ffb15 	stw	zero,-20(fp)

  PERF_STOP_MEASURING(hw_base_address);
 4022554:	000b883a 	mov	r5,zero
 4022558:	e13ffe17 	ldw	r4,-8(fp)
 402255c:	21400035 	stwio	r5,0(r4)
  lo = IORD(hw_base_address, ( which_section*4   ));
 4022560:	e13fff17 	ldw	r4,-4(fp)
 4022564:	2008913a 	slli	r4,r4,4
 4022568:	200b883a 	mov	r5,r4
 402256c:	e13ffe17 	ldw	r4,-8(fp)
 4022570:	2149883a 	add	r4,r4,r5
 4022574:	21000037 	ldwio	r4,0(r4)
 4022578:	e13ffc15 	stw	r4,-16(fp)
  hi = IORD(hw_base_address, ((which_section*4)+1));
 402257c:	e13fff17 	ldw	r4,-4(fp)
 4022580:	2008913a 	slli	r4,r4,4
 4022584:	21000104 	addi	r4,r4,4
 4022588:	200b883a 	mov	r5,r4
 402258c:	e13ffe17 	ldw	r4,-8(fp)
 4022590:	2149883a 	add	r4,r4,r5
 4022594:	21000037 	ldwio	r4,0(r4)
 4022598:	e13ffd15 	stw	r4,-12(fp)

  result = ((alt_u64)(((alt_u64) hi) << ((alt_u64)32))) | 
 402259c:	e13ffd17 	ldw	r4,-12(fp)
 40225a0:	2011883a 	mov	r8,r4
 40225a4:	0013883a 	mov	r9,zero
 40225a8:	4006983a 	sll	r3,r8,zero
 40225ac:	0005883a 	mov	r2,zero
           ((alt_u64)(((alt_u64) lo)                 ))  ;
 40225b0:	e13ffc17 	ldw	r4,-16(fp)
 40225b4:	200d883a 	mov	r6,r4
 40225b8:	000f883a 	mov	r7,zero

  PERF_STOP_MEASURING(hw_base_address);
  lo = IORD(hw_base_address, ( which_section*4   ));
  hi = IORD(hw_base_address, ((which_section*4)+1));

  result = ((alt_u64)(((alt_u64) hi) << ((alt_u64)32))) | 
 40225bc:	1188b03a 	or	r4,r2,r6
 40225c0:	e13ffa15 	stw	r4,-24(fp)
 40225c4:	19c4b03a 	or	r2,r3,r7
 40225c8:	e0bffb15 	stw	r2,-20(fp)
           ((alt_u64)(((alt_u64) lo)                 ))  ;
  return result;
 40225cc:	e0bffa17 	ldw	r2,-24(fp)
 40225d0:	e0fffb17 	ldw	r3,-20(fp)
 40225d4:	1009883a 	mov	r4,r2
 40225d8:	180b883a 	mov	r5,r3
}
 40225dc:	2005883a 	mov	r2,r4
 40225e0:	2807883a 	mov	r3,r5
 40225e4:	e037883a 	mov	sp,fp
 40225e8:	df000017 	ldw	fp,0(sp)
 40225ec:	dec00104 	addi	sp,sp,4
 40225f0:	f800283a 	ret

040225f4 <perf_get_total_time>:

alt_u64 perf_get_total_time   (void* hw_base_address)
{
 40225f4:	defffd04 	addi	sp,sp,-12
 40225f8:	dfc00215 	stw	ra,8(sp)
 40225fc:	df000115 	stw	fp,4(sp)
 4022600:	df000104 	addi	fp,sp,4
 4022604:	e13fff15 	stw	r4,-4(fp)
  return perf_get_section_time (hw_base_address, 0);
 4022608:	000b883a 	mov	r5,zero
 402260c:	e13fff17 	ldw	r4,-4(fp)
 4022610:	40225380 	call	4022538 <perf_get_section_time>
 4022614:	100b883a 	mov	r5,r2
 4022618:	180d883a 	mov	r6,r3
 402261c:	2807883a 	mov	r3,r5
 4022620:	3009883a 	mov	r4,r6
}
 4022624:	1805883a 	mov	r2,r3
 4022628:	2007883a 	mov	r3,r4
 402262c:	e037883a 	mov	sp,fp
 4022630:	dfc00117 	ldw	ra,4(sp)
 4022634:	df000017 	ldw	fp,0(sp)
 4022638:	dec00204 	addi	sp,sp,8
 402263c:	f800283a 	ret

04022640 <perf_get_num_starts>:

alt_u32 perf_get_num_starts   (void* hw_base_address, int which_section)
{
 4022640:	defffd04 	addi	sp,sp,-12
 4022644:	df000215 	stw	fp,8(sp)
 4022648:	df000204 	addi	fp,sp,8
 402264c:	e13ffe15 	stw	r4,-8(fp)
 4022650:	e17fff15 	stw	r5,-4(fp)
  return IORD(hw_base_address, ((which_section*4)+2));
 4022654:	e0bfff17 	ldw	r2,-4(fp)
 4022658:	1004913a 	slli	r2,r2,4
 402265c:	10800204 	addi	r2,r2,8
 4022660:	1007883a 	mov	r3,r2
 4022664:	e0bffe17 	ldw	r2,-8(fp)
 4022668:	10c5883a 	add	r2,r2,r3
 402266c:	10800037 	ldwio	r2,0(r2)
}
 4022670:	e037883a 	mov	sp,fp
 4022674:	df000017 	ldw	fp,0(sp)
 4022678:	dec00104 	addi	sp,sp,4
 402267c:	f800283a 	ret

04022680 <alt_get_performance_counter_base>:
 * in Nios II IDE just like is done for the system clock timer and
 * timestamp timer.
 */
void* 
alt_get_performance_counter_base()
{
 4022680:	deffff04 	addi	sp,sp,-4
 4022684:	df000015 	stw	fp,0(sp)
 4022688:	d839883a 	mov	fp,sp
#ifdef PERFORMANCE_COUNTER_0_BASE
    return (void*)PERFORMANCE_COUNTER_0_BASE;
#else
    return (void*)0;
 402268c:	0005883a 	mov	r2,zero
#endif
}
 4022690:	e037883a 	mov	sp,fp
 4022694:	df000017 	ldw	fp,0(sp)
 4022698:	dec00104 	addi	sp,sp,4
 402269c:	f800283a 	ret

040226a0 <alt_get_cpu_freq>:
 * If the performance counter peripheral is in a different time domain,
 * this won't necessarily be the same frequency of the CPU.
 */
alt_u32 
alt_get_cpu_freq()
{
 40226a0:	deffff04 	addi	sp,sp,-4
 40226a4:	df000015 	stw	fp,0(sp)
 40226a8:	d839883a 	mov	fp,sp
    return ALT_CPU_FREQ;
 40226ac:	0080bef4 	movhi	r2,763
 40226b0:	10bc2004 	addi	r2,r2,-3968
}
 40226b4:	e037883a 	mov	sp,fp
 40226b8:	df000017 	ldw	fp,0(sp)
 40226bc:	dec00104 	addi	sp,sp,4
 40226c0:	f800283a 	ret

040226c4 <perf_print_formatted_report>:

#ifndef SMALL_C_LIB 
int perf_print_formatted_report (void* perf_base, 
                                 alt_u32 clock_freq_hertz,
                                 int num_sections, ...)
{
 40226c4:	deffe504 	addi	sp,sp,-108
 40226c8:	dfc01915 	stw	ra,100(sp)
 40226cc:	df001815 	stw	fp,96(sp)
 40226d0:	dcc01715 	stw	r19,92(sp)
 40226d4:	dc801615 	stw	r18,88(sp)
 40226d8:	dc401515 	stw	r17,84(sp)
 40226dc:	dc001415 	stw	r16,80(sp)
 40226e0:	df001804 	addi	fp,sp,96
 40226e4:	e13ff915 	stw	r4,-28(fp)
 40226e8:	e17ffa15 	stw	r5,-24(fp)
 40226ec:	e1bffb15 	stw	r6,-20(fp)
 40226f0:	e1c00215 	stw	r7,8(fp)
  va_list name_args;
  double total_sec;
  alt_u64 total_clocks;
  alt_u64 section_clocks;
  char* section_name;
  int section_num = 1;
 40226f4:	00800044 	movi	r2,1
 40226f8:	e0bfef15 	stw	r2,-68(fp)

  const char* separator = 
 40226fc:	008100f4 	movhi	r2,1027
 4022700:	10846d04 	addi	r2,r2,4532
 4022704:	e0bff015 	stw	r2,-64(fp)
    "+---------------+-----+-----------+---------------+-----------+\n";
  const char* column_header = 
 4022708:	008100f4 	movhi	r2,1027
 402270c:	10847e04 	addi	r2,r2,4600
 4022710:	e0bff115 	stw	r2,-60(fp)
    "| Section       |  %  | Time (sec)|  Time (clocks)|Occurrences|\n";

  PERF_STOP_MEASURING (perf_base);
 4022714:	0007883a 	mov	r3,zero
 4022718:	e0bff917 	ldw	r2,-28(fp)
 402271c:	10c00035 	stwio	r3,0(r2)

  va_start (name_args, num_sections);
 4022720:	e0800204 	addi	r2,fp,8
 4022724:	e0bff815 	stw	r2,-32(fp)

  total_clocks = perf_get_total_time (perf_base);
 4022728:	e13ff917 	ldw	r4,-28(fp)
 402272c:	40225f40 	call	40225f4 <perf_get_total_time>
 4022730:	e0bff215 	stw	r2,-56(fp)
 4022734:	e0fff315 	stw	r3,-52(fp)
  total_sec    = ((double)total_clocks) / clock_freq_hertz;
 4022738:	e13ff217 	ldw	r4,-56(fp)
 402273c:	e17ff317 	ldw	r5,-52(fp)
 4022740:	402d38c0 	call	402d38c <__floatundidf>
 4022744:	1021883a 	mov	r16,r2
 4022748:	1823883a 	mov	r17,r3
 402274c:	e13ffa17 	ldw	r4,-24(fp)
 4022750:	40305bc0 	call	40305bc <__floatunsidf>
 4022754:	1009883a 	mov	r4,r2
 4022758:	180b883a 	mov	r5,r3
 402275c:	200d883a 	mov	r6,r4
 4022760:	280f883a 	mov	r7,r5
 4022764:	8009883a 	mov	r4,r16
 4022768:	880b883a 	mov	r5,r17
 402276c:	402e90c0 	call	402e90c <__divdf3>
 4022770:	1009883a 	mov	r4,r2
 4022774:	180b883a 	mov	r5,r3
 4022778:	e13ff415 	stw	r4,-48(fp)
 402277c:	e17ff515 	stw	r5,-44(fp)

  // Print the total at the top:
  printf ("--Performance Counter Report--\nTotal Time: %3G seconds  (%lld clock-cycles)\n%s%s%s",
 4022780:	e0bff017 	ldw	r2,-64(fp)
 4022784:	d8800315 	stw	r2,12(sp)
 4022788:	e0bff117 	ldw	r2,-60(fp)
 402278c:	d8800215 	stw	r2,8(sp)
 4022790:	e0bff017 	ldw	r2,-64(fp)
 4022794:	d8800115 	stw	r2,4(sp)
 4022798:	e0bff317 	ldw	r2,-52(fp)
 402279c:	d8800015 	stw	r2,0(sp)
 40227a0:	e1fff217 	ldw	r7,-56(fp)
 40227a4:	e17ff417 	ldw	r5,-48(fp)
 40227a8:	e1bff517 	ldw	r6,-44(fp)
 40227ac:	010100f4 	movhi	r4,1027
 40227b0:	21048f04 	addi	r4,r4,4668
 40227b4:	4023b840 	call	4023b84 <printf>
          total_sec, total_clocks, separator, column_header, separator);

  section_name = va_arg(name_args, char*);
 40227b8:	e0bff817 	ldw	r2,-32(fp)
 40227bc:	10c00104 	addi	r3,r2,4
 40227c0:	e0fff815 	stw	r3,-32(fp)
 40227c4:	10800017 	ldw	r2,0(r2)
 40227c8:	e0bfee15 	stw	r2,-72(fp)

  for (section_num = 1; section_num <= num_sections; section_num++)
 40227cc:	00800044 	movi	r2,1
 40227d0:	e0bfef15 	stw	r2,-68(fp)
 40227d4:	00004e06 	br	4022910 <perf_print_formatted_report+0x24c>
    {
      section_clocks = perf_get_section_time (perf_base, section_num);
 40227d8:	e17fef17 	ldw	r5,-68(fp)
 40227dc:	e13ff917 	ldw	r4,-28(fp)
 40227e0:	40225380 	call	4022538 <perf_get_section_time>
 40227e4:	e0bff615 	stw	r2,-40(fp)
 40227e8:	e0fff715 	stw	r3,-36(fp)

      printf ("|%-15s|%5.3g|%11.5f|%15lld|%11u|\n%s",
              section_name,
              ((((double) section_clocks)) * 100) / total_clocks,
 40227ec:	e13ff617 	ldw	r4,-40(fp)
 40227f0:	e17ff717 	ldw	r5,-36(fp)
 40227f4:	402d38c0 	call	402d38c <__floatundidf>
 40227f8:	1011883a 	mov	r8,r2
 40227fc:	1813883a 	mov	r9,r3
 4022800:	000d883a 	mov	r6,zero
 4022804:	01d01674 	movhi	r7,16473
 4022808:	4009883a 	mov	r4,r8
 402280c:	480b883a 	mov	r5,r9
 4022810:	402f44c0 	call	402f44c <__muldf3>
 4022814:	1009883a 	mov	r4,r2
 4022818:	180b883a 	mov	r5,r3
 402281c:	2021883a 	mov	r16,r4
 4022820:	2823883a 	mov	r17,r5

  for (section_num = 1; section_num <= num_sections; section_num++)
    {
      section_clocks = perf_get_section_time (perf_base, section_num);

      printf ("|%-15s|%5.3g|%11.5f|%15lld|%11u|\n%s",
 4022824:	e13ff217 	ldw	r4,-56(fp)
 4022828:	e17ff317 	ldw	r5,-52(fp)
 402282c:	402d38c0 	call	402d38c <__floatundidf>
 4022830:	1009883a 	mov	r4,r2
 4022834:	180b883a 	mov	r5,r3
 4022838:	200d883a 	mov	r6,r4
 402283c:	280f883a 	mov	r7,r5
 4022840:	8009883a 	mov	r4,r16
 4022844:	880b883a 	mov	r5,r17
 4022848:	402e90c0 	call	402e90c <__divdf3>
 402284c:	1009883a 	mov	r4,r2
 4022850:	180b883a 	mov	r5,r3
 4022854:	2025883a 	mov	r18,r4
 4022858:	2827883a 	mov	r19,r5
              section_name,
              ((((double) section_clocks)) * 100) / total_clocks,
              (((double) section_clocks)) / clock_freq_hertz,
 402285c:	e13ff617 	ldw	r4,-40(fp)
 4022860:	e17ff717 	ldw	r5,-36(fp)
 4022864:	402d38c0 	call	402d38c <__floatundidf>
 4022868:	1021883a 	mov	r16,r2
 402286c:	1823883a 	mov	r17,r3

  for (section_num = 1; section_num <= num_sections; section_num++)
    {
      section_clocks = perf_get_section_time (perf_base, section_num);

      printf ("|%-15s|%5.3g|%11.5f|%15lld|%11u|\n%s",
 4022870:	e13ffa17 	ldw	r4,-24(fp)
 4022874:	40305bc0 	call	40305bc <__floatunsidf>
 4022878:	1009883a 	mov	r4,r2
 402287c:	180b883a 	mov	r5,r3
 4022880:	200d883a 	mov	r6,r4
 4022884:	280f883a 	mov	r7,r5
 4022888:	8009883a 	mov	r4,r16
 402288c:	880b883a 	mov	r5,r17
 4022890:	402e90c0 	call	402e90c <__divdf3>
 4022894:	1009883a 	mov	r4,r2
 4022898:	180b883a 	mov	r5,r3
 402289c:	2021883a 	mov	r16,r4
 40228a0:	2823883a 	mov	r17,r5
              section_name,
              ((((double) section_clocks)) * 100) / total_clocks,
              (((double) section_clocks)) / clock_freq_hertz,
              section_clocks,
              (unsigned int) perf_get_num_starts (perf_base, section_num),
 40228a4:	e17fef17 	ldw	r5,-68(fp)
 40228a8:	e13ff917 	ldw	r4,-28(fp)
 40228ac:	40226400 	call	4022640 <perf_get_num_starts>
 40228b0:	1007883a 	mov	r3,r2

  for (section_num = 1; section_num <= num_sections; section_num++)
    {
      section_clocks = perf_get_section_time (perf_base, section_num);

      printf ("|%-15s|%5.3g|%11.5f|%15lld|%11u|\n%s",
 40228b4:	e0bff017 	ldw	r2,-64(fp)
 40228b8:	d8800515 	stw	r2,20(sp)
 40228bc:	d8c00415 	stw	r3,16(sp)
 40228c0:	e0bff617 	ldw	r2,-40(fp)
 40228c4:	d8800215 	stw	r2,8(sp)
 40228c8:	e0bff717 	ldw	r2,-36(fp)
 40228cc:	d8800315 	stw	r2,12(sp)
 40228d0:	dc000015 	stw	r16,0(sp)
 40228d4:	dc400115 	stw	r17,4(sp)
 40228d8:	900d883a 	mov	r6,r18
 40228dc:	980f883a 	mov	r7,r19
 40228e0:	e17fee17 	ldw	r5,-72(fp)
 40228e4:	010100f4 	movhi	r4,1027
 40228e8:	2104a404 	addi	r4,r4,4752
 40228ec:	4023b840 	call	4023b84 <printf>
              section_clocks,
              (unsigned int) perf_get_num_starts (perf_base, section_num),
              separator
              );

      section_name = va_arg(name_args, char*);
 40228f0:	e0bff817 	ldw	r2,-32(fp)
 40228f4:	10c00104 	addi	r3,r2,4
 40228f8:	e0fff815 	stw	r3,-32(fp)
 40228fc:	10800017 	ldw	r2,0(r2)
 4022900:	e0bfee15 	stw	r2,-72(fp)
  printf ("--Performance Counter Report--\nTotal Time: %3G seconds  (%lld clock-cycles)\n%s%s%s",
          total_sec, total_clocks, separator, column_header, separator);

  section_name = va_arg(name_args, char*);

  for (section_num = 1; section_num <= num_sections; section_num++)
 4022904:	e0bfef17 	ldw	r2,-68(fp)
 4022908:	10800044 	addi	r2,r2,1
 402290c:	e0bfef15 	stw	r2,-68(fp)
 4022910:	e0bfef17 	ldw	r2,-68(fp)
 4022914:	e0fffb17 	ldw	r3,-20(fp)
 4022918:	18bfaf0e 	bge	r3,r2,40227d8 <__alt_data_end+0xfffe27d8>
      section_name = va_arg(name_args, char*);
    }

  va_end (name_args);

  return 0;
 402291c:	0005883a 	mov	r2,zero
}
 4022920:	e6fffc04 	addi	sp,fp,-16
 4022924:	dfc00517 	ldw	ra,20(sp)
 4022928:	df000417 	ldw	fp,16(sp)
 402292c:	dcc00317 	ldw	r19,12(sp)
 4022930:	dc800217 	ldw	r18,8(sp)
 4022934:	dc400117 	ldw	r17,4(sp)
 4022938:	dc000017 	ldw	r16,0(sp)
 402293c:	dec00704 	addi	sp,sp,28
 4022940:	f800283a 	ret

04022944 <alt_alarm_start>:
 */ 

int alt_alarm_start (alt_alarm* alarm, alt_u32 nticks,
                     alt_u32 (*callback) (void* context),
                     void* context)
{
 4022944:	defff504 	addi	sp,sp,-44
 4022948:	df000a15 	stw	fp,40(sp)
 402294c:	df000a04 	addi	fp,sp,40
 4022950:	e13ffc15 	stw	r4,-16(fp)
 4022954:	e17ffd15 	stw	r5,-12(fp)
 4022958:	e1bffe15 	stw	r6,-8(fp)
 402295c:	e1ffff15 	stw	r7,-4(fp)
  alt_irq_context irq_context;
  alt_u32 current_nticks = 0;
 4022960:	e03ff615 	stw	zero,-40(fp)
 4022964:	d0a71217 	ldw	r2,-25528(gp)
  
  if (alt_ticks_per_second ())
 4022968:	10003c26 	beq	r2,zero,4022a5c <alt_alarm_start+0x118>
  {
    if (alarm)
 402296c:	e0bffc17 	ldw	r2,-16(fp)
 4022970:	10003826 	beq	r2,zero,4022a54 <alt_alarm_start+0x110>
    {
      alarm->callback = callback;
 4022974:	e0bffc17 	ldw	r2,-16(fp)
 4022978:	e0fffe17 	ldw	r3,-8(fp)
 402297c:	10c00315 	stw	r3,12(r2)
      alarm->context  = context;
 4022980:	e0bffc17 	ldw	r2,-16(fp)
 4022984:	e0ffff17 	ldw	r3,-4(fp)
 4022988:	10c00515 	stw	r3,20(r2)
static ALT_INLINE alt_irq_context ALT_ALWAYS_INLINE 
       alt_irq_disable_all (void)
{
  alt_irq_context context;

  NIOS2_READ_STATUS (context);
 402298c:	0005303a 	rdctl	r2,status
 4022990:	e0bff915 	stw	r2,-28(fp)

  NIOS2_WRITE_STATUS (context & ~NIOS2_STATUS_PIE_MSK);
 4022994:	e0fff917 	ldw	r3,-28(fp)
 4022998:	00bfff84 	movi	r2,-2
 402299c:	1884703a 	and	r2,r3,r2
 40229a0:	1001703a 	wrctl	status,r2
  
  return context;
 40229a4:	e0bff917 	ldw	r2,-28(fp)
 
      irq_context = alt_irq_disable_all ();
 40229a8:	e0bff815 	stw	r2,-32(fp)
 * alt_nticks() returns the elapsed number of system clock ticks since reset.
 */

static ALT_INLINE alt_u32 ALT_ALWAYS_INLINE alt_nticks (void)
{
  return _alt_nticks;
 40229ac:	d0a71317 	ldw	r2,-25524(gp)
      
      current_nticks = alt_nticks();
 40229b0:	e0bff615 	stw	r2,-40(fp)
      
      alarm->time = nticks + current_nticks + 1; 
 40229b4:	e0fffd17 	ldw	r3,-12(fp)
 40229b8:	e0bff617 	ldw	r2,-40(fp)
 40229bc:	1885883a 	add	r2,r3,r2
 40229c0:	10c00044 	addi	r3,r2,1
 40229c4:	e0bffc17 	ldw	r2,-16(fp)
 40229c8:	10c00215 	stw	r3,8(r2)
      /* 
       * If the desired alarm time causes a roll-over, set the rollover
       * flag. This will prevent the subsequent tick event from causing
       * an alarm too early.
       */
      if(alarm->time < current_nticks)
 40229cc:	e0bffc17 	ldw	r2,-16(fp)
 40229d0:	10c00217 	ldw	r3,8(r2)
 40229d4:	e0bff617 	ldw	r2,-40(fp)
 40229d8:	1880042e 	bgeu	r3,r2,40229ec <alt_alarm_start+0xa8>
      {
        alarm->rollover = 1;
 40229dc:	e0bffc17 	ldw	r2,-16(fp)
 40229e0:	00c00044 	movi	r3,1
 40229e4:	10c00405 	stb	r3,16(r2)
 40229e8:	00000206 	br	40229f4 <alt_alarm_start+0xb0>
      }
      else
      {
        alarm->rollover = 0;
 40229ec:	e0bffc17 	ldw	r2,-16(fp)
 40229f0:	10000405 	stb	zero,16(r2)
      }
    
      alt_llist_insert (&alt_alarm_list, &alarm->llist);
 40229f4:	e0bffc17 	ldw	r2,-16(fp)
 40229f8:	d0e00904 	addi	r3,gp,-32732
 40229fc:	e0fffa15 	stw	r3,-24(fp)
 4022a00:	e0bffb15 	stw	r2,-20(fp)
 */

static ALT_INLINE void ALT_ALWAYS_INLINE alt_llist_insert(alt_llist* list, 
                alt_llist* entry)
{
  entry->previous = list;
 4022a04:	e0bffb17 	ldw	r2,-20(fp)
 4022a08:	e0fffa17 	ldw	r3,-24(fp)
 4022a0c:	10c00115 	stw	r3,4(r2)
  entry->next     = list->next;
 4022a10:	e0bffa17 	ldw	r2,-24(fp)
 4022a14:	10c00017 	ldw	r3,0(r2)
 4022a18:	e0bffb17 	ldw	r2,-20(fp)
 4022a1c:	10c00015 	stw	r3,0(r2)

  list->next->previous = entry;
 4022a20:	e0bffa17 	ldw	r2,-24(fp)
 4022a24:	10800017 	ldw	r2,0(r2)
 4022a28:	e0fffb17 	ldw	r3,-20(fp)
 4022a2c:	10c00115 	stw	r3,4(r2)
  list->next           = entry;
 4022a30:	e0bffa17 	ldw	r2,-24(fp)
 4022a34:	e0fffb17 	ldw	r3,-20(fp)
 4022a38:	10c00015 	stw	r3,0(r2)
 4022a3c:	e0bff817 	ldw	r2,-32(fp)
 4022a40:	e0bff715 	stw	r2,-36(fp)
  status &= ~NIOS2_STATUS_PIE_MSK;
  status |= (context & NIOS2_STATUS_PIE_MSK);
  
  NIOS2_WRITE_STATUS (status);
#else
  NIOS2_WRITE_STATUS (context);
 4022a44:	e0bff717 	ldw	r2,-36(fp)
 4022a48:	1001703a 	wrctl	status,r2
      alt_irq_enable_all (irq_context);

      return 0;
 4022a4c:	0005883a 	mov	r2,zero
 4022a50:	00000306 	br	4022a60 <alt_alarm_start+0x11c>
    }
    else
    {
      return -EINVAL;
 4022a54:	00bffa84 	movi	r2,-22
 4022a58:	00000106 	br	4022a60 <alt_alarm_start+0x11c>
    }
  }
  else
  {
    return -ENOTSUP;
 4022a5c:	00bfde84 	movi	r2,-134
  }
}
 4022a60:	e037883a 	mov	sp,fp
 4022a64:	df000017 	ldw	fp,0(sp)
 4022a68:	dec00104 	addi	sp,sp,4
 4022a6c:	f800283a 	ret

04022a70 <alt_get_errno>:
#undef errno

extern int errno;

static ALT_INLINE int* alt_get_errno(void)
{
 4022a70:	defffe04 	addi	sp,sp,-8
 4022a74:	dfc00115 	stw	ra,4(sp)
 4022a78:	df000015 	stw	fp,0(sp)
 4022a7c:	d839883a 	mov	fp,sp
  return ((alt_errno) ? alt_errno() : &errno);
 4022a80:	d0a00717 	ldw	r2,-32740(gp)
 4022a84:	10000326 	beq	r2,zero,4022a94 <alt_get_errno+0x24>
 4022a88:	d0a00717 	ldw	r2,-32740(gp)
 4022a8c:	103ee83a 	callr	r2
 4022a90:	00000106 	br	4022a98 <alt_get_errno+0x28>
 4022a94:	d0a71504 	addi	r2,gp,-25516
}
 4022a98:	e037883a 	mov	sp,fp
 4022a9c:	dfc00117 	ldw	ra,4(sp)
 4022aa0:	df000017 	ldw	fp,0(sp)
 4022aa4:	dec00204 	addi	sp,sp,8
 4022aa8:	f800283a 	ret

04022aac <close>:
 *
 * ALT_CLOSE is mapped onto the close() system call in alt_syscall.h
 */
 
int ALT_CLOSE (int fildes)
{
 4022aac:	defffb04 	addi	sp,sp,-20
 4022ab0:	dfc00415 	stw	ra,16(sp)
 4022ab4:	df000315 	stw	fp,12(sp)
 4022ab8:	df000304 	addi	fp,sp,12
 4022abc:	e13fff15 	stw	r4,-4(fp)
   * A common error case is that when the file descriptor was created, the call
   * to open() failed resulting in a negative file descriptor. This is trapped
   * below so that we don't try and process an invalid file descriptor.
   */

  fd = (fildes < 0) ? NULL : &alt_fd_list[fildes];
 4022ac0:	e0bfff17 	ldw	r2,-4(fp)
 4022ac4:	10000616 	blt	r2,zero,4022ae0 <close+0x34>
 4022ac8:	e0bfff17 	ldw	r2,-4(fp)
 4022acc:	10c00324 	muli	r3,r2,12
 4022ad0:	008100f4 	movhi	r2,1027
 4022ad4:	1089be04 	addi	r2,r2,9976
 4022ad8:	1885883a 	add	r2,r3,r2
 4022adc:	00000106 	br	4022ae4 <close+0x38>
 4022ae0:	0005883a 	mov	r2,zero
 4022ae4:	e0bffd15 	stw	r2,-12(fp)

  if (fd)
 4022ae8:	e0bffd17 	ldw	r2,-12(fp)
 4022aec:	10001926 	beq	r2,zero,4022b54 <close+0xa8>
    /*
     * If the associated file system/device has a close function, call it so 
     * that any necessary cleanup code can run.
     */

    rval = (fd->dev->close) ? fd->dev->close(fd) : 0;
 4022af0:	e0bffd17 	ldw	r2,-12(fp)
 4022af4:	10800017 	ldw	r2,0(r2)
 4022af8:	10800417 	ldw	r2,16(r2)
 4022afc:	10000626 	beq	r2,zero,4022b18 <close+0x6c>
 4022b00:	e0bffd17 	ldw	r2,-12(fp)
 4022b04:	10800017 	ldw	r2,0(r2)
 4022b08:	10800417 	ldw	r2,16(r2)
 4022b0c:	e13ffd17 	ldw	r4,-12(fp)
 4022b10:	103ee83a 	callr	r2
 4022b14:	00000106 	br	4022b1c <close+0x70>
 4022b18:	0005883a 	mov	r2,zero
 4022b1c:	e0bffe15 	stw	r2,-8(fp)

    /* Free the file descriptor structure and return. */

    alt_release_fd (fildes);
 4022b20:	e13fff17 	ldw	r4,-4(fp)
 4022b24:	40234400 	call	4023440 <alt_release_fd>
    if (rval < 0)
 4022b28:	e0bffe17 	ldw	r2,-8(fp)
 4022b2c:	1000070e 	bge	r2,zero,4022b4c <close+0xa0>
    {
      ALT_ERRNO = -rval;
 4022b30:	4022a700 	call	4022a70 <alt_get_errno>
 4022b34:	1007883a 	mov	r3,r2
 4022b38:	e0bffe17 	ldw	r2,-8(fp)
 4022b3c:	0085c83a 	sub	r2,zero,r2
 4022b40:	18800015 	stw	r2,0(r3)
      return -1;
 4022b44:	00bfffc4 	movi	r2,-1
 4022b48:	00000706 	br	4022b68 <close+0xbc>
    }
    return 0;
 4022b4c:	0005883a 	mov	r2,zero
 4022b50:	00000506 	br	4022b68 <close+0xbc>
  }
  else
  {
    ALT_ERRNO = EBADFD;
 4022b54:	4022a700 	call	4022a70 <alt_get_errno>
 4022b58:	1007883a 	mov	r3,r2
 4022b5c:	00801444 	movi	r2,81
 4022b60:	18800015 	stw	r2,0(r3)
    return -1;
 4022b64:	00bfffc4 	movi	r2,-1
  }
}
 4022b68:	e037883a 	mov	sp,fp
 4022b6c:	dfc00117 	ldw	ra,4(sp)
 4022b70:	df000017 	ldw	fp,0(sp)
 4022b74:	dec00204 	addi	sp,sp,8
 4022b78:	f800283a 	ret

04022b7c <alt_dev_null_write>:
 * by the alt_dev_null device. It simple discards all data passed to it, and
 * indicates that the data has been successfully transmitted.
 */

static int alt_dev_null_write (alt_fd* fd, const char* ptr, int len)
{
 4022b7c:	defffc04 	addi	sp,sp,-16
 4022b80:	df000315 	stw	fp,12(sp)
 4022b84:	df000304 	addi	fp,sp,12
 4022b88:	e13ffd15 	stw	r4,-12(fp)
 4022b8c:	e17ffe15 	stw	r5,-8(fp)
 4022b90:	e1bfff15 	stw	r6,-4(fp)
  return len;
 4022b94:	e0bfff17 	ldw	r2,-4(fp)
}
 4022b98:	e037883a 	mov	sp,fp
 4022b9c:	df000017 	ldw	fp,0(sp)
 4022ba0:	dec00104 	addi	sp,sp,4
 4022ba4:	f800283a 	ret

04022ba8 <alt_get_errno>:
#undef errno

extern int errno;

static ALT_INLINE int* alt_get_errno(void)
{
 4022ba8:	defffe04 	addi	sp,sp,-8
 4022bac:	dfc00115 	stw	ra,4(sp)
 4022bb0:	df000015 	stw	fp,0(sp)
 4022bb4:	d839883a 	mov	fp,sp
  return ((alt_errno) ? alt_errno() : &errno);
 4022bb8:	d0a00717 	ldw	r2,-32740(gp)
 4022bbc:	10000326 	beq	r2,zero,4022bcc <alt_get_errno+0x24>
 4022bc0:	d0a00717 	ldw	r2,-32740(gp)
 4022bc4:	103ee83a 	callr	r2
 4022bc8:	00000106 	br	4022bd0 <alt_get_errno+0x28>
 4022bcc:	d0a71504 	addi	r2,gp,-25516
}
 4022bd0:	e037883a 	mov	sp,fp
 4022bd4:	dfc00117 	ldw	ra,4(sp)
 4022bd8:	df000017 	ldw	fp,0(sp)
 4022bdc:	dec00204 	addi	sp,sp,8
 4022be0:	f800283a 	ret

04022be4 <alt_dev_llist_insert>:
/*
 *
 */

int alt_dev_llist_insert (alt_dev_llist* dev, alt_llist* list)
{
 4022be4:	defffa04 	addi	sp,sp,-24
 4022be8:	dfc00515 	stw	ra,20(sp)
 4022bec:	df000415 	stw	fp,16(sp)
 4022bf0:	df000404 	addi	fp,sp,16
 4022bf4:	e13ffe15 	stw	r4,-8(fp)
 4022bf8:	e17fff15 	stw	r5,-4(fp)
  /*
   * check that the device exists, and that it has a valid name.
   */

  if (!dev || !dev->name)
 4022bfc:	e0bffe17 	ldw	r2,-8(fp)
 4022c00:	10000326 	beq	r2,zero,4022c10 <alt_dev_llist_insert+0x2c>
 4022c04:	e0bffe17 	ldw	r2,-8(fp)
 4022c08:	10800217 	ldw	r2,8(r2)
 4022c0c:	1000061e 	bne	r2,zero,4022c28 <alt_dev_llist_insert+0x44>
  {
    ALT_ERRNO = EINVAL;
 4022c10:	4022ba80 	call	4022ba8 <alt_get_errno>
 4022c14:	1007883a 	mov	r3,r2
 4022c18:	00800584 	movi	r2,22
 4022c1c:	18800015 	stw	r2,0(r3)
    return -EINVAL;
 4022c20:	00bffa84 	movi	r2,-22
 4022c24:	00001306 	br	4022c74 <alt_dev_llist_insert+0x90>
  
  /*
   * register the device.
   */
  
  alt_llist_insert(list, &dev->llist);
 4022c28:	e0bffe17 	ldw	r2,-8(fp)
 4022c2c:	e0ffff17 	ldw	r3,-4(fp)
 4022c30:	e0fffc15 	stw	r3,-16(fp)
 4022c34:	e0bffd15 	stw	r2,-12(fp)
 */

static ALT_INLINE void ALT_ALWAYS_INLINE alt_llist_insert(alt_llist* list, 
                alt_llist* entry)
{
  entry->previous = list;
 4022c38:	e0bffd17 	ldw	r2,-12(fp)
 4022c3c:	e0fffc17 	ldw	r3,-16(fp)
 4022c40:	10c00115 	stw	r3,4(r2)
  entry->next     = list->next;
 4022c44:	e0bffc17 	ldw	r2,-16(fp)
 4022c48:	10c00017 	ldw	r3,0(r2)
 4022c4c:	e0bffd17 	ldw	r2,-12(fp)
 4022c50:	10c00015 	stw	r3,0(r2)

  list->next->previous = entry;
 4022c54:	e0bffc17 	ldw	r2,-16(fp)
 4022c58:	10800017 	ldw	r2,0(r2)
 4022c5c:	e0fffd17 	ldw	r3,-12(fp)
 4022c60:	10c00115 	stw	r3,4(r2)
  list->next           = entry;
 4022c64:	e0bffc17 	ldw	r2,-16(fp)
 4022c68:	e0fffd17 	ldw	r3,-12(fp)
 4022c6c:	10c00015 	stw	r3,0(r2)

  return 0;  
 4022c70:	0005883a 	mov	r2,zero
}
 4022c74:	e037883a 	mov	sp,fp
 4022c78:	dfc00117 	ldw	ra,4(sp)
 4022c7c:	df000017 	ldw	fp,0(sp)
 4022c80:	dec00204 	addi	sp,sp,8
 4022c84:	f800283a 	ret

04022c88 <_do_ctors>:
/*
 * Run the C++ static constructors.
 */

void _do_ctors(void)
{
 4022c88:	defffd04 	addi	sp,sp,-12
 4022c8c:	dfc00215 	stw	ra,8(sp)
 4022c90:	df000115 	stw	fp,4(sp)
 4022c94:	df000104 	addi	fp,sp,4
  constructor* ctor;

  for (ctor = &__CTOR_END__[-1]; ctor >= __CTOR_LIST__; ctor--)
 4022c98:	008100f4 	movhi	r2,1027
 4022c9c:	10834e04 	addi	r2,r2,3384
 4022ca0:	e0bfff15 	stw	r2,-4(fp)
 4022ca4:	00000606 	br	4022cc0 <_do_ctors+0x38>
        (*ctor) (); 
 4022ca8:	e0bfff17 	ldw	r2,-4(fp)
 4022cac:	10800017 	ldw	r2,0(r2)
 4022cb0:	103ee83a 	callr	r2

void _do_ctors(void)
{
  constructor* ctor;

  for (ctor = &__CTOR_END__[-1]; ctor >= __CTOR_LIST__; ctor--)
 4022cb4:	e0bfff17 	ldw	r2,-4(fp)
 4022cb8:	10bfff04 	addi	r2,r2,-4
 4022cbc:	e0bfff15 	stw	r2,-4(fp)
 4022cc0:	e0ffff17 	ldw	r3,-4(fp)
 4022cc4:	008100f4 	movhi	r2,1027
 4022cc8:	10834f04 	addi	r2,r2,3388
 4022ccc:	18bff62e 	bgeu	r3,r2,4022ca8 <__alt_data_end+0xfffe2ca8>
        (*ctor) (); 
}
 4022cd0:	0001883a 	nop
 4022cd4:	e037883a 	mov	sp,fp
 4022cd8:	dfc00117 	ldw	ra,4(sp)
 4022cdc:	df000017 	ldw	fp,0(sp)
 4022ce0:	dec00204 	addi	sp,sp,8
 4022ce4:	f800283a 	ret

04022ce8 <_do_dtors>:
/*
 * Run the C++ static destructors.
 */

void _do_dtors(void)
{
 4022ce8:	defffd04 	addi	sp,sp,-12
 4022cec:	dfc00215 	stw	ra,8(sp)
 4022cf0:	df000115 	stw	fp,4(sp)
 4022cf4:	df000104 	addi	fp,sp,4
  destructor* dtor;

  for (dtor = &__DTOR_END__[-1]; dtor >= __DTOR_LIST__; dtor--)
 4022cf8:	008100f4 	movhi	r2,1027
 4022cfc:	10834e04 	addi	r2,r2,3384
 4022d00:	e0bfff15 	stw	r2,-4(fp)
 4022d04:	00000606 	br	4022d20 <_do_dtors+0x38>
        (*dtor) (); 
 4022d08:	e0bfff17 	ldw	r2,-4(fp)
 4022d0c:	10800017 	ldw	r2,0(r2)
 4022d10:	103ee83a 	callr	r2

void _do_dtors(void)
{
  destructor* dtor;

  for (dtor = &__DTOR_END__[-1]; dtor >= __DTOR_LIST__; dtor--)
 4022d14:	e0bfff17 	ldw	r2,-4(fp)
 4022d18:	10bfff04 	addi	r2,r2,-4
 4022d1c:	e0bfff15 	stw	r2,-4(fp)
 4022d20:	e0ffff17 	ldw	r3,-4(fp)
 4022d24:	008100f4 	movhi	r2,1027
 4022d28:	10834f04 	addi	r2,r2,3388
 4022d2c:	18bff62e 	bgeu	r3,r2,4022d08 <__alt_data_end+0xfffe2d08>
        (*dtor) (); 
}
 4022d30:	0001883a 	nop
 4022d34:	e037883a 	mov	sp,fp
 4022d38:	dfc00117 	ldw	ra,4(sp)
 4022d3c:	df000017 	ldw	fp,0(sp)
 4022d40:	dec00204 	addi	sp,sp,8
 4022d44:	f800283a 	ret

04022d48 <alt_find_dev>:
 * "name" must be an exact match for the devices registered name for a match to
 * be found.
 */
 
alt_dev* alt_find_dev(const char* name, alt_llist* llist)
{
 4022d48:	defffa04 	addi	sp,sp,-24
 4022d4c:	dfc00515 	stw	ra,20(sp)
 4022d50:	df000415 	stw	fp,16(sp)
 4022d54:	df000404 	addi	fp,sp,16
 4022d58:	e13ffe15 	stw	r4,-8(fp)
 4022d5c:	e17fff15 	stw	r5,-4(fp)
  alt_dev* next = (alt_dev*) llist->next;
 4022d60:	e0bfff17 	ldw	r2,-4(fp)
 4022d64:	10800017 	ldw	r2,0(r2)
 4022d68:	e0bffc15 	stw	r2,-16(fp)
  alt_32 len;

  len  = strlen(name) + 1;
 4022d6c:	e13ffe17 	ldw	r4,-8(fp)
 4022d70:	4023d280 	call	4023d28 <strlen>
 4022d74:	10800044 	addi	r2,r2,1
 4022d78:	e0bffd15 	stw	r2,-12(fp)
  /*
   * Check each list entry in turn, until a match is found, or we reach the
   * end of the list (i.e. next winds up pointing back to the list head).
   */ 

  while (next != (alt_dev*) llist)
 4022d7c:	00000d06 	br	4022db4 <alt_find_dev+0x6c>
    /* 
     * memcmp() is used here rather than strcmp() in order to reduce the size
     * of the executable.
     */

    if (!memcmp (next->name, name, len))
 4022d80:	e0bffc17 	ldw	r2,-16(fp)
 4022d84:	10800217 	ldw	r2,8(r2)
 4022d88:	e0fffd17 	ldw	r3,-12(fp)
 4022d8c:	180d883a 	mov	r6,r3
 4022d90:	e17ffe17 	ldw	r5,-8(fp)
 4022d94:	1009883a 	mov	r4,r2
 4022d98:	40239900 	call	4023990 <memcmp>
 4022d9c:	1000021e 	bne	r2,zero,4022da8 <alt_find_dev+0x60>
    {
      /* match found */

      return next;
 4022da0:	e0bffc17 	ldw	r2,-16(fp)
 4022da4:	00000706 	br	4022dc4 <alt_find_dev+0x7c>
    }
    next = (alt_dev*) next->llist.next;
 4022da8:	e0bffc17 	ldw	r2,-16(fp)
 4022dac:	10800017 	ldw	r2,0(r2)
 4022db0:	e0bffc15 	stw	r2,-16(fp)
  /*
   * Check each list entry in turn, until a match is found, or we reach the
   * end of the list (i.e. next winds up pointing back to the list head).
   */ 

  while (next != (alt_dev*) llist)
 4022db4:	e0fffc17 	ldw	r3,-16(fp)
 4022db8:	e0bfff17 	ldw	r2,-4(fp)
 4022dbc:	18bff01e 	bne	r3,r2,4022d80 <__alt_data_end+0xfffe2d80>
    next = (alt_dev*) next->llist.next;
  }
  
  /* No match found */
  
  return NULL;
 4022dc0:	0005883a 	mov	r2,zero
}
 4022dc4:	e037883a 	mov	sp,fp
 4022dc8:	dfc00117 	ldw	ra,4(sp)
 4022dcc:	df000017 	ldw	fp,0(sp)
 4022dd0:	dec00204 	addi	sp,sp,8
 4022dd4:	f800283a 	ret

04022dd8 <alt_icache_flush_all>:
/*
 * alt_icache_flush_all() is called to flush the entire instruction cache.
 */

void alt_icache_flush_all (void)
{
 4022dd8:	defffe04 	addi	sp,sp,-8
 4022ddc:	dfc00115 	stw	ra,4(sp)
 4022de0:	df000015 	stw	fp,0(sp)
 4022de4:	d839883a 	mov	fp,sp
#if NIOS2_ICACHE_SIZE > 0
  alt_icache_flush (0, NIOS2_ICACHE_SIZE);
 4022de8:	01440004 	movi	r5,4096
 4022dec:	0009883a 	mov	r4,zero
 4022df0:	40238180 	call	4023818 <alt_icache_flush>
#endif
}
 4022df4:	0001883a 	nop
 4022df8:	e037883a 	mov	sp,fp
 4022dfc:	dfc00117 	ldw	ra,4(sp)
 4022e00:	df000017 	ldw	fp,0(sp)
 4022e04:	dec00204 	addi	sp,sp,8
 4022e08:	f800283a 	ret

04022e0c <alt_ic_isr_register>:
  * @param irq              IRQ number
  * @return                 0 if successful, else error (-1)
  */
int alt_ic_isr_register(alt_u32 ic_id, alt_u32 irq, alt_isr_func isr, 
  void *isr_context, void *flags)
{
 4022e0c:	defff904 	addi	sp,sp,-28
 4022e10:	dfc00615 	stw	ra,24(sp)
 4022e14:	df000515 	stw	fp,20(sp)
 4022e18:	df000504 	addi	fp,sp,20
 4022e1c:	e13ffc15 	stw	r4,-16(fp)
 4022e20:	e17ffd15 	stw	r5,-12(fp)
 4022e24:	e1bffe15 	stw	r6,-8(fp)
 4022e28:	e1ffff15 	stw	r7,-4(fp)
    return alt_iic_isr_register(ic_id, irq, isr, isr_context, flags);
 4022e2c:	e0800217 	ldw	r2,8(fp)
 4022e30:	d8800015 	stw	r2,0(sp)
 4022e34:	e1ffff17 	ldw	r7,-4(fp)
 4022e38:	e1bffe17 	ldw	r6,-8(fp)
 4022e3c:	e17ffd17 	ldw	r5,-12(fp)
 4022e40:	e13ffc17 	ldw	r4,-16(fp)
 4022e44:	4022fbc0 	call	4022fbc <alt_iic_isr_register>
}  
 4022e48:	e037883a 	mov	sp,fp
 4022e4c:	dfc00117 	ldw	ra,4(sp)
 4022e50:	df000017 	ldw	fp,0(sp)
 4022e54:	dec00204 	addi	sp,sp,8
 4022e58:	f800283a 	ret

04022e5c <alt_ic_irq_enable>:
  * @param ic_id            Ignored.
  * @param irq              IRQ number
  * @return                 0 if successful, else error (-1)
  */
int alt_ic_irq_enable (alt_u32 ic_id, alt_u32 irq)
{
 4022e5c:	defff904 	addi	sp,sp,-28
 4022e60:	df000615 	stw	fp,24(sp)
 4022e64:	df000604 	addi	fp,sp,24
 4022e68:	e13ffe15 	stw	r4,-8(fp)
 4022e6c:	e17fff15 	stw	r5,-4(fp)
 4022e70:	e0bfff17 	ldw	r2,-4(fp)
 4022e74:	e0bffa15 	stw	r2,-24(fp)
static ALT_INLINE alt_irq_context ALT_ALWAYS_INLINE 
       alt_irq_disable_all (void)
{
  alt_irq_context context;

  NIOS2_READ_STATUS (context);
 4022e78:	0005303a 	rdctl	r2,status
 4022e7c:	e0bffb15 	stw	r2,-20(fp)

  NIOS2_WRITE_STATUS (context & ~NIOS2_STATUS_PIE_MSK);
 4022e80:	e0fffb17 	ldw	r3,-20(fp)
 4022e84:	00bfff84 	movi	r2,-2
 4022e88:	1884703a 	and	r2,r3,r2
 4022e8c:	1001703a 	wrctl	status,r2
  
  return context;
 4022e90:	e0bffb17 	ldw	r2,-20(fp)
static ALT_INLINE int ALT_ALWAYS_INLINE alt_irq_enable (alt_u32 id)
{
  alt_irq_context  status;
  extern volatile alt_u32 alt_irq_active;

  status = alt_irq_disable_all ();
 4022e94:	e0bffc15 	stw	r2,-16(fp)

  alt_irq_active |= (1 << id);
 4022e98:	00c00044 	movi	r3,1
 4022e9c:	e0bffa17 	ldw	r2,-24(fp)
 4022ea0:	1884983a 	sll	r2,r3,r2
 4022ea4:	1007883a 	mov	r3,r2
 4022ea8:	d0a71117 	ldw	r2,-25532(gp)
 4022eac:	1884b03a 	or	r2,r3,r2
 4022eb0:	d0a71115 	stw	r2,-25532(gp)
  NIOS2_WRITE_IENABLE (alt_irq_active);
 4022eb4:	d0a71117 	ldw	r2,-25532(gp)
 4022eb8:	100170fa 	wrctl	ienable,r2
 4022ebc:	e0bffc17 	ldw	r2,-16(fp)
 4022ec0:	e0bffd15 	stw	r2,-12(fp)
  status &= ~NIOS2_STATUS_PIE_MSK;
  status |= (context & NIOS2_STATUS_PIE_MSK);
  
  NIOS2_WRITE_STATUS (status);
#else
  NIOS2_WRITE_STATUS (context);
 4022ec4:	e0bffd17 	ldw	r2,-12(fp)
 4022ec8:	1001703a 	wrctl	status,r2

  alt_irq_enable_all(status);

  return 0;
 4022ecc:	0005883a 	mov	r2,zero
    return alt_irq_enable(irq);
 4022ed0:	0001883a 	nop
}
 4022ed4:	e037883a 	mov	sp,fp
 4022ed8:	df000017 	ldw	fp,0(sp)
 4022edc:	dec00104 	addi	sp,sp,4
 4022ee0:	f800283a 	ret

04022ee4 <alt_ic_irq_disable>:
  * @param ic_id            Ignored.
  * @param irq              IRQ number
  * @return                 0 if successful, else error (-1)
  */
int alt_ic_irq_disable(alt_u32 ic_id, alt_u32 irq)
{
 4022ee4:	defff904 	addi	sp,sp,-28
 4022ee8:	df000615 	stw	fp,24(sp)
 4022eec:	df000604 	addi	fp,sp,24
 4022ef0:	e13ffe15 	stw	r4,-8(fp)
 4022ef4:	e17fff15 	stw	r5,-4(fp)
 4022ef8:	e0bfff17 	ldw	r2,-4(fp)
 4022efc:	e0bffa15 	stw	r2,-24(fp)
static ALT_INLINE alt_irq_context ALT_ALWAYS_INLINE 
       alt_irq_disable_all (void)
{
  alt_irq_context context;

  NIOS2_READ_STATUS (context);
 4022f00:	0005303a 	rdctl	r2,status
 4022f04:	e0bffb15 	stw	r2,-20(fp)

  NIOS2_WRITE_STATUS (context & ~NIOS2_STATUS_PIE_MSK);
 4022f08:	e0fffb17 	ldw	r3,-20(fp)
 4022f0c:	00bfff84 	movi	r2,-2
 4022f10:	1884703a 	and	r2,r3,r2
 4022f14:	1001703a 	wrctl	status,r2
  
  return context;
 4022f18:	e0bffb17 	ldw	r2,-20(fp)
static ALT_INLINE int ALT_ALWAYS_INLINE alt_irq_disable (alt_u32 id)
{
  alt_irq_context  status;
  extern volatile alt_u32 alt_irq_active;

  status = alt_irq_disable_all ();
 4022f1c:	e0bffc15 	stw	r2,-16(fp)

  alt_irq_active &= ~(1 << id);
 4022f20:	00c00044 	movi	r3,1
 4022f24:	e0bffa17 	ldw	r2,-24(fp)
 4022f28:	1884983a 	sll	r2,r3,r2
 4022f2c:	0084303a 	nor	r2,zero,r2
 4022f30:	1007883a 	mov	r3,r2
 4022f34:	d0a71117 	ldw	r2,-25532(gp)
 4022f38:	1884703a 	and	r2,r3,r2
 4022f3c:	d0a71115 	stw	r2,-25532(gp)
  NIOS2_WRITE_IENABLE (alt_irq_active);
 4022f40:	d0a71117 	ldw	r2,-25532(gp)
 4022f44:	100170fa 	wrctl	ienable,r2
 4022f48:	e0bffc17 	ldw	r2,-16(fp)
 4022f4c:	e0bffd15 	stw	r2,-12(fp)
  status &= ~NIOS2_STATUS_PIE_MSK;
  status |= (context & NIOS2_STATUS_PIE_MSK);
  
  NIOS2_WRITE_STATUS (status);
#else
  NIOS2_WRITE_STATUS (context);
 4022f50:	e0bffd17 	ldw	r2,-12(fp)
 4022f54:	1001703a 	wrctl	status,r2

  alt_irq_enable_all(status);

  return 0;
 4022f58:	0005883a 	mov	r2,zero
    return alt_irq_disable(irq);
 4022f5c:	0001883a 	nop
}
 4022f60:	e037883a 	mov	sp,fp
 4022f64:	df000017 	ldw	fp,0(sp)
 4022f68:	dec00104 	addi	sp,sp,4
 4022f6c:	f800283a 	ret

04022f70 <alt_ic_irq_enabled>:
  * @param irq              IRQ number
  * @return                 Zero if corresponding interrupt is disabled and
  *                         non-zero otherwise.
  */
alt_u32 alt_ic_irq_enabled(alt_u32 ic_id, alt_u32 irq)
{
 4022f70:	defffc04 	addi	sp,sp,-16
 4022f74:	df000315 	stw	fp,12(sp)
 4022f78:	df000304 	addi	fp,sp,12
 4022f7c:	e13ffe15 	stw	r4,-8(fp)
 4022f80:	e17fff15 	stw	r5,-4(fp)
    alt_u32 irq_enabled;

    NIOS2_READ_IENABLE(irq_enabled);
 4022f84:	000530fa 	rdctl	r2,ienable
 4022f88:	e0bffd15 	stw	r2,-12(fp)

    return (irq_enabled & (1 << irq)) ? 1: 0;
 4022f8c:	00c00044 	movi	r3,1
 4022f90:	e0bfff17 	ldw	r2,-4(fp)
 4022f94:	1884983a 	sll	r2,r3,r2
 4022f98:	1007883a 	mov	r3,r2
 4022f9c:	e0bffd17 	ldw	r2,-12(fp)
 4022fa0:	1884703a 	and	r2,r3,r2
 4022fa4:	1004c03a 	cmpne	r2,r2,zero
 4022fa8:	10803fcc 	andi	r2,r2,255
}
 4022fac:	e037883a 	mov	sp,fp
 4022fb0:	df000017 	ldw	fp,0(sp)
 4022fb4:	dec00104 	addi	sp,sp,4
 4022fb8:	f800283a 	ret

04022fbc <alt_iic_isr_register>:
  * @param flags            
  * @return                 0 if successful, else error (-1)
  */
int alt_iic_isr_register(alt_u32 ic_id, alt_u32 irq, alt_isr_func isr, 
  void *isr_context, void *flags)
{
 4022fbc:	defff504 	addi	sp,sp,-44
 4022fc0:	dfc00a15 	stw	ra,40(sp)
 4022fc4:	df000915 	stw	fp,36(sp)
 4022fc8:	df000904 	addi	fp,sp,36
 4022fcc:	e13ffc15 	stw	r4,-16(fp)
 4022fd0:	e17ffd15 	stw	r5,-12(fp)
 4022fd4:	e1bffe15 	stw	r6,-8(fp)
 4022fd8:	e1ffff15 	stw	r7,-4(fp)
  int rc = -EINVAL;  
 4022fdc:	00bffa84 	movi	r2,-22
 4022fe0:	e0bff715 	stw	r2,-36(fp)
  int id = irq;             /* IRQ interpreted as the interrupt ID. */
 4022fe4:	e0bffd17 	ldw	r2,-12(fp)
 4022fe8:	e0bff815 	stw	r2,-32(fp)
  alt_irq_context status;

  if (id < ALT_NIRQ)
 4022fec:	e0bff817 	ldw	r2,-32(fp)
 4022ff0:	10800808 	cmpgei	r2,r2,32
 4022ff4:	1000271e 	bne	r2,zero,4023094 <alt_iic_isr_register+0xd8>
static ALT_INLINE alt_irq_context ALT_ALWAYS_INLINE 
       alt_irq_disable_all (void)
{
  alt_irq_context context;

  NIOS2_READ_STATUS (context);
 4022ff8:	0005303a 	rdctl	r2,status
 4022ffc:	e0bffb15 	stw	r2,-20(fp)

  NIOS2_WRITE_STATUS (context & ~NIOS2_STATUS_PIE_MSK);
 4023000:	e0fffb17 	ldw	r3,-20(fp)
 4023004:	00bfff84 	movi	r2,-2
 4023008:	1884703a 	and	r2,r3,r2
 402300c:	1001703a 	wrctl	status,r2
  
  return context;
 4023010:	e0bffb17 	ldw	r2,-20(fp)
     * interrupts are disabled while the handler tables are updated to ensure
     * that an interrupt doesn't occur while the tables are in an inconsistant
     * state.
     */

    status = alt_irq_disable_all();
 4023014:	e0bffa15 	stw	r2,-24(fp)

    alt_irq[id].handler = isr;
 4023018:	008100f4 	movhi	r2,1027
 402301c:	10936d04 	addi	r2,r2,19892
 4023020:	e0fff817 	ldw	r3,-32(fp)
 4023024:	180690fa 	slli	r3,r3,3
 4023028:	10c5883a 	add	r2,r2,r3
 402302c:	e0fffe17 	ldw	r3,-8(fp)
 4023030:	10c00015 	stw	r3,0(r2)
    alt_irq[id].context = isr_context;
 4023034:	008100f4 	movhi	r2,1027
 4023038:	10936d04 	addi	r2,r2,19892
 402303c:	e0fff817 	ldw	r3,-32(fp)
 4023040:	180690fa 	slli	r3,r3,3
 4023044:	10c5883a 	add	r2,r2,r3
 4023048:	10800104 	addi	r2,r2,4
 402304c:	e0ffff17 	ldw	r3,-4(fp)
 4023050:	10c00015 	stw	r3,0(r2)

    rc = (isr) ? alt_ic_irq_enable(ic_id, id) : alt_ic_irq_disable(ic_id, id);
 4023054:	e0bffe17 	ldw	r2,-8(fp)
 4023058:	10000526 	beq	r2,zero,4023070 <alt_iic_isr_register+0xb4>
 402305c:	e0bff817 	ldw	r2,-32(fp)
 4023060:	100b883a 	mov	r5,r2
 4023064:	e13ffc17 	ldw	r4,-16(fp)
 4023068:	4022e5c0 	call	4022e5c <alt_ic_irq_enable>
 402306c:	00000406 	br	4023080 <alt_iic_isr_register+0xc4>
 4023070:	e0bff817 	ldw	r2,-32(fp)
 4023074:	100b883a 	mov	r5,r2
 4023078:	e13ffc17 	ldw	r4,-16(fp)
 402307c:	4022ee40 	call	4022ee4 <alt_ic_irq_disable>
 4023080:	e0bff715 	stw	r2,-36(fp)
 4023084:	e0bffa17 	ldw	r2,-24(fp)
 4023088:	e0bff915 	stw	r2,-28(fp)
  status &= ~NIOS2_STATUS_PIE_MSK;
  status |= (context & NIOS2_STATUS_PIE_MSK);
  
  NIOS2_WRITE_STATUS (status);
#else
  NIOS2_WRITE_STATUS (context);
 402308c:	e0bff917 	ldw	r2,-28(fp)
 4023090:	1001703a 	wrctl	status,r2

    alt_irq_enable_all(status);
  }

  return rc; 
 4023094:	e0bff717 	ldw	r2,-36(fp)
}
 4023098:	e037883a 	mov	sp,fp
 402309c:	dfc00117 	ldw	ra,4(sp)
 40230a0:	df000017 	ldw	fp,0(sp)
 40230a4:	dec00204 	addi	sp,sp,8
 40230a8:	f800283a 	ret

040230ac <alt_open_fd>:
 * If the device can not be succesfully opened, then the input file descriptor
 * remains unchanged.
 */

static void alt_open_fd(alt_fd* fd, const char* name, int flags, int mode)
{
 40230ac:	defff904 	addi	sp,sp,-28
 40230b0:	dfc00615 	stw	ra,24(sp)
 40230b4:	df000515 	stw	fp,20(sp)
 40230b8:	df000504 	addi	fp,sp,20
 40230bc:	e13ffc15 	stw	r4,-16(fp)
 40230c0:	e17ffd15 	stw	r5,-12(fp)
 40230c4:	e1bffe15 	stw	r6,-8(fp)
 40230c8:	e1ffff15 	stw	r7,-4(fp)
  int old;

  old = open (name, flags, mode);
 40230cc:	e1bfff17 	ldw	r6,-4(fp)
 40230d0:	e17ffe17 	ldw	r5,-8(fp)
 40230d4:	e13ffd17 	ldw	r4,-12(fp)
 40230d8:	40232ec0 	call	40232ec <open>
 40230dc:	e0bffb15 	stw	r2,-20(fp)

  if (old >= 0)
 40230e0:	e0bffb17 	ldw	r2,-20(fp)
 40230e4:	10001c16 	blt	r2,zero,4023158 <alt_open_fd+0xac>
  {
    fd->dev      = alt_fd_list[old].dev;
 40230e8:	008100f4 	movhi	r2,1027
 40230ec:	1089be04 	addi	r2,r2,9976
 40230f0:	e0fffb17 	ldw	r3,-20(fp)
 40230f4:	18c00324 	muli	r3,r3,12
 40230f8:	10c5883a 	add	r2,r2,r3
 40230fc:	10c00017 	ldw	r3,0(r2)
 4023100:	e0bffc17 	ldw	r2,-16(fp)
 4023104:	10c00015 	stw	r3,0(r2)
    fd->priv     = alt_fd_list[old].priv;
 4023108:	008100f4 	movhi	r2,1027
 402310c:	1089be04 	addi	r2,r2,9976
 4023110:	e0fffb17 	ldw	r3,-20(fp)
 4023114:	18c00324 	muli	r3,r3,12
 4023118:	10c5883a 	add	r2,r2,r3
 402311c:	10800104 	addi	r2,r2,4
 4023120:	10c00017 	ldw	r3,0(r2)
 4023124:	e0bffc17 	ldw	r2,-16(fp)
 4023128:	10c00115 	stw	r3,4(r2)
    fd->fd_flags = alt_fd_list[old].fd_flags;
 402312c:	008100f4 	movhi	r2,1027
 4023130:	1089be04 	addi	r2,r2,9976
 4023134:	e0fffb17 	ldw	r3,-20(fp)
 4023138:	18c00324 	muli	r3,r3,12
 402313c:	10c5883a 	add	r2,r2,r3
 4023140:	10800204 	addi	r2,r2,8
 4023144:	10c00017 	ldw	r3,0(r2)
 4023148:	e0bffc17 	ldw	r2,-16(fp)
 402314c:	10c00215 	stw	r3,8(r2)

    alt_release_fd (old);
 4023150:	e13ffb17 	ldw	r4,-20(fp)
 4023154:	40234400 	call	4023440 <alt_release_fd>
  }
} 
 4023158:	0001883a 	nop
 402315c:	e037883a 	mov	sp,fp
 4023160:	dfc00117 	ldw	ra,4(sp)
 4023164:	df000017 	ldw	fp,0(sp)
 4023168:	dec00204 	addi	sp,sp,8
 402316c:	f800283a 	ret

04023170 <alt_io_redirect>:
 */
 
void alt_io_redirect(const char* stdout_dev, 
                     const char* stdin_dev, 
                     const char* stderr_dev)
{
 4023170:	defffb04 	addi	sp,sp,-20
 4023174:	dfc00415 	stw	ra,16(sp)
 4023178:	df000315 	stw	fp,12(sp)
 402317c:	df000304 	addi	fp,sp,12
 4023180:	e13ffd15 	stw	r4,-12(fp)
 4023184:	e17ffe15 	stw	r5,-8(fp)
 4023188:	e1bfff15 	stw	r6,-4(fp)
  /* Redirect the channels */

  alt_open_fd (&alt_fd_list[STDOUT_FILENO], stdout_dev, O_WRONLY, 0777);
 402318c:	01c07fc4 	movi	r7,511
 4023190:	01800044 	movi	r6,1
 4023194:	e17ffd17 	ldw	r5,-12(fp)
 4023198:	010100f4 	movhi	r4,1027
 402319c:	2109c104 	addi	r4,r4,9988
 40231a0:	40230ac0 	call	40230ac <alt_open_fd>
  alt_open_fd (&alt_fd_list[STDIN_FILENO], stdin_dev, O_RDONLY, 0777);
 40231a4:	01c07fc4 	movi	r7,511
 40231a8:	000d883a 	mov	r6,zero
 40231ac:	e17ffe17 	ldw	r5,-8(fp)
 40231b0:	010100f4 	movhi	r4,1027
 40231b4:	2109be04 	addi	r4,r4,9976
 40231b8:	40230ac0 	call	40230ac <alt_open_fd>
  alt_open_fd (&alt_fd_list[STDERR_FILENO], stderr_dev, O_WRONLY, 0777);
 40231bc:	01c07fc4 	movi	r7,511
 40231c0:	01800044 	movi	r6,1
 40231c4:	e17fff17 	ldw	r5,-4(fp)
 40231c8:	010100f4 	movhi	r4,1027
 40231cc:	2109c404 	addi	r4,r4,10000
 40231d0:	40230ac0 	call	40230ac <alt_open_fd>
}  
 40231d4:	0001883a 	nop
 40231d8:	e037883a 	mov	sp,fp
 40231dc:	dfc00117 	ldw	ra,4(sp)
 40231e0:	df000017 	ldw	fp,0(sp)
 40231e4:	dec00204 	addi	sp,sp,8
 40231e8:	f800283a 	ret

040231ec <alt_get_errno>:
#undef errno

extern int errno;

static ALT_INLINE int* alt_get_errno(void)
{
 40231ec:	defffe04 	addi	sp,sp,-8
 40231f0:	dfc00115 	stw	ra,4(sp)
 40231f4:	df000015 	stw	fp,0(sp)
 40231f8:	d839883a 	mov	fp,sp
  return ((alt_errno) ? alt_errno() : &errno);
 40231fc:	d0a00717 	ldw	r2,-32740(gp)
 4023200:	10000326 	beq	r2,zero,4023210 <alt_get_errno+0x24>
 4023204:	d0a00717 	ldw	r2,-32740(gp)
 4023208:	103ee83a 	callr	r2
 402320c:	00000106 	br	4023214 <alt_get_errno+0x28>
 4023210:	d0a71504 	addi	r2,gp,-25516
}
 4023214:	e037883a 	mov	sp,fp
 4023218:	dfc00117 	ldw	ra,4(sp)
 402321c:	df000017 	ldw	fp,0(sp)
 4023220:	dec00204 	addi	sp,sp,8
 4023224:	f800283a 	ret

04023228 <alt_file_locked>:
 * performed for devices. Filesystems are required to handle the ioctl() call
 * themselves, and report the error from the filesystems open() function. 
 */ 

static int alt_file_locked (alt_fd* fd)
{
 4023228:	defffd04 	addi	sp,sp,-12
 402322c:	df000215 	stw	fp,8(sp)
 4023230:	df000204 	addi	fp,sp,8
 4023234:	e13fff15 	stw	r4,-4(fp)

  /*
   * Mark the file descriptor as belonging to a device.
   */

  fd->fd_flags |= ALT_FD_DEV;
 4023238:	e0bfff17 	ldw	r2,-4(fp)
 402323c:	10800217 	ldw	r2,8(r2)
 4023240:	10d00034 	orhi	r3,r2,16384
 4023244:	e0bfff17 	ldw	r2,-4(fp)
 4023248:	10c00215 	stw	r3,8(r2)
  /*
   * Loop through all current file descriptors searching for one that's locked
   * for exclusive access. If a match is found, generate an error.
   */

  for (i = 0; i <= alt_max_fd; i++)
 402324c:	e03ffe15 	stw	zero,-8(fp)
 4023250:	00001d06 	br	40232c8 <alt_file_locked+0xa0>
  {
    if ((alt_fd_list[i].dev == fd->dev) &&
 4023254:	008100f4 	movhi	r2,1027
 4023258:	1089be04 	addi	r2,r2,9976
 402325c:	e0fffe17 	ldw	r3,-8(fp)
 4023260:	18c00324 	muli	r3,r3,12
 4023264:	10c5883a 	add	r2,r2,r3
 4023268:	10c00017 	ldw	r3,0(r2)
 402326c:	e0bfff17 	ldw	r2,-4(fp)
 4023270:	10800017 	ldw	r2,0(r2)
 4023274:	1880111e 	bne	r3,r2,40232bc <alt_file_locked+0x94>
        (alt_fd_list[i].fd_flags & ALT_FD_EXCL) &&
 4023278:	008100f4 	movhi	r2,1027
 402327c:	1089be04 	addi	r2,r2,9976
 4023280:	e0fffe17 	ldw	r3,-8(fp)
 4023284:	18c00324 	muli	r3,r3,12
 4023288:	10c5883a 	add	r2,r2,r3
 402328c:	10800204 	addi	r2,r2,8
 4023290:	10800017 	ldw	r2,0(r2)
   * for exclusive access. If a match is found, generate an error.
   */

  for (i = 0; i <= alt_max_fd; i++)
  {
    if ((alt_fd_list[i].dev == fd->dev) &&
 4023294:	1000090e 	bge	r2,zero,40232bc <alt_file_locked+0x94>
        (alt_fd_list[i].fd_flags & ALT_FD_EXCL) &&
        (&alt_fd_list[i] != fd))
 4023298:	e0bffe17 	ldw	r2,-8(fp)
 402329c:	10c00324 	muli	r3,r2,12
 40232a0:	008100f4 	movhi	r2,1027
 40232a4:	1089be04 	addi	r2,r2,9976
 40232a8:	1887883a 	add	r3,r3,r2
   */

  for (i = 0; i <= alt_max_fd; i++)
  {
    if ((alt_fd_list[i].dev == fd->dev) &&
        (alt_fd_list[i].fd_flags & ALT_FD_EXCL) &&
 40232ac:	e0bfff17 	ldw	r2,-4(fp)
 40232b0:	18800226 	beq	r3,r2,40232bc <alt_file_locked+0x94>
        (&alt_fd_list[i] != fd))
    {
      return -EACCES;
 40232b4:	00bffcc4 	movi	r2,-13
 40232b8:	00000806 	br	40232dc <alt_file_locked+0xb4>
  /*
   * Loop through all current file descriptors searching for one that's locked
   * for exclusive access. If a match is found, generate an error.
   */

  for (i = 0; i <= alt_max_fd; i++)
 40232bc:	e0bffe17 	ldw	r2,-8(fp)
 40232c0:	10800044 	addi	r2,r2,1
 40232c4:	e0bffe15 	stw	r2,-8(fp)
 40232c8:	d0a00617 	ldw	r2,-32744(gp)
 40232cc:	1007883a 	mov	r3,r2
 40232d0:	e0bffe17 	ldw	r2,-8(fp)
 40232d4:	18bfdf2e 	bgeu	r3,r2,4023254 <__alt_data_end+0xfffe3254>
    }
  }
  
  /* The device is not locked */
 
  return 0;
 40232d8:	0005883a 	mov	r2,zero
}
 40232dc:	e037883a 	mov	sp,fp
 40232e0:	df000017 	ldw	fp,0(sp)
 40232e4:	dec00104 	addi	sp,sp,4
 40232e8:	f800283a 	ret

040232ec <open>:
 *
 * ALT_OPEN is mapped onto the open() system call in alt_syscall.h
 */
 
int ALT_OPEN (const char* file, int flags, int mode)
{ 
 40232ec:	defff604 	addi	sp,sp,-40
 40232f0:	dfc00915 	stw	ra,36(sp)
 40232f4:	df000815 	stw	fp,32(sp)
 40232f8:	df000804 	addi	fp,sp,32
 40232fc:	e13ffd15 	stw	r4,-12(fp)
 4023300:	e17ffe15 	stw	r5,-8(fp)
 4023304:	e1bfff15 	stw	r6,-4(fp)
  alt_dev* dev;
  alt_fd*  fd;
  int index  = -1;
 4023308:	00bfffc4 	movi	r2,-1
 402330c:	e0bff915 	stw	r2,-28(fp)
  int status = -ENODEV;
 4023310:	00bffb44 	movi	r2,-19
 4023314:	e0bffa15 	stw	r2,-24(fp)
  int isafs = 0;
 4023318:	e03ffb15 	stw	zero,-20(fp)
  /* 
   * Check the device list, to see if a device with a matching name is 
   * registered.
   */
  
  if (!(dev = alt_find_dev (file, &alt_dev_list)))
 402331c:	d1600404 	addi	r5,gp,-32752
 4023320:	e13ffd17 	ldw	r4,-12(fp)
 4023324:	4022d480 	call	4022d48 <alt_find_dev>
 4023328:	e0bff815 	stw	r2,-32(fp)
 402332c:	e0bff817 	ldw	r2,-32(fp)
 4023330:	1000051e 	bne	r2,zero,4023348 <open+0x5c>
  {
    /* No matching device, so try the filesystem list */

    dev   = alt_find_file (file);
 4023334:	e13ffd17 	ldw	r4,-12(fp)
 4023338:	402366c0 	call	402366c <alt_find_file>
 402333c:	e0bff815 	stw	r2,-32(fp)
    isafs = 1;
 4023340:	00800044 	movi	r2,1
 4023344:	e0bffb15 	stw	r2,-20(fp)

  /* 
   * If a matching device or filesystem is found, allocate a file descriptor. 
   */

  if (dev)
 4023348:	e0bff817 	ldw	r2,-32(fp)
 402334c:	10002926 	beq	r2,zero,40233f4 <open+0x108>
  {
    if ((index = alt_get_fd (dev)) < 0)
 4023350:	e13ff817 	ldw	r4,-32(fp)
 4023354:	40237740 	call	4023774 <alt_get_fd>
 4023358:	e0bff915 	stw	r2,-28(fp)
 402335c:	e0bff917 	ldw	r2,-28(fp)
 4023360:	1000030e 	bge	r2,zero,4023370 <open+0x84>
    {
      status = index;
 4023364:	e0bff917 	ldw	r2,-28(fp)
 4023368:	e0bffa15 	stw	r2,-24(fp)
 402336c:	00002306 	br	40233fc <open+0x110>
    }
    else
    {
      fd = &alt_fd_list[index];
 4023370:	e0bff917 	ldw	r2,-28(fp)
 4023374:	10c00324 	muli	r3,r2,12
 4023378:	008100f4 	movhi	r2,1027
 402337c:	1089be04 	addi	r2,r2,9976
 4023380:	1885883a 	add	r2,r3,r2
 4023384:	e0bffc15 	stw	r2,-16(fp)
      fd->fd_flags = (flags & ~ALT_FD_FLAGS_MASK);
 4023388:	e0fffe17 	ldw	r3,-8(fp)
 402338c:	00900034 	movhi	r2,16384
 4023390:	10bfffc4 	addi	r2,r2,-1
 4023394:	1886703a 	and	r3,r3,r2
 4023398:	e0bffc17 	ldw	r2,-16(fp)
 402339c:	10c00215 	stw	r3,8(r2)
      
      /* If this is a device, ensure it isn't already locked */

      if (isafs || ((status = alt_file_locked (fd)) >= 0))
 40233a0:	e0bffb17 	ldw	r2,-20(fp)
 40233a4:	1000051e 	bne	r2,zero,40233bc <open+0xd0>
 40233a8:	e13ffc17 	ldw	r4,-16(fp)
 40233ac:	40232280 	call	4023228 <alt_file_locked>
 40233b0:	e0bffa15 	stw	r2,-24(fp)
 40233b4:	e0bffa17 	ldw	r2,-24(fp)
 40233b8:	10001016 	blt	r2,zero,40233fc <open+0x110>
        /* 
         * If the device or filesystem provides an open() callback function,
         * call it now to perform any device/filesystem specific operations.
         */
    
        status = (dev->open) ? dev->open(fd, file, flags, mode): 0;
 40233bc:	e0bff817 	ldw	r2,-32(fp)
 40233c0:	10800317 	ldw	r2,12(r2)
 40233c4:	10000826 	beq	r2,zero,40233e8 <open+0xfc>
 40233c8:	e0bff817 	ldw	r2,-32(fp)
 40233cc:	10800317 	ldw	r2,12(r2)
 40233d0:	e1ffff17 	ldw	r7,-4(fp)
 40233d4:	e1bffe17 	ldw	r6,-8(fp)
 40233d8:	e17ffd17 	ldw	r5,-12(fp)
 40233dc:	e13ffc17 	ldw	r4,-16(fp)
 40233e0:	103ee83a 	callr	r2
 40233e4:	00000106 	br	40233ec <open+0x100>
 40233e8:	0005883a 	mov	r2,zero
 40233ec:	e0bffa15 	stw	r2,-24(fp)
 40233f0:	00000206 	br	40233fc <open+0x110>
      }
    }
  }
  else
  {
    status = -ENODEV;
 40233f4:	00bffb44 	movi	r2,-19
 40233f8:	e0bffa15 	stw	r2,-24(fp)
  }

  /* Allocation failed, so clean up and return an error */ 

  if (status < 0)
 40233fc:	e0bffa17 	ldw	r2,-24(fp)
 4023400:	1000090e 	bge	r2,zero,4023428 <open+0x13c>
  {
    alt_release_fd (index);  
 4023404:	e13ff917 	ldw	r4,-28(fp)
 4023408:	40234400 	call	4023440 <alt_release_fd>
    ALT_ERRNO = -status;
 402340c:	40231ec0 	call	40231ec <alt_get_errno>
 4023410:	1007883a 	mov	r3,r2
 4023414:	e0bffa17 	ldw	r2,-24(fp)
 4023418:	0085c83a 	sub	r2,zero,r2
 402341c:	18800015 	stw	r2,0(r3)
    return -1;
 4023420:	00bfffc4 	movi	r2,-1
 4023424:	00000106 	br	402342c <open+0x140>
  }
  
  /* return the reference upon success */

  return index;
 4023428:	e0bff917 	ldw	r2,-28(fp)
}
 402342c:	e037883a 	mov	sp,fp
 4023430:	dfc00117 	ldw	ra,4(sp)
 4023434:	df000017 	ldw	fp,0(sp)
 4023438:	dec00204 	addi	sp,sp,8
 402343c:	f800283a 	ret

04023440 <alt_release_fd>:
 * File descriptors correcponding to standard in, standard out and standard 
 * error cannont be released backed to the pool. They are always reserved.
 */

void alt_release_fd (int fd)
{
 4023440:	defffe04 	addi	sp,sp,-8
 4023444:	df000115 	stw	fp,4(sp)
 4023448:	df000104 	addi	fp,sp,4
 402344c:	e13fff15 	stw	r4,-4(fp)
  if (fd > 2)
 4023450:	e0bfff17 	ldw	r2,-4(fp)
 4023454:	108000d0 	cmplti	r2,r2,3
 4023458:	10000d1e 	bne	r2,zero,4023490 <alt_release_fd+0x50>
  {
    alt_fd_list[fd].fd_flags = 0;
 402345c:	008100f4 	movhi	r2,1027
 4023460:	1089be04 	addi	r2,r2,9976
 4023464:	e0ffff17 	ldw	r3,-4(fp)
 4023468:	18c00324 	muli	r3,r3,12
 402346c:	10c5883a 	add	r2,r2,r3
 4023470:	10800204 	addi	r2,r2,8
 4023474:	10000015 	stw	zero,0(r2)
    alt_fd_list[fd].dev      = 0;
 4023478:	008100f4 	movhi	r2,1027
 402347c:	1089be04 	addi	r2,r2,9976
 4023480:	e0ffff17 	ldw	r3,-4(fp)
 4023484:	18c00324 	muli	r3,r3,12
 4023488:	10c5883a 	add	r2,r2,r3
 402348c:	10000015 	stw	zero,0(r2)
  }
}
 4023490:	0001883a 	nop
 4023494:	e037883a 	mov	sp,fp
 4023498:	df000017 	ldw	fp,0(sp)
 402349c:	dec00104 	addi	sp,sp,4
 40234a0:	f800283a 	ret

040234a4 <alt_alarm_stop>:
 * alarms. Alternatively an alarm can unregister itself by returning zero when 
 * the alarm executes.
 */

void alt_alarm_stop (alt_alarm* alarm)
{
 40234a4:	defffa04 	addi	sp,sp,-24
 40234a8:	df000515 	stw	fp,20(sp)
 40234ac:	df000504 	addi	fp,sp,20
 40234b0:	e13fff15 	stw	r4,-4(fp)
static ALT_INLINE alt_irq_context ALT_ALWAYS_INLINE 
       alt_irq_disable_all (void)
{
  alt_irq_context context;

  NIOS2_READ_STATUS (context);
 40234b4:	0005303a 	rdctl	r2,status
 40234b8:	e0bffc15 	stw	r2,-16(fp)

  NIOS2_WRITE_STATUS (context & ~NIOS2_STATUS_PIE_MSK);
 40234bc:	e0fffc17 	ldw	r3,-16(fp)
 40234c0:	00bfff84 	movi	r2,-2
 40234c4:	1884703a 	and	r2,r3,r2
 40234c8:	1001703a 	wrctl	status,r2
  
  return context;
 40234cc:	e0bffc17 	ldw	r2,-16(fp)
  alt_irq_context irq_context;

  irq_context = alt_irq_disable_all();
 40234d0:	e0bffb15 	stw	r2,-20(fp)
  alt_llist_remove (&alarm->llist);
 40234d4:	e0bfff17 	ldw	r2,-4(fp)
 40234d8:	e0bffd15 	stw	r2,-12(fp)
 * input argument is the element to remove.
 */
     
static ALT_INLINE void ALT_ALWAYS_INLINE alt_llist_remove(alt_llist* entry)
{
  entry->next->previous = entry->previous;
 40234dc:	e0bffd17 	ldw	r2,-12(fp)
 40234e0:	10800017 	ldw	r2,0(r2)
 40234e4:	e0fffd17 	ldw	r3,-12(fp)
 40234e8:	18c00117 	ldw	r3,4(r3)
 40234ec:	10c00115 	stw	r3,4(r2)
  entry->previous->next = entry->next;
 40234f0:	e0bffd17 	ldw	r2,-12(fp)
 40234f4:	10800117 	ldw	r2,4(r2)
 40234f8:	e0fffd17 	ldw	r3,-12(fp)
 40234fc:	18c00017 	ldw	r3,0(r3)
 4023500:	10c00015 	stw	r3,0(r2)
  /* 
   * Set the entry to point to itself, so that any further calls to
   * alt_llist_remove() are harmless.
   */

  entry->previous = entry;
 4023504:	e0bffd17 	ldw	r2,-12(fp)
 4023508:	e0fffd17 	ldw	r3,-12(fp)
 402350c:	10c00115 	stw	r3,4(r2)
  entry->next     = entry;
 4023510:	e0bffd17 	ldw	r2,-12(fp)
 4023514:	e0fffd17 	ldw	r3,-12(fp)
 4023518:	10c00015 	stw	r3,0(r2)
 402351c:	e0bffb17 	ldw	r2,-20(fp)
 4023520:	e0bffe15 	stw	r2,-8(fp)
  status &= ~NIOS2_STATUS_PIE_MSK;
  status |= (context & NIOS2_STATUS_PIE_MSK);
  
  NIOS2_WRITE_STATUS (status);
#else
  NIOS2_WRITE_STATUS (context);
 4023524:	e0bffe17 	ldw	r2,-8(fp)
 4023528:	1001703a 	wrctl	status,r2
  alt_irq_enable_all (irq_context);
}
 402352c:	0001883a 	nop
 4023530:	e037883a 	mov	sp,fp
 4023534:	df000017 	ldw	fp,0(sp)
 4023538:	dec00104 	addi	sp,sp,4
 402353c:	f800283a 	ret

04023540 <alt_tick>:
 * 
 * alt_tick() is expected to run at interrupt level.
 */

void alt_tick (void)
{
 4023540:	defffb04 	addi	sp,sp,-20
 4023544:	dfc00415 	stw	ra,16(sp)
 4023548:	df000315 	stw	fp,12(sp)
 402354c:	df000304 	addi	fp,sp,12
  alt_alarm* next;
  alt_alarm* alarm = (alt_alarm*) alt_alarm_list.next;
 4023550:	d0a00917 	ldw	r2,-32732(gp)
 4023554:	e0bffd15 	stw	r2,-12(fp)

  alt_u32    next_callback;

  /* update the tick counter */

  _alt_nticks++;
 4023558:	d0a71317 	ldw	r2,-25524(gp)
 402355c:	10800044 	addi	r2,r2,1
 4023560:	d0a71315 	stw	r2,-25524(gp)

  /* process the registered callbacks */

  while (alarm != (alt_alarm*) &alt_alarm_list)
 4023564:	00002e06 	br	4023620 <alt_tick+0xe0>
  {
    next = (alt_alarm*) alarm->llist.next;
 4023568:	e0bffd17 	ldw	r2,-12(fp)
 402356c:	10800017 	ldw	r2,0(r2)
 4023570:	e0bffe15 	stw	r2,-8(fp)
    /* 
     * Upon the tick-counter rolling over it is safe to clear the 
     * roll-over flag; once the flag is cleared this (or subsequnt)
     * tick events are enabled to generate an alarm event. 
     */
    if ((alarm->rollover) && (_alt_nticks == 0))
 4023574:	e0bffd17 	ldw	r2,-12(fp)
 4023578:	10800403 	ldbu	r2,16(r2)
 402357c:	10803fcc 	andi	r2,r2,255
 4023580:	10000426 	beq	r2,zero,4023594 <alt_tick+0x54>
 4023584:	d0a71317 	ldw	r2,-25524(gp)
 4023588:	1000021e 	bne	r2,zero,4023594 <alt_tick+0x54>
    {
      alarm->rollover = 0;
 402358c:	e0bffd17 	ldw	r2,-12(fp)
 4023590:	10000405 	stb	zero,16(r2)
    }
    
    /* if the alarm period has expired, make the callback */    
    if ((alarm->time <= _alt_nticks) && (alarm->rollover == 0))
 4023594:	e0bffd17 	ldw	r2,-12(fp)
 4023598:	10800217 	ldw	r2,8(r2)
 402359c:	d0e71317 	ldw	r3,-25524(gp)
 40235a0:	18801d36 	bltu	r3,r2,4023618 <alt_tick+0xd8>
 40235a4:	e0bffd17 	ldw	r2,-12(fp)
 40235a8:	10800403 	ldbu	r2,16(r2)
 40235ac:	10803fcc 	andi	r2,r2,255
 40235b0:	1000191e 	bne	r2,zero,4023618 <alt_tick+0xd8>
    {
      next_callback = alarm->callback (alarm->context);
 40235b4:	e0bffd17 	ldw	r2,-12(fp)
 40235b8:	10800317 	ldw	r2,12(r2)
 40235bc:	e0fffd17 	ldw	r3,-12(fp)
 40235c0:	18c00517 	ldw	r3,20(r3)
 40235c4:	1809883a 	mov	r4,r3
 40235c8:	103ee83a 	callr	r2
 40235cc:	e0bfff15 	stw	r2,-4(fp)

      /* deactivate the alarm if the return value is zero */

      if (next_callback == 0)
 40235d0:	e0bfff17 	ldw	r2,-4(fp)
 40235d4:	1000031e 	bne	r2,zero,40235e4 <alt_tick+0xa4>
      {
        alt_alarm_stop (alarm);
 40235d8:	e13ffd17 	ldw	r4,-12(fp)
 40235dc:	40234a40 	call	40234a4 <alt_alarm_stop>
 40235e0:	00000d06 	br	4023618 <alt_tick+0xd8>
      }
      else
      {
        alarm->time += next_callback;
 40235e4:	e0bffd17 	ldw	r2,-12(fp)
 40235e8:	10c00217 	ldw	r3,8(r2)
 40235ec:	e0bfff17 	ldw	r2,-4(fp)
 40235f0:	1887883a 	add	r3,r3,r2
 40235f4:	e0bffd17 	ldw	r2,-12(fp)
 40235f8:	10c00215 	stw	r3,8(r2)
        /* 
         * If the desired alarm time causes a roll-over, set the rollover
         * flag. This will prevent the subsequent tick event from causing
         * an alarm too early.
         */
        if(alarm->time < _alt_nticks)
 40235fc:	e0bffd17 	ldw	r2,-12(fp)
 4023600:	10c00217 	ldw	r3,8(r2)
 4023604:	d0a71317 	ldw	r2,-25524(gp)
 4023608:	1880032e 	bgeu	r3,r2,4023618 <alt_tick+0xd8>
        {
          alarm->rollover = 1;
 402360c:	e0bffd17 	ldw	r2,-12(fp)
 4023610:	00c00044 	movi	r3,1
 4023614:	10c00405 	stb	r3,16(r2)
        }
      }
    }
    alarm = next;
 4023618:	e0bffe17 	ldw	r2,-8(fp)
 402361c:	e0bffd15 	stw	r2,-12(fp)

  _alt_nticks++;

  /* process the registered callbacks */

  while (alarm != (alt_alarm*) &alt_alarm_list)
 4023620:	e0fffd17 	ldw	r3,-12(fp)
 4023624:	d0a00904 	addi	r2,gp,-32732
 4023628:	18bfcf1e 	bne	r3,r2,4023568 <__alt_data_end+0xfffe3568>

  /* 
   * Update the operating system specific timer facilities.
   */

  ALT_OS_TIME_TICK();
 402362c:	0001883a 	nop
}
 4023630:	0001883a 	nop
 4023634:	e037883a 	mov	sp,fp
 4023638:	dfc00117 	ldw	ra,4(sp)
 402363c:	df000017 	ldw	fp,0(sp)
 4023640:	dec00204 	addi	sp,sp,8
 4023644:	f800283a 	ret

04023648 <altera_nios2_gen2_irq_init>:
/*
 * To initialize the internal interrupt controller, just clear the IENABLE
 * register so that all possible IRQs are disabled.
 */
void altera_nios2_gen2_irq_init(void) 
{
 4023648:	deffff04 	addi	sp,sp,-4
 402364c:	df000015 	stw	fp,0(sp)
 4023650:	d839883a 	mov	fp,sp
    NIOS2_WRITE_IENABLE(0);
 4023654:	000170fa 	wrctl	ienable,zero
}
 4023658:	0001883a 	nop
 402365c:	e037883a 	mov	sp,fp
 4023660:	df000017 	ldw	fp,0(sp)
 4023664:	dec00104 	addi	sp,sp,4
 4023668:	f800283a 	ret

0402366c <alt_find_file>:
 * either '/' or '\0' is the prefix of the filename. For example the filename:
 * "/myfilesystem/junk.txt" would match: "/myfilesystem", but not: "/myfile". 
 */
 
alt_dev* alt_find_file (const char* name)
{
 402366c:	defffb04 	addi	sp,sp,-20
 4023670:	dfc00415 	stw	ra,16(sp)
 4023674:	df000315 	stw	fp,12(sp)
 4023678:	df000304 	addi	fp,sp,12
 402367c:	e13fff15 	stw	r4,-4(fp)
  alt_dev* next = (alt_dev*) alt_fs_list.next;   
 4023680:	d0a00217 	ldw	r2,-32760(gp)
 4023684:	e0bffd15 	stw	r2,-12(fp)
  /*
   * Check each list entry in turn, until a match is found, or we reach the
   * end of the list (i.e. next winds up pointing back to the list head).
   */ 
 
  while (next != (alt_dev*) &alt_fs_list)
 4023688:	00003106 	br	4023750 <alt_find_file+0xe4>
  {
    len = strlen(next->name);
 402368c:	e0bffd17 	ldw	r2,-12(fp)
 4023690:	10800217 	ldw	r2,8(r2)
 4023694:	1009883a 	mov	r4,r2
 4023698:	4023d280 	call	4023d28 <strlen>
 402369c:	e0bffe15 	stw	r2,-8(fp)
    
    if (next->name[len-1] == '/')
 40236a0:	e0bffd17 	ldw	r2,-12(fp)
 40236a4:	10c00217 	ldw	r3,8(r2)
 40236a8:	e0bffe17 	ldw	r2,-8(fp)
 40236ac:	10bfffc4 	addi	r2,r2,-1
 40236b0:	1885883a 	add	r2,r3,r2
 40236b4:	10800003 	ldbu	r2,0(r2)
 40236b8:	10803fcc 	andi	r2,r2,255
 40236bc:	1080201c 	xori	r2,r2,128
 40236c0:	10bfe004 	addi	r2,r2,-128
 40236c4:	10800bd8 	cmpnei	r2,r2,47
 40236c8:	1000031e 	bne	r2,zero,40236d8 <alt_find_file+0x6c>
    {
      len -= 1;
 40236cc:	e0bffe17 	ldw	r2,-8(fp)
 40236d0:	10bfffc4 	addi	r2,r2,-1
 40236d4:	e0bffe15 	stw	r2,-8(fp)
    }

    if (((name[len] == '/') || (name[len] == '\0')) && 
 40236d8:	e0bffe17 	ldw	r2,-8(fp)
 40236dc:	e0ffff17 	ldw	r3,-4(fp)
 40236e0:	1885883a 	add	r2,r3,r2
 40236e4:	10800003 	ldbu	r2,0(r2)
 40236e8:	10803fcc 	andi	r2,r2,255
 40236ec:	1080201c 	xori	r2,r2,128
 40236f0:	10bfe004 	addi	r2,r2,-128
 40236f4:	10800be0 	cmpeqi	r2,r2,47
 40236f8:	1000081e 	bne	r2,zero,402371c <alt_find_file+0xb0>
 40236fc:	e0bffe17 	ldw	r2,-8(fp)
 4023700:	e0ffff17 	ldw	r3,-4(fp)
 4023704:	1885883a 	add	r2,r3,r2
 4023708:	10800003 	ldbu	r2,0(r2)
 402370c:	10803fcc 	andi	r2,r2,255
 4023710:	1080201c 	xori	r2,r2,128
 4023714:	10bfe004 	addi	r2,r2,-128
 4023718:	10000a1e 	bne	r2,zero,4023744 <alt_find_file+0xd8>
        !memcmp (next->name, name, len))
 402371c:	e0bffd17 	ldw	r2,-12(fp)
 4023720:	10800217 	ldw	r2,8(r2)
 4023724:	e0fffe17 	ldw	r3,-8(fp)
 4023728:	180d883a 	mov	r6,r3
 402372c:	e17fff17 	ldw	r5,-4(fp)
 4023730:	1009883a 	mov	r4,r2
 4023734:	40239900 	call	4023990 <memcmp>
    if (next->name[len-1] == '/')
    {
      len -= 1;
    }

    if (((name[len] == '/') || (name[len] == '\0')) && 
 4023738:	1000021e 	bne	r2,zero,4023744 <alt_find_file+0xd8>
        !memcmp (next->name, name, len))
    {
      /* match found */

      return next;
 402373c:	e0bffd17 	ldw	r2,-12(fp)
 4023740:	00000706 	br	4023760 <alt_find_file+0xf4>
    }
    next = (alt_dev*) next->llist.next;
 4023744:	e0bffd17 	ldw	r2,-12(fp)
 4023748:	10800017 	ldw	r2,0(r2)
 402374c:	e0bffd15 	stw	r2,-12(fp)
  /*
   * Check each list entry in turn, until a match is found, or we reach the
   * end of the list (i.e. next winds up pointing back to the list head).
   */ 
 
  while (next != (alt_dev*) &alt_fs_list)
 4023750:	e0fffd17 	ldw	r3,-12(fp)
 4023754:	d0a00204 	addi	r2,gp,-32760
 4023758:	18bfcc1e 	bne	r3,r2,402368c <__alt_data_end+0xfffe368c>
    next = (alt_dev*) next->llist.next;
  }
  
  /* No match found */
  
  return NULL;     
 402375c:	0005883a 	mov	r2,zero
}
 4023760:	e037883a 	mov	sp,fp
 4023764:	dfc00117 	ldw	ra,4(sp)
 4023768:	df000017 	ldw	fp,0(sp)
 402376c:	dec00204 	addi	sp,sp,8
 4023770:	f800283a 	ret

04023774 <alt_get_fd>:
 * the offset of the file descriptor within the file descriptor array). A
 * negative value indicates failure.
 */

int alt_get_fd (alt_dev* dev)
{
 4023774:	defffc04 	addi	sp,sp,-16
 4023778:	df000315 	stw	fp,12(sp)
 402377c:	df000304 	addi	fp,sp,12
 4023780:	e13fff15 	stw	r4,-4(fp)
  alt_32 i;
  int rc = -EMFILE;
 4023784:	00bffa04 	movi	r2,-24
 4023788:	e0bffe15 	stw	r2,-8(fp)
   * indicates the highest file descriptor ever allocated. This is used to
   * improve efficency when searching the file descriptor list, and 
   * therefore reduce contention on the alt_fd_list_lock semaphore. 
   */

  for (i = 0; i < ALT_MAX_FD; i++)
 402378c:	e03ffd15 	stw	zero,-12(fp)
 4023790:	00001906 	br	40237f8 <alt_get_fd+0x84>
  {
    if (!alt_fd_list[i].dev)
 4023794:	008100f4 	movhi	r2,1027
 4023798:	1089be04 	addi	r2,r2,9976
 402379c:	e0fffd17 	ldw	r3,-12(fp)
 40237a0:	18c00324 	muli	r3,r3,12
 40237a4:	10c5883a 	add	r2,r2,r3
 40237a8:	10800017 	ldw	r2,0(r2)
 40237ac:	10000f1e 	bne	r2,zero,40237ec <alt_get_fd+0x78>
    {
      alt_fd_list[i].dev = dev;
 40237b0:	008100f4 	movhi	r2,1027
 40237b4:	1089be04 	addi	r2,r2,9976
 40237b8:	e0fffd17 	ldw	r3,-12(fp)
 40237bc:	18c00324 	muli	r3,r3,12
 40237c0:	10c5883a 	add	r2,r2,r3
 40237c4:	e0ffff17 	ldw	r3,-4(fp)
 40237c8:	10c00015 	stw	r3,0(r2)
      if (i > alt_max_fd)
 40237cc:	d0e00617 	ldw	r3,-32744(gp)
 40237d0:	e0bffd17 	ldw	r2,-12(fp)
 40237d4:	1880020e 	bge	r3,r2,40237e0 <alt_get_fd+0x6c>
      {
        alt_max_fd = i;
 40237d8:	e0bffd17 	ldw	r2,-12(fp)
 40237dc:	d0a00615 	stw	r2,-32744(gp)
      }
      rc = i;
 40237e0:	e0bffd17 	ldw	r2,-12(fp)
 40237e4:	e0bffe15 	stw	r2,-8(fp)
      goto alt_get_fd_exit;
 40237e8:	00000606 	br	4023804 <alt_get_fd+0x90>
   * indicates the highest file descriptor ever allocated. This is used to
   * improve efficency when searching the file descriptor list, and 
   * therefore reduce contention on the alt_fd_list_lock semaphore. 
   */

  for (i = 0; i < ALT_MAX_FD; i++)
 40237ec:	e0bffd17 	ldw	r2,-12(fp)
 40237f0:	10800044 	addi	r2,r2,1
 40237f4:	e0bffd15 	stw	r2,-12(fp)
 40237f8:	e0bffd17 	ldw	r2,-12(fp)
 40237fc:	10800810 	cmplti	r2,r2,32
 4023800:	103fe41e 	bne	r2,zero,4023794 <__alt_data_end+0xfffe3794>
   * file descriptor pool.
   */

  ALT_SEM_POST(alt_fd_list_lock);

  return rc;
 4023804:	e0bffe17 	ldw	r2,-8(fp)
}
 4023808:	e037883a 	mov	sp,fp
 402380c:	df000017 	ldw	fp,0(sp)
 4023810:	dec00104 	addi	sp,sp,4
 4023814:	f800283a 	ret

04023818 <alt_icache_flush>:
 * alt_icache_flush() is called to flush the instruction cache for a memory
 * region of length "len" bytes, starting at address "start".
 */

void alt_icache_flush (void* start, alt_u32 len)
{
 4023818:	defffb04 	addi	sp,sp,-20
 402381c:	df000415 	stw	fp,16(sp)
 4023820:	df000404 	addi	fp,sp,16
 4023824:	e13ffe15 	stw	r4,-8(fp)
 4023828:	e17fff15 	stw	r5,-4(fp)

  /*
   * This is the most we would ever need to flush.
   */
 
  if (len > NIOS2_ICACHE_SIZE)
 402382c:	e0bfff17 	ldw	r2,-4(fp)
 4023830:	10840070 	cmpltui	r2,r2,4097
 4023834:	1000021e 	bne	r2,zero,4023840 <alt_icache_flush+0x28>
  {
    len = NIOS2_ICACHE_SIZE;
 4023838:	00840004 	movi	r2,4096
 402383c:	e0bfff15 	stw	r2,-4(fp)
  }

  end = ((char*) start) + len;
 4023840:	e0fffe17 	ldw	r3,-8(fp)
 4023844:	e0bfff17 	ldw	r2,-4(fp)
 4023848:	1885883a 	add	r2,r3,r2
 402384c:	e0bffd15 	stw	r2,-12(fp)

  for (i = start; i < end; i+= NIOS2_ICACHE_LINE_SIZE)
 4023850:	e0bffe17 	ldw	r2,-8(fp)
 4023854:	e0bffc15 	stw	r2,-16(fp)
 4023858:	00000506 	br	4023870 <alt_icache_flush+0x58>
  { 
    __asm__ volatile ("flushi %0" :: "r" (i)); 
 402385c:	e0bffc17 	ldw	r2,-16(fp)
 4023860:	1000603a 	flushi	r2
    len = NIOS2_ICACHE_SIZE;
  }

  end = ((char*) start) + len;

  for (i = start; i < end; i+= NIOS2_ICACHE_LINE_SIZE)
 4023864:	e0bffc17 	ldw	r2,-16(fp)
 4023868:	10800804 	addi	r2,r2,32
 402386c:	e0bffc15 	stw	r2,-16(fp)
 4023870:	e0fffc17 	ldw	r3,-16(fp)
 4023874:	e0bffd17 	ldw	r2,-12(fp)
 4023878:	18bff836 	bltu	r3,r2,402385c <__alt_data_end+0xfffe385c>
   * For an unaligned flush request, we've got one more line left.
   * Note that this is dependent on NIOS2_ICACHE_LINE_SIZE to be a 
   * multiple of 2 (which it always is).
   */

  if (((alt_u32) start) & (NIOS2_ICACHE_LINE_SIZE - 1))
 402387c:	e0bffe17 	ldw	r2,-8(fp)
 4023880:	108007cc 	andi	r2,r2,31
 4023884:	10000226 	beq	r2,zero,4023890 <alt_icache_flush+0x78>
  {
    __asm__ volatile ("flushi %0" :: "r" (i));
 4023888:	e0bffc17 	ldw	r2,-16(fp)
 402388c:	1000603a 	flushi	r2
  /* 
   * Having flushed the cache, flush any stale instructions in the 
   * pipeline 
   */

  __asm__ volatile ("flushp");
 4023890:	0000203a 	flushp

#endif /* NIOS2_ICACHE_SIZE > 0 */
}
 4023894:	0001883a 	nop
 4023898:	e037883a 	mov	sp,fp
 402389c:	df000017 	ldw	fp,0(sp)
 40238a0:	dec00104 	addi	sp,sp,4
 40238a4:	f800283a 	ret

040238a8 <alt_exception_cause_generated_bad_addr>:
 * Return: 1: BADADDR (bad_addr argument to handler) is valid
 *         0: BADADDR is not valid
 */
int 
alt_exception_cause_generated_bad_addr(alt_exception_cause cause)
{
 40238a8:	defffe04 	addi	sp,sp,-8
 40238ac:	df000115 	stw	fp,4(sp)
 40238b0:	df000104 	addi	fp,sp,4
 40238b4:	e13fff15 	stw	r4,-4(fp)
  switch (cause) {
 40238b8:	e0bfff17 	ldw	r2,-4(fp)
 40238bc:	10bffe84 	addi	r2,r2,-6
 40238c0:	10c00428 	cmpgeui	r3,r2,16
 40238c4:	18001a1e 	bne	r3,zero,4023930 <alt_exception_cause_generated_bad_addr+0x88>
 40238c8:	100690ba 	slli	r3,r2,2
 40238cc:	008100b4 	movhi	r2,1026
 40238d0:	108e3804 	addi	r2,r2,14560
 40238d4:	1885883a 	add	r2,r3,r2
 40238d8:	10800017 	ldw	r2,0(r2)
 40238dc:	1000683a 	jmp	r2
 40238e0:	04023920 	cmpeqi	r16,zero,2276
 40238e4:	04023920 	cmpeqi	r16,zero,2276
 40238e8:	04023930 	cmpltui	r16,zero,2276
 40238ec:	04023930 	cmpltui	r16,zero,2276
 40238f0:	04023930 	cmpltui	r16,zero,2276
 40238f4:	04023920 	cmpeqi	r16,zero,2276
 40238f8:	04023928 	cmpgeui	r16,zero,2276
 40238fc:	04023930 	cmpltui	r16,zero,2276
 4023900:	04023920 	cmpeqi	r16,zero,2276
 4023904:	04023920 	cmpeqi	r16,zero,2276
 4023908:	04023930 	cmpltui	r16,zero,2276
 402390c:	04023920 	cmpeqi	r16,zero,2276
 4023910:	04023928 	cmpgeui	r16,zero,2276
 4023914:	04023930 	cmpltui	r16,zero,2276
 4023918:	04023930 	cmpltui	r16,zero,2276
 402391c:	04023920 	cmpeqi	r16,zero,2276
  case NIOS2_EXCEPTION_MISALIGNED_TARGET_PC:
  case NIOS2_EXCEPTION_TLB_READ_PERM_VIOLATION:
  case NIOS2_EXCEPTION_TLB_WRITE_PERM_VIOLATION:
  case NIOS2_EXCEPTION_MPU_DATA_REGION_VIOLATION:
  case NIOS2_EXCEPTION_ECC_DATA_ERR:
    return 1;
 4023920:	00800044 	movi	r2,1
 4023924:	00000306 	br	4023934 <alt_exception_cause_generated_bad_addr+0x8c>

  case NIOS2_EXCEPTION_TLB_MISS:
  case NIOS2_EXCEPTION_ECC_TLB_ERR:
    return 0;
 4023928:	0005883a 	mov	r2,zero
 402392c:	00000106 	br	4023934 <alt_exception_cause_generated_bad_addr+0x8c>

  default:
    return 0;
 4023930:	0005883a 	mov	r2,zero
  }
}
 4023934:	e037883a 	mov	sp,fp
 4023938:	df000017 	ldw	fp,0(sp)
 402393c:	dec00104 	addi	sp,sp,4
 4023940:	f800283a 	ret

04023944 <atexit>:
 4023944:	200b883a 	mov	r5,r4
 4023948:	000f883a 	mov	r7,zero
 402394c:	000d883a 	mov	r6,zero
 4023950:	0009883a 	mov	r4,zero
 4023954:	402633c1 	jmpi	402633c <__register_exitproc>

04023958 <exit>:
 4023958:	defffe04 	addi	sp,sp,-8
 402395c:	000b883a 	mov	r5,zero
 4023960:	dc000015 	stw	r16,0(sp)
 4023964:	dfc00115 	stw	ra,4(sp)
 4023968:	2021883a 	mov	r16,r4
 402396c:	40264540 	call	4026454 <__call_exitprocs>
 4023970:	008100f4 	movhi	r2,1027
 4023974:	108c5204 	addi	r2,r2,12616
 4023978:	11000017 	ldw	r4,0(r2)
 402397c:	20800f17 	ldw	r2,60(r4)
 4023980:	10000126 	beq	r2,zero,4023988 <exit+0x30>
 4023984:	103ee83a 	callr	r2
 4023988:	8009883a 	mov	r4,r16
 402398c:	40306c80 	call	40306c8 <_exit>

04023990 <memcmp>:
 4023990:	01c000c4 	movi	r7,3
 4023994:	3980192e 	bgeu	r7,r6,40239fc <memcmp+0x6c>
 4023998:	2144b03a 	or	r2,r4,r5
 402399c:	11c4703a 	and	r2,r2,r7
 40239a0:	10000f26 	beq	r2,zero,40239e0 <memcmp+0x50>
 40239a4:	20800003 	ldbu	r2,0(r4)
 40239a8:	28c00003 	ldbu	r3,0(r5)
 40239ac:	10c0151e 	bne	r2,r3,4023a04 <memcmp+0x74>
 40239b0:	31bfff84 	addi	r6,r6,-2
 40239b4:	01ffffc4 	movi	r7,-1
 40239b8:	00000406 	br	40239cc <memcmp+0x3c>
 40239bc:	20800003 	ldbu	r2,0(r4)
 40239c0:	28c00003 	ldbu	r3,0(r5)
 40239c4:	31bfffc4 	addi	r6,r6,-1
 40239c8:	10c00e1e 	bne	r2,r3,4023a04 <memcmp+0x74>
 40239cc:	21000044 	addi	r4,r4,1
 40239d0:	29400044 	addi	r5,r5,1
 40239d4:	31fff91e 	bne	r6,r7,40239bc <__alt_data_end+0xfffe39bc>
 40239d8:	0005883a 	mov	r2,zero
 40239dc:	f800283a 	ret
 40239e0:	20c00017 	ldw	r3,0(r4)
 40239e4:	28800017 	ldw	r2,0(r5)
 40239e8:	18bfee1e 	bne	r3,r2,40239a4 <__alt_data_end+0xfffe39a4>
 40239ec:	31bfff04 	addi	r6,r6,-4
 40239f0:	21000104 	addi	r4,r4,4
 40239f4:	29400104 	addi	r5,r5,4
 40239f8:	39bff936 	bltu	r7,r6,40239e0 <__alt_data_end+0xfffe39e0>
 40239fc:	303fe91e 	bne	r6,zero,40239a4 <__alt_data_end+0xfffe39a4>
 4023a00:	003ff506 	br	40239d8 <__alt_data_end+0xfffe39d8>
 4023a04:	10c5c83a 	sub	r2,r2,r3
 4023a08:	f800283a 	ret

04023a0c <memcpy>:
 4023a0c:	defffd04 	addi	sp,sp,-12
 4023a10:	dfc00215 	stw	ra,8(sp)
 4023a14:	dc400115 	stw	r17,4(sp)
 4023a18:	dc000015 	stw	r16,0(sp)
 4023a1c:	00c003c4 	movi	r3,15
 4023a20:	2005883a 	mov	r2,r4
 4023a24:	1980452e 	bgeu	r3,r6,4023b3c <memcpy+0x130>
 4023a28:	2906b03a 	or	r3,r5,r4
 4023a2c:	18c000cc 	andi	r3,r3,3
 4023a30:	1800441e 	bne	r3,zero,4023b44 <memcpy+0x138>
 4023a34:	347ffc04 	addi	r17,r6,-16
 4023a38:	8822d13a 	srli	r17,r17,4
 4023a3c:	28c00104 	addi	r3,r5,4
 4023a40:	23400104 	addi	r13,r4,4
 4023a44:	8820913a 	slli	r16,r17,4
 4023a48:	2b000204 	addi	r12,r5,8
 4023a4c:	22c00204 	addi	r11,r4,8
 4023a50:	84000504 	addi	r16,r16,20
 4023a54:	2a800304 	addi	r10,r5,12
 4023a58:	22400304 	addi	r9,r4,12
 4023a5c:	2c21883a 	add	r16,r5,r16
 4023a60:	2811883a 	mov	r8,r5
 4023a64:	200f883a 	mov	r7,r4
 4023a68:	41000017 	ldw	r4,0(r8)
 4023a6c:	1fc00017 	ldw	ra,0(r3)
 4023a70:	63c00017 	ldw	r15,0(r12)
 4023a74:	39000015 	stw	r4,0(r7)
 4023a78:	53800017 	ldw	r14,0(r10)
 4023a7c:	6fc00015 	stw	ra,0(r13)
 4023a80:	5bc00015 	stw	r15,0(r11)
 4023a84:	4b800015 	stw	r14,0(r9)
 4023a88:	18c00404 	addi	r3,r3,16
 4023a8c:	39c00404 	addi	r7,r7,16
 4023a90:	42000404 	addi	r8,r8,16
 4023a94:	6b400404 	addi	r13,r13,16
 4023a98:	63000404 	addi	r12,r12,16
 4023a9c:	5ac00404 	addi	r11,r11,16
 4023aa0:	52800404 	addi	r10,r10,16
 4023aa4:	4a400404 	addi	r9,r9,16
 4023aa8:	1c3fef1e 	bne	r3,r16,4023a68 <__alt_data_end+0xfffe3a68>
 4023aac:	89c00044 	addi	r7,r17,1
 4023ab0:	380e913a 	slli	r7,r7,4
 4023ab4:	310003cc 	andi	r4,r6,15
 4023ab8:	02c000c4 	movi	r11,3
 4023abc:	11c7883a 	add	r3,r2,r7
 4023ac0:	29cb883a 	add	r5,r5,r7
 4023ac4:	5900212e 	bgeu	r11,r4,4023b4c <memcpy+0x140>
 4023ac8:	1813883a 	mov	r9,r3
 4023acc:	2811883a 	mov	r8,r5
 4023ad0:	200f883a 	mov	r7,r4
 4023ad4:	42800017 	ldw	r10,0(r8)
 4023ad8:	4a400104 	addi	r9,r9,4
 4023adc:	39ffff04 	addi	r7,r7,-4
 4023ae0:	4abfff15 	stw	r10,-4(r9)
 4023ae4:	42000104 	addi	r8,r8,4
 4023ae8:	59fffa36 	bltu	r11,r7,4023ad4 <__alt_data_end+0xfffe3ad4>
 4023aec:	213fff04 	addi	r4,r4,-4
 4023af0:	2008d0ba 	srli	r4,r4,2
 4023af4:	318000cc 	andi	r6,r6,3
 4023af8:	21000044 	addi	r4,r4,1
 4023afc:	2109883a 	add	r4,r4,r4
 4023b00:	2109883a 	add	r4,r4,r4
 4023b04:	1907883a 	add	r3,r3,r4
 4023b08:	290b883a 	add	r5,r5,r4
 4023b0c:	30000626 	beq	r6,zero,4023b28 <memcpy+0x11c>
 4023b10:	198d883a 	add	r6,r3,r6
 4023b14:	29c00003 	ldbu	r7,0(r5)
 4023b18:	18c00044 	addi	r3,r3,1
 4023b1c:	29400044 	addi	r5,r5,1
 4023b20:	19ffffc5 	stb	r7,-1(r3)
 4023b24:	19bffb1e 	bne	r3,r6,4023b14 <__alt_data_end+0xfffe3b14>
 4023b28:	dfc00217 	ldw	ra,8(sp)
 4023b2c:	dc400117 	ldw	r17,4(sp)
 4023b30:	dc000017 	ldw	r16,0(sp)
 4023b34:	dec00304 	addi	sp,sp,12
 4023b38:	f800283a 	ret
 4023b3c:	2007883a 	mov	r3,r4
 4023b40:	003ff206 	br	4023b0c <__alt_data_end+0xfffe3b0c>
 4023b44:	2007883a 	mov	r3,r4
 4023b48:	003ff106 	br	4023b10 <__alt_data_end+0xfffe3b10>
 4023b4c:	200d883a 	mov	r6,r4
 4023b50:	003fee06 	br	4023b0c <__alt_data_end+0xfffe3b0c>

04023b54 <_printf_r>:
 4023b54:	defffd04 	addi	sp,sp,-12
 4023b58:	2805883a 	mov	r2,r5
 4023b5c:	dfc00015 	stw	ra,0(sp)
 4023b60:	d9800115 	stw	r6,4(sp)
 4023b64:	d9c00215 	stw	r7,8(sp)
 4023b68:	21400217 	ldw	r5,8(r4)
 4023b6c:	d9c00104 	addi	r7,sp,4
 4023b70:	100d883a 	mov	r6,r2
 4023b74:	4023dc00 	call	4023dc0 <___vfprintf_internal_r>
 4023b78:	dfc00017 	ldw	ra,0(sp)
 4023b7c:	dec00304 	addi	sp,sp,12
 4023b80:	f800283a 	ret

04023b84 <printf>:
 4023b84:	defffc04 	addi	sp,sp,-16
